
========================================================================

** ELF Header Information

    File Name: .\Objects\m0.axf

    Machine class: ELFCLASS32 (32-bit)
    Data encoding: ELFDATA2LSB (Little endian)
    Header version: EV_CURRENT (Current version)
    Operating System ABI: none
    ABI Version: 0
    File Type: ET_EXEC (Executable) (2)
    Machine: EM_ARM (ARM)

    Image Entry point: 0x00000069
    Flags: EF_ARM_HASENTRY + EF_ARM_ABI_FLOAT_SOFT (0x05000202)

    ARM ELF revision: 5 (ABI version 2)

    Conforms to Soft float procedure-call standard

    Built with
    Component: ARM Compiler 5.06 update 6 (build 750) Tool: armasm [4d35ec]
    Component: ARM Compiler 5.06 update 6 (build 750) Tool: armlink [4d35ed]

    Header size: 52 bytes (0x34)
    Program header entry size: 32 bytes (0x20)
    Section header entry size: 40 bytes (0x28)

    Program header entries: 1
    Section header entries: 16

    Program header offset: 160968 (0x000274c8)
    Section header offset: 161000 (0x000274e8)

    Section header string table index: 15

========================================================================

** Program header #0

    Type          : PT_LOAD (1)
    File Offset   : 52 (0x34)
    Virtual Addr  : 0x00000000
    Physical Addr : 0x00000000
    Size in file  : 27028 bytes (0x6994)
    Size in memory: 34436 bytes (0x8684)
    Flags         : PF_X + PF_W + PF_R + PF_ARM_ENTRY (0x80000007)
    Alignment     : 8


========================================================================

** Section #1

    Name        : ER_IROM1
    Type        : SHT_PROGBITS (0x00000001)
    Flags       : SHF_ALLOC + SHF_EXECINSTR (0x00000006)
    Addr        : 0x00000000
    File Offset : 52 (0x34)
    Size        : 23460 bytes (0x5ba4)
    Link        : SHN_UNDEF
    Info        : 0
    Alignment   : 4
    Entry Size  : 0

    $d.realdata
    RESET
    __Vectors
        0x00000000:    20002ae0    .*.     DCD    536881888
        0x00000004:    0000007d    }...    DCD    125
        0x00000008:    00000089    ....    DCD    137
        0x0000000c:    00000091    ....    DCD    145
        0x00000010:    00000099    ....    DCD    153
        0x00000014:    000000a1    ....    DCD    161
        0x00000018:    000000a9    ....    DCD    169
        0x0000001c:    00000000    ....    DCD    0
        0x00000020:    00000000    ....    DCD    0
        0x00000024:    00000000    ....    DCD    0
        0x00000028:    00000000    ....    DCD    0
        0x0000002c:    000000b1    ....    DCD    177
        0x00000030:    000000b9    ....    DCD    185
        0x00000034:    00000000    ....    DCD    0
        0x00000038:    000000c1    ....    DCD    193
        0x0000003c:    000000c9    ....    DCD    201
        0x00000040:    000000d9    ....    DCD    217
        0x00000044:    000000d1    ....    DCD    209
        0x00000048:    000000e1    ....    DCD    225
        0x0000004c:    000000e9    ....    DCD    233
        0x00000050:    000000f1    ....    DCD    241
        0x00000054:    000000f9    ....    DCD    249
        0x00000058:    00000101    ....    DCD    257
        0x0000005c:    00000109    ....    DCD    265
        0x00000060:    00000111    ....    DCD    273
        0x00000064:    00000119    ....    DCD    281
    $t
    .ARM.Collect$$$$00000000
    .ARM.Collect$$$$00000001
    __Vectors_End
    __main
    _main_stk
        0x00000068:    4803        .H      LDR      r0,__lit__00000000 ; [0x78] = 0x20002ae0
        0x0000006a:    4685        .F      MOV      sp,r0
    .ARM.Collect$$$$00000004
    _main_scatterload
        0x0000006c:    f000f9de    ....    BL       __scatterload ; 0x42c
    .ARM.Collect$$$$00000008
    .ARM.Collect$$$$0000000A
    .ARM.Collect$$$$0000000B
    __main_after_scatterload
    _main_clock
    _main_cpp_init
    _main_init
        0x00000070:    4800        .H      LDR      r0,[pc,#0] ; [0x74] = 0x219d
        0x00000072:    4700        .G      BX       r0
    $d
        0x00000074:    0000219d    .!..    DCD    8605
    .ARM.Collect$$$$00002712
    __lit__00000000
    .ARM.Collect$$$$0000000D
    .ARM.Collect$$$$0000000F
    __rt_final_cpp
    __rt_final_exit
        0x00000078:    20002ae0    .*.     DCD    536881888
    $t
    .text
    Reset_Handler
        0x0000007c:    4828        (H      LDR      r0,[pc,#160] ; [0x120] = 0xaa1
        0x0000007e:    4680        .F      MOV      r8,r0
        0x00000080:    46c1        .F      MOV      r9,r8
        0x00000082:    4780        .G      BLX      r0
        0x00000084:    4827        'H      LDR      r0,[pc,#156] ; [0x124] = 0x69
        0x00000086:    4700        .G      BX       r0
    NMI_Handler
        0x00000088:    b500        ..      PUSH     {lr}
        0x0000008a:    f000fb5c    ..\.    BL       NMIHandler ; 0x746
        0x0000008e:    bd00        ..      POP      {pc}
    HardFault_Handler
        0x00000090:    b500        ..      PUSH     {lr}
        0x00000092:    f000fa0f    ....    BL       HardFaultHandler ; 0x4b4
        0x00000096:    bd00        ..      POP      {pc}
    MemManage_Handler
        0x00000098:    b500        ..      PUSH     {lr}
        0x0000009a:    f000fb53    ..S.    BL       MemManageHandler ; 0x744
        0x0000009e:    bd00        ..      POP      {pc}
    BusFault_Handler
        0x000000a0:    b500        ..      PUSH     {lr}
        0x000000a2:    f000fa05    ....    BL       BusFaultHandler ; 0x4b0
        0x000000a6:    bd00        ..      POP      {pc}
    UsageFault_Handler
        0x000000a8:    b500        ..      PUSH     {lr}
        0x000000aa:    f000fd3f    ..?.    BL       UsageFaultHandler ; 0xb2c
        0x000000ae:    bd00        ..      POP      {pc}
    SVC_Handler
        0x000000b0:    b500        ..      PUSH     {lr}
        0x000000b2:    f000fcd3    ....    BL       SVCHandler ; 0xa5c
        0x000000b6:    bd00        ..      POP      {pc}
    DebugMon_Handler
        0x000000b8:    b500        ..      PUSH     {lr}
        0x000000ba:    f000f9fa    ....    BL       DebugMonHandler ; 0x4b2
        0x000000be:    bd00        ..      POP      {pc}
    PendSV_Handler
        0x000000c0:    b500        ..      PUSH     {lr}
        0x000000c2:    f000fc1f    ....    BL       PendSVHandler ; 0x904
        0x000000c6:    bd00        ..      POP      {pc}
    SysTick_Handler
        0x000000c8:    b500        ..      PUSH     {lr}
        0x000000ca:    f000fcdb    ....    BL       SysTickHandler ; 0xa84
        0x000000ce:    bd00        ..      POP      {pc}
    UARTRX_Handler
        0x000000d0:    b500        ..      PUSH     {lr}
        0x000000d2:    f000fcf5    ....    BL       UARTRXHandler ; 0xac0
        0x000000d6:    bd00        ..      POP      {pc}
    UARTTX_Handler
        0x000000d8:    b500        ..      PUSH     {lr}
        0x000000da:    f000fd09    ....    BL       UARTTXHandler ; 0xaf0
        0x000000de:    bd00        ..      POP      {pc}
    UARTOVR_Handler
        0x000000e0:    b500        ..      PUSH     {lr}
        0x000000e2:    f000fcec    ....    BL       UARTOVRHandler ; 0xabe
        0x000000e6:    bd00        ..      POP      {pc}
    KEY0_Handler
        0x000000e8:    b507        ..      PUSH     {r0-r2,lr}
        0x000000ea:    f000f9eb    ....    BL       KEY0 ; 0x4c4
        0x000000ee:    bd07        ..      POP      {r0-r2,pc}
    KEY1_Handler
        0x000000f0:    b507        ..      PUSH     {r0-r2,lr}
        0x000000f2:    f000f9ec    ....    BL       KEY1 ; 0x4ce
        0x000000f6:    bd07        ..      POP      {r0-r2,pc}
    KEY2_Handler
        0x000000f8:    b507        ..      PUSH     {r0-r2,lr}
        0x000000fa:    f000f9ed    ....    BL       KEY2 ; 0x4d8
        0x000000fe:    bd07        ..      POP      {r0-r2,pc}
    KEY3_Handler
        0x00000100:    b507        ..      PUSH     {r0-r2,lr}
        0x00000102:    f000f9ee    ....    BL       KEY3 ; 0x4e2
        0x00000106:    bd07        ..      POP      {r0-r2,pc}
    TIMER_Handler
        0x00000108:    b507        ..      PUSH     {r0-r2,lr}
        0x0000010a:    f000fcd7    ....    BL       Timer_Handler ; 0xabc
        0x0000010e:    bd07        ..      POP      {r0-r2,pc}
    VGA_Handler
        0x00000110:    b507        ..      PUSH     {r0-r2,lr}
        0x00000112:    f005f9ad    ....    BL       vga_Handler ; 0x5470
        0x00000116:    bd07        ..      POP      {r0-r2,pc}
    CREATE_PLANE_Handler
        0x00000118:    b507        ..      PUSH     {r0-r2,lr}
        0x0000011a:    f001f8cb    ....    BL       create_plane_Handler ; 0x12b4
        0x0000011e:    bd07        ..      POP      {r0-r2,pc}
    $d
        0x00000120:    00000aa1    ....    DCD    2721
        0x00000124:    00000069    i...    DCD    105
    $t
    .text
    __aeabi_uidiv
    __aeabi_uidivmod
        0x00000128:    b530        0.      PUSH     {r4,r5,lr}
        0x0000012a:    460b        .F      MOV      r3,r1
        0x0000012c:    4601        .F      MOV      r1,r0
        0x0000012e:    2000        .       MOVS     r0,#0
        0x00000130:    2220         "      MOVS     r2,#0x20
        0x00000132:    2401        .$      MOVS     r4,#1
        0x00000134:    e009        ..      B        0x14a ; __aeabi_uidiv + 34
        0x00000136:    460d        .F      MOV      r5,r1
        0x00000138:    40d5        .@      LSRS     r5,r5,r2
        0x0000013a:    429d        .B      CMP      r5,r3
        0x0000013c:    d305        ..      BCC      0x14a ; __aeabi_uidiv + 34
        0x0000013e:    461d        .F      MOV      r5,r3
        0x00000140:    4095        .@      LSLS     r5,r5,r2
        0x00000142:    1b49        I.      SUBS     r1,r1,r5
        0x00000144:    4625        %F      MOV      r5,r4
        0x00000146:    4095        .@      LSLS     r5,r5,r2
        0x00000148:    1940        @.      ADDS     r0,r0,r5
        0x0000014a:    4615        .F      MOV      r5,r2
        0x0000014c:    1e52        R.      SUBS     r2,r2,#1
        0x0000014e:    2d00        .-      CMP      r5,#0
        0x00000150:    dcf1        ..      BGT      0x136 ; __aeabi_uidiv + 14
        0x00000152:    bd30        0.      POP      {r4,r5,pc}
    .text
    __aeabi_idiv
    __aeabi_idivmod
        0x00000154:    b570        p.      PUSH     {r4-r6,lr}
        0x00000156:    2400        .$      MOVS     r4,#0
        0x00000158:    4625        %F      MOV      r5,r4
        0x0000015a:    2800        .(      CMP      r0,#0
        0x0000015c:    da01        ..      BGE      0x162 ; __aeabi_idiv + 14
        0x0000015e:    2401        .$      MOVS     r4,#1
        0x00000160:    4240        @B      RSBS     r0,r0,#0
        0x00000162:    2900        .)      CMP      r1,#0
        0x00000164:    da01        ..      BGE      0x16a ; __aeabi_idiv + 22
        0x00000166:    2501        .%      MOVS     r5,#1
        0x00000168:    4249        IB      RSBS     r1,r1,#0
        0x0000016a:    f7ffffdd    ....    BL       __aeabi_uidiv ; 0x128
        0x0000016e:    42ac        .B      CMP      r4,r5
        0x00000170:    d000        ..      BEQ      0x174 ; __aeabi_idiv + 32
        0x00000172:    4240        @B      RSBS     r0,r0,#0
        0x00000174:    2c00        .,      CMP      r4,#0
        0x00000176:    d000        ..      BEQ      0x17a ; __aeabi_idiv + 38
        0x00000178:    4249        IB      RSBS     r1,r1,#0
        0x0000017a:    bd70        p.      POP      {r4-r6,pc}
    .text
    rand
        0x0000017c:    4905        .I      LDR      r1,[pc,#20] ; [0x194] = 0x200022fc
        0x0000017e:    4a06        .J      LDR      r2,[pc,#24] ; [0x198] = 0x41c64e6d
        0x00000180:    6808        .h      LDR      r0,[r1,#0]
        0x00000182:    4350        PC      MULS     r0,r2,r0
        0x00000184:    4a05        .J      LDR      r2,[pc,#20] ; [0x19c] = 0x3039
        0x00000186:    1880        ..      ADDS     r0,r0,r2
        0x00000188:    6008        .`      STR      r0,[r1,#0]
        0x0000018a:    0840        @.      LSRS     r0,r0,#1
        0x0000018c:    4770        pG      BX       lr
    srand
        0x0000018e:    4901        .I      LDR      r1,[pc,#4] ; [0x194] = 0x200022fc
        0x00000190:    6008        .`      STR      r0,[r1,#0]
        0x00000192:    4770        pG      BX       lr
    $d
        0x00000194:    200022fc    .".     DCD    536879868
        0x00000198:    41c64e6d    mN.A    DCD    1103515245
        0x0000019c:    00003039    90..    DCD    12345
    $t
    .text
    __aeabi_fadd
        0x000001a0:    b5f8        ..      PUSH     {r3-r7,lr}
        0x000001a2:    4602        .F      MOV      r2,r0
        0x000001a4:    404a        J@      EORS     r2,r2,r1
        0x000001a6:    0fd4        ..      LSRS     r4,r2,#31
        0x000001a8:    0042        B.      LSLS     r2,r0,#1
        0x000001aa:    004b        K.      LSLS     r3,r1,#1
        0x000001ac:    0852        R.      LSRS     r2,r2,#1
        0x000001ae:    085b        [.      LSRS     r3,r3,#1
        0x000001b0:    429a        .B      CMP      r2,r3
        0x000001b2:    d202        ..      BCS      0x1ba ; __aeabi_fadd + 26
        0x000001b4:    4602        .F      MOV      r2,r0
        0x000001b6:    4608        .F      MOV      r0,r1
        0x000001b8:    4611        .F      MOV      r1,r2
        0x000001ba:    004a        J.      LSLS     r2,r1,#1
        0x000001bc:    d023        #.      BEQ      0x206 ; __aeabi_fadd + 102
        0x000001be:    0dc3        ..      LSRS     r3,r0,#23
        0x000001c0:    004a        J.      LSLS     r2,r1,#1
        0x000001c2:    b2dd        ..      UXTB     r5,r3
        0x000001c4:    0e12        ..      LSRS     r2,r2,#24
        0x000001c6:    1aad        ..      SUBS     r5,r5,r2
        0x000001c8:    2d20         -      CMP      r5,#0x20
        0x000001ca:    da35        5.      BGE      0x238 ; __aeabi_fadd + 152
        0x000001cc:    0249        I.      LSLS     r1,r1,#9
        0x000001ce:    2601        .&      MOVS     r6,#1
        0x000001d0:    0a49        I.      LSRS     r1,r1,#9
        0x000001d2:    05f6        ..      LSLS     r6,r6,#23
        0x000001d4:    198a        ..      ADDS     r2,r1,r6
        0x000001d6:    2c00        .,      CMP      r4,#0
        0x000001d8:    d000        ..      BEQ      0x1dc ; __aeabi_fadd + 60
        0x000001da:    4252        RB      RSBS     r2,r2,#0
        0x000001dc:    2120         !      MOVS     r1,#0x20
        0x000001de:    1b4f        O.      SUBS     r7,r1,r5
        0x000001e0:    4611        .F      MOV      r1,r2
        0x000001e2:    40b9        .@      LSLS     r1,r1,r7
        0x000001e4:    412a        *A      ASRS     r2,r2,r5
        0x000001e6:    1810        ..      ADDS     r0,r2,r0
        0x000001e8:    0dc2        ..      LSRS     r2,r0,#23
        0x000001ea:    429a        .B      CMP      r2,r3
        0x000001ec:    d021        !.      BEQ      0x232 ; __aeabi_fadd + 146
        0x000001ee:    2c00        .,      CMP      r4,#0
        0x000001f0:    d017        ..      BEQ      0x222 ; __aeabi_fadd + 130
        0x000001f2:    2d01        .-      CMP      r5,#1
        0x000001f4:    dc08        ..      BGT      0x208 ; __aeabi_fadd + 104
        0x000001f6:    05da        ..      LSLS     r2,r3,#23
        0x000001f8:    1a80        ..      SUBS     r0,r0,r2
        0x000001fa:    0fd2        ..      LSRS     r2,r2,#31
        0x000001fc:    1980        ..      ADDS     r0,r0,r6
        0x000001fe:    07d2        ..      LSLS     r2,r2,#31
        0x00000200:    b2db        ..      UXTB     r3,r3
        0x00000202:    f000f8d9    ....    BL       _float_epilogue ; 0x3b8
        0x00000206:    bdf8        ..      POP      {r3-r7,pc}
        0x00000208:    05da        ..      LSLS     r2,r3,#23
        0x0000020a:    1a80        ..      SUBS     r0,r0,r2
        0x0000020c:    2301        .#      MOVS     r3,#1
        0x0000020e:    0040        @.      LSLS     r0,r0,#1
        0x00000210:    061b        ..      LSLS     r3,r3,#24
        0x00000212:    18c0        ..      ADDS     r0,r0,r3
        0x00000214:    1880        ..      ADDS     r0,r0,r2
        0x00000216:    425a        ZB      RSBS     r2,r3,#0
        0x00000218:    1880        ..      ADDS     r0,r0,r2
        0x0000021a:    0fca        ..      LSRS     r2,r1,#31
        0x0000021c:    4310        .C      ORRS     r0,r0,r2
        0x0000021e:    0049        I.      LSLS     r1,r1,#1
        0x00000220:    e007        ..      B        0x232 ; __aeabi_fadd + 146
        0x00000222:    0849        I.      LSRS     r1,r1,#1
        0x00000224:    07c2        ..      LSLS     r2,r0,#31
        0x00000226:    4311        .C      ORRS     r1,r1,r2
        0x00000228:    05da        ..      LSLS     r2,r3,#23
        0x0000022a:    1a80        ..      SUBS     r0,r0,r2
        0x0000022c:    1980        ..      ADDS     r0,r0,r6
        0x0000022e:    0840        @.      LSRS     r0,r0,#1
        0x00000230:    1880        ..      ADDS     r0,r0,r2
        0x00000232:    f000f8b9    ....    BL       __I$use$fp ; 0x3a8
        0x00000236:    bdf8        ..      POP      {r3-r7,pc}
        0x00000238:    0061        a.      LSLS     r1,r4,#1
        0x0000023a:    2201        ."      MOVS     r2,#1
        0x0000023c:    1a51        Q.      SUBS     r1,r2,r1
        0x0000023e:    1b00        ..      SUBS     r0,r0,r4
        0x00000240:    e7f7        ..      B        0x232 ; __aeabi_fadd + 146
    __aeabi_fsub
        0x00000242:    2201        ."      MOVS     r2,#1
        0x00000244:    07d2        ..      LSLS     r2,r2,#31
        0x00000246:    4051        Q@      EORS     r1,r1,r2
        0x00000248:    e7aa        ..      B        __aeabi_fadd ; 0x1a0
    __aeabi_frsub
        0x0000024a:    2201        ."      MOVS     r2,#1
        0x0000024c:    07d2        ..      LSLS     r2,r2,#31
        0x0000024e:    4050        P@      EORS     r0,r0,r2
        0x00000250:    e7a6        ..      B        __aeabi_fadd ; 0x1a0
    .text
    __aeabi_fmul
        0x00000252:    4602        .F      MOV      r2,r0
        0x00000254:    b570        p.      PUSH     {r4-r6,lr}
        0x00000256:    404a        J@      EORS     r2,r2,r1
        0x00000258:    0fd3        ..      LSRS     r3,r2,#31
        0x0000025a:    07db        ..      LSLS     r3,r3,#31
        0x0000025c:    0040        @.      LSLS     r0,r0,#1
        0x0000025e:    d02d        -.      BEQ      0x2bc ; __aeabi_fmul + 106
        0x00000260:    004a        J.      LSLS     r2,r1,#1
        0x00000262:    d02a        *.      BEQ      0x2ba ; __aeabi_fmul + 104
        0x00000264:    0e01        ..      LSRS     r1,r0,#24
        0x00000266:    0e14        ..      LSRS     r4,r2,#24
        0x00000268:    0200        ..      LSLS     r0,r0,#8
        0x0000026a:    0212        ..      LSLS     r2,r2,#8
        0x0000026c:    1909        ..      ADDS     r1,r1,r4
        0x0000026e:    0a40        @.      LSRS     r0,r0,#9
        0x00000270:    0a52        R.      LSRS     r2,r2,#9
        0x00000272:    1884        ..      ADDS     r4,r0,r2
        0x00000274:    01e5        ..      LSLS     r5,r4,#7
        0x00000276:    4604        .F      MOV      r4,r0
        0x00000278:    4354        TC      MULS     r4,r2,r4
        0x0000027a:    0a00        ..      LSRS     r0,r0,#8
        0x0000027c:    0a12        ..      LSRS     r2,r2,#8
        0x0000027e:    042e        ..      LSLS     r6,r5,#16
        0x00000280:    4350        PC      MULS     r0,r2,r0
        0x00000282:    19a4        ..      ADDS     r4,r4,r6
        0x00000284:    1942        B.      ADDS     r2,r0,r5
        0x00000286:    0c20         .      LSRS     r0,r4,#16
        0x00000288:    43c5        .C      MVNS     r5,r0
        0x0000028a:    18aa        ..      ADDS     r2,r5,r2
        0x0000028c:    0c12        ..      LSRS     r2,r2,#16
        0x0000028e:    2501        .%      MOVS     r5,#1
        0x00000290:    03ad        ..      LSLS     r5,r5,#14
        0x00000292:    1c52        R.      ADDS     r2,r2,#1
        0x00000294:    1952        R.      ADDS     r2,r2,r5
        0x00000296:    0412        ..      LSLS     r2,r2,#16
        0x00000298:    397f        .9      SUBS     r1,r1,#0x7f
        0x0000029a:    0424        $.      LSLS     r4,r4,#16
        0x0000029c:    d000        ..      BEQ      0x2a0 ; __aeabi_fmul + 78
        0x0000029e:    1c52        R.      ADDS     r2,r2,#1
        0x000002a0:    4310        .C      ORRS     r0,r0,r2
        0x000002a2:    d401        ..      BMI      0x2a8 ; __aeabi_fmul + 86
        0x000002a4:    0040        @.      LSLS     r0,r0,#1
        0x000002a6:    1e49        I.      SUBS     r1,r1,#1
        0x000002a8:    b2c2        ..      UXTB     r2,r0
        0x000002aa:    060c        ..      LSLS     r4,r1,#24
        0x000002ac:    09c0        ..      LSRS     r0,r0,#7
        0x000002ae:    1820         .      ADDS     r0,r4,r0
        0x000002b0:    1c40        @.      ADDS     r0,r0,#1
        0x000002b2:    0840        @.      LSRS     r0,r0,#1
        0x000002b4:    2a80        .*      CMP      r2,#0x80
        0x000002b6:    d002        ..      BEQ      0x2be ; __aeabi_fmul + 108
        0x000002b8:    e003        ..      B        0x2c2 ; __aeabi_fmul + 112
        0x000002ba:    2000        .       MOVS     r0,#0
        0x000002bc:    bd70        p.      POP      {r4-r6,pc}
        0x000002be:    0840        @.      LSRS     r0,r0,#1
        0x000002c0:    0040        @.      LSLS     r0,r0,#1
        0x000002c2:    2900        .)      CMP      r1,#0
        0x000002c4:    da00        ..      BGE      0x2c8 ; __aeabi_fmul + 118
        0x000002c6:    2000        .       MOVS     r0,#0
        0x000002c8:    4318        .C      ORRS     r0,r0,r3
        0x000002ca:    bd70        p.      POP      {r4-r6,pc}
    .text
    __aeabi_fdiv
        0x000002cc:    b570        p.      PUSH     {r4-r6,lr}
        0x000002ce:    4602        .F      MOV      r2,r0
        0x000002d0:    404a        J@      EORS     r2,r2,r1
        0x000002d2:    0fd5        ..      LSRS     r5,r2,#31
        0x000002d4:    0040        @.      LSLS     r0,r0,#1
        0x000002d6:    004a        J.      LSLS     r2,r1,#1
        0x000002d8:    07ed        ..      LSLS     r5,r5,#31
        0x000002da:    0840        @.      LSRS     r0,r0,#1
        0x000002dc:    0852        R.      LSRS     r2,r2,#1
        0x000002de:    2800        .(      CMP      r0,#0
        0x000002e0:    d014        ..      BEQ      0x30c ; __aeabi_fdiv + 64
        0x000002e2:    2a00        .*      CMP      r2,#0
        0x000002e4:    d012        ..      BEQ      0x30c ; __aeabi_fdiv + 64
        0x000002e6:    0dc4        ..      LSRS     r4,r0,#23
        0x000002e8:    0dd3        ..      LSRS     r3,r2,#23
        0x000002ea:    0241        A.      LSLS     r1,r0,#9
        0x000002ec:    2001        .       MOVS     r0,#1
        0x000002ee:    05c0        ..      LSLS     r0,r0,#23
        0x000002f0:    0252        R.      LSLS     r2,r2,#9
        0x000002f2:    0a49        I.      LSRS     r1,r1,#9
        0x000002f4:    0a52        R.      LSRS     r2,r2,#9
        0x000002f6:    1ae4        ..      SUBS     r4,r4,r3
        0x000002f8:    1809        ..      ADDS     r1,r1,r0
        0x000002fa:    1812        ..      ADDS     r2,r2,r0
        0x000002fc:    347d        }4      ADDS     r4,r4,#0x7d
        0x000002fe:    4291        .B      CMP      r1,r2
        0x00000300:    d301        ..      BCC      0x306 ; __aeabi_fdiv + 58
        0x00000302:    1c64        d.      ADDS     r4,r4,#1
        0x00000304:    e000        ..      B        0x308 ; __aeabi_fdiv + 60
        0x00000306:    0049        I.      LSLS     r1,r1,#1
        0x00000308:    2c00        .,      CMP      r4,#0
        0x0000030a:    da01        ..      BGE      0x310 ; __aeabi_fdiv + 68
        0x0000030c:    2000        .       MOVS     r0,#0
        0x0000030e:    bd70        p.      POP      {r4-r6,pc}
        0x00000310:    2300        .#      MOVS     r3,#0
        0x00000312:    4291        .B      CMP      r1,r2
        0x00000314:    d301        ..      BCC      0x31a ; __aeabi_fdiv + 78
        0x00000316:    1a89        ..      SUBS     r1,r1,r2
        0x00000318:    4303        .C      ORRS     r3,r3,r0
        0x0000031a:    0840        @.      LSRS     r0,r0,#1
        0x0000031c:    0049        I.      LSLS     r1,r1,#1
        0x0000031e:    2800        .(      CMP      r0,#0
        0x00000320:    d1f7        ..      BNE      0x312 ; __aeabi_fdiv + 70
        0x00000322:    2900        .)      CMP      r1,#0
        0x00000324:    d00a        ..      BEQ      0x33c ; __aeabi_fdiv + 112
        0x00000326:    4291        .B      CMP      r1,r2
        0x00000328:    d102        ..      BNE      0x330 ; __aeabi_fdiv + 100
        0x0000032a:    2101        .!      MOVS     r1,#1
        0x0000032c:    07c9        ..      LSLS     r1,r1,#31
        0x0000032e:    e005        ..      B        0x33c ; __aeabi_fdiv + 112
        0x00000330:    4291        .B      CMP      r1,r2
        0x00000332:    d201        ..      BCS      0x338 ; __aeabi_fdiv + 108
        0x00000334:    2101        .!      MOVS     r1,#1
        0x00000336:    e001        ..      B        0x33c ; __aeabi_fdiv + 112
        0x00000338:    2101        .!      MOVS     r1,#1
        0x0000033a:    43c9        .C      MVNS     r1,r1
        0x0000033c:    05e0        ..      LSLS     r0,r4,#23
        0x0000033e:    18c0        ..      ADDS     r0,r0,r3
        0x00000340:    1940        @.      ADDS     r0,r0,r5
        0x00000342:    f000f831    ..1.    BL       __I$use$fp ; 0x3a8
        0x00000346:    bd70        p.      POP      {r4-r6,pc}
    .text
    __aeabi_i2f
        0x00000348:    17c2        ..      ASRS     r2,r0,#31
        0x0000034a:    0fc1        ..      LSRS     r1,r0,#31
        0x0000034c:    4050        P@      EORS     r0,r0,r2
        0x0000034e:    b510        ..      PUSH     {r4,lr}
        0x00000350:    1840        @.      ADDS     r0,r0,r1
        0x00000352:    07ca        ..      LSLS     r2,r1,#31
        0x00000354:    2396        .#      MOVS     r3,#0x96
        0x00000356:    2100        .!      MOVS     r1,#0
        0x00000358:    f000f82e    ....    BL       _float_epilogue ; 0x3b8
        0x0000035c:    bd10        ..      POP      {r4,pc}
    .text
    __aeabi_ui2f
        0x0000035e:    b510        ..      PUSH     {r4,lr}
        0x00000360:    2200        ."      MOVS     r2,#0
        0x00000362:    2396        .#      MOVS     r3,#0x96
        0x00000364:    4611        .F      MOV      r1,r2
        0x00000366:    f000f827    ..'.    BL       _float_epilogue ; 0x3b8
        0x0000036a:    bd10        ..      POP      {r4,pc}
    .text
    __aeabi_f2uiz
        0x0000036c:    0041        A.      LSLS     r1,r0,#1
        0x0000036e:    0240        @.      LSLS     r0,r0,#9
        0x00000370:    2201        ."      MOVS     r2,#1
        0x00000372:    0a40        @.      LSRS     r0,r0,#9
        0x00000374:    05d2        ..      LSLS     r2,r2,#23
        0x00000376:    0e09        ..      LSRS     r1,r1,#24
        0x00000378:    1880        ..      ADDS     r0,r0,r2
        0x0000037a:    297f        .)      CMP      r1,#0x7f
        0x0000037c:    da01        ..      BGE      0x382 ; __aeabi_f2uiz + 22
        0x0000037e:    2000        .       MOVS     r0,#0
        0x00000380:    4770        pG      BX       lr
        0x00000382:    2996        .)      CMP      r1,#0x96
        0x00000384:    dc03        ..      BGT      0x38e ; __aeabi_f2uiz + 34
        0x00000386:    2296        ."      MOVS     r2,#0x96
        0x00000388:    1a51        Q.      SUBS     r1,r2,r1
        0x0000038a:    40c8        .@      LSRS     r0,r0,r1
        0x0000038c:    4770        pG      BX       lr
        0x0000038e:    3996        .9      SUBS     r1,r1,#0x96
        0x00000390:    4088        .@      LSLS     r0,r0,r1
        0x00000392:    4770        pG      BX       lr
    .text
    __aeabi_cfrcmple
        0x00000394:    2201        ."      MOVS     r2,#1
        0x00000396:    07d2        ..      LSLS     r2,r2,#31
        0x00000398:    2800        .(      CMP      r0,#0
        0x0000039a:    db00        ..      BLT      0x39e ; __aeabi_cfrcmple + 10
        0x0000039c:    1a10        ..      SUBS     r0,r2,r0
        0x0000039e:    2900        .)      CMP      r1,#0
        0x000003a0:    db00        ..      BLT      0x3a4 ; __aeabi_cfrcmple + 16
        0x000003a2:    1a51        Q.      SUBS     r1,r2,r1
        0x000003a4:    4288        .B      CMP      r0,r1
        0x000003a6:    4770        pG      BX       lr
    .text
    .text
    __I$use$fp
    _float_round
        0x000003a8:    2900        .)      CMP      r1,#0
        0x000003aa:    da04        ..      BGE      0x3b6 ; __I$use$fp + 14
        0x000003ac:    1c40        @.      ADDS     r0,r0,#1
        0x000003ae:    0049        I.      LSLS     r1,r1,#1
        0x000003b0:    d101        ..      BNE      0x3b6 ; __I$use$fp + 14
        0x000003b2:    0840        @.      LSRS     r0,r0,#1
        0x000003b4:    0040        @.      LSLS     r0,r0,#1
        0x000003b6:    4770        pG      BX       lr
    _float_epilogue
        0x000003b8:    b470        p.      PUSH     {r4-r6}
        0x000003ba:    2400        .$      MOVS     r4,#0
        0x000003bc:    0c05        ..      LSRS     r5,r0,#16
        0x000003be:    d105        ..      BNE      0x3cc ; _float_epilogue + 20
        0x000003c0:    2410        .$      MOVS     r4,#0x10
        0x000003c2:    0400        ..      LSLS     r0,r0,#16
        0x000003c4:    d102        ..      BNE      0x3cc ; _float_epilogue + 20
        0x000003c6:    2900        .)      CMP      r1,#0
        0x000003c8:    d021        !.      BEQ      0x40e ; _float_epilogue + 86
        0x000003ca:    2411        .$      MOVS     r4,#0x11
        0x000003cc:    0e05        ..      LSRS     r5,r0,#24
        0x000003ce:    d101        ..      BNE      0x3d4 ; _float_epilogue + 28
        0x000003d0:    0200        ..      LSLS     r0,r0,#8
        0x000003d2:    3408        .4      ADDS     r4,r4,#8
        0x000003d4:    0f05        ..      LSRS     r5,r0,#28
        0x000003d6:    d101        ..      BNE      0x3dc ; _float_epilogue + 36
        0x000003d8:    0100        ..      LSLS     r0,r0,#4
        0x000003da:    1d24        $.      ADDS     r4,r4,#4
        0x000003dc:    0f85        ..      LSRS     r5,r0,#30
        0x000003de:    d101        ..      BNE      0x3e4 ; _float_epilogue + 44
        0x000003e0:    0080        ..      LSLS     r0,r0,#2
        0x000003e2:    1ca4        ..      ADDS     r4,r4,#2
        0x000003e4:    2800        .(      CMP      r0,#0
        0x000003e6:    db01        ..      BLT      0x3ec ; _float_epilogue + 52
        0x000003e8:    0040        @.      LSLS     r0,r0,#1
        0x000003ea:    1c64        d.      ADDS     r4,r4,#1
        0x000003ec:    2900        .)      CMP      r1,#0
        0x000003ee:    d008        ..      BEQ      0x402 ; _float_epilogue + 74
        0x000003f0:    2520         %      MOVS     r5,#0x20
        0x000003f2:    1b2e        ..      SUBS     r6,r5,r4
        0x000003f4:    460d        .F      MOV      r5,r1
        0x000003f6:    40f5        .@      LSRS     r5,r5,r6
        0x000003f8:    40a1        .@      LSLS     r1,r1,r4
        0x000003fa:    d000        ..      BEQ      0x3fe ; _float_epilogue + 70
        0x000003fc:    2101        .!      MOVS     r1,#1
        0x000003fe:    4329        )C      ORRS     r1,r1,r5
        0x00000400:    4308        .C      ORRS     r0,r0,r1
        0x00000402:    0601        ..      LSLS     r1,r0,#24
        0x00000404:    1b1b        ..      SUBS     r3,r3,r4
        0x00000406:    0a00        ..      LSRS     r0,r0,#8
        0x00000408:    1ddb        ..      ADDS     r3,r3,#7
        0x0000040a:    d502        ..      BPL      0x412 ; _float_epilogue + 90
        0x0000040c:    2000        .       MOVS     r0,#0
        0x0000040e:    bc70        p.      POP      {r4-r6}
        0x00000410:    4770        pG      BX       lr
        0x00000412:    05db        ..      LSLS     r3,r3,#23
        0x00000414:    1818        ..      ADDS     r0,r3,r0
        0x00000416:    1880        ..      ADDS     r0,r0,r2
        0x00000418:    2900        .)      CMP      r1,#0
        0x0000041a:    daf8        ..      BGE      0x40e ; _float_epilogue + 86
        0x0000041c:    1c40        @.      ADDS     r0,r0,#1
        0x0000041e:    0049        I.      LSLS     r1,r1,#1
        0x00000420:    d1f5        ..      BNE      0x40e ; _float_epilogue + 86
        0x00000422:    bc70        p.      POP      {r4-r6}
        0x00000424:    0840        @.      LSRS     r0,r0,#1
        0x00000426:    0040        @.      LSLS     r0,r0,#1
        0x00000428:    4770        pG      BX       lr
        0x0000042a:    0000        ..      MOVS     r0,r0
    .text
    __scatterload
    __scatterload_rt2
        0x0000042c:    4c06        .L      LDR      r4,[pc,#24] ; [0x448] = 0x5b84
        0x0000042e:    2501        .%      MOVS     r5,#1
        0x00000430:    4e06        .N      LDR      r6,[pc,#24] ; [0x44c] = 0x5ba4
        0x00000432:    e005        ..      B        0x440 ; __scatterload + 20
        0x00000434:    68e3        .h      LDR      r3,[r4,#0xc]
        0x00000436:    cc07        ..      LDM      r4!,{r0-r2}
        0x00000438:    432b        +C      ORRS     r3,r3,r5
        0x0000043a:    3c0c        .<      SUBS     r4,r4,#0xc
        0x0000043c:    4798        .G      BLX      r3
        0x0000043e:    3410        .4      ADDS     r4,r4,#0x10
        0x00000440:    42b4        .B      CMP      r4,r6
        0x00000442:    d3f7        ..      BCC      0x434 ; __scatterload + 8
        0x00000444:    f7fffe14    ....    BL       __main_after_scatterload ; 0x70
    $d
        0x00000448:    00005b84    .[..    DCD    23428
        0x0000044c:    00005ba4    .[..    DCD    23460
    $t
    .text
    __decompress
    __decompress2
        0x00000450:    b570        p.      PUSH     {r4-r6,lr}
        0x00000452:    188d        ..      ADDS     r5,r1,r2
        0x00000454:    7804        .x      LDRB     r4,[r0,#0]
        0x00000456:    1c40        @.      ADDS     r0,r0,#1
        0x00000458:    07a2        ..      LSLS     r2,r4,#30
        0x0000045a:    0f92        ..      LSRS     r2,r2,#30
        0x0000045c:    d101        ..      BNE      0x462 ; __decompress + 18
        0x0000045e:    7802        .x      LDRB     r2,[r0,#0]
        0x00000460:    1c40        @.      ADDS     r0,r0,#1
        0x00000462:    1123        #.      ASRS     r3,r4,#4
        0x00000464:    d106        ..      BNE      0x474 ; __decompress + 36
        0x00000466:    7803        .x      LDRB     r3,[r0,#0]
        0x00000468:    1c40        @.      ADDS     r0,r0,#1
        0x0000046a:    e003        ..      B        0x474 ; __decompress + 36
        0x0000046c:    7806        .x      LDRB     r6,[r0,#0]
        0x0000046e:    700e        .p      STRB     r6,[r1,#0]
        0x00000470:    1c40        @.      ADDS     r0,r0,#1
        0x00000472:    1c49        I.      ADDS     r1,r1,#1
        0x00000474:    1e52        R.      SUBS     r2,r2,#1
        0x00000476:    d1f9        ..      BNE      0x46c ; __decompress + 28
        0x00000478:    2b00        .+      CMP      r3,#0
        0x0000047a:    d015        ..      BEQ      0x4a8 ; __decompress + 88
        0x0000047c:    7802        .x      LDRB     r2,[r0,#0]
        0x0000047e:    260c        .&      MOVS     r6,#0xc
        0x00000480:    1a8a        ..      SUBS     r2,r1,r2
        0x00000482:    4034        4@      ANDS     r4,r4,r6
        0x00000484:    1c40        @.      ADDS     r0,r0,#1
        0x00000486:    2c0c        .,      CMP      r4,#0xc
        0x00000488:    d003        ..      BEQ      0x492 ; __decompress + 66
        0x0000048a:    01a4        ..      LSLS     r4,r4,#6
        0x0000048c:    1b12        ..      SUBS     r2,r2,r4
        0x0000048e:    1c9b        ..      ADDS     r3,r3,#2
        0x00000490:    e008        ..      B        0x4a4 ; __decompress + 84
        0x00000492:    7804        .x      LDRB     r4,[r0,#0]
        0x00000494:    0224        $.      LSLS     r4,r4,#8
        0x00000496:    1b12        ..      SUBS     r2,r2,r4
        0x00000498:    1c40        @.      ADDS     r0,r0,#1
        0x0000049a:    e7f8        ..      B        0x48e ; __decompress + 62
        0x0000049c:    7814        .x      LDRB     r4,[r2,#0]
        0x0000049e:    700c        .p      STRB     r4,[r1,#0]
        0x000004a0:    1c49        I.      ADDS     r1,r1,#1
        0x000004a2:    1c52        R.      ADDS     r2,r2,#1
        0x000004a4:    1e5b        [.      SUBS     r3,r3,#1
        0x000004a6:    d5f9        ..      BPL      0x49c ; __decompress + 76
        0x000004a8:    42a9        .B      CMP      r1,r5
        0x000004aa:    d3d3        ..      BCC      0x454 ; __decompress + 4
        0x000004ac:    2000        .       MOVS     r0,#0
        0x000004ae:    bd70        p.      POP      {r4-r6,pc}
    i.BusFaultHandler
    BusFaultHandler
        0x000004b0:    4770        pG      BX       lr
    i.DebugMonHandler
    DebugMonHandler
        0x000004b2:    4770        pG      BX       lr
    i.HardFaultHandler
    HardFaultHandler
        0x000004b4:    4770        pG      BX       lr
        0x000004b6:    0000        ..      MOVS     r0,r0
    i.Is_SPI_Ready
    Is_SPI_Ready
        0x000004b8:    4801        .H      LDR      r0,[pc,#4] ; [0x4c0] = 0x40004000
        0x000004ba:    6940        @i      LDR      r0,[r0,#0x14]
        0x000004bc:    b2c0        ..      UXTB     r0,r0
        0x000004be:    4770        pG      BX       lr
    $d
        0x000004c0:    40004000    .@.@    DCD    1073758208
    $t
    i.KEY0
    KEY0
        0x000004c4:    b510        ..      PUSH     {r4,lr}
        0x000004c6:    2000        .       MOVS     r0,#0
        0x000004c8:    f000f91c    ....    BL       LED_toggle ; 0x704
        0x000004cc:    bd10        ..      POP      {r4,pc}
    i.KEY1
    KEY1
        0x000004ce:    b510        ..      PUSH     {r4,lr}
        0x000004d0:    2001        .       MOVS     r0,#1
        0x000004d2:    f000f917    ....    BL       LED_toggle ; 0x704
        0x000004d6:    bd10        ..      POP      {r4,pc}
    i.KEY2
    KEY2
        0x000004d8:    b510        ..      PUSH     {r4,lr}
        0x000004da:    2002        .       MOVS     r0,#2
        0x000004dc:    f000f912    ....    BL       LED_toggle ; 0x704
        0x000004e0:    bd10        ..      POP      {r4,pc}
    i.KEY3
    KEY3
        0x000004e2:    b510        ..      PUSH     {r4,lr}
        0x000004e4:    2003        .       MOVS     r0,#3
        0x000004e6:    f000f90d    ....    BL       LED_toggle ; 0x704
        0x000004ea:    bd10        ..      POP      {r4,pc}
    i.LCD_Fast_DrawPoint
    LCD_Fast_DrawPoint
        0x000004ec:    b530        0.      PUSH     {r4,r5,lr}
        0x000004ee:    4603        .F      MOV      r3,r0
        0x000004f0:    460c        .F      MOV      r4,r1
        0x000004f2:    4615        .F      MOV      r5,r2
        0x000004f4:    4913        .I      LDR      r1,[pc,#76] ; [0x544] = 0x200026c8
        0x000004f6:    8948        H.      LDRH     r0,[r1,#0xa]
        0x000004f8:    f000f8f2    ....    BL       LCD_WR_REG ; 0x6e0
        0x000004fc:    1218        ..      ASRS     r0,r3,#8
        0x000004fe:    f000f8dc    ....    BL       LCD_WR_DATA ; 0x6ba
        0x00000502:    b2d8        ..      UXTB     r0,r3
        0x00000504:    f000f8d9    ....    BL       LCD_WR_DATA ; 0x6ba
        0x00000508:    490e        .I      LDR      r1,[pc,#56] ; [0x544] = 0x200026c8
        0x0000050a:    8988        ..      LDRH     r0,[r1,#0xc]
        0x0000050c:    f000f8e8    ....    BL       LCD_WR_REG ; 0x6e0
        0x00000510:    1220         .      ASRS     r0,r4,#8
        0x00000512:    f000f8d2    ....    BL       LCD_WR_DATA ; 0x6ba
        0x00000516:    b2e0        ..      UXTB     r0,r4
        0x00000518:    f000f8cf    ....    BL       LCD_WR_DATA ; 0x6ba
        0x0000051c:    2000        .       MOVS     r0,#0
        0x0000051e:    2105        .!      MOVS     r1,#5
        0x00000520:    0709        ..      LSLS     r1,r1,#28
        0x00000522:    6048        H`      STR      r0,[r1,#4]
        0x00000524:    6008        .`      STR      r0,[r1,#0]
        0x00000526:    4907        .I      LDR      r1,[pc,#28] ; [0x544] = 0x200026c8
        0x00000528:    8908        ..      LDRH     r0,[r1,#8]
        0x0000052a:    f000f907    ....    BL       MakeData ; 0x73c
        0x0000052e:    2000        .       MOVS     r0,#0
        0x00000530:    2105        .!      MOVS     r1,#5
        0x00000532:    0709        ..      LSLS     r1,r1,#28
        0x00000534:    6088        .`      STR      r0,[r1,#8]
        0x00000536:    2001        .       MOVS     r0,#1
        0x00000538:    6088        .`      STR      r0,[r1,#8]
        0x0000053a:    6008        .`      STR      r0,[r1,#0]
        0x0000053c:    4628        (F      MOV      r0,r5
        0x0000053e:    f000f8bc    ....    BL       LCD_WR_DATA ; 0x6ba
        0x00000542:    bd30        0.      POP      {r4,r5,pc}
    $d
        0x00000544:    200026c8    .&.     DCD    536880840
    $t
    i.LCD_ShowChar
    LCD_ShowChar
        0x00000548:    b5ff        ..      PUSH     {r0-r7,lr}
        0x0000054a:    b085        ..      SUB      sp,sp,#0x14
        0x0000054c:    460e        .F      MOV      r6,r1
        0x0000054e:    4617        .F      MOV      r7,r2
        0x00000550:    2410        .$      MOVS     r4,#0x10
        0x00000552:    9602        ..      STR      r6,[sp,#8]
        0x00000554:    4620         F      MOV      r0,r4
        0x00000556:    17e2        ..      ASRS     r2,r4,#31
        0x00000558:    0f52        R.      LSRS     r2,r2,#29
        0x0000055a:    1812        ..      ADDS     r2,r2,r0
        0x0000055c:    10d2        ..      ASRS     r2,r2,#3
        0x0000055e:    17e3        ..      ASRS     r3,r4,#31
        0x00000560:    0f5b        [.      LSRS     r3,r3,#29
        0x00000562:    181b        ..      ADDS     r3,r3,r0
        0x00000564:    10db        ..      ASRS     r3,r3,#3
        0x00000566:    00db        ..      LSLS     r3,r3,#3
        0x00000568:    9400        ..      STR      r4,[sp,#0]
        0x0000056a:    1ae3        ..      SUBS     r3,r4,r3
        0x0000056c:    d001        ..      BEQ      0x572 ; LCD_ShowChar + 42
        0x0000056e:    2301        .#      MOVS     r3,#1
        0x00000570:    e000        ..      B        0x574 ; LCD_ShowChar + 44
        0x00000572:    2300        .#      MOVS     r3,#0
        0x00000574:    18d2        ..      ADDS     r2,r2,r3
        0x00000576:    4621        !F      MOV      r1,r4
        0x00000578:    0fe3        ..      LSRS     r3,r4,#31
        0x0000057a:    185b        [.      ADDS     r3,r3,r1
        0x0000057c:    105b        [.      ASRS     r3,r3,#1
        0x0000057e:    435a        ZC      MULS     r2,r3,r2
        0x00000580:    b2d2        ..      UXTB     r2,r2
        0x00000582:    9201        ..      STR      r2,[sp,#4]
        0x00000584:    4638        8F      MOV      r0,r7
        0x00000586:    3820         8      SUBS     r0,r0,#0x20
        0x00000588:    b2c7        ..      UXTB     r7,r0
        0x0000058a:    2500        .%      MOVS     r5,#0
        0x0000058c:    e056        V.      B        0x63c ; LCD_ShowChar + 244
        0x0000058e:    2c0c        .,      CMP      r4,#0xc
        0x00000590:    d105        ..      BNE      0x59e ; LCD_ShowChar + 86
        0x00000592:    0138        8.      LSLS     r0,r7,#4
        0x00000594:    492c        ,I      LDR      r1,[pc,#176] ; [0x648] = 0x553f
        0x00000596:    1840        @.      ADDS     r0,r0,r1
        0x00000598:    5d40        @]      LDRB     r0,[r0,r5]
        0x0000059a:    9004        ..      STR      r0,[sp,#0x10]
        0x0000059c:    e011        ..      B        0x5c2 ; LCD_ShowChar + 122
        0x0000059e:    2c10        .,      CMP      r4,#0x10
        0x000005a0:    d105        ..      BNE      0x5ae ; LCD_ShowChar + 102
        0x000005a2:    0138        8.      LSLS     r0,r7,#4
        0x000005a4:    4928        (I      LDR      r1,[pc,#160] ; [0x648] = 0x553f
        0x000005a6:    1840        @.      ADDS     r0,r0,r1
        0x000005a8:    5d40        @]      LDRB     r0,[r0,r5]
        0x000005aa:    9004        ..      STR      r0,[sp,#0x10]
        0x000005ac:    e009        ..      B        0x5c2 ; LCD_ShowChar + 122
        0x000005ae:    2c18        .,      CMP      r4,#0x18
        0x000005b0:    d105        ..      BNE      0x5be ; LCD_ShowChar + 118
        0x000005b2:    0138        8.      LSLS     r0,r7,#4
        0x000005b4:    4924        $I      LDR      r1,[pc,#144] ; [0x648] = 0x553f
        0x000005b6:    1840        @.      ADDS     r0,r0,r1
        0x000005b8:    5d40        @]      LDRB     r0,[r0,r5]
        0x000005ba:    9004        ..      STR      r0,[sp,#0x10]
        0x000005bc:    e001        ..      B        0x5c2 ; LCD_ShowChar + 122
        0x000005be:    b009        ..      ADD      sp,sp,#0x24
        0x000005c0:    bdf0        ..      POP      {r4-r7,pc}
        0x000005c2:    2000        .       MOVS     r0,#0
        0x000005c4:    9003        ..      STR      r0,[sp,#0xc]
        0x000005c6:    e033        3.      B        0x630 ; LCD_ShowChar + 232
        0x000005c8:    2180        .!      MOVS     r1,#0x80
        0x000005ca:    9804        ..      LDR      r0,[sp,#0x10]
        0x000005cc:    4008        .@      ANDS     r0,r0,r1
        0x000005ce:    2800        .(      CMP      r0,#0
        0x000005d0:    d006        ..      BEQ      0x5e0 ; LCD_ShowChar + 152
        0x000005d2:    481e        .H      LDR      r0,[pc,#120] ; [0x64c] = 0x20000218
        0x000005d4:    8802        ..      LDRH     r2,[r0,#0]
        0x000005d6:    4631        1F      MOV      r1,r6
        0x000005d8:    9805        ..      LDR      r0,[sp,#0x14]
        0x000005da:    f7ffff87    ....    BL       LCD_Fast_DrawPoint ; 0x4ec
        0x000005de:    e008        ..      B        0x5f2 ; LCD_ShowChar + 170
        0x000005e0:    9808        ..      LDR      r0,[sp,#0x20]
        0x000005e2:    2800        .(      CMP      r0,#0
        0x000005e4:    d105        ..      BNE      0x5f2 ; LCD_ShowChar + 170
        0x000005e6:    481a        .H      LDR      r0,[pc,#104] ; [0x650] = 0x2000021a
        0x000005e8:    8802        ..      LDRH     r2,[r0,#0]
        0x000005ea:    4631        1F      MOV      r1,r6
        0x000005ec:    9805        ..      LDR      r0,[sp,#0x14]
        0x000005ee:    f7ffff7d    ..}.    BL       LCD_Fast_DrawPoint ; 0x4ec
        0x000005f2:    9804        ..      LDR      r0,[sp,#0x10]
        0x000005f4:    0640        @.      LSLS     r0,r0,#25
        0x000005f6:    0e00        ..      LSRS     r0,r0,#24
        0x000005f8:    9004        ..      STR      r0,[sp,#0x10]
        0x000005fa:    1c70        p.      ADDS     r0,r6,#1
        0x000005fc:    b286        ..      UXTH     r6,r0
        0x000005fe:    4815        .H      LDR      r0,[pc,#84] ; [0x654] = 0x200026c8
        0x00000600:    8840        @.      LDRH     r0,[r0,#2]
        0x00000602:    42b0        .B      CMP      r0,r6
        0x00000604:    dc00        ..      BGT      0x608 ; LCD_ShowChar + 192
        0x00000606:    e7da        ..      B        0x5be ; LCD_ShowChar + 118
        0x00000608:    9802        ..      LDR      r0,[sp,#8]
        0x0000060a:    1a30        0.      SUBS     r0,r6,r0
        0x0000060c:    42a0        .B      CMP      r0,r4
        0x0000060e:    d10b        ..      BNE      0x628 ; LCD_ShowChar + 224
        0x00000610:    9e02        ..      LDR      r6,[sp,#8]
        0x00000612:    9805        ..      LDR      r0,[sp,#0x14]
        0x00000614:    1c40        @.      ADDS     r0,r0,#1
        0x00000616:    b280        ..      UXTH     r0,r0
        0x00000618:    9005        ..      STR      r0,[sp,#0x14]
        0x0000061a:    480e        .H      LDR      r0,[pc,#56] ; [0x654] = 0x200026c8
        0x0000061c:    8801        ..      LDRH     r1,[r0,#0]
        0x0000061e:    9805        ..      LDR      r0,[sp,#0x14]
        0x00000620:    4281        .B      CMP      r1,r0
        0x00000622:    dc00        ..      BGT      0x626 ; LCD_ShowChar + 222
        0x00000624:    e7cb        ..      B        0x5be ; LCD_ShowChar + 118
        0x00000626:    e006        ..      B        0x636 ; LCD_ShowChar + 238
        0x00000628:    9803        ..      LDR      r0,[sp,#0xc]
        0x0000062a:    1c40        @.      ADDS     r0,r0,#1
        0x0000062c:    b2c0        ..      UXTB     r0,r0
        0x0000062e:    9003        ..      STR      r0,[sp,#0xc]
        0x00000630:    9803        ..      LDR      r0,[sp,#0xc]
        0x00000632:    2808        .(      CMP      r0,#8
        0x00000634:    dbc8        ..      BLT      0x5c8 ; LCD_ShowChar + 128
        0x00000636:    bf00        ..      NOP      
        0x00000638:    1c68        h.      ADDS     r0,r5,#1
        0x0000063a:    b2c5        ..      UXTB     r5,r0
        0x0000063c:    9801        ..      LDR      r0,[sp,#4]
        0x0000063e:    4285        .B      CMP      r5,r0
        0x00000640:    dba5        ..      BLT      0x58e ; LCD_ShowChar + 70
        0x00000642:    bf00        ..      NOP      
        0x00000644:    e7bb        ..      B        0x5be ; LCD_ShowChar + 118
    $d
        0x00000646:    0000        ..      DCW    0
        0x00000648:    0000553f    ?U..    DCD    21823
        0x0000064c:    20000218    ...     DCD    536871448
        0x00000650:    2000021a    ...     DCD    536871450
        0x00000654:    200026c8    .&.     DCD    536880840
    $t
    i.LCD_ShowString
    LCD_ShowString
        0x00000658:    b5ff        ..      PUSH     {r0-r7,lr}
        0x0000065a:    b081        ..      SUB      sp,sp,#4
        0x0000065c:    4604        .F      MOV      r4,r0
        0x0000065e:    460d        .F      MOV      r5,r1
        0x00000660:    9e0a        ..      LDR      r6,[sp,#0x28]
        0x00000662:    2710        .'      MOVS     r7,#0x10
        0x00000664:    b2e0        ..      UXTB     r0,r4
        0x00000666:    9000        ..      STR      r0,[sp,#0]
        0x00000668:    9803        ..      LDR      r0,[sp,#0xc]
        0x0000066a:    1900        ..      ADDS     r0,r0,r4
        0x0000066c:    b280        ..      UXTH     r0,r0
        0x0000066e:    9003        ..      STR      r0,[sp,#0xc]
        0x00000670:    9804        ..      LDR      r0,[sp,#0x10]
        0x00000672:    1940        @.      ADDS     r0,r0,r5
        0x00000674:    b280        ..      UXTH     r0,r0
        0x00000676:    9004        ..      STR      r0,[sp,#0x10]
        0x00000678:    e016        ..      B        0x6a8 ; LCD_ShowString + 80
        0x0000067a:    9803        ..      LDR      r0,[sp,#0xc]
        0x0000067c:    4284        .B      CMP      r4,r0
        0x0000067e:    db02        ..      BLT      0x686 ; LCD_ShowString + 46
        0x00000680:    9c00        ..      LDR      r4,[sp,#0]
        0x00000682:    19e8        ..      ADDS     r0,r5,r7
        0x00000684:    b285        ..      UXTH     r5,r0
        0x00000686:    9804        ..      LDR      r0,[sp,#0x10]
        0x00000688:    4285        .B      CMP      r5,r0
        0x0000068a:    db00        ..      BLT      0x68e ; LCD_ShowString + 54
        0x0000068c:    e012        ..      B        0x6b4 ; LCD_ShowString + 92
        0x0000068e:    7832        2x      LDRB     r2,[r6,#0]
        0x00000690:    2300        .#      MOVS     r3,#0
        0x00000692:    4629        )F      MOV      r1,r5
        0x00000694:    4620         F      MOV      r0,r4
        0x00000696:    f7ffff57    ..W.    BL       LCD_ShowChar ; 0x548
        0x0000069a:    4638        8F      MOV      r0,r7
        0x0000069c:    0ff9        ..      LSRS     r1,r7,#31
        0x0000069e:    1809        ..      ADDS     r1,r1,r0
        0x000006a0:    1049        I.      ASRS     r1,r1,#1
        0x000006a2:    1909        ..      ADDS     r1,r1,r4
        0x000006a4:    b28c        ..      UXTH     r4,r1
        0x000006a6:    1c76        v.      ADDS     r6,r6,#1
        0x000006a8:    7830        0x      LDRB     r0,[r6,#0]
        0x000006aa:    287e        ~(      CMP      r0,#0x7e
        0x000006ac:    dc02        ..      BGT      0x6b4 ; LCD_ShowString + 92
        0x000006ae:    7830        0x      LDRB     r0,[r6,#0]
        0x000006b0:    2820         (      CMP      r0,#0x20
        0x000006b2:    dae2        ..      BGE      0x67a ; LCD_ShowString + 34
        0x000006b4:    bf00        ..      NOP      
        0x000006b6:    b005        ..      ADD      sp,sp,#0x14
        0x000006b8:    bdf0        ..      POP      {r4-r7,pc}
    i.LCD_WR_DATA
    LCD_WR_DATA
        0x000006ba:    b500        ..      PUSH     {lr}
        0x000006bc:    4602        .F      MOV      r2,r0
        0x000006be:    2001        .       MOVS     r0,#1
        0x000006c0:    2105        .!      MOVS     r1,#5
        0x000006c2:    0709        ..      LSLS     r1,r1,#28
        0x000006c4:    6048        H`      STR      r0,[r1,#4]
        0x000006c6:    2000        .       MOVS     r0,#0
        0x000006c8:    6008        .`      STR      r0,[r1,#0]
        0x000006ca:    4610        .F      MOV      r0,r2
        0x000006cc:    f000f836    ..6.    BL       MakeData ; 0x73c
        0x000006d0:    2000        .       MOVS     r0,#0
        0x000006d2:    2105        .!      MOVS     r1,#5
        0x000006d4:    0709        ..      LSLS     r1,r1,#28
        0x000006d6:    6088        .`      STR      r0,[r1,#8]
        0x000006d8:    2001        .       MOVS     r0,#1
        0x000006da:    6088        .`      STR      r0,[r1,#8]
        0x000006dc:    6008        .`      STR      r0,[r1,#0]
        0x000006de:    bd00        ..      POP      {pc}
    i.LCD_WR_REG
    LCD_WR_REG
        0x000006e0:    b500        ..      PUSH     {lr}
        0x000006e2:    4602        .F      MOV      r2,r0
        0x000006e4:    2000        .       MOVS     r0,#0
        0x000006e6:    2105        .!      MOVS     r1,#5
        0x000006e8:    0709        ..      LSLS     r1,r1,#28
        0x000006ea:    6048        H`      STR      r0,[r1,#4]
        0x000006ec:    6008        .`      STR      r0,[r1,#0]
        0x000006ee:    4610        .F      MOV      r0,r2
        0x000006f0:    f000f824    ..$.    BL       MakeData ; 0x73c
        0x000006f4:    2000        .       MOVS     r0,#0
        0x000006f6:    2105        .!      MOVS     r1,#5
        0x000006f8:    0709        ..      LSLS     r1,r1,#28
        0x000006fa:    6088        .`      STR      r0,[r1,#8]
        0x000006fc:    2001        .       MOVS     r0,#1
        0x000006fe:    6088        .`      STR      r0,[r1,#8]
        0x00000700:    6008        .`      STR      r0,[r1,#0]
        0x00000702:    bd00        ..      POP      {pc}
    i.LED_toggle
    LED_toggle
        0x00000704:    b530        0.      PUSH     {r4,r5,lr}
        0x00000706:    4602        .F      MOV      r2,r0
        0x00000708:    2000        .       MOVS     r0,#0
        0x0000070a:    2100        .!      MOVS     r1,#0
        0x0000070c:    2300        .#      MOVS     r3,#0
        0x0000070e:    4c0a        .L      LDR      r4,[pc,#40] ; [0x738] = 0x40001000
        0x00000710:    6821        !h      LDR      r1,[r4,#0]
        0x00000712:    2401        .$      MOVS     r4,#1
        0x00000714:    4094        .@      LSLS     r4,r4,r2
        0x00000716:    4620         F      MOV      r0,r4
        0x00000718:    4604        .F      MOV      r4,r0
        0x0000071a:    400c        .@      ANDS     r4,r4,r1
        0x0000071c:    4623        #F      MOV      r3,r4
        0x0000071e:    2b00        .+      CMP      r3,#0
        0x00000720:    d104        ..      BNE      0x72c ; LED_toggle + 40
        0x00000722:    460c        .F      MOV      r4,r1
        0x00000724:    4304        .C      ORRS     r4,r4,r0
        0x00000726:    4d04        .M      LDR      r5,[pc,#16] ; [0x738] = 0x40001000
        0x00000728:    602c        ,`      STR      r4,[r5,#0]
        0x0000072a:    e003        ..      B        0x734 ; LED_toggle + 48
        0x0000072c:    460c        .F      MOV      r4,r1
        0x0000072e:    4384        .C      BICS     r4,r4,r0
        0x00000730:    4d01        .M      LDR      r5,[pc,#4] ; [0x738] = 0x40001000
        0x00000732:    602c        ,`      STR      r4,[r5,#0]
        0x00000734:    bd30        0.      POP      {r4,r5,pc}
    $d
        0x00000736:    0000        ..      DCW    0
        0x00000738:    40001000    ...@    DCD    1073745920
    $t
    i.MakeData
    MakeData
        0x0000073c:    2105        .!      MOVS     r1,#5
        0x0000073e:    0709        ..      LSLS     r1,r1,#28
        0x00000740:    6188        .a      STR      r0,[r1,#0x18]
        0x00000742:    4770        pG      BX       lr
    i.MemManageHandler
    MemManageHandler
        0x00000744:    4770        pG      BX       lr
    i.NMIHandler
    NMIHandler
        0x00000746:    4770        pG      BX       lr
    i.NVIC_EnableIRQ
    NVIC_EnableIRQ
        0x00000748:    06c2        ..      LSLS     r2,r0,#27
        0x0000074a:    0ed2        ..      LSRS     r2,r2,#27
        0x0000074c:    2101        .!      MOVS     r1,#1
        0x0000074e:    4091        .@      LSLS     r1,r1,r2
        0x00000750:    4a01        .J      LDR      r2,[pc,#4] ; [0x758] = 0xe000e100
        0x00000752:    6011        .`      STR      r1,[r2,#0]
        0x00000754:    4770        pG      BX       lr
    $d
        0x00000756:    0000        ..      DCW    0
        0x00000758:    e000e100    ....    DCD    3758153984
    $t
    i.PS2_ClearData
    PS2_ClearData
        0x0000075c:    2000        .       MOVS     r0,#0
        0x0000075e:    e004        ..      B        0x76a ; PS2_ClearData + 14
        0x00000760:    2100        .!      MOVS     r1,#0
        0x00000762:    4a03        .J      LDR      r2,[pc,#12] ; [0x770] = 0x200026d6
        0x00000764:    5411        .T      STRB     r1,[r2,r0]
        0x00000766:    1c41        A.      ADDS     r1,r0,#1
        0x00000768:    b2c8        ..      UXTB     r0,r1
        0x0000076a:    2809        .(      CMP      r0,#9
        0x0000076c:    dbf8        ..      BLT      0x760 ; PS2_ClearData + 4
        0x0000076e:    4770        pG      BX       lr
    $d
        0x00000770:    200026d6    .&.     DCD    536880854
    $t
    i.PS2_Cmd
    PS2_Cmd
        0x00000774:    b538        8.      PUSH     {r3-r5,lr}
        0x00000776:    4604        .F      MOV      r4,r0
        0x00000778:    2101        .!      MOVS     r1,#1
        0x0000077a:    9100        ..      STR      r1,[sp,#0]
        0x0000077c:    2000        .       MOVS     r0,#0
        0x0000077e:    491c        .I      LDR      r1,[pc,#112] ; [0x7f0] = 0x200026d6
        0x00000780:    7048        Hp      STRB     r0,[r1,#1]
        0x00000782:    2101        .!      MOVS     r1,#1
        0x00000784:    9100        ..      STR      r1,[sp,#0]
        0x00000786:    e02a        *.      B        0x7de ; PS2_Cmd + 106
        0x00000788:    4668        hF      MOV      r0,sp
        0x0000078a:    8800        ..      LDRH     r0,[r0,#0]
        0x0000078c:    4020         @      ANDS     r0,r0,r4
        0x0000078e:    2800        .(      CMP      r0,#0
        0x00000790:    d003        ..      BEQ      0x79a ; PS2_Cmd + 38
        0x00000792:    2001        .       MOVS     r0,#1
        0x00000794:    4917        .I      LDR      r1,[pc,#92] ; [0x7f4] = 0x40005000
        0x00000796:    6088        .`      STR      r0,[r1,#8]
        0x00000798:    e002        ..      B        0x7a0 ; PS2_Cmd + 44
        0x0000079a:    2000        .       MOVS     r0,#0
        0x0000079c:    4915        .I      LDR      r1,[pc,#84] ; [0x7f4] = 0x40005000
        0x0000079e:    6088        .`      STR      r0,[r1,#8]
        0x000007a0:    2001        .       MOVS     r0,#1
        0x000007a2:    4914        .I      LDR      r1,[pc,#80] ; [0x7f4] = 0x40005000
        0x000007a4:    6048        H`      STR      r0,[r1,#4]
        0x000007a6:    2005        .       MOVS     r0,#5
        0x000007a8:    f000fe08    ....    BL       delay_us ; 0x13bc
        0x000007ac:    2000        .       MOVS     r0,#0
        0x000007ae:    4911        .I      LDR      r1,[pc,#68] ; [0x7f4] = 0x40005000
        0x000007b0:    6048        H`      STR      r0,[r1,#4]
        0x000007b2:    2005        .       MOVS     r0,#5
        0x000007b4:    f000fe02    ....    BL       delay_us ; 0x13bc
        0x000007b8:    2001        .       MOVS     r0,#1
        0x000007ba:    490e        .I      LDR      r1,[pc,#56] ; [0x7f4] = 0x40005000
        0x000007bc:    6048        H`      STR      r0,[r1,#4]
        0x000007be:    f003f945    ..E.    BL       readPs2DI ; 0x3a4c
        0x000007c2:    2800        .(      CMP      r0,#0
        0x000007c4:    d006        ..      BEQ      0x7d4 ; PS2_Cmd + 96
        0x000007c6:    480a        .H      LDR      r0,[pc,#40] ; [0x7f0] = 0x200026d6
        0x000007c8:    7840        @x      LDRB     r0,[r0,#1]
        0x000007ca:    4669        iF      MOV      r1,sp
        0x000007cc:    8809        ..      LDRH     r1,[r1,#0]
        0x000007ce:    4308        .C      ORRS     r0,r0,r1
        0x000007d0:    4907        .I      LDR      r1,[pc,#28] ; [0x7f0] = 0x200026d6
        0x000007d2:    7048        Hp      STRB     r0,[r1,#1]
        0x000007d4:    4668        hF      MOV      r0,sp
        0x000007d6:    8800        ..      LDRH     r0,[r0,#0]
        0x000007d8:    0440        @.      LSLS     r0,r0,#17
        0x000007da:    0c01        ..      LSRS     r1,r0,#16
        0x000007dc:    9100        ..      STR      r1,[sp,#0]
        0x000007de:    4668        hF      MOV      r0,sp
        0x000007e0:    8800        ..      LDRH     r0,[r0,#0]
        0x000007e2:    28ff        .(      CMP      r0,#0xff
        0x000007e4:    ddd0        ..      BLE      0x788 ; PS2_Cmd + 20
        0x000007e6:    2010        .       MOVS     r0,#0x10
        0x000007e8:    f000fde8    ....    BL       delay_us ; 0x13bc
        0x000007ec:    bd38        8.      POP      {r3-r5,pc}
    $d
        0x000007ee:    0000        ..      DCW    0
        0x000007f0:    200026d6    .&.     DCD    536880854
        0x000007f4:    40005000    .P.@    DCD    1073762304
    $t
    i.PS2_DataKey
    PS2_DataKey
        0x000007f8:    b510        ..      PUSH     {r4,lr}
        0x000007fa:    f7ffffaf    ....    BL       PS2_ClearData ; 0x75c
        0x000007fe:    f000f82d    ..-.    BL       PS2_ReadData ; 0x85c
        0x00000802:    480f        .H      LDR      r0,[pc,#60] ; [0x840] = 0x200026d6
        0x00000804:    7900        .y      LDRB     r0,[r0,#4]
        0x00000806:    0200        ..      LSLS     r0,r0,#8
        0x00000808:    490d        .I      LDR      r1,[pc,#52] ; [0x840] = 0x200026d6
        0x0000080a:    78c9        .x      LDRB     r1,[r1,#3]
        0x0000080c:    4308        .C      ORRS     r0,r0,r1
        0x0000080e:    490d        .I      LDR      r1,[pc,#52] ; [0x844] = 0x20000224
        0x00000810:    8008        ..      STRH     r0,[r1,#0]
        0x00000812:    2400        .$      MOVS     r4,#0
        0x00000814:    e00f        ..      B        0x836 ; PS2_DataKey + 62
        0x00000816:    0060        `.      LSLS     r0,r4,#1
        0x00000818:    490b        .I      LDR      r1,[pc,#44] ; [0x848] = 0x20000228
        0x0000081a:    5c09        .\      LDRB     r1,[r1,r0]
        0x0000081c:    1e49        I.      SUBS     r1,r1,#1
        0x0000081e:    2001        .       MOVS     r0,#1
        0x00000820:    4088        .@      LSLS     r0,r0,r1
        0x00000822:    4908        .I      LDR      r1,[pc,#32] ; [0x844] = 0x20000224
        0x00000824:    8809        ..      LDRH     r1,[r1,#0]
        0x00000826:    4008        .@      ANDS     r0,r0,r1
        0x00000828:    2800        .(      CMP      r0,#0
        0x0000082a:    d102        ..      BNE      0x832 ; PS2_DataKey + 58
        0x0000082c:    1c60        `.      ADDS     r0,r4,#1
        0x0000082e:    b2c0        ..      UXTB     r0,r0
        0x00000830:    bd10        ..      POP      {r4,pc}
        0x00000832:    1c60        `.      ADDS     r0,r4,#1
        0x00000834:    b2c4        ..      UXTB     r4,r0
        0x00000836:    2c10        .,      CMP      r4,#0x10
        0x00000838:    dbed        ..      BLT      0x816 ; PS2_DataKey + 30
        0x0000083a:    2000        .       MOVS     r0,#0
        0x0000083c:    e7f8        ..      B        0x830 ; PS2_DataKey + 56
    $d
        0x0000083e:    0000        ..      DCW    0
        0x00000840:    200026d6    .&.     DCD    536880854
        0x00000844:    20000224    $..     DCD    536871460
        0x00000848:    20000228    (..     DCD    536871464
    $t
    i.PS2_Init
    PS2_Init
        0x0000084c:    2000        .       MOVS     r0,#0
        0x0000084e:    4902        .I      LDR      r1,[pc,#8] ; [0x858] = 0x40005000
        0x00000850:    6008        .`      STR      r0,[r1,#0]
        0x00000852:    6048        H`      STR      r0,[r1,#4]
        0x00000854:    6088        .`      STR      r0,[r1,#8]
        0x00000856:    4770        pG      BX       lr
    $d
        0x00000858:    40005000    .P.@    DCD    1073762304
    $t
    i.PS2_ReadData
    PS2_ReadData
        0x0000085c:    b51c        ..      PUSH     {r2-r4,lr}
        0x0000085e:    2100        .!      MOVS     r1,#0
        0x00000860:    9101        ..      STR      r1,[sp,#4]
        0x00000862:    2101        .!      MOVS     r1,#1
        0x00000864:    9100        ..      STR      r1,[sp,#0]
        0x00000866:    2000        .       MOVS     r0,#0
        0x00000868:    4923        #I      LDR      r1,[pc,#140] ; [0x8f8] = 0x40005000
        0x0000086a:    6008        .`      STR      r0,[r1,#0]
        0x0000086c:    4923        #I      LDR      r1,[pc,#140] ; [0x8fc] = 0x20000226
        0x0000086e:    7808        .x      LDRB     r0,[r1,#0]
        0x00000870:    f7ffff80    ....    BL       PS2_Cmd ; 0x774
        0x00000874:    4921        !I      LDR      r1,[pc,#132] ; [0x8fc] = 0x20000226
        0x00000876:    7848        Hx      LDRB     r0,[r1,#1]
        0x00000878:    f7ffff7c    ..|.    BL       PS2_Cmd ; 0x774
        0x0000087c:    2102        .!      MOVS     r1,#2
        0x0000087e:    9101        ..      STR      r1,[sp,#4]
        0x00000880:    e031        1.      B        0x8e6 ; PS2_ReadData + 138
        0x00000882:    2001        .       MOVS     r0,#1
        0x00000884:    9000        ..      STR      r0,[sp,#0]
        0x00000886:    e022        ".      B        0x8ce ; PS2_ReadData + 114
        0x00000888:    2001        .       MOVS     r0,#1
        0x0000088a:    491b        .I      LDR      r1,[pc,#108] ; [0x8f8] = 0x40005000
        0x0000088c:    6048        H`      STR      r0,[r1,#4]
        0x0000088e:    2005        .       MOVS     r0,#5
        0x00000890:    f000fd94    ....    BL       delay_us ; 0x13bc
        0x00000894:    2000        .       MOVS     r0,#0
        0x00000896:    4918        .I      LDR      r1,[pc,#96] ; [0x8f8] = 0x40005000
        0x00000898:    6048        H`      STR      r0,[r1,#4]
        0x0000089a:    2005        .       MOVS     r0,#5
        0x0000089c:    f000fd8e    ....    BL       delay_us ; 0x13bc
        0x000008a0:    2001        .       MOVS     r0,#1
        0x000008a2:    4915        .I      LDR      r1,[pc,#84] ; [0x8f8] = 0x40005000
        0x000008a4:    6048        H`      STR      r0,[r1,#4]
        0x000008a6:    f003f8d1    ....    BL       readPs2DI ; 0x3a4c
        0x000008aa:    2800        .(      CMP      r0,#0
        0x000008ac:    d00a        ..      BEQ      0x8c4 ; PS2_ReadData + 104
        0x000008ae:    4914        .I      LDR      r1,[pc,#80] ; [0x900] = 0x200026d6
        0x000008b0:    4668        hF      MOV      r0,sp
        0x000008b2:    7900        .y      LDRB     r0,[r0,#4]
        0x000008b4:    5c09        .\      LDRB     r1,[r1,r0]
        0x000008b6:    4668        hF      MOV      r0,sp
        0x000008b8:    8800        ..      LDRH     r0,[r0,#0]
        0x000008ba:    4301        .C      ORRS     r1,r1,r0
        0x000008bc:    4a10        .J      LDR      r2,[pc,#64] ; [0x900] = 0x200026d6
        0x000008be:    4668        hF      MOV      r0,sp
        0x000008c0:    7900        .y      LDRB     r0,[r0,#4]
        0x000008c2:    5411        .T      STRB     r1,[r2,r0]
        0x000008c4:    4668        hF      MOV      r0,sp
        0x000008c6:    8800        ..      LDRH     r0,[r0,#0]
        0x000008c8:    0440        @.      LSLS     r0,r0,#17
        0x000008ca:    0c01        ..      LSRS     r1,r0,#16
        0x000008cc:    9100        ..      STR      r1,[sp,#0]
        0x000008ce:    4668        hF      MOV      r0,sp
        0x000008d0:    8800        ..      LDRH     r0,[r0,#0]
        0x000008d2:    28ff        .(      CMP      r0,#0xff
        0x000008d4:    ddd8        ..      BLE      0x888 ; PS2_ReadData + 44
        0x000008d6:    2010        .       MOVS     r0,#0x10
        0x000008d8:    f000fd70    ..p.    BL       delay_us ; 0x13bc
        0x000008dc:    4668        hF      MOV      r0,sp
        0x000008de:    7900        .y      LDRB     r0,[r0,#4]
        0x000008e0:    1c40        @.      ADDS     r0,r0,#1
        0x000008e2:    b2c1        ..      UXTB     r1,r0
        0x000008e4:    9101        ..      STR      r1,[sp,#4]
        0x000008e6:    4668        hF      MOV      r0,sp
        0x000008e8:    7900        .y      LDRB     r0,[r0,#4]
        0x000008ea:    2809        .(      CMP      r0,#9
        0x000008ec:    dbc9        ..      BLT      0x882 ; PS2_ReadData + 38
        0x000008ee:    2001        .       MOVS     r0,#1
        0x000008f0:    4901        .I      LDR      r1,[pc,#4] ; [0x8f8] = 0x40005000
        0x000008f2:    6008        .`      STR      r0,[r1,#0]
        0x000008f4:    bd1c        ..      POP      {r2-r4,pc}
    $d
        0x000008f6:    0000        ..      DCW    0
        0x000008f8:    40005000    .P.@    DCD    1073762304
        0x000008fc:    20000226    &..     DCD    536871462
        0x00000900:    200026d6    .&.     DCD    536880854
    $t
    i.PendSVHandler
    PendSVHandler
        0x00000904:    4770        pG      BX       lr
        0x00000906:    0000        ..      MOVS     r0,r0
    i.SPI_FLASH_Write_Enable
    SPI_FLASH_Write_Enable
        0x00000908:    b500        ..      PUSH     {lr}
        0x0000090a:    2000        .       MOVS     r0,#0
        0x0000090c:    4904        .I      LDR      r1,[pc,#16] ; [0x920] = 0x40004000
        0x0000090e:    6008        .`      STR      r0,[r1,#0]
        0x00000910:    2006        .       MOVS     r0,#6
        0x00000912:    f000f875    ..u.    BL       SPI_ReadWriteByte ; 0xa00
        0x00000916:    2001        .       MOVS     r0,#1
        0x00000918:    4901        .I      LDR      r1,[pc,#4] ; [0x920] = 0x40004000
        0x0000091a:    6008        .`      STR      r0,[r1,#0]
        0x0000091c:    bd00        ..      POP      {pc}
    $d
        0x0000091e:    0000        ..      DCW    0
        0x00000920:    40004000    .@.@    DCD    1073758208
    $t
    i.SPI_Flash_Erase_Block
    SPI_Flash_Erase_Block
        0x00000924:    b510        ..      PUSH     {r4,lr}
        0x00000926:    4604        .F      MOV      r4,r0
        0x00000928:    0424        $.      LSLS     r4,r4,#16
        0x0000092a:    f7ffffed    ....    BL       SPI_FLASH_Write_Enable ; 0x908
        0x0000092e:    f000f82d    ..-.    BL       SPI_Flash_Wait_Busy ; 0x98c
        0x00000932:    2000        .       MOVS     r0,#0
        0x00000934:    490a        .I      LDR      r1,[pc,#40] ; [0x960] = 0x40004000
        0x00000936:    6008        .`      STR      r0,[r1,#0]
        0x00000938:    20d8        .       MOVS     r0,#0xd8
        0x0000093a:    f000f861    ..a.    BL       SPI_ReadWriteByte ; 0xa00
        0x0000093e:    0221        !.      LSLS     r1,r4,#8
        0x00000940:    0e08        ..      LSRS     r0,r1,#24
        0x00000942:    f000f85d    ..].    BL       SPI_ReadWriteByte ; 0xa00
        0x00000946:    0421        !.      LSLS     r1,r4,#16
        0x00000948:    0e08        ..      LSRS     r0,r1,#24
        0x0000094a:    f000f859    ..Y.    BL       SPI_ReadWriteByte ; 0xa00
        0x0000094e:    b2e0        ..      UXTB     r0,r4
        0x00000950:    f000f856    ..V.    BL       SPI_ReadWriteByte ; 0xa00
        0x00000954:    2001        .       MOVS     r0,#1
        0x00000956:    4902        .I      LDR      r1,[pc,#8] ; [0x960] = 0x40004000
        0x00000958:    6008        .`      STR      r0,[r1,#0]
        0x0000095a:    f000f817    ....    BL       SPI_Flash_Wait_Busy ; 0x98c
        0x0000095e:    bd10        ..      POP      {r4,pc}
    $d
        0x00000960:    40004000    .@.@    DCD    1073758208
    $t
    i.SPI_Flash_ReadSR
    SPI_Flash_ReadSR
        0x00000964:    b510        ..      PUSH     {r4,lr}
        0x00000966:    2400        .$      MOVS     r4,#0
        0x00000968:    2000        .       MOVS     r0,#0
        0x0000096a:    4907        .I      LDR      r1,[pc,#28] ; [0x988] = 0x40004000
        0x0000096c:    6008        .`      STR      r0,[r1,#0]
        0x0000096e:    2005        .       MOVS     r0,#5
        0x00000970:    f000f846    ..F.    BL       SPI_ReadWriteByte ; 0xa00
        0x00000974:    20ff        .       MOVS     r0,#0xff
        0x00000976:    f000f843    ..C.    BL       SPI_ReadWriteByte ; 0xa00
        0x0000097a:    4604        .F      MOV      r4,r0
        0x0000097c:    2001        .       MOVS     r0,#1
        0x0000097e:    4902        .I      LDR      r1,[pc,#8] ; [0x988] = 0x40004000
        0x00000980:    6008        .`      STR      r0,[r1,#0]
        0x00000982:    4620         F      MOV      r0,r4
        0x00000984:    bd10        ..      POP      {r4,pc}
    $d
        0x00000986:    0000        ..      DCW    0
        0x00000988:    40004000    .@.@    DCD    1073758208
    $t
    i.SPI_Flash_Wait_Busy
    SPI_Flash_Wait_Busy
        0x0000098c:    b500        ..      PUSH     {lr}
        0x0000098e:    bf00        ..      NOP      
        0x00000990:    f7ffffe8    ....    BL       SPI_Flash_ReadSR ; 0x964
        0x00000994:    07c0        ..      LSLS     r0,r0,#31
        0x00000996:    0fc0        ..      LSRS     r0,r0,#31
        0x00000998:    2800        .(      CMP      r0,#0
        0x0000099a:    d1f9        ..      BNE      0x990 ; SPI_Flash_Wait_Busy + 4
        0x0000099c:    bd00        ..      POP      {pc}
        0x0000099e:    0000        ..      MOVS     r0,r0
    i.SPI_Flash_Write_Page
    SPI_Flash_Write_Page
        0x000009a0:    b5f0        ..      PUSH     {r4-r7,lr}
        0x000009a2:    4606        .F      MOV      r6,r0
        0x000009a4:    460c        .F      MOV      r4,r1
        0x000009a6:    4617        .F      MOV      r7,r2
        0x000009a8:    f7ffffae    ....    BL       SPI_FLASH_Write_Enable ; 0x908
        0x000009ac:    2000        .       MOVS     r0,#0
        0x000009ae:    490f        .I      LDR      r1,[pc,#60] ; [0x9ec] = 0x40004000
        0x000009b0:    6008        .`      STR      r0,[r1,#0]
        0x000009b2:    2002        .       MOVS     r0,#2
        0x000009b4:    f000f824    ..$.    BL       SPI_ReadWriteByte ; 0xa00
        0x000009b8:    0221        !.      LSLS     r1,r4,#8
        0x000009ba:    0e08        ..      LSRS     r0,r1,#24
        0x000009bc:    f000f820    .. .    BL       SPI_ReadWriteByte ; 0xa00
        0x000009c0:    0421        !.      LSLS     r1,r4,#16
        0x000009c2:    0e08        ..      LSRS     r0,r1,#24
        0x000009c4:    f000f81c    ....    BL       SPI_ReadWriteByte ; 0xa00
        0x000009c8:    b2e0        ..      UXTB     r0,r4
        0x000009ca:    f000f819    ....    BL       SPI_ReadWriteByte ; 0xa00
        0x000009ce:    2500        .%      MOVS     r5,#0
        0x000009d0:    e004        ..      B        0x9dc ; SPI_Flash_Write_Page + 60
        0x000009d2:    5d70        p]      LDRB     r0,[r6,r5]
        0x000009d4:    f000f814    ....    BL       SPI_ReadWriteByte ; 0xa00
        0x000009d8:    1c68        h.      ADDS     r0,r5,#1
        0x000009da:    b285        ..      UXTH     r5,r0
        0x000009dc:    42bd        .B      CMP      r5,r7
        0x000009de:    dbf8        ..      BLT      0x9d2 ; SPI_Flash_Write_Page + 50
        0x000009e0:    2001        .       MOVS     r0,#1
        0x000009e2:    4902        .I      LDR      r1,[pc,#8] ; [0x9ec] = 0x40004000
        0x000009e4:    6008        .`      STR      r0,[r1,#0]
        0x000009e6:    f7ffffd1    ....    BL       SPI_Flash_Wait_Busy ; 0x98c
        0x000009ea:    bdf0        ..      POP      {r4-r7,pc}
    $d
        0x000009ec:    40004000    .@.@    DCD    1073758208
    $t
    i.SPI_Init
    SPI_Init
        0x000009f0:    4902        .I      LDR      r1,[pc,#8] ; [0x9fc] = 0x40004000
        0x000009f2:    6048        H`      STR      r0,[r1,#4]
        0x000009f4:    2101        .!      MOVS     r1,#1
        0x000009f6:    4a01        .J      LDR      r2,[pc,#4] ; [0x9fc] = 0x40004000
        0x000009f8:    6011        .`      STR      r1,[r2,#0]
        0x000009fa:    4770        pG      BX       lr
    $d
        0x000009fc:    40004000    .@.@    DCD    1073758208
    $t
    i.SPI_ReadWriteByte
    SPI_ReadWriteByte
        0x00000a00:    b510        ..      PUSH     {r4,lr}
        0x00000a02:    4604        .F      MOV      r4,r0
        0x00000a04:    2300        .#      MOVS     r3,#0
        0x00000a06:    e005        ..      B        0xa14 ; SPI_ReadWriteByte + 20
        0x00000a08:    1c58        X.      ADDS     r0,r3,#1
        0x00000a0a:    b2c3        ..      UXTB     r3,r0
        0x00000a0c:    2bc8        .+      CMP      r3,#0xc8
        0x00000a0e:    dd01        ..      BLE      0xa14 ; SPI_ReadWriteByte + 20
        0x00000a10:    2000        .       MOVS     r0,#0
        0x00000a12:    bd10        ..      POP      {r4,pc}
        0x00000a14:    f7fffd50    ..P.    BL       Is_SPI_Ready ; 0x4b8
        0x00000a18:    2800        .(      CMP      r0,#0
        0x00000a1a:    d0f5        ..      BEQ      0xa08 ; SPI_ReadWriteByte + 8
        0x00000a1c:    4620         F      MOV      r0,r4
        0x00000a1e:    f000f813    ....    BL       SPI_SendData ; 0xa48
        0x00000a22:    2300        .#      MOVS     r3,#0
        0x00000a24:    e005        ..      B        0xa32 ; SPI_ReadWriteByte + 50
        0x00000a26:    1c58        X.      ADDS     r0,r3,#1
        0x00000a28:    b2c3        ..      UXTB     r3,r0
        0x00000a2a:    2bc8        .+      CMP      r3,#0xc8
        0x00000a2c:    dd01        ..      BLE      0xa32 ; SPI_ReadWriteByte + 50
        0x00000a2e:    2000        .       MOVS     r0,#0
        0x00000a30:    e7ef        ..      B        0xa12 ; SPI_ReadWriteByte + 18
        0x00000a32:    f7fffd41    ..A.    BL       Is_SPI_Ready ; 0x4b8
        0x00000a36:    2800        .(      CMP      r0,#0
        0x00000a38:    d0f5        ..      BEQ      0xa26 ; SPI_ReadWriteByte + 38
        0x00000a3a:    4802        .H      LDR      r0,[pc,#8] ; [0xa44] = 0x40004000
        0x00000a3c:    6900        .i      LDR      r0,[r0,#0x10]
        0x00000a3e:    b2c0        ..      UXTB     r0,r0
        0x00000a40:    e7e7        ..      B        0xa12 ; SPI_ReadWriteByte + 18
    $d
        0x00000a42:    0000        ..      DCW    0
        0x00000a44:    40004000    .@.@    DCD    1073758208
    $t
    i.SPI_SendData
    SPI_SendData
        0x00000a48:    4903        .I      LDR      r1,[pc,#12] ; [0xa58] = 0x40004000
        0x00000a4a:    6088        .`      STR      r0,[r1,#8]
        0x00000a4c:    2101        .!      MOVS     r1,#1
        0x00000a4e:    4a02        .J      LDR      r2,[pc,#8] ; [0xa58] = 0x40004000
        0x00000a50:    60d1        .`      STR      r1,[r2,#0xc]
        0x00000a52:    2100        .!      MOVS     r1,#0
        0x00000a54:    60d1        .`      STR      r1,[r2,#0xc]
        0x00000a56:    4770        pG      BX       lr
    $d
        0x00000a58:    40004000    .@.@    DCD    1073758208
    $t
    i.SVCHandler
    SVCHandler
        0x00000a5c:    4770        pG      BX       lr
        0x00000a5e:    0000        ..      MOVS     r0,r0
    i.Set_SysTick_CTRL
    Set_SysTick_CTRL
        0x00000a60:    4901        .I      LDR      r1,[pc,#4] ; [0xa68] = 0xe000e000
        0x00000a62:    6108        .a      STR      r0,[r1,#0x10]
        0x00000a64:    4770        pG      BX       lr
    $d
        0x00000a66:    0000        ..      DCW    0
        0x00000a68:    e000e000    ....    DCD    3758153728
    $t
    i.Set_SysTick_LOAD
    Set_SysTick_LOAD
        0x00000a6c:    4901        .I      LDR      r1,[pc,#4] ; [0xa74] = 0xe000e000
        0x00000a6e:    6148        Ha      STR      r0,[r1,#0x14]
        0x00000a70:    4770        pG      BX       lr
    $d
        0x00000a72:    0000        ..      DCW    0
        0x00000a74:    e000e000    ....    DCD    3758153728
    $t
    i.Set_SysTick_VALUE
    Set_SysTick_VALUE
        0x00000a78:    4901        .I      LDR      r1,[pc,#4] ; [0xa80] = 0xe000e000
        0x00000a7a:    6188        .a      STR      r0,[r1,#0x18]
        0x00000a7c:    4770        pG      BX       lr
    $d
        0x00000a7e:    0000        ..      DCW    0
        0x00000a80:    e000e000    ....    DCD    3758153728
    $t
    i.SysTickHandler
    SysTickHandler
        0x00000a84:    b510        ..      PUSH     {r4,lr}
        0x00000a86:    2000        .       MOVS     r0,#0
        0x00000a88:    f7ffffea    ....    BL       Set_SysTick_CTRL ; 0xa60
        0x00000a8c:    4803        .H      LDR      r0,[pc,#12] ; [0xa9c] = 0xe000ed00
        0x00000a8e:    6840        @h      LDR      r0,[r0,#4]
        0x00000a90:    2101        .!      MOVS     r1,#1
        0x00000a92:    0649        I.      LSLS     r1,r1,#25
        0x00000a94:    4308        .C      ORRS     r0,r0,r1
        0x00000a96:    4901        .I      LDR      r1,[pc,#4] ; [0xa9c] = 0xe000ed00
        0x00000a98:    6048        H`      STR      r0,[r1,#4]
        0x00000a9a:    bd10        ..      POP      {r4,pc}
    $d
        0x00000a9c:    e000ed00    ....    DCD    3758157056
    $t
    i.SystemInit
    SystemInit
        0x00000aa0:    b510        ..      PUSH     {r4,lr}
        0x00000aa2:    2001        .       MOVS     r0,#1
        0x00000aa4:    f7fffe50    ..P.    BL       NVIC_EnableIRQ ; 0x748
        0x00000aa8:    2000        .       MOVS     r0,#0
        0x00000aaa:    f7fffe4d    ..M.    BL       NVIC_EnableIRQ ; 0x748
        0x00000aae:    2008        .       MOVS     r0,#8
        0x00000ab0:    f7fffe4a    ..J.    BL       NVIC_EnableIRQ ; 0x748
        0x00000ab4:    2009        .       MOVS     r0,#9
        0x00000ab6:    f7fffe47    ..G.    BL       NVIC_EnableIRQ ; 0x748
        0x00000aba:    bd10        ..      POP      {r4,pc}
    i.Timer_Handler
    Timer_Handler
        0x00000abc:    4770        pG      BX       lr
    i.UARTOVRHandler
    UARTOVRHandler
        0x00000abe:    4770        pG      BX       lr
    i.UARTRXHandler
    UARTRXHandler
        0x00000ac0:    b510        ..      PUSH     {r4,lr}
        0x00000ac2:    2001        .       MOVS     r0,#1
        0x00000ac4:    0780        ..      LSLS     r0,r0,#30
        0x00000ac6:    f004fc31    ..1.    BL       uart_ClearRxIRQ ; 0x532c
        0x00000aca:    2001        .       MOVS     r0,#1
        0x00000acc:    f7fffe1a    ....    BL       LED_toggle ; 0x704
        0x00000ad0:    a001        ..      ADR      r0,{pc}+8 ; 0xad8
        0x00000ad2:    f000f82d    ..-.    BL       __0printf$bare ; 0xb30
        0x00000ad6:    bd10        ..      POP      {r4,pc}
    $d
        0x00000ad8:    74726175    uart    DCD    1953653109
        0x00000adc:    2078725f    _rx     DCD    544764511
        0x00000ae0:    20746e69    int     DCD    544501353
        0x00000ae4:    7563636f    occu    DCD    1969447791
        0x00000ae8:    21212172    r!!!    DCD    555819378
        0x00000aec:    0000000a    ....    DCD    10
    $t
    i.UARTTXHandler
    UARTTXHandler
        0x00000af0:    b508        ..      PUSH     {r3,lr}
        0x00000af2:    2001        .       MOVS     r0,#1
        0x00000af4:    0780        ..      LSLS     r0,r0,#30
        0x00000af6:    f004fc1c    ....    BL       uart_ClearTxIRQ ; 0x5332
        0x00000afa:    2002        .       MOVS     r0,#2
        0x00000afc:    f7fffe02    ....    BL       LED_toggle ; 0x704
        0x00000b00:    a004        ..      ADR      r0,{pc}+0x14 ; 0xb14
        0x00000b02:    23ff        .#      MOVS     r3,#0xff
        0x00000b04:    3341        A3      ADDS     r3,r3,#0x41
        0x00000b06:    22f0        ."      MOVS     r2,#0xf0
        0x00000b08:    2100        .!      MOVS     r1,#0
        0x00000b0a:    9000        ..      STR      r0,[sp,#0]
        0x00000b0c:    4608        .F      MOV      r0,r1
        0x00000b0e:    f7fffda3    ....    BL       LCD_ShowString ; 0x658
        0x00000b12:    bd08        ..      POP      {r3,pc}
    $d
        0x00000b14:    54524155    UART    DCD    1414676821
        0x00000b18:    495f5854    TX_I    DCD    1230985300
        0x00000b1c:    206e5152    RQn     DCD    544100690
        0x00000b20:    5543434f    OCCU    DCD    1430471503
        0x00000b24:    21444552    RED!    DCD    558122322
        0x00000b28:    00002121    !!..    DCD    8481
    $t
    i.UsageFaultHandler
    UsageFaultHandler
        0x00000b2c:    4770        pG      BX       lr
        0x00000b2e:    0000        ..      MOVS     r0,r0
    i.__0printf$bare
    __0printf$bare
    __1printf$bare
    __2printf
        0x00000b30:    b510        ..      PUSH     {r4,lr}
        0x00000b32:    4a02        .J      LDR      r2,[pc,#8] ; [0xb3c] = 0x170d
        0x00000b34:    4902        .I      LDR      r1,[pc,#8] ; [0xb40] = 0x2000021c
        0x00000b36:    f000f822    ..".    BL       _printf_core ; 0xb7e
        0x00000b3a:    bd10        ..      POP      {r4,pc}
    $d
        0x00000b3c:    0000170d    ....    DCD    5901
        0x00000b40:    2000021c    ...     DCD    536871452
    $t
    i.__ARM_common_switch8
    __ARM_common_switch8
        0x00000b44:    b430        0.      PUSH     {r4,r5}
        0x00000b46:    4674        tF      MOV      r4,lr
        0x00000b48:    1e64        d.      SUBS     r4,r4,#1
        0x00000b4a:    7825        %x      LDRB     r5,[r4,#0]
        0x00000b4c:    1c64        d.      ADDS     r4,r4,#1
        0x00000b4e:    42ab        .B      CMP      r3,r5
        0x00000b50:    d304        ..      BCC      0xb5c ; __ARM_common_switch8 + 24
        0x00000b52:    5d63        c]      LDRB     r3,[r4,r5]
        0x00000b54:    005b        [.      LSLS     r3,r3,#1
        0x00000b56:    18e3        ..      ADDS     r3,r4,r3
        0x00000b58:    bc30        0.      POP      {r4,r5}
        0x00000b5a:    4718        .G      BX       r3
        0x00000b5c:    461d        .F      MOV      r5,r3
        0x00000b5e:    e7f8        ..      B        0xb52 ; __ARM_common_switch8 + 14
    i.__scatterload_copy
    __scatterload_copy
        0x00000b60:    e002        ..      B        0xb68 ; __scatterload_copy + 8
        0x00000b62:    c808        ..      LDM      r0!,{r3}
        0x00000b64:    1f12        ..      SUBS     r2,r2,#4
        0x00000b66:    c108        ..      STM      r1!,{r3}
        0x00000b68:    2a00        .*      CMP      r2,#0
        0x00000b6a:    d1fa        ..      BNE      0xb62 ; __scatterload_copy + 2
        0x00000b6c:    4770        pG      BX       lr
    i.__scatterload_null
    __scatterload_null
        0x00000b6e:    4770        pG      BX       lr
    i.__scatterload_zeroinit
    __scatterload_zeroinit
        0x00000b70:    2000        .       MOVS     r0,#0
        0x00000b72:    e001        ..      B        0xb78 ; __scatterload_zeroinit + 8
        0x00000b74:    c101        ..      STM      r1!,{r0}
        0x00000b76:    1f12        ..      SUBS     r2,r2,#4
        0x00000b78:    2a00        .*      CMP      r2,#0
        0x00000b7a:    d1fb        ..      BNE      0xb74 ; __scatterload_zeroinit + 4
        0x00000b7c:    4770        pG      BX       lr
    i._printf_core
    _printf_core
        0x00000b7e:    b5f8        ..      PUSH     {r3-r7,lr}
        0x00000b80:    4616        .F      MOV      r6,r2
        0x00000b82:    460f        .F      MOV      r7,r1
        0x00000b84:    4604        .F      MOV      r4,r0
        0x00000b86:    2500        .%      MOVS     r5,#0
        0x00000b88:    e003        ..      B        0xb92 ; _printf_core + 20
        0x00000b8a:    4639        9F      MOV      r1,r7
        0x00000b8c:    47b0        .G      BLX      r6
        0x00000b8e:    1c64        d.      ADDS     r4,r4,#1
        0x00000b90:    1c6d        m.      ADDS     r5,r5,#1
        0x00000b92:    7820         x      LDRB     r0,[r4,#0]
        0x00000b94:    2800        .(      CMP      r0,#0
        0x00000b96:    d1f8        ..      BNE      0xb8a ; _printf_core + 12
        0x00000b98:    4628        (F      MOV      r0,r5
        0x00000b9a:    bdf8        ..      POP      {r3-r7,pc}
    i.b_green_createOnePlane
    b_green_createOnePlane
        0x00000b9c:    b570        p.      PUSH     {r4-r6,lr}
        0x00000b9e:    4605        .F      MOV      r5,r0
        0x00000ba0:    2400        .$      MOVS     r4,#0
        0x00000ba2:    e059        Y.      B        0xc58 ; b_green_createOnePlane + 188
        0x00000ba4:    201a        .       MOVS     r0,#0x1a
        0x00000ba6:    4360        `C      MULS     r0,r4,r0
        0x00000ba8:    5c28        (\      LDRB     r0,[r5,r0]
        0x00000baa:    2800        .(      CMP      r0,#0
        0x00000bac:    d153        S.      BNE      0xc56 ; b_green_createOnePlane + 186
        0x00000bae:    2101        .!      MOVS     r1,#1
        0x00000bb0:    201a        .       MOVS     r0,#0x1a
        0x00000bb2:    4360        `C      MULS     r0,r4,r0
        0x00000bb4:    5429        )T      STRB     r1,[r5,r0]
        0x00000bb6:    211e        .!      MOVS     r1,#0x1e
        0x00000bb8:    201a        .       MOVS     r0,#0x1a
        0x00000bba:    4360        `C      MULS     r0,r4,r0
        0x00000bbc:    1940        @.      ADDS     r0,r0,r5
        0x00000bbe:    7041        Ap      STRB     r1,[r0,#1]
        0x00000bc0:    2100        .!      MOVS     r1,#0
        0x00000bc2:    201a        .       MOVS     r0,#0x1a
        0x00000bc4:    4360        `C      MULS     r0,r4,r0
        0x00000bc6:    1940        @.      ADDS     r0,r0,r5
        0x00000bc8:    7081        .p      STRB     r1,[r0,#2]
        0x00000bca:    f7fffad7    ....    BL       rand ; 0x17c
        0x00000bce:    2164        d!      MOVS     r1,#0x64
        0x00000bd0:    4348        HC      MULS     r0,r1,r0
        0x00000bd2:    4606        .F      MOV      r6,r0
        0x00000bd4:    0fc0        ..      LSRS     r0,r0,#31
        0x00000bd6:    1980        ..      ADDS     r0,r0,r6
        0x00000bd8:    1040        @.      ASRS     r0,r0,#1
        0x00000bda:    0040        @.      LSLS     r0,r0,#1
        0x00000bdc:    1a30        0.      SUBS     r0,r6,r0
        0x00000bde:    3064        d0      ADDS     r0,r0,#0x64
        0x00000be0:    b201        ..      SXTH     r1,r0
        0x00000be2:    201a        .       MOVS     r0,#0x1a
        0x00000be4:    4360        `C      MULS     r0,r4,r0
        0x00000be6:    1940        @.      ADDS     r0,r0,r5
        0x00000be8:    8081        ..      STRH     r1,[r0,#4]
        0x00000bea:    21b4        .!      MOVS     r1,#0xb4
        0x00000bec:    201a        .       MOVS     r0,#0x1a
        0x00000bee:    4360        `C      MULS     r0,r4,r0
        0x00000bf0:    1940        @.      ADDS     r0,r0,r5
        0x00000bf2:    80c1        ..      STRH     r1,[r0,#6]
        0x00000bf4:    2100        .!      MOVS     r1,#0
        0x00000bf6:    201a        .       MOVS     r0,#0x1a
        0x00000bf8:    4360        `C      MULS     r0,r4,r0
        0x00000bfa:    1940        @.      ADDS     r0,r0,r5
        0x00000bfc:    7201        .r      STRB     r1,[r0,#8]
        0x00000bfe:    201a        .       MOVS     r0,#0x1a
        0x00000c00:    4360        `C      MULS     r0,r4,r0
        0x00000c02:    1940        @.      ADDS     r0,r0,r5
        0x00000c04:    7241        Ar      STRB     r1,[r0,#9]
        0x00000c06:    201a        .       MOVS     r0,#0x1a
        0x00000c08:    4360        `C      MULS     r0,r4,r0
        0x00000c0a:    1940        @.      ADDS     r0,r0,r5
        0x00000c0c:    7281        .r      STRB     r1,[r0,#0xa]
        0x00000c0e:    1e89        ..      SUBS     r1,r1,#2
        0x00000c10:    201a        .       MOVS     r0,#0x1a
        0x00000c12:    4360        `C      MULS     r0,r4,r0
        0x00000c14:    1940        @.      ADDS     r0,r0,r5
        0x00000c16:    8181        ..      STRH     r1,[r0,#0xc]
        0x00000c18:    211e        .!      MOVS     r1,#0x1e
        0x00000c1a:    201a        .       MOVS     r0,#0x1a
        0x00000c1c:    4360        `C      MULS     r0,r4,r0
        0x00000c1e:    1940        @.      ADDS     r0,r0,r5
        0x00000c20:    81c1        ..      STRH     r1,[r0,#0xe]
        0x00000c22:    215a        Z!      MOVS     r1,#0x5a
        0x00000c24:    201a        .       MOVS     r0,#0x1a
        0x00000c26:    4360        `C      MULS     r0,r4,r0
        0x00000c28:    1940        @.      ADDS     r0,r0,r5
        0x00000c2a:    8201        ..      STRH     r1,[r0,#0x10]
        0x00000c2c:    2128        (!      MOVS     r1,#0x28
        0x00000c2e:    201a        .       MOVS     r0,#0x1a
        0x00000c30:    4360        `C      MULS     r0,r4,r0
        0x00000c32:    1940        @.      ADDS     r0,r0,r5
        0x00000c34:    8241        A.      STRH     r1,[r0,#0x12]
        0x00000c36:    213c        <!      MOVS     r1,#0x3c
        0x00000c38:    201a        .       MOVS     r0,#0x1a
        0x00000c3a:    4360        `C      MULS     r0,r4,r0
        0x00000c3c:    1940        @.      ADDS     r0,r0,r5
        0x00000c3e:    8281        ..      STRH     r1,[r0,#0x14]
        0x00000c40:    21a0        .!      MOVS     r1,#0xa0
        0x00000c42:    201a        .       MOVS     r0,#0x1a
        0x00000c44:    4360        `C      MULS     r0,r4,r0
        0x00000c46:    1940        @.      ADDS     r0,r0,r5
        0x00000c48:    82c1        ..      STRH     r1,[r0,#0x16]
        0x00000c4a:    21b4        .!      MOVS     r1,#0xb4
        0x00000c4c:    201a        .       MOVS     r0,#0x1a
        0x00000c4e:    4360        `C      MULS     r0,r4,r0
        0x00000c50:    1940        @.      ADDS     r0,r0,r5
        0x00000c52:    8301        ..      STRH     r1,[r0,#0x18]
        0x00000c54:    e004        ..      B        0xc60 ; b_green_createOnePlane + 196
        0x00000c56:    1c64        d.      ADDS     r4,r4,#1
        0x00000c58:    4802        .H      LDR      r0,[pc,#8] ; [0xc64] = 0x553c
        0x00000c5a:    7800        .x      LDRB     r0,[r0,#0]
        0x00000c5c:    4284        .B      CMP      r4,r0
        0x00000c5e:    dba1        ..      BLT      0xba4 ; b_green_createOnePlane + 8
        0x00000c60:    bf00        ..      NOP      
        0x00000c62:    bd70        p.      POP      {r4-r6,pc}
    $d
        0x00000c64:    0000553c    <U..    DCD    21820
    $t
    i.b_green_createPlane_511
    b_green_createPlane_511
        0x00000c68:    b510        ..      PUSH     {r4,lr}
        0x00000c6a:    4604        .F      MOV      r4,r0
        0x00000c6c:    4620         F      MOV      r0,r4
        0x00000c6e:    f7ffff95    ....    BL       b_green_createOnePlane ; 0xb9c
        0x00000c72:    bd10        ..      POP      {r4,pc}
    i.b_green_drawPlane
    b_green_drawPlane
        0x00000c74:    b5f8        ..      PUSH     {r3-r7,lr}
        0x00000c76:    4605        .F      MOV      r5,r0
        0x00000c78:    460e        .F      MOV      r6,r1
        0x00000c7a:    2400        .$      MOVS     r4,#0
        0x00000c7c:    e11b        ..      B        0xeb6 ; b_green_drawPlane + 578
        0x00000c7e:    201a        .       MOVS     r0,#0x1a
        0x00000c80:    4360        `C      MULS     r0,r4,r0
        0x00000c82:    5c28        (\      LDRB     r0,[r5,r0]
        0x00000c84:    2800        .(      CMP      r0,#0
        0x00000c86:    d07d        }.      BEQ      0xd84 ; b_green_drawPlane + 272
        0x00000c88:    2020                MOVS     r0,#0x20
        0x00000c8a:    231a        .#      MOVS     r3,#0x1a
        0x00000c8c:    4363        cC      MULS     r3,r4,r3
        0x00000c8e:    195b        [.      ADDS     r3,r3,r5
        0x00000c90:    9000        ..      STR      r0,[sp,#0]
        0x00000c92:    88db        ..      LDRH     r3,[r3,#6]
        0x00000c94:    b2da        ..      UXTB     r2,r3
        0x00000c96:    231a        .#      MOVS     r3,#0x1a
        0x00000c98:    4363        cC      MULS     r3,r4,r3
        0x00000c9a:    195b        [.      ADDS     r3,r3,r5
        0x00000c9c:    889b        ..      LDRH     r3,[r3,#4]
        0x00000c9e:    b2d9        ..      UXTB     r1,r3
        0x00000ca0:    7830        0x      LDRB     r0,[r6,#0]
        0x00000ca2:    23c0        .#      MOVS     r3,#0xc0
        0x00000ca4:    f004fc36    ..6.    BL       writeOneSprite ; 0x5514
        0x00000ca8:    2020                MOVS     r0,#0x20
        0x00000caa:    231a        .#      MOVS     r3,#0x1a
        0x00000cac:    4363        cC      MULS     r3,r4,r3
        0x00000cae:    195b        [.      ADDS     r3,r3,r5
        0x00000cb0:    9000        ..      STR      r0,[sp,#0]
        0x00000cb2:    88db        ..      LDRH     r3,[r3,#6]
        0x00000cb4:    1ddb        ..      ADDS     r3,r3,#7
        0x00000cb6:    b2da        ..      UXTB     r2,r3
        0x00000cb8:    231a        .#      MOVS     r3,#0x1a
        0x00000cba:    4363        cC      MULS     r3,r4,r3
        0x00000cbc:    195b        [.      ADDS     r3,r3,r5
        0x00000cbe:    889b        ..      LDRH     r3,[r3,#4]
        0x00000cc0:    b2d9        ..      UXTB     r1,r3
        0x00000cc2:    7833        3x      LDRB     r3,[r6,#0]
        0x00000cc4:    1c5b        [.      ADDS     r3,r3,#1
        0x00000cc6:    b2d8        ..      UXTB     r0,r3
        0x00000cc8:    23c1        .#      MOVS     r3,#0xc1
        0x00000cca:    f004fc23    ..#.    BL       writeOneSprite ; 0x5514
        0x00000cce:    2020                MOVS     r0,#0x20
        0x00000cd0:    231a        .#      MOVS     r3,#0x1a
        0x00000cd2:    4363        cC      MULS     r3,r4,r3
        0x00000cd4:    195b        [.      ADDS     r3,r3,r5
        0x00000cd6:    9000        ..      STR      r0,[sp,#0]
        0x00000cd8:    88db        ..      LDRH     r3,[r3,#6]
        0x00000cda:    330e        .3      ADDS     r3,r3,#0xe
        0x00000cdc:    b2da        ..      UXTB     r2,r3
        0x00000cde:    231a        .#      MOVS     r3,#0x1a
        0x00000ce0:    4363        cC      MULS     r3,r4,r3
        0x00000ce2:    195b        [.      ADDS     r3,r3,r5
        0x00000ce4:    889b        ..      LDRH     r3,[r3,#4]
        0x00000ce6:    b2d9        ..      UXTB     r1,r3
        0x00000ce8:    7833        3x      LDRB     r3,[r6,#0]
        0x00000cea:    1c9b        ..      ADDS     r3,r3,#2
        0x00000cec:    b2d8        ..      UXTB     r0,r3
        0x00000cee:    23c2        .#      MOVS     r3,#0xc2
        0x00000cf0:    f004fc10    ....    BL       writeOneSprite ; 0x5514
        0x00000cf4:    2020                MOVS     r0,#0x20
        0x00000cf6:    231a        .#      MOVS     r3,#0x1a
        0x00000cf8:    4363        cC      MULS     r3,r4,r3
        0x00000cfa:    195b        [.      ADDS     r3,r3,r5
        0x00000cfc:    9000        ..      STR      r0,[sp,#0]
        0x00000cfe:    88db        ..      LDRH     r3,[r3,#6]
        0x00000d00:    3315        .3      ADDS     r3,r3,#0x15
        0x00000d02:    b2da        ..      UXTB     r2,r3
        0x00000d04:    231a        .#      MOVS     r3,#0x1a
        0x00000d06:    4363        cC      MULS     r3,r4,r3
        0x00000d08:    195b        [.      ADDS     r3,r3,r5
        0x00000d0a:    889b        ..      LDRH     r3,[r3,#4]
        0x00000d0c:    b2d9        ..      UXTB     r1,r3
        0x00000d0e:    7833        3x      LDRB     r3,[r6,#0]
        0x00000d10:    1cdb        ..      ADDS     r3,r3,#3
        0x00000d12:    b2d8        ..      UXTB     r0,r3
        0x00000d14:    23c3        .#      MOVS     r3,#0xc3
        0x00000d16:    f004fbfd    ....    BL       writeOneSprite ; 0x5514
        0x00000d1a:    2020                MOVS     r0,#0x20
        0x00000d1c:    231a        .#      MOVS     r3,#0x1a
        0x00000d1e:    4363        cC      MULS     r3,r4,r3
        0x00000d20:    195b        [.      ADDS     r3,r3,r5
        0x00000d22:    9000        ..      STR      r0,[sp,#0]
        0x00000d24:    88db        ..      LDRH     r3,[r3,#6]
        0x00000d26:    331c        .3      ADDS     r3,r3,#0x1c
        0x00000d28:    b2da        ..      UXTB     r2,r3
        0x00000d2a:    231a        .#      MOVS     r3,#0x1a
        0x00000d2c:    4363        cC      MULS     r3,r4,r3
        0x00000d2e:    195b        [.      ADDS     r3,r3,r5
        0x00000d30:    889b        ..      LDRH     r3,[r3,#4]
        0x00000d32:    1f1b        ..      SUBS     r3,r3,#4
        0x00000d34:    b2d9        ..      UXTB     r1,r3
        0x00000d36:    7833        3x      LDRB     r3,[r6,#0]
        0x00000d38:    1d1b        ..      ADDS     r3,r3,#4
        0x00000d3a:    b2d8        ..      UXTB     r0,r3
        0x00000d3c:    23c4        .#      MOVS     r3,#0xc4
        0x00000d3e:    f004fbe9    ....    BL       writeOneSprite ; 0x5514
        0x00000d42:    2020                MOVS     r0,#0x20
        0x00000d44:    231a        .#      MOVS     r3,#0x1a
        0x00000d46:    4363        cC      MULS     r3,r4,r3
        0x00000d48:    195b        [.      ADDS     r3,r3,r5
        0x00000d4a:    9000        ..      STR      r0,[sp,#0]
        0x00000d4c:    88db        ..      LDRH     r3,[r3,#6]
        0x00000d4e:    331c        .3      ADDS     r3,r3,#0x1c
        0x00000d50:    b2da        ..      UXTB     r2,r3
        0x00000d52:    231a        .#      MOVS     r3,#0x1a
        0x00000d54:    4363        cC      MULS     r3,r4,r3
        0x00000d56:    195b        [.      ADDS     r3,r3,r5
        0x00000d58:    889b        ..      LDRH     r3,[r3,#4]
        0x00000d5a:    1d1b        ..      ADDS     r3,r3,#4
        0x00000d5c:    b2d9        ..      UXTB     r1,r3
        0x00000d5e:    7833        3x      LDRB     r3,[r6,#0]
        0x00000d60:    1d5b        [.      ADDS     r3,r3,#5
        0x00000d62:    b2d8        ..      UXTB     r0,r3
        0x00000d64:    23c5        .#      MOVS     r3,#0xc5
        0x00000d66:    f004fbd5    ....    BL       writeOneSprite ; 0x5514
        0x00000d6a:    2060        `       MOVS     r0,#0x60
        0x00000d6c:    231a        .#      MOVS     r3,#0x1a
        0x00000d6e:    4363        cC      MULS     r3,r4,r3
        0x00000d70:    195b        [.      ADDS     r3,r3,r5
        0x00000d72:    9000        ..      STR      r0,[sp,#0]
        0x00000d74:    88db        ..      LDRH     r3,[r3,#6]
        0x00000d76:    1d5b        [.      ADDS     r3,r3,#5
        0x00000d78:    b2da        ..      UXTB     r2,r3
        0x00000d7a:    231a        .#      MOVS     r3,#0x1a
        0x00000d7c:    4363        cC      MULS     r3,r4,r3
        0x00000d7e:    195b        [.      ADDS     r3,r3,r5
        0x00000d80:    889b        ..      LDRH     r3,[r3,#4]
        0x00000d82:    e000        ..      B        0xd86 ; b_green_drawPlane + 274
        0x00000d84:    e096        ..      B        0xeb4 ; b_green_drawPlane + 576
        0x00000d86:    1fdb        ..      SUBS     r3,r3,#7
        0x00000d88:    b2d9        ..      UXTB     r1,r3
        0x00000d8a:    7833        3x      LDRB     r3,[r6,#0]
        0x00000d8c:    1d9b        ..      ADDS     r3,r3,#6
        0x00000d8e:    b2d8        ..      UXTB     r0,r3
        0x00000d90:    23c6        .#      MOVS     r3,#0xc6
        0x00000d92:    f004fbbf    ....    BL       writeOneSprite ; 0x5514
        0x00000d96:    2020                MOVS     r0,#0x20
        0x00000d98:    231a        .#      MOVS     r3,#0x1a
        0x00000d9a:    4363        cC      MULS     r3,r4,r3
        0x00000d9c:    195b        [.      ADDS     r3,r3,r5
        0x00000d9e:    9000        ..      STR      r0,[sp,#0]
        0x00000da0:    88db        ..      LDRH     r3,[r3,#6]
        0x00000da2:    1d5b        [.      ADDS     r3,r3,#5
        0x00000da4:    b2da        ..      UXTB     r2,r3
        0x00000da6:    231a        .#      MOVS     r3,#0x1a
        0x00000da8:    4363        cC      MULS     r3,r4,r3
        0x00000daa:    195b        [.      ADDS     r3,r3,r5
        0x00000dac:    889b        ..      LDRH     r3,[r3,#4]
        0x00000dae:    1ddb        ..      ADDS     r3,r3,#7
        0x00000db0:    b2d9        ..      UXTB     r1,r3
        0x00000db2:    7833        3x      LDRB     r3,[r6,#0]
        0x00000db4:    1ddb        ..      ADDS     r3,r3,#7
        0x00000db6:    b2d8        ..      UXTB     r0,r3
        0x00000db8:    23c6        .#      MOVS     r3,#0xc6
        0x00000dba:    f004fbab    ....    BL       writeOneSprite ; 0x5514
        0x00000dbe:    2020                MOVS     r0,#0x20
        0x00000dc0:    231a        .#      MOVS     r3,#0x1a
        0x00000dc2:    4363        cC      MULS     r3,r4,r3
        0x00000dc4:    195b        [.      ADDS     r3,r3,r5
        0x00000dc6:    9000        ..      STR      r0,[sp,#0]
        0x00000dc8:    88db        ..      LDRH     r3,[r3,#6]
        0x00000dca:    330c        .3      ADDS     r3,r3,#0xc
        0x00000dcc:    b2da        ..      UXTB     r2,r3
        0x00000dce:    231a        .#      MOVS     r3,#0x1a
        0x00000dd0:    4363        cC      MULS     r3,r4,r3
        0x00000dd2:    195b        [.      ADDS     r3,r3,r5
        0x00000dd4:    889b        ..      LDRH     r3,[r3,#4]
        0x00000dd6:    1fdb        ..      SUBS     r3,r3,#7
        0x00000dd8:    b2d9        ..      UXTB     r1,r3
        0x00000dda:    7833        3x      LDRB     r3,[r6,#0]
        0x00000ddc:    3308        .3      ADDS     r3,r3,#8
        0x00000dde:    b2d8        ..      UXTB     r0,r3
        0x00000de0:    23c9        .#      MOVS     r3,#0xc9
        0x00000de2:    f004fb97    ....    BL       writeOneSprite ; 0x5514
        0x00000de6:    2020                MOVS     r0,#0x20
        0x00000de8:    231a        .#      MOVS     r3,#0x1a
        0x00000dea:    4363        cC      MULS     r3,r4,r3
        0x00000dec:    195b        [.      ADDS     r3,r3,r5
        0x00000dee:    9000        ..      STR      r0,[sp,#0]
        0x00000df0:    88db        ..      LDRH     r3,[r3,#6]
        0x00000df2:    330c        .3      ADDS     r3,r3,#0xc
        0x00000df4:    b2da        ..      UXTB     r2,r3
        0x00000df6:    231a        .#      MOVS     r3,#0x1a
        0x00000df8:    4363        cC      MULS     r3,r4,r3
        0x00000dfa:    195b        [.      ADDS     r3,r3,r5
        0x00000dfc:    889b        ..      LDRH     r3,[r3,#4]
        0x00000dfe:    1ddb        ..      ADDS     r3,r3,#7
        0x00000e00:    b2d9        ..      UXTB     r1,r3
        0x00000e02:    7833        3x      LDRB     r3,[r6,#0]
        0x00000e04:    3309        .3      ADDS     r3,r3,#9
        0x00000e06:    b2d8        ..      UXTB     r0,r3
        0x00000e08:    23ca        .#      MOVS     r3,#0xca
        0x00000e0a:    f004fb83    ....    BL       writeOneSprite ; 0x5514
        0x00000e0e:    2020                MOVS     r0,#0x20
        0x00000e10:    231a        .#      MOVS     r3,#0x1a
        0x00000e12:    4363        cC      MULS     r3,r4,r3
        0x00000e14:    195b        [.      ADDS     r3,r3,r5
        0x00000e16:    9000        ..      STR      r0,[sp,#0]
        0x00000e18:    88db        ..      LDRH     r3,[r3,#6]
        0x00000e1a:    330a        .3      ADDS     r3,r3,#0xa
        0x00000e1c:    b2da        ..      UXTB     r2,r3
        0x00000e1e:    231a        .#      MOVS     r3,#0x1a
        0x00000e20:    4363        cC      MULS     r3,r4,r3
        0x00000e22:    195b        [.      ADDS     r3,r3,r5
        0x00000e24:    889b        ..      LDRH     r3,[r3,#4]
        0x00000e26:    3b0e        .;      SUBS     r3,r3,#0xe
        0x00000e28:    b2d9        ..      UXTB     r1,r3
        0x00000e2a:    7833        3x      LDRB     r3,[r6,#0]
        0x00000e2c:    330a        .3      ADDS     r3,r3,#0xa
        0x00000e2e:    b2d8        ..      UXTB     r0,r3
        0x00000e30:    23c8        .#      MOVS     r3,#0xc8
        0x00000e32:    f004fb6f    ..o.    BL       writeOneSprite ; 0x5514
        0x00000e36:    2060        `       MOVS     r0,#0x60
        0x00000e38:    231a        .#      MOVS     r3,#0x1a
        0x00000e3a:    4363        cC      MULS     r3,r4,r3
        0x00000e3c:    195b        [.      ADDS     r3,r3,r5
        0x00000e3e:    9000        ..      STR      r0,[sp,#0]
        0x00000e40:    88db        ..      LDRH     r3,[r3,#6]
        0x00000e42:    330a        .3      ADDS     r3,r3,#0xa
        0x00000e44:    b2da        ..      UXTB     r2,r3
        0x00000e46:    231a        .#      MOVS     r3,#0x1a
        0x00000e48:    4363        cC      MULS     r3,r4,r3
        0x00000e4a:    195b        [.      ADDS     r3,r3,r5
        0x00000e4c:    889b        ..      LDRH     r3,[r3,#4]
        0x00000e4e:    330e        .3      ADDS     r3,r3,#0xe
        0x00000e50:    b2d9        ..      UXTB     r1,r3
        0x00000e52:    7833        3x      LDRB     r3,[r6,#0]
        0x00000e54:    330b        .3      ADDS     r3,r3,#0xb
        0x00000e56:    b2d8        ..      UXTB     r0,r3
        0x00000e58:    23c8        .#      MOVS     r3,#0xc8
        0x00000e5a:    f004fb5b    ..[.    BL       writeOneSprite ; 0x5514
        0x00000e5e:    2020                MOVS     r0,#0x20
        0x00000e60:    231a        .#      MOVS     r3,#0x1a
        0x00000e62:    4363        cC      MULS     r3,r4,r3
        0x00000e64:    195b        [.      ADDS     r3,r3,r5
        0x00000e66:    9000        ..      STR      r0,[sp,#0]
        0x00000e68:    88db        ..      LDRH     r3,[r3,#6]
        0x00000e6a:    330a        .3      ADDS     r3,r3,#0xa
        0x00000e6c:    b2da        ..      UXTB     r2,r3
        0x00000e6e:    231a        .#      MOVS     r3,#0x1a
        0x00000e70:    4363        cC      MULS     r3,r4,r3
        0x00000e72:    195b        [.      ADDS     r3,r3,r5
        0x00000e74:    889b        ..      LDRH     r3,[r3,#4]
        0x00000e76:    3b15        .;      SUBS     r3,r3,#0x15
        0x00000e78:    b2d9        ..      UXTB     r1,r3
        0x00000e7a:    7833        3x      LDRB     r3,[r6,#0]
        0x00000e7c:    330c        .3      ADDS     r3,r3,#0xc
        0x00000e7e:    b2d8        ..      UXTB     r0,r3
        0x00000e80:    23c7        .#      MOVS     r3,#0xc7
        0x00000e82:    f004fb47    ..G.    BL       writeOneSprite ; 0x5514
        0x00000e86:    2060        `       MOVS     r0,#0x60
        0x00000e88:    231a        .#      MOVS     r3,#0x1a
        0x00000e8a:    4363        cC      MULS     r3,r4,r3
        0x00000e8c:    195b        [.      ADDS     r3,r3,r5
        0x00000e8e:    9000        ..      STR      r0,[sp,#0]
        0x00000e90:    88db        ..      LDRH     r3,[r3,#6]
        0x00000e92:    330a        .3      ADDS     r3,r3,#0xa
        0x00000e94:    b2da        ..      UXTB     r2,r3
        0x00000e96:    231a        .#      MOVS     r3,#0x1a
        0x00000e98:    4363        cC      MULS     r3,r4,r3
        0x00000e9a:    195b        [.      ADDS     r3,r3,r5
        0x00000e9c:    889b        ..      LDRH     r3,[r3,#4]
        0x00000e9e:    3315        .3      ADDS     r3,r3,#0x15
        0x00000ea0:    b2d9        ..      UXTB     r1,r3
        0x00000ea2:    7833        3x      LDRB     r3,[r6,#0]
        0x00000ea4:    330d        .3      ADDS     r3,r3,#0xd
        0x00000ea6:    b2d8        ..      UXTB     r0,r3
        0x00000ea8:    23c7        .#      MOVS     r3,#0xc7
        0x00000eaa:    f004fb33    ..3.    BL       writeOneSprite ; 0x5514
        0x00000eae:    7830        0x      LDRB     r0,[r6,#0]
        0x00000eb0:    300e        .0      ADDS     r0,r0,#0xe
        0x00000eb2:    7030        0p      STRB     r0,[r6,#0]
        0x00000eb4:    1c64        d.      ADDS     r4,r4,#1
        0x00000eb6:    4803        .H      LDR      r0,[pc,#12] ; [0xec4] = 0x553c
        0x00000eb8:    7800        .x      LDRB     r0,[r0,#0]
        0x00000eba:    4284        .B      CMP      r4,r0
        0x00000ebc:    da00        ..      BGE      0xec0 ; b_green_drawPlane + 588
        0x00000ebe:    e6de        ..      B        0xc7e ; b_green_drawPlane + 10
        0x00000ec0:    bdf8        ..      POP      {r3-r7,pc}
    $d
        0x00000ec2:    0000        ..      DCW    0
        0x00000ec4:    0000553c    <U..    DCD    21820
    $t
    i.b_green_movePlane
    b_green_movePlane
        0x00000ec8:    b570        p.      PUSH     {r4-r6,lr}
        0x00000eca:    4604        .F      MOV      r4,r0
        0x00000ecc:    2500        .%      MOVS     r5,#0
        0x00000ece:    e1aa        ..      B        0x1226 ; b_green_movePlane + 862
        0x00000ed0:    201a        .       MOVS     r0,#0x1a
        0x00000ed2:    4368        hC      MULS     r0,r5,r0
        0x00000ed4:    5c20         \      LDRB     r0,[r4,r0]
        0x00000ed6:    2800        .(      CMP      r0,#0
        0x00000ed8:    d02f        /.      BEQ      0xf3a ; b_green_movePlane + 114
        0x00000eda:    201a        .       MOVS     r0,#0x1a
        0x00000edc:    4368        hC      MULS     r0,r5,r0
        0x00000ede:    1900        ..      ADDS     r0,r0,r4
        0x00000ee0:    7880        .x      LDRB     r0,[r0,#2]
        0x00000ee2:    2802        .(      CMP      r0,#2
        0x00000ee4:    d17e        ~.      BNE      0xfe4 ; b_green_movePlane + 284
        0x00000ee6:    2100        .!      MOVS     r1,#0
        0x00000ee8:    201a        .       MOVS     r0,#0x1a
        0x00000eea:    4368        hC      MULS     r0,r5,r0
        0x00000eec:    1900        ..      ADDS     r0,r0,r4
        0x00000eee:    7081        .p      STRB     r1,[r0,#2]
        0x00000ef0:    201a        .       MOVS     r0,#0x1a
        0x00000ef2:    4368        hC      MULS     r0,r5,r0
        0x00000ef4:    1900        ..      ADDS     r0,r0,r4
        0x00000ef6:    7a00        .z      LDRB     r0,[r0,#8]
        0x00000ef8:    2800        .(      CMP      r0,#0
        0x00000efa:    d12e        ..      BNE      0xf5a ; b_green_movePlane + 146
        0x00000efc:    201a        .       MOVS     r0,#0x1a
        0x00000efe:    4368        hC      MULS     r0,r5,r0
        0x00000f00:    1900        ..      ADDS     r0,r0,r4
        0x00000f02:    2106        .!      MOVS     r1,#6
        0x00000f04:    5e41        A^      LDRSH    r1,[r0,r1]
        0x00000f06:    201a        .       MOVS     r0,#0x1a
        0x00000f08:    4368        hC      MULS     r0,r5,r0
        0x00000f0a:    1900        ..      ADDS     r0,r0,r4
        0x00000f0c:    2210        ."      MOVS     r2,#0x10
        0x00000f0e:    5e82        .^      LDRSH    r2,[r0,r2]
        0x00000f10:    4291        .B      CMP      r1,r2
        0x00000f12:    dc13        ..      BGT      0xf3c ; b_green_movePlane + 116
        0x00000f14:    2100        .!      MOVS     r1,#0
        0x00000f16:    201a        .       MOVS     r0,#0x1a
        0x00000f18:    4368        hC      MULS     r0,r5,r0
        0x00000f1a:    1900        ..      ADDS     r0,r0,r4
        0x00000f1c:    7281        .r      STRB     r1,[r0,#0xa]
        0x00000f1e:    201a        .       MOVS     r0,#0x1a
        0x00000f20:    4368        hC      MULS     r0,r5,r0
        0x00000f22:    1900        ..      ADDS     r0,r0,r4
        0x00000f24:    7241        Ar      STRB     r1,[r0,#9]
        0x00000f26:    2101        .!      MOVS     r1,#1
        0x00000f28:    201a        .       MOVS     r0,#0x1a
        0x00000f2a:    4368        hC      MULS     r0,r5,r0
        0x00000f2c:    1900        ..      ADDS     r0,r0,r4
        0x00000f2e:    7201        .r      STRB     r1,[r0,#8]
        0x00000f30:    4ac0        .J      LDR      r2,[pc,#768] ; [0x1234] = 0x20002300
        0x00000f32:    4621        !F      MOV      r1,r4
        0x00000f34:    48c0        .H      LDR      r0,[pc,#768] ; [0x1238] = 0x200024d4
        0x00000f36:    f003fba3    ....    BL       s_grey_createOneEnmeyBullet ; 0x4680
        0x00000f3a:    e173        s.      B        0x1224 ; b_green_movePlane + 860
        0x00000f3c:    201a        .       MOVS     r0,#0x1a
        0x00000f3e:    4368        hC      MULS     r0,r5,r0
        0x00000f40:    1900        ..      ADDS     r0,r0,r4
        0x00000f42:    88c1        ..      LDRH     r1,[r0,#6]
        0x00000f44:    201a        .       MOVS     r0,#0x1a
        0x00000f46:    4368        hC      MULS     r0,r5,r0
        0x00000f48:    1900        ..      ADDS     r0,r0,r4
        0x00000f4a:    8980        ..      LDRH     r0,[r0,#0xc]
        0x00000f4c:    1808        ..      ADDS     r0,r1,r0
        0x00000f4e:    b201        ..      SXTH     r1,r0
        0x00000f50:    201a        .       MOVS     r0,#0x1a
        0x00000f52:    4368        hC      MULS     r0,r5,r0
        0x00000f54:    1900        ..      ADDS     r0,r0,r4
        0x00000f56:    80c1        ..      STRH     r1,[r0,#6]
        0x00000f58:    e164        d.      B        0x1224 ; b_green_movePlane + 860
        0x00000f5a:    201a        .       MOVS     r0,#0x1a
        0x00000f5c:    4368        hC      MULS     r0,r5,r0
        0x00000f5e:    1900        ..      ADDS     r0,r0,r4
        0x00000f60:    7a00        .z      LDRB     r0,[r0,#8]
        0x00000f62:    2801        .(      CMP      r0,#1
        0x00000f64:    d17e        ~.      BNE      0x1064 ; b_green_movePlane + 412
        0x00000f66:    201a        .       MOVS     r0,#0x1a
        0x00000f68:    4368        hC      MULS     r0,r5,r0
        0x00000f6a:    1900        ..      ADDS     r0,r0,r4
        0x00000f6c:    7a40        @z      LDRB     r0,[r0,#9]
        0x00000f6e:    2800        .(      CMP      r0,#0
        0x00000f70:    d15a        Z.      BNE      0x1028 ; b_green_movePlane + 352
        0x00000f72:    201a        .       MOVS     r0,#0x1a
        0x00000f74:    4368        hC      MULS     r0,r5,r0
        0x00000f76:    1900        ..      ADDS     r0,r0,r4
        0x00000f78:    8880        ..      LDRH     r0,[r0,#4]
        0x00000f7a:    1e80        ..      SUBS     r0,r0,#2
        0x00000f7c:    b201        ..      SXTH     r1,r0
        0x00000f7e:    201a        .       MOVS     r0,#0x1a
        0x00000f80:    4368        hC      MULS     r0,r5,r0
        0x00000f82:    1900        ..      ADDS     r0,r0,r4
        0x00000f84:    8081        ..      STRH     r1,[r0,#4]
        0x00000f86:    f7fff8f9    ....    BL       rand ; 0x17c
        0x00000f8a:    4606        .F      MOV      r6,r0
        0x00000f8c:    2103        .!      MOVS     r1,#3
        0x00000f8e:    f7fff8e1    ....    BL       __aeabi_idiv ; 0x154
        0x00000f92:    1e49        I.      SUBS     r1,r1,#1
        0x00000f94:    201a        .       MOVS     r0,#0x1a
        0x00000f96:    4368        hC      MULS     r0,r5,r0
        0x00000f98:    1900        ..      ADDS     r0,r0,r4
        0x00000f9a:    88c0        ..      LDRH     r0,[r0,#6]
        0x00000f9c:    1808        ..      ADDS     r0,r1,r0
        0x00000f9e:    b201        ..      SXTH     r1,r0
        0x00000fa0:    201a        .       MOVS     r0,#0x1a
        0x00000fa2:    4368        hC      MULS     r0,r5,r0
        0x00000fa4:    1900        ..      ADDS     r0,r0,r4
        0x00000fa6:    80c1        ..      STRH     r1,[r0,#6]
        0x00000fa8:    201a        .       MOVS     r0,#0x1a
        0x00000faa:    4368        hC      MULS     r0,r5,r0
        0x00000fac:    1900        ..      ADDS     r0,r0,r4
        0x00000fae:    2104        .!      MOVS     r1,#4
        0x00000fb0:    5e41        A^      LDRSH    r1,[r0,r1]
        0x00000fb2:    201a        .       MOVS     r0,#0x1a
        0x00000fb4:    4368        hC      MULS     r0,r5,r0
        0x00000fb6:    1900        ..      ADDS     r0,r0,r4
        0x00000fb8:    2212        ."      MOVS     r2,#0x12
        0x00000fba:    5e82        .^      LDRSH    r2,[r0,r2]
        0x00000fbc:    4291        .B      CMP      r1,r2
        0x00000fbe:    da09        ..      BGE      0xfd4 ; b_green_movePlane + 268
        0x00000fc0:    2101        .!      MOVS     r1,#1
        0x00000fc2:    201a        .       MOVS     r0,#0x1a
        0x00000fc4:    4368        hC      MULS     r0,r5,r0
        0x00000fc6:    1900        ..      ADDS     r0,r0,r4
        0x00000fc8:    7241        Ar      STRB     r1,[r0,#9]
        0x00000fca:    4a9a        .J      LDR      r2,[pc,#616] ; [0x1234] = 0x20002300
        0x00000fcc:    4621        !F      MOV      r1,r4
        0x00000fce:    489a        .H      LDR      r0,[pc,#616] ; [0x1238] = 0x200024d4
        0x00000fd0:    f003fb56    ..V.    BL       s_grey_createOneEnmeyBullet ; 0x4680
        0x00000fd4:    201a        .       MOVS     r0,#0x1a
        0x00000fd6:    4368        hC      MULS     r0,r5,r0
        0x00000fd8:    1900        ..      ADDS     r0,r0,r4
        0x00000fda:    2104        .!      MOVS     r1,#4
        0x00000fdc:    5e41        A^      LDRSH    r1,[r0,r1]
        0x00000fde:    2964        d)      CMP      r1,#0x64
        0x00000fe0:    da0e        ..      BGE      0x1000 ; b_green_movePlane + 312
        0x00000fe2:    e000        ..      B        0xfe6 ; b_green_movePlane + 286
        0x00000fe4:    e114        ..      B        0x1210 ; b_green_movePlane + 840
        0x00000fe6:    201a        .       MOVS     r0,#0x1a
        0x00000fe8:    4368        hC      MULS     r0,r5,r0
        0x00000fea:    1900        ..      ADDS     r0,r0,r4
        0x00000fec:    2104        .!      MOVS     r1,#4
        0x00000fee:    5e41        A^      LDRSH    r1,[r0,r1]
        0x00000ff0:    2961        a)      CMP      r1,#0x61
        0x00000ff2:    dd05        ..      BLE      0x1000 ; b_green_movePlane + 312
        0x00000ff4:    4a8f        .J      LDR      r2,[pc,#572] ; [0x1234] = 0x20002300
        0x00000ff6:    4621        !F      MOV      r1,r4
        0x00000ff8:    488f        .H      LDR      r0,[pc,#572] ; [0x1238] = 0x200024d4
        0x00000ffa:    f003fb41    ..A.    BL       s_grey_createOneEnmeyBullet ; 0x4680
        0x00000ffe:    e111        ..      B        0x1224 ; b_green_movePlane + 860
        0x00001000:    201a        .       MOVS     r0,#0x1a
        0x00001002:    4368        hC      MULS     r0,r5,r0
        0x00001004:    1900        ..      ADDS     r0,r0,r4
        0x00001006:    2104        .!      MOVS     r1,#4
        0x00001008:    5e41        A^      LDRSH    r1,[r0,r1]
        0x0000100a:    2978        x)      CMP      r1,#0x78
        0x0000100c:    da95        ..      BGE      0xf3a ; b_green_movePlane + 114
        0x0000100e:    201a        .       MOVS     r0,#0x1a
        0x00001010:    4368        hC      MULS     r0,r5,r0
        0x00001012:    1900        ..      ADDS     r0,r0,r4
        0x00001014:    2104        .!      MOVS     r1,#4
        0x00001016:    5e41        A^      LDRSH    r1,[r0,r1]
        0x00001018:    2975        u)      CMP      r1,#0x75
        0x0000101a:    dd8e        ..      BLE      0xf3a ; b_green_movePlane + 114
        0x0000101c:    4a85        .J      LDR      r2,[pc,#532] ; [0x1234] = 0x20002300
        0x0000101e:    4621        !F      MOV      r1,r4
        0x00001020:    4885        .H      LDR      r0,[pc,#532] ; [0x1238] = 0x200024d4
        0x00001022:    f003fb2d    ..-.    BL       s_grey_createOneEnmeyBullet ; 0x4680
        0x00001026:    e0fd        ..      B        0x1224 ; b_green_movePlane + 860
        0x00001028:    201a        .       MOVS     r0,#0x1a
        0x0000102a:    4368        hC      MULS     r0,r5,r0
        0x0000102c:    1900        ..      ADDS     r0,r0,r4
        0x0000102e:    7a40        @z      LDRB     r0,[r0,#9]
        0x00001030:    2801        .(      CMP      r0,#1
        0x00001032:    d12c        ,.      BNE      0x108e ; b_green_movePlane + 454
        0x00001034:    201a        .       MOVS     r0,#0x1a
        0x00001036:    4368        hC      MULS     r0,r5,r0
        0x00001038:    1900        ..      ADDS     r0,r0,r4
        0x0000103a:    8880        ..      LDRH     r0,[r0,#4]
        0x0000103c:    1c80        ..      ADDS     r0,r0,#2
        0x0000103e:    b201        ..      SXTH     r1,r0
        0x00001040:    201a        .       MOVS     r0,#0x1a
        0x00001042:    4368        hC      MULS     r0,r5,r0
        0x00001044:    1900        ..      ADDS     r0,r0,r4
        0x00001046:    8081        ..      STRH     r1,[r0,#4]
        0x00001048:    201a        .       MOVS     r0,#0x1a
        0x0000104a:    4368        hC      MULS     r0,r5,r0
        0x0000104c:    1900        ..      ADDS     r0,r0,r4
        0x0000104e:    88c0        ..      LDRH     r0,[r0,#6]
        0x00001050:    1e80        ..      SUBS     r0,r0,#2
        0x00001052:    b201        ..      SXTH     r1,r0
        0x00001054:    201a        .       MOVS     r0,#0x1a
        0x00001056:    4368        hC      MULS     r0,r5,r0
        0x00001058:    1900        ..      ADDS     r0,r0,r4
        0x0000105a:    80c1        ..      STRH     r1,[r0,#6]
        0x0000105c:    201a        .       MOVS     r0,#0x1a
        0x0000105e:    4368        hC      MULS     r0,r5,r0
        0x00001060:    1900        ..      ADDS     r0,r0,r4
        0x00001062:    e000        ..      B        0x1066 ; b_green_movePlane + 414
        0x00001064:    e0b8        ..      B        0x11d8 ; b_green_movePlane + 784
        0x00001066:    2104        .!      MOVS     r1,#4
        0x00001068:    5e41        A^      LDRSH    r1,[r0,r1]
        0x0000106a:    201a        .       MOVS     r0,#0x1a
        0x0000106c:    4368        hC      MULS     r0,r5,r0
        0x0000106e:    1900        ..      ADDS     r0,r0,r4
        0x00001070:    2214        ."      MOVS     r2,#0x14
        0x00001072:    5e82        .^      LDRSH    r2,[r0,r2]
        0x00001074:    4291        .B      CMP      r1,r2
        0x00001076:    ddc2        ..      BLE      0xffe ; b_green_movePlane + 310
        0x00001078:    2102        .!      MOVS     r1,#2
        0x0000107a:    201a        .       MOVS     r0,#0x1a
        0x0000107c:    4368        hC      MULS     r0,r5,r0
        0x0000107e:    1900        ..      ADDS     r0,r0,r4
        0x00001080:    7241        Ar      STRB     r1,[r0,#9]
        0x00001082:    4a6c        lJ      LDR      r2,[pc,#432] ; [0x1234] = 0x20002300
        0x00001084:    4621        !F      MOV      r1,r4
        0x00001086:    486c        lH      LDR      r0,[pc,#432] ; [0x1238] = 0x200024d4
        0x00001088:    f003fafa    ....    BL       s_grey_createOneEnmeyBullet ; 0x4680
        0x0000108c:    e0ca        ..      B        0x1224 ; b_green_movePlane + 860
        0x0000108e:    201a        .       MOVS     r0,#0x1a
        0x00001090:    4368        hC      MULS     r0,r5,r0
        0x00001092:    1900        ..      ADDS     r0,r0,r4
        0x00001094:    7a40        @z      LDRB     r0,[r0,#9]
        0x00001096:    2802        .(      CMP      r0,#2
        0x00001098:    d16d        m.      BNE      0x1176 ; b_green_movePlane + 686
        0x0000109a:    201a        .       MOVS     r0,#0x1a
        0x0000109c:    4368        hC      MULS     r0,r5,r0
        0x0000109e:    1900        ..      ADDS     r0,r0,r4
        0x000010a0:    8880        ..      LDRH     r0,[r0,#4]
        0x000010a2:    1c80        ..      ADDS     r0,r0,#2
        0x000010a4:    b201        ..      SXTH     r1,r0
        0x000010a6:    201a        .       MOVS     r0,#0x1a
        0x000010a8:    4368        hC      MULS     r0,r5,r0
        0x000010aa:    1900        ..      ADDS     r0,r0,r4
        0x000010ac:    8081        ..      STRH     r1,[r0,#4]
        0x000010ae:    f7fff865    ..e.    BL       rand ; 0x17c
        0x000010b2:    4606        .F      MOV      r6,r0
        0x000010b4:    2103        .!      MOVS     r1,#3
        0x000010b6:    f7fff84d    ..M.    BL       __aeabi_idiv ; 0x154
        0x000010ba:    1e49        I.      SUBS     r1,r1,#1
        0x000010bc:    201a        .       MOVS     r0,#0x1a
        0x000010be:    4368        hC      MULS     r0,r5,r0
        0x000010c0:    1900        ..      ADDS     r0,r0,r4
        0x000010c2:    88c0        ..      LDRH     r0,[r0,#6]
        0x000010c4:    1808        ..      ADDS     r0,r1,r0
        0x000010c6:    b201        ..      SXTH     r1,r0
        0x000010c8:    201a        .       MOVS     r0,#0x1a
        0x000010ca:    4368        hC      MULS     r0,r5,r0
        0x000010cc:    1900        ..      ADDS     r0,r0,r4
        0x000010ce:    80c1        ..      STRH     r1,[r0,#6]
        0x000010d0:    201a        .       MOVS     r0,#0x1a
        0x000010d2:    4368        hC      MULS     r0,r5,r0
        0x000010d4:    1900        ..      ADDS     r0,r0,r4
        0x000010d6:    2104        .!      MOVS     r1,#4
        0x000010d8:    5e41        A^      LDRSH    r1,[r0,r1]
        0x000010da:    201a        .       MOVS     r0,#0x1a
        0x000010dc:    4368        hC      MULS     r0,r5,r0
        0x000010de:    1900        ..      ADDS     r0,r0,r4
        0x000010e0:    2218        ."      MOVS     r2,#0x18
        0x000010e2:    5e82        .^      LDRSH    r2,[r0,r2]
        0x000010e4:    4291        .B      CMP      r1,r2
        0x000010e6:    dd09        ..      BLE      0x10fc ; b_green_movePlane + 564
        0x000010e8:    2103        .!      MOVS     r1,#3
        0x000010ea:    201a        .       MOVS     r0,#0x1a
        0x000010ec:    4368        hC      MULS     r0,r5,r0
        0x000010ee:    1900        ..      ADDS     r0,r0,r4
        0x000010f0:    7241        Ar      STRB     r1,[r0,#9]
        0x000010f2:    4a50        PJ      LDR      r2,[pc,#320] ; [0x1234] = 0x20002300
        0x000010f4:    4621        !F      MOV      r1,r4
        0x000010f6:    4850        PH      LDR      r0,[pc,#320] ; [0x1238] = 0x200024d4
        0x000010f8:    f003fac2    ....    BL       s_grey_createOneEnmeyBullet ; 0x4680
        0x000010fc:    201a        .       MOVS     r0,#0x1a
        0x000010fe:    4368        hC      MULS     r0,r5,r0
        0x00001100:    1900        ..      ADDS     r0,r0,r4
        0x00001102:    2104        .!      MOVS     r1,#4
        0x00001104:    5e41        A^      LDRSH    r1,[r0,r1]
        0x00001106:    296e        n)      CMP      r1,#0x6e
        0x00001108:    da0c        ..      BGE      0x1124 ; b_green_movePlane + 604
        0x0000110a:    201a        .       MOVS     r0,#0x1a
        0x0000110c:    4368        hC      MULS     r0,r5,r0
        0x0000110e:    1900        ..      ADDS     r0,r0,r4
        0x00001110:    2104        .!      MOVS     r1,#4
        0x00001112:    5e41        A^      LDRSH    r1,[r0,r1]
        0x00001114:    296b        k)      CMP      r1,#0x6b
        0x00001116:    dd05        ..      BLE      0x1124 ; b_green_movePlane + 604
        0x00001118:    4a46        FJ      LDR      r2,[pc,#280] ; [0x1234] = 0x20002300
        0x0000111a:    4621        !F      MOV      r1,r4
        0x0000111c:    4846        FH      LDR      r0,[pc,#280] ; [0x1238] = 0x200024d4
        0x0000111e:    f003faaf    ....    BL       s_grey_createOneEnmeyBullet ; 0x4680
        0x00001122:    e07f        ..      B        0x1224 ; b_green_movePlane + 860
        0x00001124:    201a        .       MOVS     r0,#0x1a
        0x00001126:    4368        hC      MULS     r0,r5,r0
        0x00001128:    1900        ..      ADDS     r0,r0,r4
        0x0000112a:    2104        .!      MOVS     r1,#4
        0x0000112c:    5e41        A^      LDRSH    r1,[r0,r1]
        0x0000112e:    2980        .)      CMP      r1,#0x80
        0x00001130:    da78        x.      BGE      0x1224 ; b_green_movePlane + 860
        0x00001132:    201a        .       MOVS     r0,#0x1a
        0x00001134:    4368        hC      MULS     r0,r5,r0
        0x00001136:    1900        ..      ADDS     r0,r0,r4
        0x00001138:    2104        .!      MOVS     r1,#4
        0x0000113a:    5e41        A^      LDRSH    r1,[r0,r1]
        0x0000113c:    297d        })      CMP      r1,#0x7d
        0x0000113e:    dd71        q.      BLE      0x1224 ; b_green_movePlane + 860
        0x00001140:    4a3c        <J      LDR      r2,[pc,#240] ; [0x1234] = 0x20002300
        0x00001142:    4621        !F      MOV      r1,r4
        0x00001144:    483c        <H      LDR      r0,[pc,#240] ; [0x1238] = 0x200024d4
        0x00001146:    f003fa9b    ....    BL       s_grey_createOneEnmeyBullet ; 0x4680
        0x0000114a:    201a        .       MOVS     r0,#0x1a
        0x0000114c:    4368        hC      MULS     r0,r5,r0
        0x0000114e:    1900        ..      ADDS     r0,r0,r4
        0x00001150:    7a80        .z      LDRB     r0,[r0,#0xa]
        0x00001152:    1c40        @.      ADDS     r0,r0,#1
        0x00001154:    b2c1        ..      UXTB     r1,r0
        0x00001156:    201a        .       MOVS     r0,#0x1a
        0x00001158:    4368        hC      MULS     r0,r5,r0
        0x0000115a:    1900        ..      ADDS     r0,r0,r4
        0x0000115c:    7281        .r      STRB     r1,[r0,#0xa]
        0x0000115e:    201a        .       MOVS     r0,#0x1a
        0x00001160:    4368        hC      MULS     r0,r5,r0
        0x00001162:    1900        ..      ADDS     r0,r0,r4
        0x00001164:    7a80        .z      LDRB     r0,[r0,#0xa]
        0x00001166:    2804        .(      CMP      r0,#4
        0x00001168:    d15c        \.      BNE      0x1224 ; b_green_movePlane + 860
        0x0000116a:    2102        .!      MOVS     r1,#2
        0x0000116c:    201a        .       MOVS     r0,#0x1a
        0x0000116e:    4368        hC      MULS     r0,r5,r0
        0x00001170:    1900        ..      ADDS     r0,r0,r4
        0x00001172:    7201        .r      STRB     r1,[r0,#8]
        0x00001174:    e056        V.      B        0x1224 ; b_green_movePlane + 860
        0x00001176:    201a        .       MOVS     r0,#0x1a
        0x00001178:    4368        hC      MULS     r0,r5,r0
        0x0000117a:    1900        ..      ADDS     r0,r0,r4
        0x0000117c:    7a40        @z      LDRB     r0,[r0,#9]
        0x0000117e:    2803        .(      CMP      r0,#3
        0x00001180:    d150        P.      BNE      0x1224 ; b_green_movePlane + 860
        0x00001182:    201a        .       MOVS     r0,#0x1a
        0x00001184:    4368        hC      MULS     r0,r5,r0
        0x00001186:    1900        ..      ADDS     r0,r0,r4
        0x00001188:    8880        ..      LDRH     r0,[r0,#4]
        0x0000118a:    1e80        ..      SUBS     r0,r0,#2
        0x0000118c:    b201        ..      SXTH     r1,r0
        0x0000118e:    201a        .       MOVS     r0,#0x1a
        0x00001190:    4368        hC      MULS     r0,r5,r0
        0x00001192:    1900        ..      ADDS     r0,r0,r4
        0x00001194:    8081        ..      STRH     r1,[r0,#4]
        0x00001196:    201a        .       MOVS     r0,#0x1a
        0x00001198:    4368        hC      MULS     r0,r5,r0
        0x0000119a:    1900        ..      ADDS     r0,r0,r4
        0x0000119c:    88c0        ..      LDRH     r0,[r0,#6]
        0x0000119e:    1c80        ..      ADDS     r0,r0,#2
        0x000011a0:    b201        ..      SXTH     r1,r0
        0x000011a2:    201a        .       MOVS     r0,#0x1a
        0x000011a4:    4368        hC      MULS     r0,r5,r0
        0x000011a6:    1900        ..      ADDS     r0,r0,r4
        0x000011a8:    80c1        ..      STRH     r1,[r0,#6]
        0x000011aa:    201a        .       MOVS     r0,#0x1a
        0x000011ac:    4368        hC      MULS     r0,r5,r0
        0x000011ae:    1900        ..      ADDS     r0,r0,r4
        0x000011b0:    2104        .!      MOVS     r1,#4
        0x000011b2:    5e41        A^      LDRSH    r1,[r0,r1]
        0x000011b4:    201a        .       MOVS     r0,#0x1a
        0x000011b6:    4368        hC      MULS     r0,r5,r0
        0x000011b8:    1900        ..      ADDS     r0,r0,r4
        0x000011ba:    2216        ."      MOVS     r2,#0x16
        0x000011bc:    5e82        .^      LDRSH    r2,[r0,r2]
        0x000011be:    4291        .B      CMP      r1,r2
        0x000011c0:    da30        0.      BGE      0x1224 ; b_green_movePlane + 860
        0x000011c2:    4a1c        .J      LDR      r2,[pc,#112] ; [0x1234] = 0x20002300
        0x000011c4:    4621        !F      MOV      r1,r4
        0x000011c6:    481c        .H      LDR      r0,[pc,#112] ; [0x1238] = 0x200024d4
        0x000011c8:    f003fa5a    ..Z.    BL       s_grey_createOneEnmeyBullet ; 0x4680
        0x000011cc:    2100        .!      MOVS     r1,#0
        0x000011ce:    201a        .       MOVS     r0,#0x1a
        0x000011d0:    4368        hC      MULS     r0,r5,r0
        0x000011d2:    1900        ..      ADDS     r0,r0,r4
        0x000011d4:    7241        Ar      STRB     r1,[r0,#9]
        0x000011d6:    e025        %.      B        0x1224 ; b_green_movePlane + 860
        0x000011d8:    201a        .       MOVS     r0,#0x1a
        0x000011da:    4368        hC      MULS     r0,r5,r0
        0x000011dc:    1900        ..      ADDS     r0,r0,r4
        0x000011de:    7a00        .z      LDRB     r0,[r0,#8]
        0x000011e0:    2802        .(      CMP      r0,#2
        0x000011e2:    d11f        ..      BNE      0x1224 ; b_green_movePlane + 860
        0x000011e4:    201a        .       MOVS     r0,#0x1a
        0x000011e6:    4368        hC      MULS     r0,r5,r0
        0x000011e8:    1900        ..      ADDS     r0,r0,r4
        0x000011ea:    88c0        ..      LDRH     r0,[r0,#6]
        0x000011ec:    1e80        ..      SUBS     r0,r0,#2
        0x000011ee:    b201        ..      SXTH     r1,r0
        0x000011f0:    201a        .       MOVS     r0,#0x1a
        0x000011f2:    4368        hC      MULS     r0,r5,r0
        0x000011f4:    1900        ..      ADDS     r0,r0,r4
        0x000011f6:    80c1        ..      STRH     r1,[r0,#6]
        0x000011f8:    201a        .       MOVS     r0,#0x1a
        0x000011fa:    4368        hC      MULS     r0,r5,r0
        0x000011fc:    1900        ..      ADDS     r0,r0,r4
        0x000011fe:    2106        .!      MOVS     r1,#6
        0x00001200:    5e41        A^      LDRSH    r1,[r0,r1]
        0x00001202:    290a        .)      CMP      r1,#0xa
        0x00001204:    da0e        ..      BGE      0x1224 ; b_green_movePlane + 860
        0x00001206:    2100        .!      MOVS     r1,#0
        0x00001208:    201a        .       MOVS     r0,#0x1a
        0x0000120a:    4368        hC      MULS     r0,r5,r0
        0x0000120c:    5421        !T      STRB     r1,[r4,r0]
        0x0000120e:    e009        ..      B        0x1224 ; b_green_movePlane + 860
        0x00001210:    201a        .       MOVS     r0,#0x1a
        0x00001212:    4368        hC      MULS     r0,r5,r0
        0x00001214:    1900        ..      ADDS     r0,r0,r4
        0x00001216:    7880        .x      LDRB     r0,[r0,#2]
        0x00001218:    1c40        @.      ADDS     r0,r0,#1
        0x0000121a:    b2c1        ..      UXTB     r1,r0
        0x0000121c:    201a        .       MOVS     r0,#0x1a
        0x0000121e:    4368        hC      MULS     r0,r5,r0
        0x00001220:    1900        ..      ADDS     r0,r0,r4
        0x00001222:    7081        .p      STRB     r1,[r0,#2]
        0x00001224:    1c6d        m.      ADDS     r5,r5,#1
        0x00001226:    4805        .H      LDR      r0,[pc,#20] ; [0x123c] = 0x553c
        0x00001228:    7800        .x      LDRB     r0,[r0,#0]
        0x0000122a:    4285        .B      CMP      r5,r0
        0x0000122c:    da00        ..      BGE      0x1230 ; b_green_movePlane + 872
        0x0000122e:    e64f        O.      B        0xed0 ; b_green_movePlane + 8
        0x00001230:    bd70        p.      POP      {r4-r6,pc}
    $d
        0x00001232:    0000        ..      DCW    0
        0x00001234:    20002300    .#.     DCD    536879872
        0x00001238:    200024d4    .$.     DCD    536880340
        0x0000123c:    0000553c    <U..    DCD    21820
    $t
    i.b_green_planeInit
    b_green_planeInit
        0x00001240:    4601        .F      MOV      r1,r0
        0x00001242:    2000        .       MOVS     r0,#0
        0x00001244:    e01a        ..      B        0x127c ; b_green_planeInit + 60
        0x00001246:    2300        .#      MOVS     r3,#0
        0x00001248:    221a        ."      MOVS     r2,#0x1a
        0x0000124a:    4342        BC      MULS     r2,r0,r2
        0x0000124c:    1852        R.      ADDS     r2,r2,r1
        0x0000124e:    8093        ..      STRH     r3,[r2,#4]
        0x00001250:    221a        ."      MOVS     r2,#0x1a
        0x00001252:    4342        BC      MULS     r2,r0,r2
        0x00001254:    1852        R.      ADDS     r2,r2,r1
        0x00001256:    80d3        ..      STRH     r3,[r2,#6]
        0x00001258:    221a        ."      MOVS     r2,#0x1a
        0x0000125a:    4342        BC      MULS     r2,r0,r2
        0x0000125c:    548b        .T      STRB     r3,[r1,r2]
        0x0000125e:    2305        .#      MOVS     r3,#5
        0x00001260:    221a        ."      MOVS     r2,#0x1a
        0x00001262:    4342        BC      MULS     r2,r0,r2
        0x00001264:    1852        R.      ADDS     r2,r2,r1
        0x00001266:    7053        Sp      STRB     r3,[r2,#1]
        0x00001268:    2300        .#      MOVS     r3,#0
        0x0000126a:    221a        ."      MOVS     r2,#0x1a
        0x0000126c:    4342        BC      MULS     r2,r0,r2
        0x0000126e:    1852        R.      ADDS     r2,r2,r1
        0x00001270:    7093        .p      STRB     r3,[r2,#2]
        0x00001272:    221a        ."      MOVS     r2,#0x1a
        0x00001274:    4342        BC      MULS     r2,r0,r2
        0x00001276:    1852        R.      ADDS     r2,r2,r1
        0x00001278:    7213        .r      STRB     r3,[r2,#8]
        0x0000127a:    1c40        @.      ADDS     r0,r0,#1
        0x0000127c:    4a02        .J      LDR      r2,[pc,#8] ; [0x1288] = 0x553c
        0x0000127e:    7812        .x      LDRB     r2,[r2,#0]
        0x00001280:    4290        .B      CMP      r0,r2
        0x00001282:    dbe0        ..      BLT      0x1246 ; b_green_planeInit + 6
        0x00001284:    4770        pG      BX       lr
    $d
        0x00001286:    0000        ..      DCW    0
        0x00001288:    0000553c    <U..    DCD    21820
    $t
    i.clearNameTableAll
    clearNameTableAll
        0x0000128c:    b530        0.      PUSH     {r4,r5,lr}
        0x0000128e:    2400        .$      MOVS     r4,#0
        0x00001290:    e00c        ..      B        0x12ac ; clearNameTableAll + 32
        0x00001292:    2500        .%      MOVS     r5,#0
        0x00001294:    e006        ..      B        0x12a4 ; clearNameTableAll + 24
        0x00001296:    22ff        ."      MOVS     r2,#0xff
        0x00001298:    4621        !F      MOV      r1,r4
        0x0000129a:    4628        (F      MOV      r0,r5
        0x0000129c:    f004f932    ..2.    BL       writeOneNametable ; 0x5504
        0x000012a0:    1c68        h.      ADDS     r0,r5,#1
        0x000012a2:    b2c5        ..      UXTB     r5,r0
        0x000012a4:    2d20         -      CMP      r5,#0x20
        0x000012a6:    dbf6        ..      BLT      0x1296 ; clearNameTableAll + 10
        0x000012a8:    1c60        `.      ADDS     r0,r4,#1
        0x000012aa:    b2c4        ..      UXTB     r4,r0
        0x000012ac:    2c1e        .,      CMP      r4,#0x1e
        0x000012ae:    dbf0        ..      BLT      0x1292 ; clearNameTableAll + 6
        0x000012b0:    bd30        0.      POP      {r4,r5,pc}
        0x000012b2:    0000        ..      MOVS     r0,r0
    i.create_plane_Handler
    create_plane_Handler
        0x000012b4:    b510        ..      PUSH     {r4,lr}
        0x000012b6:    482b        +H      LDR      r0,[pc,#172] ; [0x1364] = 0x20000034
        0x000012b8:    6800        .h      LDR      r0,[r0,#0]
        0x000012ba:    0080        ..      LSLS     r0,r0,#2
        0x000012bc:    492a        *I      LDR      r1,[pc,#168] ; [0x1368] = 0x20000038
        0x000012be:    5808        .X      LDR      r0,[r1,r0]
        0x000012c0:    0003        ..      MOVS     r3,r0
        0x000012c2:    f7fffc3f    ..?.    BL       __ARM_common_switch8 ; 0xb44
    $d
        0x000012c6:    470d        .G      DCW    18189
        0x000012c8:    14100c08    ....    DCD    336595976
        0x000012cc:    29201c18    .. )    DCD    689970200
        0x000012d0:    433f3b32    2;?C    DCD    1128217394
        0x000012d4:    0047        G.      DCW    71
    $t
        0x000012d6:    4825        %H      LDR      r0,[pc,#148] ; [0x136c] = 0x20002382
        0x000012d8:    f003fb08    ....    BL       s_grey_createPlane_111 ; 0x48ec
        0x000012dc:    e03b        ;.      B        0x1356 ; create_plane_Handler + 162
        0x000012de:    4823        #H      LDR      r0,[pc,#140] ; [0x136c] = 0x20002382
        0x000012e0:    f003fb2e    ....    BL       s_grey_createPlane_122 ; 0x4940
        0x000012e4:    e037        7.      B        0x1356 ; create_plane_Handler + 162
        0x000012e6:    4821        !H      LDR      r0,[pc,#132] ; [0x136c] = 0x20002382
        0x000012e8:    f003fb48    ..H.    BL       s_grey_createPlane_123 ; 0x497c
        0x000012ec:    e033        3.      B        0x1356 ; create_plane_Handler + 162
        0x000012ee:    481f        .H      LDR      r0,[pc,#124] ; [0x136c] = 0x20002382
        0x000012f0:    f003fb85    ....    BL       s_grey_createPlane_144 ; 0x49fe
        0x000012f4:    e02f        /.      B        0x1356 ; create_plane_Handler + 162
        0x000012f6:    481d        .H      LDR      r0,[pc,#116] ; [0x136c] = 0x20002382
        0x000012f8:    f003fbb3    ....    BL       s_grey_createPlane_145 ; 0x4a62
        0x000012fc:    e02b        +.      B        0x1356 ; create_plane_Handler + 162
        0x000012fe:    481b        .H      LDR      r0,[pc,#108] ; [0x136c] = 0x20002382
        0x00001300:    f003fc04    ....    BL       s_grey_createPlane_166 ; 0x4b0c
        0x00001304:    e027        '.      B        0x1356 ; create_plane_Handler + 162
        0x00001306:    481a        .H      LDR      r0,[pc,#104] ; [0x1370] = 0x20002300
        0x00001308:    2202        ."      MOVS     r2,#2
        0x0000130a:    5e82        .^      LDRSH    r2,[r0,r2]
        0x0000130c:    2100        .!      MOVS     r1,#0
        0x0000130e:    5e41        A^      LDRSH    r1,[r0,r1]
        0x00001310:    4818        .H      LDR      r0,[pc,#96] ; [0x1374] = 0x200023e2
        0x00001312:    f002fcaf    ....    BL       s_green_createPlane_221 ; 0x3c74
        0x00001316:    e01e        ..      B        0x1356 ; create_plane_Handler + 162
        0x00001318:    4815        .H      LDR      r0,[pc,#84] ; [0x1370] = 0x20002300
        0x0000131a:    2202        ."      MOVS     r2,#2
        0x0000131c:    5e82        .^      LDRSH    r2,[r0,r2]
        0x0000131e:    2100        .!      MOVS     r1,#0
        0x00001320:    5e41        A^      LDRSH    r1,[r0,r1]
        0x00001322:    4814        .H      LDR      r0,[pc,#80] ; [0x1374] = 0x200023e2
        0x00001324:    f002fcc3    ....    BL       s_green_createPlane_222 ; 0x3cae
        0x00001328:    e015        ..      B        0x1356 ; create_plane_Handler + 162
        0x0000132a:    4811        .H      LDR      r0,[pc,#68] ; [0x1370] = 0x20002300
        0x0000132c:    2202        ."      MOVS     r2,#2
        0x0000132e:    5e82        .^      LDRSH    r2,[r0,r2]
        0x00001330:    2100        .!      MOVS     r1,#0
        0x00001332:    5e41        A^      LDRSH    r1,[r0,r1]
        0x00001334:    480f        .H      LDR      r0,[pc,#60] ; [0x1374] = 0x200023e2
        0x00001336:    f002fcdb    ....    BL       s_green_createPlane_243 ; 0x3cf0
        0x0000133a:    e00c        ..      B        0x1356 ; create_plane_Handler + 162
        0x0000133c:    480e        .H      LDR      r0,[pc,#56] ; [0x1378] = 0x20002496
        0x0000133e:    f002fd01    ....    BL       s_green_createPlane_411 ; 0x3d44
        0x00001342:    e008        ..      B        0x1356 ; create_plane_Handler + 162
        0x00001344:    480c        .H      LDR      r0,[pc,#48] ; [0x1378] = 0x20002496
        0x00001346:    f002fd13    ....    BL       s_green_createPlane_422 ; 0x3d70
        0x0000134a:    e004        ..      B        0x1356 ; create_plane_Handler + 162
        0x0000134c:    480b        .H      LDR      r0,[pc,#44] ; [0x137c] = 0x200024ba
        0x0000134e:    f7fffc8b    ....    BL       b_green_createPlane_511 ; 0xc68
        0x00001352:    e000        ..      B        0x1356 ; create_plane_Handler + 162
        0x00001354:    bf00        ..      NOP      
        0x00001356:    bf00        ..      NOP      
        0x00001358:    4802        .H      LDR      r0,[pc,#8] ; [0x1364] = 0x20000034
        0x0000135a:    6800        .h      LDR      r0,[r0,#0]
        0x0000135c:    1c40        @.      ADDS     r0,r0,#1
        0x0000135e:    4901        .I      LDR      r1,[pc,#4] ; [0x1364] = 0x20000034
        0x00001360:    6008        .`      STR      r0,[r1,#0]
        0x00001362:    bd10        ..      POP      {r4,pc}
    $d
        0x00001364:    20000034    4..     DCD    536870964
        0x00001368:    20000038    8..     DCD    536870968
        0x0000136c:    20002382    .#.     DCD    536880002
        0x00001370:    20002300    .#.     DCD    536879872
        0x00001374:    200023e2    .#.     DCD    536880098
        0x00001378:    20002496    .$.     DCD    536880278
        0x0000137c:    200024ba    .$.     DCD    536880314
    $t
    i.delay
    delay
        0x00001380:    b500        ..      PUSH     {lr}
        0x00001382:    4602        .F      MOV      r2,r0
        0x00001384:    2000        .       MOVS     r0,#0
        0x00001386:    f7fffb6b    ..k.    BL       Set_SysTick_CTRL ; 0xa60
        0x0000138a:    4610        .F      MOV      r0,r2
        0x0000138c:    f7fffb6e    ..n.    BL       Set_SysTick_LOAD ; 0xa6c
        0x00001390:    2000        .       MOVS     r0,#0
        0x00001392:    f7fffb71    ..q.    BL       Set_SysTick_VALUE ; 0xa78
        0x00001396:    2007        .       MOVS     r0,#7
        0x00001398:    f7fffb62    ..b.    BL       Set_SysTick_CTRL ; 0xa60
        0x0000139c:    bf30        0.      WFI      
        0x0000139e:    bd00        ..      POP      {pc}
    i.delay_ms
    delay_ms
        0x000013a0:    b510        ..      PUSH     {r4,lr}
        0x000013a2:    4603        .F      MOV      r3,r0
        0x000013a4:    461c        .F      MOV      r4,r3
        0x000013a6:    e003        ..      B        0x13b0 ; delay_ms + 16
        0x000013a8:    4803        .H      LDR      r0,[pc,#12] ; [0x13b8] = 0xc350
        0x000013aa:    f7ffffe9    ....    BL       delay ; 0x1380
        0x000013ae:    1e64        d.      SUBS     r4,r4,#1
        0x000013b0:    2c00        .,      CMP      r4,#0
        0x000013b2:    d1f9        ..      BNE      0x13a8 ; delay_ms + 8
        0x000013b4:    bd10        ..      POP      {r4,pc}
    $d
        0x000013b6:    0000        ..      DCW    0
        0x000013b8:    0000c350    P...    DCD    50000
    $t
    i.delay_us
    delay_us
        0x000013bc:    b510        ..      PUSH     {r4,lr}
        0x000013be:    4603        .F      MOV      r3,r0
        0x000013c0:    461c        .F      MOV      r4,r3
        0x000013c2:    e003        ..      B        0x13cc ; delay_us + 16
        0x000013c4:    2032        2       MOVS     r0,#0x32
        0x000013c6:    f7ffffdb    ....    BL       delay ; 0x1380
        0x000013ca:    1e64        d.      SUBS     r4,r4,#1
        0x000013cc:    2c00        .,      CMP      r4,#0
        0x000013ce:    d1f9        ..      BNE      0x13c4 ; delay_us + 8
        0x000013d0:    bd10        ..      POP      {r4,pc}
        0x000013d2:    0000        ..      MOVS     r0,r0
    i.endInterFaceDraw
    endInterFaceDraw
        0x000013d4:    b5f0        ..      PUSH     {r4-r7,lr}
        0x000013d6:    b089        ..      SUB      sp,sp,#0x24
        0x000013d8:    4605        .F      MOV      r5,r0
        0x000013da:    460c        .F      MOV      r4,r1
        0x000013dc:    4616        .F      MOV      r6,r2
        0x000013de:    461f        .F      MOV      r7,r3
        0x000013e0:    210a        .!      MOVS     r1,#0xa
        0x000013e2:    4630        0F      MOV      r0,r6
        0x000013e4:    f7fefea0    ....    BL       __aeabi_uidiv ; 0x128
        0x000013e8:    9108        ..      STR      r1,[sp,#0x20]
        0x000013ea:    210a        .!      MOVS     r1,#0xa
        0x000013ec:    4630        0F      MOV      r0,r6
        0x000013ee:    f7fefe9b    ....    BL       __aeabi_uidiv ; 0x128
        0x000013f2:    210a        .!      MOVS     r1,#0xa
        0x000013f4:    9003        ..      STR      r0,[sp,#0xc]
        0x000013f6:    f7fefe97    ....    BL       __aeabi_uidiv ; 0x128
        0x000013fa:    9107        ..      STR      r1,[sp,#0x1c]
        0x000013fc:    2164        d!      MOVS     r1,#0x64
        0x000013fe:    4630        0F      MOV      r0,r6
        0x00001400:    f7fefe92    ....    BL       __aeabi_uidiv ; 0x128
        0x00001404:    210a        .!      MOVS     r1,#0xa
        0x00001406:    9003        ..      STR      r0,[sp,#0xc]
        0x00001408:    f7fefe8e    ....    BL       __aeabi_uidiv ; 0x128
        0x0000140c:    9106        ..      STR      r1,[sp,#0x18]
        0x0000140e:    217d        }!      MOVS     r1,#0x7d
        0x00001410:    00c9        ..      LSLS     r1,r1,#3
        0x00001412:    4630        0F      MOV      r0,r6
        0x00001414:    f7fefe88    ....    BL       __aeabi_uidiv ; 0x128
        0x00001418:    210a        .!      MOVS     r1,#0xa
        0x0000141a:    9003        ..      STR      r0,[sp,#0xc]
        0x0000141c:    f7fefe84    ....    BL       __aeabi_uidiv ; 0x128
        0x00001420:    9105        ..      STR      r1,[sp,#0x14]
        0x00001422:    4927        'I      LDR      r1,[pc,#156] ; [0x14c0] = 0x200002be
        0x00001424:    9805        ..      LDR      r0,[sp,#0x14]
        0x00001426:    7388        .s      STRB     r0,[r1,#0xe]
        0x00001428:    9806        ..      LDR      r0,[sp,#0x18]
        0x0000142a:    7448        Ht      STRB     r0,[r1,#0x11]
        0x0000142c:    9807        ..      LDR      r0,[sp,#0x1c]
        0x0000142e:    7508        .u      STRB     r0,[r1,#0x14]
        0x00001430:    9808        ..      LDR      r0,[sp,#0x20]
        0x00001432:    75c8        .u      STRB     r0,[r1,#0x17]
        0x00001434:    4923        #I      LDR      r1,[pc,#140] ; [0x14c4] = 0x42c80000
        0x00001436:    4638        8F      MOV      r0,r7
        0x00001438:    f7feff0b    ....    BL       __aeabi_fmul ; 0x252
        0x0000143c:    9003        ..      STR      r0,[sp,#0xc]
        0x0000143e:    f7feff95    ....    BL       __aeabi_f2uiz ; 0x36c
        0x00001442:    b2c0        ..      UXTB     r0,r0
        0x00001444:    9004        ..      STR      r0,[sp,#0x10]
        0x00001446:    210a        .!      MOVS     r1,#0xa
        0x00001448:    9804        ..      LDR      r0,[sp,#0x10]
        0x0000144a:    f7fefe83    ....    BL       __aeabi_idiv ; 0x154
        0x0000144e:    b2c8        ..      UXTB     r0,r1
        0x00001450:    9008        ..      STR      r0,[sp,#0x20]
        0x00001452:    210a        .!      MOVS     r1,#0xa
        0x00001454:    9804        ..      LDR      r0,[sp,#0x10]
        0x00001456:    f7fefe7d    ..}.    BL       __aeabi_idiv ; 0x154
        0x0000145a:    210a        .!      MOVS     r1,#0xa
        0x0000145c:    9003        ..      STR      r0,[sp,#0xc]
        0x0000145e:    f7fefe79    ..y.    BL       __aeabi_idiv ; 0x154
        0x00001462:    b2c8        ..      UXTB     r0,r1
        0x00001464:    9007        ..      STR      r0,[sp,#0x1c]
        0x00001466:    4916        .I      LDR      r1,[pc,#88] ; [0x14c0] = 0x200002be
        0x00001468:    3127        '1      ADDS     r1,r1,#0x27
        0x0000146a:    9807        ..      LDR      r0,[sp,#0x1c]
        0x0000146c:    7088        .p      STRB     r0,[r1,#2]
        0x0000146e:    1cc9        ..      ADDS     r1,r1,#3
        0x00001470:    9808        ..      LDR      r0,[sp,#0x20]
        0x00001472:    7088        .p      STRB     r0,[r1,#2]
        0x00001474:    7828        (x      LDRB     r0,[r5,#0]
        0x00001476:    2801        .(      CMP      r0,#1
        0x00001478:    d120         .      BNE      0x14bc ; endInterFaceDraw + 232
        0x0000147a:    7820         x      LDRB     r0,[r4,#0]
        0x0000147c:    2814        .(      CMP      r0,#0x14
        0x0000147e:    da1d        ..      BGE      0x14bc ; endInterFaceDraw + 232
        0x00001480:    2000        .       MOVS     r0,#0
        0x00001482:    9000        ..      STR      r0,[sp,#0]
        0x00001484:    7820         x      LDRB     r0,[r4,#0]
        0x00001486:    0041        A.      LSLS     r1,r0,#1
        0x00001488:    1840        @.      ADDS     r0,r0,r1
        0x0000148a:    490d        .I      LDR      r1,[pc,#52] ; [0x14c0] = 0x200002be
        0x0000148c:    1840        @.      ADDS     r0,r0,r1
        0x0000148e:    7883        .x      LDRB     r3,[r0,#2]
        0x00001490:    7820         x      LDRB     r0,[r4,#0]
        0x00001492:    0041        A.      LSLS     r1,r0,#1
        0x00001494:    1840        @.      ADDS     r0,r0,r1
        0x00001496:    490a        .I      LDR      r1,[pc,#40] ; [0x14c0] = 0x200002be
        0x00001498:    1840        @.      ADDS     r0,r0,r1
        0x0000149a:    7842        Bx      LDRB     r2,[r0,#1]
        0x0000149c:    7820         x      LDRB     r0,[r4,#0]
        0x0000149e:    0041        A.      LSLS     r1,r0,#1
        0x000014a0:    1840        @.      ADDS     r0,r0,r1
        0x000014a2:    4907        .I      LDR      r1,[pc,#28] ; [0x14c0] = 0x200002be
        0x000014a4:    5c08        .\      LDRB     r0,[r1,r0]
        0x000014a6:    9003        ..      STR      r0,[sp,#0xc]
        0x000014a8:    7820         x      LDRB     r0,[r4,#0]
        0x000014aa:    9002        ..      STR      r0,[sp,#8]
        0x000014ac:    9903        ..      LDR      r1,[sp,#0xc]
        0x000014ae:    f004f831    ..1.    BL       writeOneSprite ; 0x5514
        0x000014b2:    7820         x      LDRB     r0,[r4,#0]
        0x000014b4:    1c40        @.      ADDS     r0,r0,#1
        0x000014b6:    7020         p      STRB     r0,[r4,#0]
        0x000014b8:    2000        .       MOVS     r0,#0
        0x000014ba:    7028        (p      STRB     r0,[r5,#0]
        0x000014bc:    b009        ..      ADD      sp,sp,#0x24
        0x000014be:    bdf0        ..      POP      {r4-r7,pc}
    $d
        0x000014c0:    200002be    ...     DCD    536871614
        0x000014c4:    42c80000    ...B    DCD    1120403456
    $t
    i.enemyAndBulletMapCreate
    enemyAndBulletMapCreate
        0x000014c8:    b5ff        ..      PUSH     {r0-r7,lr}
        0x000014ca:    4606        .F      MOV      r6,r0
        0x000014cc:    460f        .F      MOV      r7,r1
        0x000014ce:    4615        .F      MOV      r5,r2
        0x000014d0:    2000        .       MOVS     r0,#0
        0x000014d2:    e004        ..      B        0x14de ; enemyAndBulletMapCreate + 22
        0x000014d4:    2200        ."      MOVS     r2,#0
        0x000014d6:    0083        ..      LSLS     r3,r0,#2
        0x000014d8:    9909        ..      LDR      r1,[sp,#0x24]
        0x000014da:    50ca        .P      STR      r2,[r1,r3]
        0x000014dc:    1c40        @.      ADDS     r0,r0,#1
        0x000014de:    281e        .(      CMP      r0,#0x1e
        0x000014e0:    dbf8        ..      BLT      0x14d4 ; enemyAndBulletMapCreate + 12
        0x000014e2:    2400        .$      MOVS     r4,#0
        0x000014e4:    e028        (.      B        0x1538 ; enemyAndBulletMapCreate + 112
        0x000014e6:    0120         .      LSLS     r0,r4,#4
        0x000014e8:    5c30        0\      LDRB     r0,[r6,r0]
        0x000014ea:    2800        .(      CMP      r0,#0
        0x000014ec:    d023        #.      BEQ      0x1536 ; enemyAndBulletMapCreate + 110
        0x000014ee:    0122        ".      LSLS     r2,r4,#4
        0x000014f0:    1992        ..      ADDS     r2,r2,r6
        0x000014f2:    88d2        ..      LDRH     r2,[r2,#6]
        0x000014f4:    b2d1        ..      UXTB     r1,r2
        0x000014f6:    0122        ".      LSLS     r2,r4,#4
        0x000014f8:    1992        ..      ADDS     r2,r2,r6
        0x000014fa:    8892        ..      LDRH     r2,[r2,#4]
        0x000014fc:    b2d0        ..      UXTB     r0,r2
        0x000014fe:    9a09        ..      LDR      r2,[sp,#0x24]
        0x00001500:    f003ff08    ....    BL       tileMap ; 0x5314
        0x00001504:    0122        ".      LSLS     r2,r4,#4
        0x00001506:    1992        ..      ADDS     r2,r2,r6
        0x00001508:    88d2        ..      LDRH     r2,[r2,#6]
        0x0000150a:    b2d1        ..      UXTB     r1,r2
        0x0000150c:    0122        ".      LSLS     r2,r4,#4
        0x0000150e:    1992        ..      ADDS     r2,r2,r6
        0x00001510:    8892        ..      LDRH     r2,[r2,#4]
        0x00001512:    3208        .2      ADDS     r2,r2,#8
        0x00001514:    b2d0        ..      UXTB     r0,r2
        0x00001516:    9a09        ..      LDR      r2,[sp,#0x24]
        0x00001518:    f003fefc    ....    BL       tileMap ; 0x5314
        0x0000151c:    0122        ".      LSLS     r2,r4,#4
        0x0000151e:    1992        ..      ADDS     r2,r2,r6
        0x00001520:    88d2        ..      LDRH     r2,[r2,#6]
        0x00001522:    3a08        .:      SUBS     r2,r2,#8
        0x00001524:    b2d1        ..      UXTB     r1,r2
        0x00001526:    0122        ".      LSLS     r2,r4,#4
        0x00001528:    1992        ..      ADDS     r2,r2,r6
        0x0000152a:    8892        ..      LDRH     r2,[r2,#4]
        0x0000152c:    1d12        ..      ADDS     r2,r2,#4
        0x0000152e:    b2d0        ..      UXTB     r0,r2
        0x00001530:    9a09        ..      LDR      r2,[sp,#0x24]
        0x00001532:    f003feef    ....    BL       tileMap ; 0x5314
        0x00001536:    1c64        d.      ADDS     r4,r4,#1
        0x00001538:    4855        UH      LDR      r0,[pc,#340] ; [0x1690] = 0x5539
        0x0000153a:    7800        .x      LDRB     r0,[r0,#0]
        0x0000153c:    4284        .B      CMP      r4,r0
        0x0000153e:    dbd2        ..      BLT      0x14e6 ; enemyAndBulletMapCreate + 30
        0x00001540:    2400        .$      MOVS     r4,#0
        0x00001542:    e02f        /.      B        0x15a4 ; enemyAndBulletMapCreate + 220
        0x00001544:    201e        .       MOVS     r0,#0x1e
        0x00001546:    4360        `C      MULS     r0,r4,r0
        0x00001548:    5c38        8\      LDRB     r0,[r7,r0]
        0x0000154a:    2800        .(      CMP      r0,#0
        0x0000154c:    d029        ).      BEQ      0x15a2 ; enemyAndBulletMapCreate + 218
        0x0000154e:    221e        ."      MOVS     r2,#0x1e
        0x00001550:    4362        bC      MULS     r2,r4,r2
        0x00001552:    19d2        ..      ADDS     r2,r2,r7
        0x00001554:    8892        ..      LDRH     r2,[r2,#4]
        0x00001556:    b2d1        ..      UXTB     r1,r2
        0x00001558:    221e        ."      MOVS     r2,#0x1e
        0x0000155a:    4362        bC      MULS     r2,r4,r2
        0x0000155c:    19d2        ..      ADDS     r2,r2,r7
        0x0000155e:    8852        R.      LDRH     r2,[r2,#2]
        0x00001560:    b2d0        ..      UXTB     r0,r2
        0x00001562:    9a09        ..      LDR      r2,[sp,#0x24]
        0x00001564:    f003fed6    ....    BL       tileMap ; 0x5314
        0x00001568:    221e        ."      MOVS     r2,#0x1e
        0x0000156a:    4362        bC      MULS     r2,r4,r2
        0x0000156c:    19d2        ..      ADDS     r2,r2,r7
        0x0000156e:    8892        ..      LDRH     r2,[r2,#4]
        0x00001570:    b2d1        ..      UXTB     r1,r2
        0x00001572:    221e        ."      MOVS     r2,#0x1e
        0x00001574:    4362        bC      MULS     r2,r4,r2
        0x00001576:    19d2        ..      ADDS     r2,r2,r7
        0x00001578:    8852        R.      LDRH     r2,[r2,#2]
        0x0000157a:    3208        .2      ADDS     r2,r2,#8
        0x0000157c:    b2d0        ..      UXTB     r0,r2
        0x0000157e:    9a09        ..      LDR      r2,[sp,#0x24]
        0x00001580:    f003fec8    ....    BL       tileMap ; 0x5314
        0x00001584:    221e        ."      MOVS     r2,#0x1e
        0x00001586:    4362        bC      MULS     r2,r4,r2
        0x00001588:    19d2        ..      ADDS     r2,r2,r7
        0x0000158a:    8892        ..      LDRH     r2,[r2,#4]
        0x0000158c:    3a08        .:      SUBS     r2,r2,#8
        0x0000158e:    b2d1        ..      UXTB     r1,r2
        0x00001590:    221e        ."      MOVS     r2,#0x1e
        0x00001592:    4362        bC      MULS     r2,r4,r2
        0x00001594:    19d2        ..      ADDS     r2,r2,r7
        0x00001596:    8852        R.      LDRH     r2,[r2,#2]
        0x00001598:    1d12        ..      ADDS     r2,r2,#4
        0x0000159a:    b2d0        ..      UXTB     r0,r2
        0x0000159c:    9a09        ..      LDR      r2,[sp,#0x24]
        0x0000159e:    f003feb9    ....    BL       tileMap ; 0x5314
        0x000015a2:    1c64        d.      ADDS     r4,r4,#1
        0x000015a4:    483b        ;H      LDR      r0,[pc,#236] ; [0x1694] = 0x553a
        0x000015a6:    7800        .x      LDRB     r0,[r0,#0]
        0x000015a8:    4284        .B      CMP      r4,r0
        0x000015aa:    dbcb        ..      BLT      0x1544 ; enemyAndBulletMapCreate + 124
        0x000015ac:    2400        .$      MOVS     r4,#0
        0x000015ae:    e04f        O.      B        0x1650 ; enemyAndBulletMapCreate + 392
        0x000015b0:    201a        .       MOVS     r0,#0x1a
        0x000015b2:    4360        `C      MULS     r0,r4,r0
        0x000015b4:    5c28        (\      LDRB     r0,[r5,r0]
        0x000015b6:    2800        .(      CMP      r0,#0
        0x000015b8:    d049        I.      BEQ      0x164e ; enemyAndBulletMapCreate + 390
        0x000015ba:    221a        ."      MOVS     r2,#0x1a
        0x000015bc:    4362        bC      MULS     r2,r4,r2
        0x000015be:    1952        R.      ADDS     r2,r2,r5
        0x000015c0:    88d2        ..      LDRH     r2,[r2,#6]
        0x000015c2:    320e        .2      ADDS     r2,r2,#0xe
        0x000015c4:    b2d1        ..      UXTB     r1,r2
        0x000015c6:    221a        ."      MOVS     r2,#0x1a
        0x000015c8:    4362        bC      MULS     r2,r4,r2
        0x000015ca:    1952        R.      ADDS     r2,r2,r5
        0x000015cc:    8892        ..      LDRH     r2,[r2,#4]
        0x000015ce:    b2d0        ..      UXTB     r0,r2
        0x000015d0:    9a09        ..      LDR      r2,[sp,#0x24]
        0x000015d2:    f003fe9f    ....    BL       tileMap ; 0x5314
        0x000015d6:    221a        ."      MOVS     r2,#0x1a
        0x000015d8:    4362        bC      MULS     r2,r4,r2
        0x000015da:    1952        R.      ADDS     r2,r2,r5
        0x000015dc:    88d2        ..      LDRH     r2,[r2,#6]
        0x000015de:    320c        .2      ADDS     r2,r2,#0xc
        0x000015e0:    b2d1        ..      UXTB     r1,r2
        0x000015e2:    221a        ."      MOVS     r2,#0x1a
        0x000015e4:    4362        bC      MULS     r2,r4,r2
        0x000015e6:    1952        R.      ADDS     r2,r2,r5
        0x000015e8:    8892        ..      LDRH     r2,[r2,#4]
        0x000015ea:    1fd2        ..      SUBS     r2,r2,#7
        0x000015ec:    b2d0        ..      UXTB     r0,r2
        0x000015ee:    9a09        ..      LDR      r2,[sp,#0x24]
        0x000015f0:    f003fe90    ....    BL       tileMap ; 0x5314
        0x000015f4:    221a        ."      MOVS     r2,#0x1a
        0x000015f6:    4362        bC      MULS     r2,r4,r2
        0x000015f8:    1952        R.      ADDS     r2,r2,r5
        0x000015fa:    88d2        ..      LDRH     r2,[r2,#6]
        0x000015fc:    320c        .2      ADDS     r2,r2,#0xc
        0x000015fe:    b2d1        ..      UXTB     r1,r2
        0x00001600:    221a        ."      MOVS     r2,#0x1a
        0x00001602:    4362        bC      MULS     r2,r4,r2
        0x00001604:    1952        R.      ADDS     r2,r2,r5
        0x00001606:    8892        ..      LDRH     r2,[r2,#4]
        0x00001608:    1dd2        ..      ADDS     r2,r2,#7
        0x0000160a:    b2d0        ..      UXTB     r0,r2
        0x0000160c:    9a09        ..      LDR      r2,[sp,#0x24]
        0x0000160e:    f003fe81    ....    BL       tileMap ; 0x5314
        0x00001612:    221a        ."      MOVS     r2,#0x1a
        0x00001614:    4362        bC      MULS     r2,r4,r2
        0x00001616:    1952        R.      ADDS     r2,r2,r5
        0x00001618:    88d2        ..      LDRH     r2,[r2,#6]
        0x0000161a:    320a        .2      ADDS     r2,r2,#0xa
        0x0000161c:    b2d1        ..      UXTB     r1,r2
        0x0000161e:    221a        ."      MOVS     r2,#0x1a
        0x00001620:    4362        bC      MULS     r2,r4,r2
        0x00001622:    1952        R.      ADDS     r2,r2,r5
        0x00001624:    8892        ..      LDRH     r2,[r2,#4]
        0x00001626:    3a0e        .:      SUBS     r2,r2,#0xe
        0x00001628:    b2d0        ..      UXTB     r0,r2
        0x0000162a:    9a09        ..      LDR      r2,[sp,#0x24]
        0x0000162c:    f003fe72    ..r.    BL       tileMap ; 0x5314
        0x00001630:    221a        ."      MOVS     r2,#0x1a
        0x00001632:    4362        bC      MULS     r2,r4,r2
        0x00001634:    1952        R.      ADDS     r2,r2,r5
        0x00001636:    88d2        ..      LDRH     r2,[r2,#6]
        0x00001638:    320a        .2      ADDS     r2,r2,#0xa
        0x0000163a:    b2d1        ..      UXTB     r1,r2
        0x0000163c:    221a        ."      MOVS     r2,#0x1a
        0x0000163e:    4362        bC      MULS     r2,r4,r2
        0x00001640:    1952        R.      ADDS     r2,r2,r5
        0x00001642:    8892        ..      LDRH     r2,[r2,#4]
        0x00001644:    320e        .2      ADDS     r2,r2,#0xe
        0x00001646:    b2d0        ..      UXTB     r0,r2
        0x00001648:    9a09        ..      LDR      r2,[sp,#0x24]
        0x0000164a:    f003fe63    ..c.    BL       tileMap ; 0x5314
        0x0000164e:    1c64        d.      ADDS     r4,r4,#1
        0x00001650:    4811        .H      LDR      r0,[pc,#68] ; [0x1698] = 0x553c
        0x00001652:    7800        .x      LDRB     r0,[r0,#0]
        0x00001654:    4284        .B      CMP      r4,r0
        0x00001656:    dbab        ..      BLT      0x15b0 ; enemyAndBulletMapCreate + 232
        0x00001658:    2400        .$      MOVS     r4,#0
        0x0000165a:    e014        ..      B        0x1686 ; enemyAndBulletMapCreate + 446
        0x0000165c:    200a        .       MOVS     r0,#0xa
        0x0000165e:    4360        `C      MULS     r0,r4,r0
        0x00001660:    9903        ..      LDR      r1,[sp,#0xc]
        0x00001662:    1840        @.      ADDS     r0,r0,r1
        0x00001664:    7900        .y      LDRB     r0,[r0,#4]
        0x00001666:    2800        .(      CMP      r0,#0
        0x00001668:    d00c        ..      BEQ      0x1684 ; enemyAndBulletMapCreate + 444
        0x0000166a:    220a        ."      MOVS     r2,#0xa
        0x0000166c:    4362        bC      MULS     r2,r4,r2
        0x0000166e:    9b03        ..      LDR      r3,[sp,#0xc]
        0x00001670:    18d2        ..      ADDS     r2,r2,r3
        0x00001672:    8852        R.      LDRH     r2,[r2,#2]
        0x00001674:    b2d1        ..      UXTB     r1,r2
        0x00001676:    220a        ."      MOVS     r2,#0xa
        0x00001678:    4362        bC      MULS     r2,r4,r2
        0x0000167a:    5a9a        .Z      LDRH     r2,[r3,r2]
        0x0000167c:    b2d0        ..      UXTB     r0,r2
        0x0000167e:    9a09        ..      LDR      r2,[sp,#0x24]
        0x00001680:    f003fe48    ..H.    BL       tileMap ; 0x5314
        0x00001684:    1c64        d.      ADDS     r4,r4,#1
        0x00001686:    4805        .H      LDR      r0,[pc,#20] ; [0x169c] = 0x553d
        0x00001688:    7800        .x      LDRB     r0,[r0,#0]
        0x0000168a:    4284        .B      CMP      r4,r0
        0x0000168c:    dbe6        ..      BLT      0x165c ; enemyAndBulletMapCreate + 404
        0x0000168e:    bdff        ..      POP      {r0-r7,pc}
    $d
        0x00001690:    00005539    9U..    DCD    21817
        0x00001694:    0000553a    :U..    DCD    21818
        0x00001698:    0000553c    <U..    DCD    21820
        0x0000169c:    0000553d    =U..    DCD    21821
    $t
    i.enmeyBulletDraw
    enmeyBulletDraw
        0x000016a0:    b5f8        ..      PUSH     {r3-r7,lr}
        0x000016a2:    4605        .F      MOV      r5,r0
        0x000016a4:    460e        .F      MOV      r6,r1
        0x000016a6:    2400        .$      MOVS     r4,#0
        0x000016a8:    e018        ..      B        0x16dc ; enmeyBulletDraw + 60
        0x000016aa:    200a        .       MOVS     r0,#0xa
        0x000016ac:    4360        `C      MULS     r0,r4,r0
        0x000016ae:    1940        @.      ADDS     r0,r0,r5
        0x000016b0:    7900        .y      LDRB     r0,[r0,#4]
        0x000016b2:    2800        .(      CMP      r0,#0
        0x000016b4:    d011        ..      BEQ      0x16da ; enmeyBulletDraw + 58
        0x000016b6:    2010        .       MOVS     r0,#0x10
        0x000016b8:    230a        .#      MOVS     r3,#0xa
        0x000016ba:    4363        cC      MULS     r3,r4,r3
        0x000016bc:    195b        [.      ADDS     r3,r3,r5
        0x000016be:    9000        ..      STR      r0,[sp,#0]
        0x000016c0:    885b        [.      LDRH     r3,[r3,#2]
        0x000016c2:    b2da        ..      UXTB     r2,r3
        0x000016c4:    230a        .#      MOVS     r3,#0xa
        0x000016c6:    4363        cC      MULS     r3,r4,r3
        0x000016c8:    5aeb        .Z      LDRH     r3,[r5,r3]
        0x000016ca:    b2d9        ..      UXTB     r1,r3
        0x000016cc:    7830        0x      LDRB     r0,[r6,#0]
        0x000016ce:    2330        0#      MOVS     r3,#0x30
        0x000016d0:    f003ff20    .. .    BL       writeOneSprite ; 0x5514
        0x000016d4:    7830        0x      LDRB     r0,[r6,#0]
        0x000016d6:    1c40        @.      ADDS     r0,r0,#1
        0x000016d8:    7030        0p      STRB     r0,[r6,#0]
        0x000016da:    1c64        d.      ADDS     r4,r4,#1
        0x000016dc:    4802        .H      LDR      r0,[pc,#8] ; [0x16e8] = 0x553d
        0x000016de:    7800        .x      LDRB     r0,[r0,#0]
        0x000016e0:    4284        .B      CMP      r4,r0
        0x000016e2:    dbe2        ..      BLT      0x16aa ; enmeyBulletDraw + 10
        0x000016e4:    bdf8        ..      POP      {r3-r7,pc}
    $d
        0x000016e6:    0000        ..      DCW    0
        0x000016e8:    0000553d    =U..    DCD    21821
    $t
    i.enmey_BulletInit
    enmey_BulletInit
        0x000016ec:    4601        .F      MOV      r1,r0
        0x000016ee:    2000        .       MOVS     r0,#0
        0x000016f0:    e005        ..      B        0x16fe ; enmey_BulletInit + 18
        0x000016f2:    2300        .#      MOVS     r3,#0
        0x000016f4:    220a        ."      MOVS     r2,#0xa
        0x000016f6:    4342        BC      MULS     r2,r0,r2
        0x000016f8:    1852        R.      ADDS     r2,r2,r1
        0x000016fa:    7113        .q      STRB     r3,[r2,#4]
        0x000016fc:    1c40        @.      ADDS     r0,r0,#1
        0x000016fe:    4a02        .J      LDR      r2,[pc,#8] ; [0x1708] = 0x553d
        0x00001700:    7812        .x      LDRB     r2,[r2,#0]
        0x00001702:    4290        .B      CMP      r0,r2
        0x00001704:    dbf5        ..      BLT      0x16f2 ; enmey_BulletInit + 6
        0x00001706:    4770        pG      BX       lr
    $d
        0x00001708:    0000553d    =U..    DCD    21821
    $t
    i.fputc
    fputc
        0x0000170c:    b570        p.      PUSH     {r4-r6,lr}
        0x0000170e:    4604        .F      MOV      r4,r0
        0x00001710:    460d        .F      MOV      r5,r1
        0x00001712:    2c0a        .,      CMP      r4,#0xa
        0x00001714:    d103        ..      BNE      0x171e ; fputc + 18
        0x00001716:    210d        .!      MOVS     r1,#0xd
        0x00001718:    0740        @.      LSLS     r0,r0,#29
        0x0000171a:    f003fe0d    ....    BL       uart_SendChar ; 0x5338
        0x0000171e:    b2e1        ..      UXTB     r1,r4
        0x00001720:    2001        .       MOVS     r0,#1
        0x00001722:    0780        ..      LSLS     r0,r0,#30
        0x00001724:    f003fe08    ....    BL       uart_SendChar ; 0x5338
        0x00001728:    4620         F      MOV      r0,r4
        0x0000172a:    bd70        p.      POP      {r4-r6,pc}
    i.gameCursorDraw
    gameCursorDraw
        0x0000172c:    b5f8        ..      PUSH     {r3-r7,lr}
        0x0000172e:    4606        .F      MOV      r6,r0
        0x00001730:    2550        P%      MOVS     r5,#0x50
        0x00001732:    2400        .$      MOVS     r4,#0
        0x00001734:    7830        0x      LDRB     r0,[r6,#0]
        0x00001736:    2800        .(      CMP      r0,#0
        0x00001738:    d002        ..      BEQ      0x1740 ; gameCursorDraw + 20
        0x0000173a:    2801        .(      CMP      r0,#1
        0x0000173c:    d104        ..      BNE      0x1748 ; gameCursorDraw + 28
        0x0000173e:    e001        ..      B        0x1744 ; gameCursorDraw + 24
        0x00001740:    2480        .$      MOVS     r4,#0x80
        0x00001742:    e003        ..      B        0x174c ; gameCursorDraw + 32
        0x00001744:    2490        .$      MOVS     r4,#0x90
        0x00001746:    e001        ..      B        0x174c ; gameCursorDraw + 32
        0x00001748:    2480        .$      MOVS     r4,#0x80
        0x0000174a:    bf00        ..      NOP      
        0x0000174c:    bf00        ..      NOP      
        0x0000174e:    20a0        .       MOVS     r0,#0xa0
        0x00001750:    b2e2        ..      UXTB     r2,r4
        0x00001752:    b2e9        ..      UXTB     r1,r5
        0x00001754:    2340        @#      MOVS     r3,#0x40
        0x00001756:    9000        ..      STR      r0,[sp,#0]
        0x00001758:    2000        .       MOVS     r0,#0
        0x0000175a:    f003fedb    ....    BL       writeOneSprite ; 0x5514
        0x0000175e:    20a0        .       MOVS     r0,#0xa0
        0x00001760:    b2e2        ..      UXTB     r2,r4
        0x00001762:    9000        ..      STR      r0,[sp,#0]
        0x00001764:    4628        (F      MOV      r0,r5
        0x00001766:    3008        .0      ADDS     r0,r0,#8
        0x00001768:    b2c1        ..      UXTB     r1,r0
        0x0000176a:    2341        A#      MOVS     r3,#0x41
        0x0000176c:    2001        .       MOVS     r0,#1
        0x0000176e:    f003fed1    ....    BL       writeOneSprite ; 0x5514
        0x00001772:    20a0        .       MOVS     r0,#0xa0
        0x00001774:    9000        ..      STR      r0,[sp,#0]
        0x00001776:    4620         F      MOV      r0,r4
        0x00001778:    3008        .0      ADDS     r0,r0,#8
        0x0000177a:    b2c2        ..      UXTB     r2,r0
        0x0000177c:    1d28        (.      ADDS     r0,r5,#4
        0x0000177e:    b2c1        ..      UXTB     r1,r0
        0x00001780:    2342        B#      MOVS     r3,#0x42
        0x00001782:    2002        .       MOVS     r0,#2
        0x00001784:    f003fec6    ....    BL       writeOneSprite ; 0x5514
        0x00001788:    bdf8        ..      POP      {r3-r7,pc}
    i.gameScoreDraw
    gameScoreDraw
        0x0000178a:    b5f0        ..      PUSH     {r4-r7,lr}
        0x0000178c:    b085        ..      SUB      sp,sp,#0x14
        0x0000178e:    4605        .F      MOV      r5,r0
        0x00001790:    460e        .F      MOV      r6,r1
        0x00001792:    4617        .F      MOV      r7,r2
        0x00001794:    461c        .F      MOV      r4,r3
        0x00001796:    210a        .!      MOVS     r1,#0xa
        0x00001798:    4638        8F      MOV      r0,r7
        0x0000179a:    f7fefcc5    ....    BL       __aeabi_uidiv ; 0x128
        0x0000179e:    9104        ..      STR      r1,[sp,#0x10]
        0x000017a0:    210a        .!      MOVS     r1,#0xa
        0x000017a2:    4638        8F      MOV      r0,r7
        0x000017a4:    f7fefcc0    ....    BL       __aeabi_uidiv ; 0x128
        0x000017a8:    210a        .!      MOVS     r1,#0xa
        0x000017aa:    9000        ..      STR      r0,[sp,#0]
        0x000017ac:    f7fefcbc    ....    BL       __aeabi_uidiv ; 0x128
        0x000017b0:    9103        ..      STR      r1,[sp,#0xc]
        0x000017b2:    2164        d!      MOVS     r1,#0x64
        0x000017b4:    4638        8F      MOV      r0,r7
        0x000017b6:    f7fefcb7    ....    BL       __aeabi_uidiv ; 0x128
        0x000017ba:    210a        .!      MOVS     r1,#0xa
        0x000017bc:    9000        ..      STR      r0,[sp,#0]
        0x000017be:    f7fefcb3    ....    BL       __aeabi_uidiv ; 0x128
        0x000017c2:    9102        ..      STR      r1,[sp,#8]
        0x000017c4:    217d        }!      MOVS     r1,#0x7d
        0x000017c6:    00c9        ..      LSLS     r1,r1,#3
        0x000017c8:    4638        8F      MOV      r0,r7
        0x000017ca:    f7fefcad    ....    BL       __aeabi_uidiv ; 0x128
        0x000017ce:    210a        .!      MOVS     r1,#0xa
        0x000017d0:    9000        ..      STR      r0,[sp,#0]
        0x000017d2:    f7fefca9    ....    BL       __aeabi_uidiv ; 0x128
        0x000017d6:    9101        ..      STR      r1,[sp,#4]
        0x000017d8:    2030        0       MOVS     r0,#0x30
        0x000017da:    9000        ..      STR      r0,[sp,#0]
        0x000017dc:    7820         x      LDRB     r0,[r4,#0]
        0x000017de:    4632        2F      MOV      r2,r6
        0x000017e0:    4629        )F      MOV      r1,r5
        0x000017e2:    9b01        ..      LDR      r3,[sp,#4]
        0x000017e4:    f003fe96    ....    BL       writeOneSprite ; 0x5514
        0x000017e8:    2030        0       MOVS     r0,#0x30
        0x000017ea:    462a        *F      MOV      r2,r5
        0x000017ec:    3208        .2      ADDS     r2,r2,#8
        0x000017ee:    b2d1        ..      UXTB     r1,r2
        0x000017f0:    9000        ..      STR      r0,[sp,#0]
        0x000017f2:    7822        "x      LDRB     r2,[r4,#0]
        0x000017f4:    1c52        R.      ADDS     r2,r2,#1
        0x000017f6:    b2d0        ..      UXTB     r0,r2
        0x000017f8:    4632        2F      MOV      r2,r6
        0x000017fa:    9b02        ..      LDR      r3,[sp,#8]
        0x000017fc:    f003fe8a    ....    BL       writeOneSprite ; 0x5514
        0x00001800:    2030        0       MOVS     r0,#0x30
        0x00001802:    462a        *F      MOV      r2,r5
        0x00001804:    3210        .2      ADDS     r2,r2,#0x10
        0x00001806:    b2d1        ..      UXTB     r1,r2
        0x00001808:    9000        ..      STR      r0,[sp,#0]
        0x0000180a:    7822        "x      LDRB     r2,[r4,#0]
        0x0000180c:    1c92        ..      ADDS     r2,r2,#2
        0x0000180e:    b2d0        ..      UXTB     r0,r2
        0x00001810:    4632        2F      MOV      r2,r6
        0x00001812:    9b03        ..      LDR      r3,[sp,#0xc]
        0x00001814:    f003fe7e    ..~.    BL       writeOneSprite ; 0x5514
        0x00001818:    2030        0       MOVS     r0,#0x30
        0x0000181a:    462a        *F      MOV      r2,r5
        0x0000181c:    3218        .2      ADDS     r2,r2,#0x18
        0x0000181e:    b2d1        ..      UXTB     r1,r2
        0x00001820:    9000        ..      STR      r0,[sp,#0]
        0x00001822:    7822        "x      LDRB     r2,[r4,#0]
        0x00001824:    1cd2        ..      ADDS     r2,r2,#3
        0x00001826:    b2d0        ..      UXTB     r0,r2
        0x00001828:    4632        2F      MOV      r2,r6
        0x0000182a:    9b04        ..      LDR      r3,[sp,#0x10]
        0x0000182c:    f003fe72    ..r.    BL       writeOneSprite ; 0x5514
        0x00001830:    7820         x      LDRB     r0,[r4,#0]
        0x00001832:    1d00        ..      ADDS     r0,r0,#4
        0x00001834:    7020         p      STRB     r0,[r4,#0]
        0x00001836:    b005        ..      ADD      sp,sp,#0x14
        0x00001838:    bdf0        ..      POP      {r4-r7,pc}
        0x0000183a:    0000        ..      MOVS     r0,r0
    i.gameStartInterfaceShow
    gameStartInterfaceShow
        0x0000183c:    b5f3        ..      PUSH     {r0,r1,r4-r7,lr}
        0x0000183e:    b087        ..      SUB      sp,sp,#0x1c
        0x00001840:    9f07        ..      LDR      r7,[sp,#0x1c]
        0x00001842:    9808        ..      LDR      r0,[sp,#0x20]
        0x00001844:    9006        ..      STR      r0,[sp,#0x18]
        0x00001846:    2500        .%      MOVS     r5,#0
        0x00001848:    e020         .      B        0x188c ; gameStartInterfaceShow + 80
        0x0000184a:    2600        .&      MOVS     r6,#0
        0x0000184c:    e01a        ..      B        0x1884 ; gameStartInterfaceShow + 72
        0x0000184e:    42bd        .B      CMP      r5,r7
        0x00001850:    db16        ..      BLT      0x1880 ; gameStartInterfaceShow + 68
        0x00001852:    4638        8F      MOV      r0,r7
        0x00001854:    3012        .0      ADDS     r0,r0,#0x12
        0x00001856:    4285        .B      CMP      r5,r0
        0x00001858:    da12        ..      BGE      0x1880 ; gameStartInterfaceShow + 68
        0x0000185a:    9806        ..      LDR      r0,[sp,#0x18]
        0x0000185c:    4286        .B      CMP      r6,r0
        0x0000185e:    db0f        ..      BLT      0x1880 ; gameStartInterfaceShow + 68
        0x00001860:    9806        ..      LDR      r0,[sp,#0x18]
        0x00001862:    1d40        @.      ADDS     r0,r0,#5
        0x00001864:    4286        .B      CMP      r6,r0
        0x00001866:    da0b        ..      BGE      0x1880 ; gameStartInterfaceShow + 68
        0x00001868:    9806        ..      LDR      r0,[sp,#0x18]
        0x0000186a:    1a30        0.      SUBS     r0,r6,r0
        0x0000186c:    2112        .!      MOVS     r1,#0x12
        0x0000186e:    4348        HC      MULS     r0,r1,r0
        0x00001870:    4947        GI      LDR      r1,[pc,#284] ; [0x1990] = 0x20000248
        0x00001872:    1840        @.      ADDS     r0,r0,r1
        0x00001874:    1be9        ..      SUBS     r1,r5,r7
        0x00001876:    5c42        B\      LDRB     r2,[r0,r1]
        0x00001878:    4631        1F      MOV      r1,r6
        0x0000187a:    4628        (F      MOV      r0,r5
        0x0000187c:    f003fe42    ..B.    BL       writeOneNametable ; 0x5504
        0x00001880:    1c70        p.      ADDS     r0,r6,#1
        0x00001882:    b2c6        ..      UXTB     r6,r0
        0x00001884:    2e1e        ..      CMP      r6,#0x1e
        0x00001886:    dbe2        ..      BLT      0x184e ; gameStartInterfaceShow + 18
        0x00001888:    1c68        h.      ADDS     r0,r5,#1
        0x0000188a:    b2c5        ..      UXTB     r5,r0
        0x0000188c:    2d20         -      CMP      r5,#0x20
        0x0000188e:    dbdc        ..      BLT      0x184a ; gameStartInterfaceShow + 14
        0x00001890:    1db8        ..      ADDS     r0,r7,#6
        0x00001892:    b2c4        ..      UXTB     r4,r0
        0x00001894:    9806        ..      LDR      r0,[sp,#0x18]
        0x00001896:    3008        .0      ADDS     r0,r0,#8
        0x00001898:    b2c0        ..      UXTB     r0,r0
        0x0000189a:    9005        ..      STR      r0,[sp,#0x14]
        0x0000189c:    2500        .%      MOVS     r5,#0
        0x0000189e:    e017        ..      B        0x18d0 ; gameStartInterfaceShow + 148
        0x000018a0:    2600        .&      MOVS     r6,#0
        0x000018a2:    e011        ..      B        0x18c8 ; gameStartInterfaceShow + 140
        0x000018a4:    42a5        .B      CMP      r5,r4
        0x000018a6:    db0d        ..      BLT      0x18c4 ; gameStartInterfaceShow + 136
        0x000018a8:    4620         F      MOV      r0,r4
        0x000018aa:    3008        .0      ADDS     r0,r0,#8
        0x000018ac:    4285        .B      CMP      r5,r0
        0x000018ae:    da09        ..      BGE      0x18c4 ; gameStartInterfaceShow + 136
        0x000018b0:    9805        ..      LDR      r0,[sp,#0x14]
        0x000018b2:    4286        .B      CMP      r6,r0
        0x000018b4:    d106        ..      BNE      0x18c4 ; gameStartInterfaceShow + 136
        0x000018b6:    1b28        (.      SUBS     r0,r5,r4
        0x000018b8:    4936        6I      LDR      r1,[pc,#216] ; [0x1994] = 0x200002ae
        0x000018ba:    5c0a        .\      LDRB     r2,[r1,r0]
        0x000018bc:    4631        1F      MOV      r1,r6
        0x000018be:    4628        (F      MOV      r0,r5
        0x000018c0:    f003fe20    .. .    BL       writeOneNametable ; 0x5504
        0x000018c4:    1c70        p.      ADDS     r0,r6,#1
        0x000018c6:    b2c6        ..      UXTB     r6,r0
        0x000018c8:    2e1e        ..      CMP      r6,#0x1e
        0x000018ca:    dbeb        ..      BLT      0x18a4 ; gameStartInterfaceShow + 104
        0x000018cc:    1c68        h.      ADDS     r0,r5,#1
        0x000018ce:    b2c5        ..      UXTB     r5,r0
        0x000018d0:    2d20         -      CMP      r5,#0x20
        0x000018d2:    dbe5        ..      BLT      0x18a0 ; gameStartInterfaceShow + 100
        0x000018d4:    9404        ..      STR      r4,[sp,#0x10]
        0x000018d6:    9805        ..      LDR      r0,[sp,#0x14]
        0x000018d8:    1c80        ..      ADDS     r0,r0,#2
        0x000018da:    b2c0        ..      UXTB     r0,r0
        0x000018dc:    9003        ..      STR      r0,[sp,#0xc]
        0x000018de:    2500        .%      MOVS     r5,#0
        0x000018e0:    e019        ..      B        0x1916 ; gameStartInterfaceShow + 218
        0x000018e2:    2600        .&      MOVS     r6,#0
        0x000018e4:    e013        ..      B        0x190e ; gameStartInterfaceShow + 210
        0x000018e6:    9804        ..      LDR      r0,[sp,#0x10]
        0x000018e8:    4285        .B      CMP      r5,r0
        0x000018ea:    db0e        ..      BLT      0x190a ; gameStartInterfaceShow + 206
        0x000018ec:    9804        ..      LDR      r0,[sp,#0x10]
        0x000018ee:    3008        .0      ADDS     r0,r0,#8
        0x000018f0:    4285        .B      CMP      r5,r0
        0x000018f2:    da0a        ..      BGE      0x190a ; gameStartInterfaceShow + 206
        0x000018f4:    9803        ..      LDR      r0,[sp,#0xc]
        0x000018f6:    4286        .B      CMP      r6,r0
        0x000018f8:    d107        ..      BNE      0x190a ; gameStartInterfaceShow + 206
        0x000018fa:    9804        ..      LDR      r0,[sp,#0x10]
        0x000018fc:    1a28        (.      SUBS     r0,r5,r0
        0x000018fe:    4926        &I      LDR      r1,[pc,#152] ; [0x1998] = 0x200002b6
        0x00001900:    5c0a        .\      LDRB     r2,[r1,r0]
        0x00001902:    4631        1F      MOV      r1,r6
        0x00001904:    4628        (F      MOV      r0,r5
        0x00001906:    f003fdfd    ....    BL       writeOneNametable ; 0x5504
        0x0000190a:    1c70        p.      ADDS     r0,r6,#1
        0x0000190c:    b2c6        ..      UXTB     r6,r0
        0x0000190e:    2e1e        ..      CMP      r6,#0x1e
        0x00001910:    dbe9        ..      BLT      0x18e6 ; gameStartInterfaceShow + 170
        0x00001912:    1c68        h.      ADDS     r0,r5,#1
        0x00001914:    b2c5        ..      UXTB     r5,r0
        0x00001916:    2d20         -      CMP      r5,#0x20
        0x00001918:    dbe3        ..      BLT      0x18e2 ; gameStartInterfaceShow + 166
        0x0000191a:    1f20         .      SUBS     r0,r4,#4
        0x0000191c:    b2c0        ..      UXTB     r0,r0
        0x0000191e:    9002        ..      STR      r0,[sp,#8]
        0x00001920:    9805        ..      LDR      r0,[sp,#0x14]
        0x00001922:    3008        .0      ADDS     r0,r0,#8
        0x00001924:    b2c0        ..      UXTB     r0,r0
        0x00001926:    9001        ..      STR      r0,[sp,#4]
        0x00001928:    2500        .%      MOVS     r5,#0
        0x0000192a:    e019        ..      B        0x1960 ; gameStartInterfaceShow + 292
        0x0000192c:    2600        .&      MOVS     r6,#0
        0x0000192e:    e013        ..      B        0x1958 ; gameStartInterfaceShow + 284
        0x00001930:    9802        ..      LDR      r0,[sp,#8]
        0x00001932:    4285        .B      CMP      r5,r0
        0x00001934:    db0e        ..      BLT      0x1954 ; gameStartInterfaceShow + 280
        0x00001936:    9802        ..      LDR      r0,[sp,#8]
        0x00001938:    300c        .0      ADDS     r0,r0,#0xc
        0x0000193a:    4285        .B      CMP      r5,r0
        0x0000193c:    da0a        ..      BGE      0x1954 ; gameStartInterfaceShow + 280
        0x0000193e:    9801        ..      LDR      r0,[sp,#4]
        0x00001940:    4286        .B      CMP      r6,r0
        0x00001942:    d107        ..      BNE      0x1954 ; gameStartInterfaceShow + 280
        0x00001944:    9802        ..      LDR      r0,[sp,#8]
        0x00001946:    1a28        (.      SUBS     r0,r5,r0
        0x00001948:    4914        .I      LDR      r1,[pc,#80] ; [0x199c] = 0x200002a2
        0x0000194a:    5c0a        .\      LDRB     r2,[r1,r0]
        0x0000194c:    4631        1F      MOV      r1,r6
        0x0000194e:    4628        (F      MOV      r0,r5
        0x00001950:    f003fdd8    ....    BL       writeOneNametable ; 0x5504
        0x00001954:    1c70        p.      ADDS     r0,r6,#1
        0x00001956:    b2c6        ..      UXTB     r6,r0
        0x00001958:    2e1e        ..      CMP      r6,#0x1e
        0x0000195a:    dbe9        ..      BLT      0x1930 ; gameStartInterfaceShow + 244
        0x0000195c:    1c68        h.      ADDS     r0,r5,#1
        0x0000195e:    b2c5        ..      UXTB     r5,r0
        0x00001960:    2d20         -      CMP      r5,#0x20
        0x00001962:    dbe3        ..      BLT      0x192c ; gameStartInterfaceShow + 240
        0x00001964:    2500        .%      MOVS     r5,#0
        0x00001966:    e00e        ..      B        0x1986 ; gameStartInterfaceShow + 330
        0x00001968:    2600        .&      MOVS     r6,#0
        0x0000196a:    e009        ..      B        0x1980 ; gameStartInterfaceShow + 324
        0x0000196c:    0168        h.      LSLS     r0,r5,#5
        0x0000196e:    1980        ..      ADDS     r0,r0,r6
        0x00001970:    4b0b        .K      LDR      r3,[pc,#44] ; [0x19a0] = 0x200002fa
        0x00001972:    5c1a        .\      LDRB     r2,[r3,r0]
        0x00001974:    b2a9        ..      UXTH     r1,r5
        0x00001976:    b2b0        ..      UXTH     r0,r6
        0x00001978:    9000        ..      STR      r0,[sp,#0]
        0x0000197a:    f003fdc3    ....    BL       writeOneNametable ; 0x5504
        0x0000197e:    1c76        v.      ADDS     r6,r6,#1
        0x00001980:    2e20         .      CMP      r6,#0x20
        0x00001982:    dbf3        ..      BLT      0x196c ; gameStartInterfaceShow + 304
        0x00001984:    1c6d        m.      ADDS     r5,r5,#1
        0x00001986:    2d20         -      CMP      r5,#0x20
        0x00001988:    dbee        ..      BLT      0x1968 ; gameStartInterfaceShow + 300
        0x0000198a:    b009        ..      ADD      sp,sp,#0x24
        0x0000198c:    bdf0        ..      POP      {r4-r7,pc}
    $d
        0x0000198e:    0000        ..      DCW    0
        0x00001990:    20000248    H..     DCD    536871496
        0x00001994:    200002ae    ...     DCD    536871598
        0x00001998:    200002b6    ...     DCD    536871606
        0x0000199c:    200002a2    ...     DCD    536871586
        0x000019a0:    200002fa    ...     DCD    536871674
    $t
    i.isHit_b_EnemyPlane
    isHit_b_EnemyPlane
        0x000019a4:    b5f7        ..      PUSH     {r0-r2,r4-r7,lr}
        0x000019a6:    b082        ..      SUB      sp,sp,#8
        0x000019a8:    4605        .F      MOV      r5,r0
        0x000019aa:    460e        .F      MOV      r6,r1
        0x000019ac:    2400        .$      MOVS     r4,#0
        0x000019ae:    e074        t.      B        0x1a9a ; isHit_b_EnemyPlane + 246
        0x000019b0:    201a        .       MOVS     r0,#0x1a
        0x000019b2:    4360        `C      MULS     r0,r4,r0
        0x000019b4:    5c28        (\      LDRB     r0,[r5,r0]
        0x000019b6:    2800        .(      CMP      r0,#0
        0x000019b8:    d06e        n.      BEQ      0x1a98 ; isHit_b_EnemyPlane + 244
        0x000019ba:    201a        .       MOVS     r0,#0x1a
        0x000019bc:    4360        `C      MULS     r0,r4,r0
        0x000019be:    1940        @.      ADDS     r0,r0,r5
        0x000019c0:    8880        ..      LDRH     r0,[r0,#4]
        0x000019c2:    0540        @.      LSLS     r0,r0,#21
        0x000019c4:    0e07        ..      LSRS     r7,r0,#24
        0x000019c6:    201a        .       MOVS     r0,#0x1a
        0x000019c8:    4360        `C      MULS     r0,r4,r0
        0x000019ca:    1940        @.      ADDS     r0,r0,r5
        0x000019cc:    88c0        ..      LDRH     r0,[r0,#6]
        0x000019ce:    0540        @.      LSLS     r0,r0,#21
        0x000019d0:    0e00        ..      LSRS     r0,r0,#24
        0x000019d2:    9001        ..      STR      r0,[sp,#4]
        0x000019d4:    9801        ..      LDR      r0,[sp,#4]
        0x000019d6:    1c80        ..      ADDS     r0,r0,#2
        0x000019d8:    0080        ..      LSLS     r0,r0,#2
        0x000019da:    5830        0X      LDR      r0,[r6,r0]
        0x000019dc:    2101        .!      MOVS     r1,#1
        0x000019de:    40b9        .@      LSLS     r1,r1,r7
        0x000019e0:    4008        .@      ANDS     r0,r0,r1
        0x000019e2:    9901        ..      LDR      r1,[sp,#4]
        0x000019e4:    1c89        ..      ADDS     r1,r1,#2
        0x000019e6:    0089        ..      LSLS     r1,r1,#2
        0x000019e8:    5871        qX      LDR      r1,[r6,r1]
        0x000019ea:    1e7a        z.      SUBS     r2,r7,#1
        0x000019ec:    2301        .#      MOVS     r3,#1
        0x000019ee:    4093        .@      LSLS     r3,r3,r2
        0x000019f0:    4019        .@      ANDS     r1,r1,r3
        0x000019f2:    4308        .C      ORRS     r0,r0,r1
        0x000019f4:    9901        ..      LDR      r1,[sp,#4]
        0x000019f6:    1c89        ..      ADDS     r1,r1,#2
        0x000019f8:    0089        ..      LSLS     r1,r1,#2
        0x000019fa:    5871        qX      LDR      r1,[r6,r1]
        0x000019fc:    1c7a        z.      ADDS     r2,r7,#1
        0x000019fe:    2301        .#      MOVS     r3,#1
        0x00001a00:    4093        .@      LSLS     r3,r3,r2
        0x00001a02:    4019        .@      ANDS     r1,r1,r3
        0x00001a04:    4308        .C      ORRS     r0,r0,r1
        0x00001a06:    9901        ..      LDR      r1,[sp,#4]
        0x00001a08:    1c89        ..      ADDS     r1,r1,#2
        0x00001a0a:    0089        ..      LSLS     r1,r1,#2
        0x00001a0c:    5871        qX      LDR      r1,[r6,r1]
        0x00001a0e:    1eba        ..      SUBS     r2,r7,#2
        0x00001a10:    2301        .#      MOVS     r3,#1
        0x00001a12:    4093        .@      LSLS     r3,r3,r2
        0x00001a14:    4019        .@      ANDS     r1,r1,r3
        0x00001a16:    4308        .C      ORRS     r0,r0,r1
        0x00001a18:    9901        ..      LDR      r1,[sp,#4]
        0x00001a1a:    1c89        ..      ADDS     r1,r1,#2
        0x00001a1c:    0089        ..      LSLS     r1,r1,#2
        0x00001a1e:    5871        qX      LDR      r1,[r6,r1]
        0x00001a20:    1cba        ..      ADDS     r2,r7,#2
        0x00001a22:    2301        .#      MOVS     r3,#1
        0x00001a24:    4093        .@      LSLS     r3,r3,r2
        0x00001a26:    4019        .@      ANDS     r1,r1,r3
        0x00001a28:    4308        .C      ORRS     r0,r0,r1
        0x00001a2a:    9000        ..      STR      r0,[sp,#0]
        0x00001a2c:    9800        ..      LDR      r0,[sp,#0]
        0x00001a2e:    2800        .(      CMP      r0,#0
        0x00001a30:    d031        1.      BEQ      0x1a96 ; isHit_b_EnemyPlane + 242
        0x00001a32:    201a        .       MOVS     r0,#0x1a
        0x00001a34:    4360        `C      MULS     r0,r4,r0
        0x00001a36:    1940        @.      ADDS     r0,r0,r5
        0x00001a38:    7840        @x      LDRB     r0,[r0,#1]
        0x00001a3a:    1e40        @.      SUBS     r0,r0,#1
        0x00001a3c:    b2c1        ..      UXTB     r1,r0
        0x00001a3e:    201a        .       MOVS     r0,#0x1a
        0x00001a40:    4360        `C      MULS     r0,r4,r0
        0x00001a42:    1940        @.      ADDS     r0,r0,r5
        0x00001a44:    7041        Ap      STRB     r1,[r0,#1]
        0x00001a46:    221a        ."      MOVS     r2,#0x1a
        0x00001a48:    4362        bC      MULS     r2,r4,r2
        0x00001a4a:    1952        R.      ADDS     r2,r2,r5
        0x00001a4c:    88d2        ..      LDRH     r2,[r2,#6]
        0x00001a4e:    3214        .2      ADDS     r2,r2,#0x14
        0x00001a50:    b211        ..      SXTH     r1,r2
        0x00001a52:    221a        ."      MOVS     r2,#0x1a
        0x00001a54:    4362        bC      MULS     r2,r4,r2
        0x00001a56:    1952        R.      ADDS     r2,r2,r5
        0x00001a58:    8892        ..      LDRH     r2,[r2,#4]
        0x00001a5a:    3a08        .:      SUBS     r2,r2,#8
        0x00001a5c:    b210        ..      SXTH     r0,r2
        0x00001a5e:    9a04        ..      LDR      r2,[sp,#0x10]
        0x00001a60:    f001ff9e    ....    BL       new_createOneBoom ; 0x39a0
        0x00001a64:    201a        .       MOVS     r0,#0x1a
        0x00001a66:    4360        `C      MULS     r0,r4,r0
        0x00001a68:    1940        @.      ADDS     r0,r0,r5
        0x00001a6a:    7840        @x      LDRB     r0,[r0,#1]
        0x00001a6c:    2800        .(      CMP      r0,#0
        0x00001a6e:    d112        ..      BNE      0x1a96 ; isHit_b_EnemyPlane + 242
        0x00001a70:    2100        .!      MOVS     r1,#0
        0x00001a72:    201a        .       MOVS     r0,#0x1a
        0x00001a74:    4360        `C      MULS     r0,r4,r0
        0x00001a76:    5429        )T      STRB     r1,[r5,r0]
        0x00001a78:    21fd        .!      MOVS     r1,#0xfd
        0x00001a7a:    201a        .       MOVS     r0,#0x1a
        0x00001a7c:    4360        `C      MULS     r0,r4,r0
        0x00001a7e:    1940        @.      ADDS     r0,r0,r5
        0x00001a80:    8081        ..      STRH     r1,[r0,#4]
        0x00001a82:    21ef        .!      MOVS     r1,#0xef
        0x00001a84:    201a        .       MOVS     r0,#0x1a
        0x00001a86:    4360        `C      MULS     r0,r4,r0
        0x00001a88:    1940        @.      ADDS     r0,r0,r5
        0x00001a8a:    80c1        ..      STRH     r1,[r0,#6]
        0x00001a8c:    4806        .H      LDR      r0,[pc,#24] ; [0x1aa8] = 0x20000008
        0x00001a8e:    6800        .h      LDR      r0,[r0,#0]
        0x00001a90:    30c8        .0      ADDS     r0,r0,#0xc8
        0x00001a92:    4905        .I      LDR      r1,[pc,#20] ; [0x1aa8] = 0x20000008
        0x00001a94:    6008        .`      STR      r0,[r1,#0]
        0x00001a96:    bf00        ..      NOP      
        0x00001a98:    1c64        d.      ADDS     r4,r4,#1
        0x00001a9a:    4804        .H      LDR      r0,[pc,#16] ; [0x1aac] = 0x553c
        0x00001a9c:    7800        .x      LDRB     r0,[r0,#0]
        0x00001a9e:    4284        .B      CMP      r4,r0
        0x00001aa0:    db86        ..      BLT      0x19b0 ; isHit_b_EnemyPlane + 12
        0x00001aa2:    b005        ..      ADD      sp,sp,#0x14
        0x00001aa4:    bdf0        ..      POP      {r4-r7,pc}
    $d
        0x00001aa6:    0000        ..      DCW    0
        0x00001aa8:    20000008    ...     DCD    536870920
        0x00001aac:    0000553c    <U..    DCD    21820
    $t
    i.isHit_m_straight_EnemyPlane
    isHit_m_straight_EnemyPlane
        0x00001ab0:    b5f7        ..      PUSH     {r0-r2,r4-r7,lr}
        0x00001ab2:    b082        ..      SUB      sp,sp,#8
        0x00001ab4:    4605        .F      MOV      r5,r0
        0x00001ab6:    460e        .F      MOV      r6,r1
        0x00001ab8:    2400        .$      MOVS     r4,#0
        0x00001aba:    e058        X.      B        0x1b6e ; isHit_m_straight_EnemyPlane + 190
        0x00001abc:    200c        .       MOVS     r0,#0xc
        0x00001abe:    4360        `C      MULS     r0,r4,r0
        0x00001ac0:    5c28        (\      LDRB     r0,[r5,r0]
        0x00001ac2:    2800        .(      CMP      r0,#0
        0x00001ac4:    d052        R.      BEQ      0x1b6c ; isHit_m_straight_EnemyPlane + 188
        0x00001ac6:    200c        .       MOVS     r0,#0xc
        0x00001ac8:    4360        `C      MULS     r0,r4,r0
        0x00001aca:    1940        @.      ADDS     r0,r0,r5
        0x00001acc:    8880        ..      LDRH     r0,[r0,#4]
        0x00001ace:    0540        @.      LSLS     r0,r0,#21
        0x00001ad0:    0e07        ..      LSRS     r7,r0,#24
        0x00001ad2:    200c        .       MOVS     r0,#0xc
        0x00001ad4:    4360        `C      MULS     r0,r4,r0
        0x00001ad6:    1940        @.      ADDS     r0,r0,r5
        0x00001ad8:    88c0        ..      LDRH     r0,[r0,#6]
        0x00001ada:    0540        @.      LSLS     r0,r0,#21
        0x00001adc:    0e00        ..      LSRS     r0,r0,#24
        0x00001ade:    9001        ..      STR      r0,[sp,#4]
        0x00001ae0:    9801        ..      LDR      r0,[sp,#4]
        0x00001ae2:    1c40        @.      ADDS     r0,r0,#1
        0x00001ae4:    0080        ..      LSLS     r0,r0,#2
        0x00001ae6:    5830        0X      LDR      r0,[r6,r0]
        0x00001ae8:    2101        .!      MOVS     r1,#1
        0x00001aea:    40b9        .@      LSLS     r1,r1,r7
        0x00001aec:    4008        .@      ANDS     r0,r0,r1
        0x00001aee:    9901        ..      LDR      r1,[sp,#4]
        0x00001af0:    1c49        I.      ADDS     r1,r1,#1
        0x00001af2:    0089        ..      LSLS     r1,r1,#2
        0x00001af4:    5871        qX      LDR      r1,[r6,r1]
        0x00001af6:    1c7a        z.      ADDS     r2,r7,#1
        0x00001af8:    2301        .#      MOVS     r3,#1
        0x00001afa:    4093        .@      LSLS     r3,r3,r2
        0x00001afc:    4019        .@      ANDS     r1,r1,r3
        0x00001afe:    4308        .C      ORRS     r0,r0,r1
        0x00001b00:    9000        ..      STR      r0,[sp,#0]
        0x00001b02:    9800        ..      LDR      r0,[sp,#0]
        0x00001b04:    2800        .(      CMP      r0,#0
        0x00001b06:    d030        0.      BEQ      0x1b6a ; isHit_m_straight_EnemyPlane + 186
        0x00001b08:    200c        .       MOVS     r0,#0xc
        0x00001b0a:    4360        `C      MULS     r0,r4,r0
        0x00001b0c:    1940        @.      ADDS     r0,r0,r5
        0x00001b0e:    7840        @x      LDRB     r0,[r0,#1]
        0x00001b10:    1e40        @.      SUBS     r0,r0,#1
        0x00001b12:    b2c1        ..      UXTB     r1,r0
        0x00001b14:    200c        .       MOVS     r0,#0xc
        0x00001b16:    4360        `C      MULS     r0,r4,r0
        0x00001b18:    1940        @.      ADDS     r0,r0,r5
        0x00001b1a:    7041        Ap      STRB     r1,[r0,#1]
        0x00001b1c:    220c        ."      MOVS     r2,#0xc
        0x00001b1e:    4362        bC      MULS     r2,r4,r2
        0x00001b20:    1952        R.      ADDS     r2,r2,r5
        0x00001b22:    88d2        ..      LDRH     r2,[r2,#6]
        0x00001b24:    3208        .2      ADDS     r2,r2,#8
        0x00001b26:    b211        ..      SXTH     r1,r2
        0x00001b28:    220c        ."      MOVS     r2,#0xc
        0x00001b2a:    4362        bC      MULS     r2,r4,r2
        0x00001b2c:    1952        R.      ADDS     r2,r2,r5
        0x00001b2e:    2004        .       MOVS     r0,#4
        0x00001b30:    5e10        .^      LDRSH    r0,[r2,r0]
        0x00001b32:    9a04        ..      LDR      r2,[sp,#0x10]
        0x00001b34:    f001ff34    ..4.    BL       new_createOneBoom ; 0x39a0
        0x00001b38:    200c        .       MOVS     r0,#0xc
        0x00001b3a:    4360        `C      MULS     r0,r4,r0
        0x00001b3c:    1940        @.      ADDS     r0,r0,r5
        0x00001b3e:    7840        @x      LDRB     r0,[r0,#1]
        0x00001b40:    2800        .(      CMP      r0,#0
        0x00001b42:    d112        ..      BNE      0x1b6a ; isHit_m_straight_EnemyPlane + 186
        0x00001b44:    2100        .!      MOVS     r1,#0
        0x00001b46:    200c        .       MOVS     r0,#0xc
        0x00001b48:    4360        `C      MULS     r0,r4,r0
        0x00001b4a:    5429        )T      STRB     r1,[r5,r0]
        0x00001b4c:    21fd        .!      MOVS     r1,#0xfd
        0x00001b4e:    200c        .       MOVS     r0,#0xc
        0x00001b50:    4360        `C      MULS     r0,r4,r0
        0x00001b52:    1940        @.      ADDS     r0,r0,r5
        0x00001b54:    8081        ..      STRH     r1,[r0,#4]
        0x00001b56:    21ef        .!      MOVS     r1,#0xef
        0x00001b58:    200c        .       MOVS     r0,#0xc
        0x00001b5a:    4360        `C      MULS     r0,r4,r0
        0x00001b5c:    1940        @.      ADDS     r0,r0,r5
        0x00001b5e:    80c1        ..      STRH     r1,[r0,#6]
        0x00001b60:    4806        .H      LDR      r0,[pc,#24] ; [0x1b7c] = 0x20000008
        0x00001b62:    6800        .h      LDR      r0,[r0,#0]
        0x00001b64:    30c8        .0      ADDS     r0,r0,#0xc8
        0x00001b66:    4905        .I      LDR      r1,[pc,#20] ; [0x1b7c] = 0x20000008
        0x00001b68:    6008        .`      STR      r0,[r1,#0]
        0x00001b6a:    bf00        ..      NOP      
        0x00001b6c:    1c64        d.      ADDS     r4,r4,#1
        0x00001b6e:    4804        .H      LDR      r0,[pc,#16] ; [0x1b80] = 0x553b
        0x00001b70:    7800        .x      LDRB     r0,[r0,#0]
        0x00001b72:    4284        .B      CMP      r4,r0
        0x00001b74:    dba2        ..      BLT      0x1abc ; isHit_m_straight_EnemyPlane + 12
        0x00001b76:    b005        ..      ADD      sp,sp,#0x14
        0x00001b78:    bdf0        ..      POP      {r4-r7,pc}
    $d
        0x00001b7a:    0000        ..      DCW    0
        0x00001b7c:    20000008    ...     DCD    536870920
        0x00001b80:    0000553b    ;U..    DCD    21819
    $t
    i.isHit_myBullets
    isHit_myBullets
        0x00001b84:    b5f0        ..      PUSH     {r4-r7,lr}
        0x00001b86:    4602        .F      MOV      r2,r0
        0x00001b88:    2000        .       MOVS     r0,#0
        0x00001b8a:    e02d        -.      B        0x1be8 ; isHit_myBullets + 100
        0x00001b8c:    230a        .#      MOVS     r3,#0xa
        0x00001b8e:    4343        CC      MULS     r3,r0,r3
        0x00001b90:    189b        ..      ADDS     r3,r3,r2
        0x00001b92:    791b        .y      LDRB     r3,[r3,#4]
        0x00001b94:    2b00        .+      CMP      r3,#0
        0x00001b96:    d026        &.      BEQ      0x1be6 ; isHit_myBullets + 98
        0x00001b98:    250a        .%      MOVS     r5,#0xa
        0x00001b9a:    4345        EC      MULS     r5,r0,r5
        0x00001b9c:    5b55        U[      LDRH     r5,[r2,r5]
        0x00001b9e:    056d        m.      LSLS     r5,r5,#21
        0x00001ba0:    0e2c        ,.      LSRS     r4,r5,#24
        0x00001ba2:    250a        .%      MOVS     r5,#0xa
        0x00001ba4:    4345        EC      MULS     r5,r0,r5
        0x00001ba6:    18ad        ..      ADDS     r5,r5,r2
        0x00001ba8:    886d        m.      LDRH     r5,[r5,#2]
        0x00001baa:    056d        m.      LSLS     r5,r5,#21
        0x00001bac:    0e2b        +.      LSRS     r3,r5,#24
        0x00001bae:    009d        ..      LSLS     r5,r3,#2
        0x00001bb0:    594d        MY      LDR      r5,[r1,r5]
        0x00001bb2:    2601        .&      MOVS     r6,#1
        0x00001bb4:    40a6        .@      LSLS     r6,r6,r4
        0x00001bb6:    4035        5@      ANDS     r5,r5,r6
        0x00001bb8:    462f        /F      MOV      r7,r5
        0x00001bba:    2f00        ./      CMP      r7,#0
        0x00001bbc:    d012        ..      BEQ      0x1be4 ; isHit_myBullets + 96
        0x00001bbe:    2500        .%      MOVS     r5,#0
        0x00001bc0:    260a        .&      MOVS     r6,#0xa
        0x00001bc2:    4346        FC      MULS     r6,r0,r6
        0x00001bc4:    18b6        ..      ADDS     r6,r6,r2
        0x00001bc6:    7135        5q      STRB     r5,[r6,#4]
        0x00001bc8:    25fd        .%      MOVS     r5,#0xfd
        0x00001bca:    260a        .&      MOVS     r6,#0xa
        0x00001bcc:    4346        FC      MULS     r6,r0,r6
        0x00001bce:    5395        .S      STRH     r5,[r2,r6]
        0x00001bd0:    25ef        .%      MOVS     r5,#0xef
        0x00001bd2:    260a        .&      MOVS     r6,#0xa
        0x00001bd4:    4346        FC      MULS     r6,r0,r6
        0x00001bd6:    18b6        ..      ADDS     r6,r6,r2
        0x00001bd8:    8075        u.      STRH     r5,[r6,#2]
        0x00001bda:    4d06        .M      LDR      r5,[pc,#24] ; [0x1bf4] = 0x20000010
        0x00001bdc:    682d        -h      LDR      r5,[r5,#0]
        0x00001bde:    1c6d        m.      ADDS     r5,r5,#1
        0x00001be0:    4e04        .N      LDR      r6,[pc,#16] ; [0x1bf4] = 0x20000010
        0x00001be2:    6035        5`      STR      r5,[r6,#0]
        0x00001be4:    bf00        ..      NOP      
        0x00001be6:    1c40        @.      ADDS     r0,r0,#1
        0x00001be8:    4b03        .K      LDR      r3,[pc,#12] ; [0x1bf8] = 0x5538
        0x00001bea:    781b        .x      LDRB     r3,[r3,#0]
        0x00001bec:    4298        .B      CMP      r0,r3
        0x00001bee:    dbcd        ..      BLT      0x1b8c ; isHit_myBullets + 8
        0x00001bf0:    bdf0        ..      POP      {r4-r7,pc}
    $d
        0x00001bf2:    0000        ..      DCW    0
        0x00001bf4:    20000010    ...     DCD    536870928
        0x00001bf8:    00005538    8U..    DCD    21816
    $t
    i.isHit_s_EnemyPlane
    isHit_s_EnemyPlane
        0x00001bfc:    b5ff        ..      PUSH     {r0-r7,lr}
        0x00001bfe:    b083        ..      SUB      sp,sp,#0xc
        0x00001c00:    4605        .F      MOV      r5,r0
        0x00001c02:    460e        .F      MOV      r6,r1
        0x00001c04:    4617        .F      MOV      r7,r2
        0x00001c06:    2400        .$      MOVS     r4,#0
        0x00001c08:    e04c        L.      B        0x1ca4 ; isHit_s_EnemyPlane + 168
        0x00001c0a:    0120         .      LSLS     r0,r4,#4
        0x00001c0c:    5c28        (\      LDRB     r0,[r5,r0]
        0x00001c0e:    2800        .(      CMP      r0,#0
        0x00001c10:    d047        G.      BEQ      0x1ca2 ; isHit_s_EnemyPlane + 166
        0x00001c12:    0120         .      LSLS     r0,r4,#4
        0x00001c14:    1940        @.      ADDS     r0,r0,r5
        0x00001c16:    8880        ..      LDRH     r0,[r0,#4]
        0x00001c18:    0540        @.      LSLS     r0,r0,#21
        0x00001c1a:    0e00        ..      LSRS     r0,r0,#24
        0x00001c1c:    9002        ..      STR      r0,[sp,#8]
        0x00001c1e:    0120         .      LSLS     r0,r4,#4
        0x00001c20:    1940        @.      ADDS     r0,r0,r5
        0x00001c22:    88c0        ..      LDRH     r0,[r0,#6]
        0x00001c24:    0540        @.      LSLS     r0,r0,#21
        0x00001c26:    0e00        ..      LSRS     r0,r0,#24
        0x00001c28:    9001        ..      STR      r0,[sp,#4]
        0x00001c2a:    9801        ..      LDR      r0,[sp,#4]
        0x00001c2c:    0080        ..      LSLS     r0,r0,#2
        0x00001c2e:    5839        9X      LDR      r1,[r7,r0]
        0x00001c30:    2201        ."      MOVS     r2,#1
        0x00001c32:    9802        ..      LDR      r0,[sp,#8]
        0x00001c34:    4082        .@      LSLS     r2,r2,r0
        0x00001c36:    4608        .F      MOV      r0,r1
        0x00001c38:    4010        .@      ANDS     r0,r0,r2
        0x00001c3a:    9901        ..      LDR      r1,[sp,#4]
        0x00001c3c:    0089        ..      LSLS     r1,r1,#2
        0x00001c3e:    587a        zX      LDR      r2,[r7,r1]
        0x00001c40:    9902        ..      LDR      r1,[sp,#8]
        0x00001c42:    1c49        I.      ADDS     r1,r1,#1
        0x00001c44:    2301        .#      MOVS     r3,#1
        0x00001c46:    408b        .@      LSLS     r3,r3,r1
        0x00001c48:    401a        .@      ANDS     r2,r2,r3
        0x00001c4a:    4310        .C      ORRS     r0,r0,r2
        0x00001c4c:    9901        ..      LDR      r1,[sp,#4]
        0x00001c4e:    1e49        I.      SUBS     r1,r1,#1
        0x00001c50:    0089        ..      LSLS     r1,r1,#2
        0x00001c52:    587a        zX      LDR      r2,[r7,r1]
        0x00001c54:    9902        ..      LDR      r1,[sp,#8]
        0x00001c56:    1c49        I.      ADDS     r1,r1,#1
        0x00001c58:    2301        .#      MOVS     r3,#1
        0x00001c5a:    408b        .@      LSLS     r3,r3,r1
        0x00001c5c:    401a        .@      ANDS     r2,r2,r3
        0x00001c5e:    4310        .C      ORRS     r0,r0,r2
        0x00001c60:    9000        ..      STR      r0,[sp,#0]
        0x00001c62:    9800        ..      LDR      r0,[sp,#0]
        0x00001c64:    2800        .(      CMP      r0,#0
        0x00001c66:    d01b        ..      BEQ      0x1ca0 ; isHit_s_EnemyPlane + 164
        0x00001c68:    0120         .      LSLS     r0,r4,#4
        0x00001c6a:    1940        @.      ADDS     r0,r0,r5
        0x00001c6c:    2106        .!      MOVS     r1,#6
        0x00001c6e:    5e41        A^      LDRSH    r1,[r0,r1]
        0x00001c70:    0120         .      LSLS     r0,r4,#4
        0x00001c72:    1940        @.      ADDS     r0,r0,r5
        0x00001c74:    2304        .#      MOVS     r3,#4
        0x00001c76:    5ec3        .^      LDRSH    r3,[r0,r3]
        0x00001c78:    4618        .F      MOV      r0,r3
        0x00001c7a:    9a06        ..      LDR      r2,[sp,#0x18]
        0x00001c7c:    f001fe90    ....    BL       new_createOneBoom ; 0x39a0
        0x00001c80:    2000        .       MOVS     r0,#0
        0x00001c82:    0121        !.      LSLS     r1,r4,#4
        0x00001c84:    5468        hT      STRB     r0,[r5,r1]
        0x00001c86:    20fd        .       MOVS     r0,#0xfd
        0x00001c88:    0121        !.      LSLS     r1,r4,#4
        0x00001c8a:    1949        I.      ADDS     r1,r1,r5
        0x00001c8c:    8088        ..      STRH     r0,[r1,#4]
        0x00001c8e:    20ef        .       MOVS     r0,#0xef
        0x00001c90:    0121        !.      LSLS     r1,r4,#4
        0x00001c92:    1949        I.      ADDS     r1,r1,r5
        0x00001c94:    80c8        ..      STRH     r0,[r1,#6]
        0x00001c96:    4834        4H      LDR      r0,[pc,#208] ; [0x1d68] = 0x20000008
        0x00001c98:    6800        .h      LDR      r0,[r0,#0]
        0x00001c9a:    300a        .0      ADDS     r0,r0,#0xa
        0x00001c9c:    4932        2I      LDR      r1,[pc,#200] ; [0x1d68] = 0x20000008
        0x00001c9e:    6008        .`      STR      r0,[r1,#0]
        0x00001ca0:    bf00        ..      NOP      
        0x00001ca2:    1c64        d.      ADDS     r4,r4,#1
        0x00001ca4:    4831        1H      LDR      r0,[pc,#196] ; [0x1d6c] = 0x5539
        0x00001ca6:    7800        .x      LDRB     r0,[r0,#0]
        0x00001ca8:    4284        .B      CMP      r4,r0
        0x00001caa:    dbae        ..      BLT      0x1c0a ; isHit_s_EnemyPlane + 14
        0x00001cac:    2400        .$      MOVS     r4,#0
        0x00001cae:    e054        T.      B        0x1d5a ; isHit_s_EnemyPlane + 350
        0x00001cb0:    201e        .       MOVS     r0,#0x1e
        0x00001cb2:    4360        `C      MULS     r0,r4,r0
        0x00001cb4:    5c30        0\      LDRB     r0,[r6,r0]
        0x00001cb6:    2800        .(      CMP      r0,#0
        0x00001cb8:    d04e        N.      BEQ      0x1d58 ; isHit_s_EnemyPlane + 348
        0x00001cba:    201e        .       MOVS     r0,#0x1e
        0x00001cbc:    4360        `C      MULS     r0,r4,r0
        0x00001cbe:    1980        ..      ADDS     r0,r0,r6
        0x00001cc0:    8840        @.      LDRH     r0,[r0,#2]
        0x00001cc2:    0540        @.      LSLS     r0,r0,#21
        0x00001cc4:    0e00        ..      LSRS     r0,r0,#24
        0x00001cc6:    9002        ..      STR      r0,[sp,#8]
        0x00001cc8:    201e        .       MOVS     r0,#0x1e
        0x00001cca:    4360        `C      MULS     r0,r4,r0
        0x00001ccc:    1980        ..      ADDS     r0,r0,r6
        0x00001cce:    8880        ..      LDRH     r0,[r0,#4]
        0x00001cd0:    0540        @.      LSLS     r0,r0,#21
        0x00001cd2:    0e00        ..      LSRS     r0,r0,#24
        0x00001cd4:    9001        ..      STR      r0,[sp,#4]
        0x00001cd6:    9801        ..      LDR      r0,[sp,#4]
        0x00001cd8:    0080        ..      LSLS     r0,r0,#2
        0x00001cda:    5839        9X      LDR      r1,[r7,r0]
        0x00001cdc:    2201        ."      MOVS     r2,#1
        0x00001cde:    9802        ..      LDR      r0,[sp,#8]
        0x00001ce0:    4082        .@      LSLS     r2,r2,r0
        0x00001ce2:    4608        .F      MOV      r0,r1
        0x00001ce4:    4010        .@      ANDS     r0,r0,r2
        0x00001ce6:    9901        ..      LDR      r1,[sp,#4]
        0x00001ce8:    0089        ..      LSLS     r1,r1,#2
        0x00001cea:    587a        zX      LDR      r2,[r7,r1]
        0x00001cec:    9902        ..      LDR      r1,[sp,#8]
        0x00001cee:    1c49        I.      ADDS     r1,r1,#1
        0x00001cf0:    2301        .#      MOVS     r3,#1
        0x00001cf2:    408b        .@      LSLS     r3,r3,r1
        0x00001cf4:    401a        .@      ANDS     r2,r2,r3
        0x00001cf6:    4310        .C      ORRS     r0,r0,r2
        0x00001cf8:    9901        ..      LDR      r1,[sp,#4]
        0x00001cfa:    1e49        I.      SUBS     r1,r1,#1
        0x00001cfc:    0089        ..      LSLS     r1,r1,#2
        0x00001cfe:    587a        zX      LDR      r2,[r7,r1]
        0x00001d00:    9902        ..      LDR      r1,[sp,#8]
        0x00001d02:    1c49        I.      ADDS     r1,r1,#1
        0x00001d04:    2301        .#      MOVS     r3,#1
        0x00001d06:    408b        .@      LSLS     r3,r3,r1
        0x00001d08:    401a        .@      ANDS     r2,r2,r3
        0x00001d0a:    4310        .C      ORRS     r0,r0,r2
        0x00001d0c:    9000        ..      STR      r0,[sp,#0]
        0x00001d0e:    9800        ..      LDR      r0,[sp,#0]
        0x00001d10:    2800        .(      CMP      r0,#0
        0x00001d12:    d020         .      BEQ      0x1d56 ; isHit_s_EnemyPlane + 346
        0x00001d14:    201e        .       MOVS     r0,#0x1e
        0x00001d16:    4360        `C      MULS     r0,r4,r0
        0x00001d18:    1980        ..      ADDS     r0,r0,r6
        0x00001d1a:    2104        .!      MOVS     r1,#4
        0x00001d1c:    5e41        A^      LDRSH    r1,[r0,r1]
        0x00001d1e:    201e        .       MOVS     r0,#0x1e
        0x00001d20:    4360        `C      MULS     r0,r4,r0
        0x00001d22:    1980        ..      ADDS     r0,r0,r6
        0x00001d24:    2302        .#      MOVS     r3,#2
        0x00001d26:    5ec3        .^      LDRSH    r3,[r0,r3]
        0x00001d28:    4618        .F      MOV      r0,r3
        0x00001d2a:    9a06        ..      LDR      r2,[sp,#0x18]
        0x00001d2c:    f001fe38    ..8.    BL       new_createOneBoom ; 0x39a0
        0x00001d30:    2100        .!      MOVS     r1,#0
        0x00001d32:    201e        .       MOVS     r0,#0x1e
        0x00001d34:    4360        `C      MULS     r0,r4,r0
        0x00001d36:    5431        1T      STRB     r1,[r6,r0]
        0x00001d38:    21fd        .!      MOVS     r1,#0xfd
        0x00001d3a:    201e        .       MOVS     r0,#0x1e
        0x00001d3c:    4360        `C      MULS     r0,r4,r0
        0x00001d3e:    1980        ..      ADDS     r0,r0,r6
        0x00001d40:    8041        A.      STRH     r1,[r0,#2]
        0x00001d42:    21ef        .!      MOVS     r1,#0xef
        0x00001d44:    201e        .       MOVS     r0,#0x1e
        0x00001d46:    4360        `C      MULS     r0,r4,r0
        0x00001d48:    1980        ..      ADDS     r0,r0,r6
        0x00001d4a:    8081        ..      STRH     r1,[r0,#4]
        0x00001d4c:    4806        .H      LDR      r0,[pc,#24] ; [0x1d68] = 0x20000008
        0x00001d4e:    6800        .h      LDR      r0,[r0,#0]
        0x00001d50:    300a        .0      ADDS     r0,r0,#0xa
        0x00001d52:    4905        .I      LDR      r1,[pc,#20] ; [0x1d68] = 0x20000008
        0x00001d54:    6008        .`      STR      r0,[r1,#0]
        0x00001d56:    bf00        ..      NOP      
        0x00001d58:    1c64        d.      ADDS     r4,r4,#1
        0x00001d5a:    4805        .H      LDR      r0,[pc,#20] ; [0x1d70] = 0x553a
        0x00001d5c:    7800        .x      LDRB     r0,[r0,#0]
        0x00001d5e:    4284        .B      CMP      r4,r0
        0x00001d60:    dba6        ..      BLT      0x1cb0 ; isHit_s_EnemyPlane + 180
        0x00001d62:    b007        ..      ADD      sp,sp,#0x1c
        0x00001d64:    bdf0        ..      POP      {r4-r7,pc}
    $d
        0x00001d66:    0000        ..      DCW    0
        0x00001d68:    20000008    ...     DCD    536870920
        0x00001d6c:    00005539    9U..    DCD    21817
        0x00001d70:    0000553a    :U..    DCD    21818
    $t
    i.loadMapJianchuan
    loadMapJianchuan
        0x00001d74:    b570        p.      PUSH     {r4-r6,lr}
        0x00001d76:    2400        .$      MOVS     r4,#0
        0x00001d78:    e00d        ..      B        0x1d96 ; loadMapJianchuan + 34
        0x00001d7a:    2500        .%      MOVS     r5,#0
        0x00001d7c:    e008        ..      B        0x1d90 ; loadMapJianchuan + 28
        0x00001d7e:    0163        c.      LSLS     r3,r4,#5
        0x00001d80:    195b        [.      ADDS     r3,r3,r5
        0x00001d82:    4e06        .N      LDR      r6,[pc,#24] ; [0x1d9c] = 0x20000afa
        0x00001d84:    5cf2        .\      LDRB     r2,[r6,r3]
        0x00001d86:    b2a1        ..      UXTH     r1,r4
        0x00001d88:    b2a8        ..      UXTH     r0,r5
        0x00001d8a:    f003fbbb    ....    BL       writeOneNametable ; 0x5504
        0x00001d8e:    1c6d        m.      ADDS     r5,r5,#1
        0x00001d90:    2d20         -      CMP      r5,#0x20
        0x00001d92:    dbf4        ..      BLT      0x1d7e ; loadMapJianchuan + 10
        0x00001d94:    1c64        d.      ADDS     r4,r4,#1
        0x00001d96:    2c20         ,      CMP      r4,#0x20
        0x00001d98:    dbef        ..      BLT      0x1d7a ; loadMapJianchuan + 6
        0x00001d9a:    bd70        p.      POP      {r4-r6,pc}
    $d
        0x00001d9c:    20000afa    ...     DCD    536873722
    $t
    i.m_straight_createOnePlane
    m_straight_createOnePlane
        0x00001da0:    b5f8        ..      PUSH     {r3-r7,lr}
        0x00001da2:    4605        .F      MOV      r5,r0
        0x00001da4:    460f        .F      MOV      r7,r1
        0x00001da6:    2400        .$      MOVS     r4,#0
        0x00001da8:    e048        H.      B        0x1e3c ; m_straight_createOnePlane + 156
        0x00001daa:    200c        .       MOVS     r0,#0xc
        0x00001dac:    4360        `C      MULS     r0,r4,r0
        0x00001dae:    5c28        (\      LDRB     r0,[r5,r0]
        0x00001db0:    2800        .(      CMP      r0,#0
        0x00001db2:    d142        B.      BNE      0x1e3a ; m_straight_createOnePlane + 154
        0x00001db4:    2101        .!      MOVS     r1,#1
        0x00001db6:    200c        .       MOVS     r0,#0xc
        0x00001db8:    4360        `C      MULS     r0,r4,r0
        0x00001dba:    5429        )T      STRB     r1,[r5,r0]
        0x00001dbc:    2114        .!      MOVS     r1,#0x14
        0x00001dbe:    200c        .       MOVS     r0,#0xc
        0x00001dc0:    4360        `C      MULS     r0,r4,r0
        0x00001dc2:    1940        @.      ADDS     r0,r0,r5
        0x00001dc4:    7041        Ap      STRB     r1,[r0,#1]
        0x00001dc6:    2100        .!      MOVS     r1,#0
        0x00001dc8:    200c        .       MOVS     r0,#0xc
        0x00001dca:    4360        `C      MULS     r0,r4,r0
        0x00001dcc:    1940        @.      ADDS     r0,r0,r5
        0x00001dce:    7081        .p      STRB     r1,[r0,#2]
        0x00001dd0:    200c        .       MOVS     r0,#0xc
        0x00001dd2:    4360        `C      MULS     r0,r4,r0
        0x00001dd4:    1940        @.      ADDS     r0,r0,r5
        0x00001dd6:    8087        ..      STRH     r7,[r0,#4]
        0x00001dd8:    f7fef9d0    ....    BL       rand ; 0x17c
        0x00001ddc:    2114        .!      MOVS     r1,#0x14
        0x00001dde:    4348        HC      MULS     r0,r1,r0
        0x00001de0:    4606        .F      MOV      r6,r0
        0x00001de2:    0fc0        ..      LSRS     r0,r0,#31
        0x00001de4:    1980        ..      ADDS     r0,r0,r6
        0x00001de6:    1040        @.      ASRS     r0,r0,#1
        0x00001de8:    0040        @.      LSLS     r0,r0,#1
        0x00001dea:    1a30        0.      SUBS     r0,r6,r0
        0x00001dec:    21e1        .!      MOVS     r1,#0xe1
        0x00001dee:    1a08        ..      SUBS     r0,r1,r0
        0x00001df0:    b201        ..      SXTH     r1,r0
        0x00001df2:    200c        .       MOVS     r0,#0xc
        0x00001df4:    4360        `C      MULS     r0,r4,r0
        0x00001df6:    1940        @.      ADDS     r0,r0,r5
        0x00001df8:    80c1        ..      STRH     r1,[r0,#6]
        0x00001dfa:    2101        .!      MOVS     r1,#1
        0x00001dfc:    200c        .       MOVS     r0,#0xc
        0x00001dfe:    4360        `C      MULS     r0,r4,r0
        0x00001e00:    1940        @.      ADDS     r0,r0,r5
        0x00001e02:    7201        .r      STRB     r1,[r0,#8]
        0x00001e04:    f7fef9ba    ....    BL       rand ; 0x17c
        0x00001e08:    4606        .F      MOV      r6,r0
        0x00001e0a:    0fc0        ..      LSRS     r0,r0,#31
        0x00001e0c:    1980        ..      ADDS     r0,r0,r6
        0x00001e0e:    1040        @.      ASRS     r0,r0,#1
        0x00001e10:    0040        @.      LSLS     r0,r0,#1
        0x00001e12:    1a30        0.      SUBS     r0,r6,r0
        0x00001e14:    b2c1        ..      UXTB     r1,r0
        0x00001e16:    200c        .       MOVS     r0,#0xc
        0x00001e18:    4360        `C      MULS     r0,r4,r0
        0x00001e1a:    1940        @.      ADDS     r0,r0,r5
        0x00001e1c:    7241        Ar      STRB     r1,[r0,#9]
        0x00001e1e:    f7fef9ad    ....    BL       rand ; 0x17c
        0x00001e22:    4606        .F      MOV      r6,r0
        0x00001e24:    0fc0        ..      LSRS     r0,r0,#31
        0x00001e26:    1980        ..      ADDS     r0,r0,r6
        0x00001e28:    1040        @.      ASRS     r0,r0,#1
        0x00001e2a:    0040        @.      LSLS     r0,r0,#1
        0x00001e2c:    1a30        0.      SUBS     r0,r6,r0
        0x00001e2e:    b2c1        ..      UXTB     r1,r0
        0x00001e30:    200c        .       MOVS     r0,#0xc
        0x00001e32:    4360        `C      MULS     r0,r4,r0
        0x00001e34:    1940        @.      ADDS     r0,r0,r5
        0x00001e36:    7281        .r      STRB     r1,[r0,#0xa]
        0x00001e38:    e004        ..      B        0x1e44 ; m_straight_createOnePlane + 164
        0x00001e3a:    1c64        d.      ADDS     r4,r4,#1
        0x00001e3c:    4802        .H      LDR      r0,[pc,#8] ; [0x1e48] = 0x553b
        0x00001e3e:    7800        .x      LDRB     r0,[r0,#0]
        0x00001e40:    4284        .B      CMP      r4,r0
        0x00001e42:    dbb2        ..      BLT      0x1daa ; m_straight_createOnePlane + 10
        0x00001e44:    bf00        ..      NOP      
        0x00001e46:    bdf8        ..      POP      {r3-r7,pc}
    $d
        0x00001e48:    0000553b    ;U..    DCD    21819
    $t
    i.m_straight_drawPlane
    m_straight_drawPlane
        0x00001e4c:    b5f8        ..      PUSH     {r3-r7,lr}
        0x00001e4e:    4605        .F      MOV      r5,r0
        0x00001e50:    460f        .F      MOV      r7,r1
        0x00001e52:    2400        .$      MOVS     r4,#0
        0x00001e54:    e113        ..      B        0x207e ; m_straight_drawPlane + 562
        0x00001e56:    200c        .       MOVS     r0,#0xc
        0x00001e58:    4360        `C      MULS     r0,r4,r0
        0x00001e5a:    5c28        (\      LDRB     r0,[r5,r0]
        0x00001e5c:    2800        .(      CMP      r0,#0
        0x00001e5e:    d07d        }.      BEQ      0x1f5c ; m_straight_drawPlane + 272
        0x00001e60:    200c        .       MOVS     r0,#0xc
        0x00001e62:    4360        `C      MULS     r0,r4,r0
        0x00001e64:    1940        @.      ADDS     r0,r0,r5
        0x00001e66:    7a80        .z      LDRB     r0,[r0,#0xa]
        0x00001e68:    2800        .(      CMP      r0,#0
        0x00001e6a:    d101        ..      BNE      0x1e70 ; m_straight_drawPlane + 36
        0x00001e6c:    2600        .&      MOVS     r6,#0
        0x00001e6e:    e000        ..      B        0x1e72 ; m_straight_drawPlane + 38
        0x00001e70:    2620         &      MOVS     r6,#0x20
        0x00001e72:    200c        .       MOVS     r0,#0xc
        0x00001e74:    4360        `C      MULS     r0,r4,r0
        0x00001e76:    1940        @.      ADDS     r0,r0,r5
        0x00001e78:    7a40        @z      LDRB     r0,[r0,#9]
        0x00001e7a:    2800        .(      CMP      r0,#0
        0x00001e7c:    d002        ..      BEQ      0x1e84 ; m_straight_drawPlane + 56
        0x00001e7e:    2801        .(      CMP      r0,#1
        0x00001e80:    d16d        m.      BNE      0x1f5e ; m_straight_drawPlane + 274
        0x00001e82:    e09a        ..      B        0x1fba ; m_straight_drawPlane + 366
        0x00001e84:    230c        .#      MOVS     r3,#0xc
        0x00001e86:    4363        cC      MULS     r3,r4,r3
        0x00001e88:    195b        [.      ADDS     r3,r3,r5
        0x00001e8a:    9600        ..      STR      r6,[sp,#0]
        0x00001e8c:    88db        ..      LDRH     r3,[r3,#6]
        0x00001e8e:    b2da        ..      UXTB     r2,r3
        0x00001e90:    230c        .#      MOVS     r3,#0xc
        0x00001e92:    4363        cC      MULS     r3,r4,r3
        0x00001e94:    195b        [.      ADDS     r3,r3,r5
        0x00001e96:    889b        ..      LDRH     r3,[r3,#4]
        0x00001e98:    b2d9        ..      UXTB     r1,r3
        0x00001e9a:    7838        8x      LDRB     r0,[r7,#0]
        0x00001e9c:    2390        .#      MOVS     r3,#0x90
        0x00001e9e:    f003fb39    ..9.    BL       writeOneSprite ; 0x5514
        0x00001ea2:    230c        .#      MOVS     r3,#0xc
        0x00001ea4:    4363        cC      MULS     r3,r4,r3
        0x00001ea6:    195b        [.      ADDS     r3,r3,r5
        0x00001ea8:    9600        ..      STR      r6,[sp,#0]
        0x00001eaa:    88db        ..      LDRH     r3,[r3,#6]
        0x00001eac:    b2da        ..      UXTB     r2,r3
        0x00001eae:    230c        .#      MOVS     r3,#0xc
        0x00001eb0:    4363        cC      MULS     r3,r4,r3
        0x00001eb2:    195b        [.      ADDS     r3,r3,r5
        0x00001eb4:    889b        ..      LDRH     r3,[r3,#4]
        0x00001eb6:    3308        .3      ADDS     r3,r3,#8
        0x00001eb8:    b2d9        ..      UXTB     r1,r3
        0x00001eba:    783b        ;x      LDRB     r3,[r7,#0]
        0x00001ebc:    1c5b        [.      ADDS     r3,r3,#1
        0x00001ebe:    b2d8        ..      UXTB     r0,r3
        0x00001ec0:    2391        .#      MOVS     r3,#0x91
        0x00001ec2:    f003fb27    ..'.    BL       writeOneSprite ; 0x5514
        0x00001ec6:    230c        .#      MOVS     r3,#0xc
        0x00001ec8:    4363        cC      MULS     r3,r4,r3
        0x00001eca:    195b        [.      ADDS     r3,r3,r5
        0x00001ecc:    9600        ..      STR      r6,[sp,#0]
        0x00001ece:    88db        ..      LDRH     r3,[r3,#6]
        0x00001ed0:    1ddb        ..      ADDS     r3,r3,#7
        0x00001ed2:    b2da        ..      UXTB     r2,r3
        0x00001ed4:    230c        .#      MOVS     r3,#0xc
        0x00001ed6:    4363        cC      MULS     r3,r4,r3
        0x00001ed8:    195b        [.      ADDS     r3,r3,r5
        0x00001eda:    889b        ..      LDRH     r3,[r3,#4]
        0x00001edc:    b2d9        ..      UXTB     r1,r3
        0x00001ede:    783b        ;x      LDRB     r3,[r7,#0]
        0x00001ee0:    1c9b        ..      ADDS     r3,r3,#2
        0x00001ee2:    b2d8        ..      UXTB     r0,r3
        0x00001ee4:    2392        .#      MOVS     r3,#0x92
        0x00001ee6:    f003fb15    ....    BL       writeOneSprite ; 0x5514
        0x00001eea:    230c        .#      MOVS     r3,#0xc
        0x00001eec:    4363        cC      MULS     r3,r4,r3
        0x00001eee:    195b        [.      ADDS     r3,r3,r5
        0x00001ef0:    9600        ..      STR      r6,[sp,#0]
        0x00001ef2:    88db        ..      LDRH     r3,[r3,#6]
        0x00001ef4:    1ddb        ..      ADDS     r3,r3,#7
        0x00001ef6:    b2da        ..      UXTB     r2,r3
        0x00001ef8:    230c        .#      MOVS     r3,#0xc
        0x00001efa:    4363        cC      MULS     r3,r4,r3
        0x00001efc:    195b        [.      ADDS     r3,r3,r5
        0x00001efe:    889b        ..      LDRH     r3,[r3,#4]
        0x00001f00:    3308        .3      ADDS     r3,r3,#8
        0x00001f02:    b2d9        ..      UXTB     r1,r3
        0x00001f04:    783b        ;x      LDRB     r3,[r7,#0]
        0x00001f06:    1cdb        ..      ADDS     r3,r3,#3
        0x00001f08:    b2d8        ..      UXTB     r0,r3
        0x00001f0a:    2393        .#      MOVS     r3,#0x93
        0x00001f0c:    f003fb02    ....    BL       writeOneSprite ; 0x5514
        0x00001f10:    230c        .#      MOVS     r3,#0xc
        0x00001f12:    4363        cC      MULS     r3,r4,r3
        0x00001f14:    195b        [.      ADDS     r3,r3,r5
        0x00001f16:    9600        ..      STR      r6,[sp,#0]
        0x00001f18:    88db        ..      LDRH     r3,[r3,#6]
        0x00001f1a:    330e        .3      ADDS     r3,r3,#0xe
        0x00001f1c:    b2da        ..      UXTB     r2,r3
        0x00001f1e:    230c        .#      MOVS     r3,#0xc
        0x00001f20:    4363        cC      MULS     r3,r4,r3
        0x00001f22:    195b        [.      ADDS     r3,r3,r5
        0x00001f24:    889b        ..      LDRH     r3,[r3,#4]
        0x00001f26:    b2d9        ..      UXTB     r1,r3
        0x00001f28:    783b        ;x      LDRB     r3,[r7,#0]
        0x00001f2a:    1d1b        ..      ADDS     r3,r3,#4
        0x00001f2c:    b2d8        ..      UXTB     r0,r3
        0x00001f2e:    2394        .#      MOVS     r3,#0x94
        0x00001f30:    f003faf0    ....    BL       writeOneSprite ; 0x5514
        0x00001f34:    230c        .#      MOVS     r3,#0xc
        0x00001f36:    4363        cC      MULS     r3,r4,r3
        0x00001f38:    195b        [.      ADDS     r3,r3,r5
        0x00001f3a:    9600        ..      STR      r6,[sp,#0]
        0x00001f3c:    88db        ..      LDRH     r3,[r3,#6]
        0x00001f3e:    330e        .3      ADDS     r3,r3,#0xe
        0x00001f40:    b2da        ..      UXTB     r2,r3
        0x00001f42:    230c        .#      MOVS     r3,#0xc
        0x00001f44:    4363        cC      MULS     r3,r4,r3
        0x00001f46:    195b        [.      ADDS     r3,r3,r5
        0x00001f48:    889b        ..      LDRH     r3,[r3,#4]
        0x00001f4a:    3308        .3      ADDS     r3,r3,#8
        0x00001f4c:    b2d9        ..      UXTB     r1,r3
        0x00001f4e:    783b        ;x      LDRB     r3,[r7,#0]
        0x00001f50:    1d5b        [.      ADDS     r3,r3,#5
        0x00001f52:    b2d8        ..      UXTB     r0,r3
        0x00001f54:    2395        .#      MOVS     r3,#0x95
        0x00001f56:    f003fadd    ....    BL       writeOneSprite ; 0x5514
        0x00001f5a:    e001        ..      B        0x1f60 ; m_straight_drawPlane + 276
        0x00001f5c:    e08e        ..      B        0x207c ; m_straight_drawPlane + 560
        0x00001f5e:    e08a        ..      B        0x2076 ; m_straight_drawPlane + 554
        0x00001f60:    230c        .#      MOVS     r3,#0xc
        0x00001f62:    4363        cC      MULS     r3,r4,r3
        0x00001f64:    195b        [.      ADDS     r3,r3,r5
        0x00001f66:    9600        ..      STR      r6,[sp,#0]
        0x00001f68:    88db        ..      LDRH     r3,[r3,#6]
        0x00001f6a:    1d1b        ..      ADDS     r3,r3,#4
        0x00001f6c:    b2da        ..      UXTB     r2,r3
        0x00001f6e:    230c        .#      MOVS     r3,#0xc
        0x00001f70:    4363        cC      MULS     r3,r4,r3
        0x00001f72:    195b        [.      ADDS     r3,r3,r5
        0x00001f74:    889b        ..      LDRH     r3,[r3,#4]
        0x00001f76:    3b08        .;      SUBS     r3,r3,#8
        0x00001f78:    b2d9        ..      UXTB     r1,r3
        0x00001f7a:    783b        ;x      LDRB     r3,[r7,#0]
        0x00001f7c:    1d9b        ..      ADDS     r3,r3,#6
        0x00001f7e:    b2d8        ..      UXTB     r0,r3
        0x00001f80:    2396        .#      MOVS     r3,#0x96
        0x00001f82:    f003fac7    ....    BL       writeOneSprite ; 0x5514
        0x00001f86:    4630        0F      MOV      r0,r6
        0x00001f88:    2140        @!      MOVS     r1,#0x40
        0x00001f8a:    4308        .C      ORRS     r0,r0,r1
        0x00001f8c:    230c        .#      MOVS     r3,#0xc
        0x00001f8e:    4363        cC      MULS     r3,r4,r3
        0x00001f90:    195b        [.      ADDS     r3,r3,r5
        0x00001f92:    9000        ..      STR      r0,[sp,#0]
        0x00001f94:    88db        ..      LDRH     r3,[r3,#6]
        0x00001f96:    1d1b        ..      ADDS     r3,r3,#4
        0x00001f98:    b2da        ..      UXTB     r2,r3
        0x00001f9a:    230c        .#      MOVS     r3,#0xc
        0x00001f9c:    4363        cC      MULS     r3,r4,r3
        0x00001f9e:    195b        [.      ADDS     r3,r3,r5
        0x00001fa0:    889b        ..      LDRH     r3,[r3,#4]
        0x00001fa2:    3310        .3      ADDS     r3,r3,#0x10
        0x00001fa4:    b2d9        ..      UXTB     r1,r3
        0x00001fa6:    783b        ;x      LDRB     r3,[r7,#0]
        0x00001fa8:    1ddb        ..      ADDS     r3,r3,#7
        0x00001faa:    b2d8        ..      UXTB     r0,r3
        0x00001fac:    2396        .#      MOVS     r3,#0x96
        0x00001fae:    f003fab1    ....    BL       writeOneSprite ; 0x5514
        0x00001fb2:    7838        8x      LDRB     r0,[r7,#0]
        0x00001fb4:    3008        .0      ADDS     r0,r0,#8
        0x00001fb6:    7038        8p      STRB     r0,[r7,#0]
        0x00001fb8:    e05e        ^.      B        0x2078 ; m_straight_drawPlane + 556
        0x00001fba:    230c        .#      MOVS     r3,#0xc
        0x00001fbc:    4363        cC      MULS     r3,r4,r3
        0x00001fbe:    195b        [.      ADDS     r3,r3,r5
        0x00001fc0:    9600        ..      STR      r6,[sp,#0]
        0x00001fc2:    88db        ..      LDRH     r3,[r3,#6]
        0x00001fc4:    b2da        ..      UXTB     r2,r3
        0x00001fc6:    230c        .#      MOVS     r3,#0xc
        0x00001fc8:    4363        cC      MULS     r3,r4,r3
        0x00001fca:    195b        [.      ADDS     r3,r3,r5
        0x00001fcc:    889b        ..      LDRH     r3,[r3,#4]
        0x00001fce:    b2d9        ..      UXTB     r1,r3
        0x00001fd0:    7838        8x      LDRB     r0,[r7,#0]
        0x00001fd2:    23b3        .#      MOVS     r3,#0xb3
        0x00001fd4:    f003fa9e    ....    BL       writeOneSprite ; 0x5514
        0x00001fd8:    230c        .#      MOVS     r3,#0xc
        0x00001fda:    4363        cC      MULS     r3,r4,r3
        0x00001fdc:    195b        [.      ADDS     r3,r3,r5
        0x00001fde:    9600        ..      STR      r6,[sp,#0]
        0x00001fe0:    88db        ..      LDRH     r3,[r3,#6]
        0x00001fe2:    1fdb        ..      SUBS     r3,r3,#7
        0x00001fe4:    b2da        ..      UXTB     r2,r3
        0x00001fe6:    230c        .#      MOVS     r3,#0xc
        0x00001fe8:    4363        cC      MULS     r3,r4,r3
        0x00001fea:    195b        [.      ADDS     r3,r3,r5
        0x00001fec:    889b        ..      LDRH     r3,[r3,#4]
        0x00001fee:    b2d9        ..      UXTB     r1,r3
        0x00001ff0:    783b        ;x      LDRB     r3,[r7,#0]
        0x00001ff2:    1c5b        [.      ADDS     r3,r3,#1
        0x00001ff4:    b2d8        ..      UXTB     r0,r3
        0x00001ff6:    23b1        .#      MOVS     r3,#0xb1
        0x00001ff8:    f003fa8c    ....    BL       writeOneSprite ; 0x5514
        0x00001ffc:    230c        .#      MOVS     r3,#0xc
        0x00001ffe:    4363        cC      MULS     r3,r4,r3
        0x00002000:    195b        [.      ADDS     r3,r3,r5
        0x00002002:    9600        ..      STR      r6,[sp,#0]
        0x00002004:    88db        ..      LDRH     r3,[r3,#6]
        0x00002006:    1ddb        ..      ADDS     r3,r3,#7
        0x00002008:    b2da        ..      UXTB     r2,r3
        0x0000200a:    230c        .#      MOVS     r3,#0xc
        0x0000200c:    4363        cC      MULS     r3,r4,r3
        0x0000200e:    195b        [.      ADDS     r3,r3,r5
        0x00002010:    889b        ..      LDRH     r3,[r3,#4]
        0x00002012:    b2d9        ..      UXTB     r1,r3
        0x00002014:    783b        ;x      LDRB     r3,[r7,#0]
        0x00002016:    1c9b        ..      ADDS     r3,r3,#2
        0x00002018:    b2d8        ..      UXTB     r0,r3
        0x0000201a:    23b5        .#      MOVS     r3,#0xb5
        0x0000201c:    f003fa7a    ..z.    BL       writeOneSprite ; 0x5514
        0x00002020:    230c        .#      MOVS     r3,#0xc
        0x00002022:    4363        cC      MULS     r3,r4,r3
        0x00002024:    195b        [.      ADDS     r3,r3,r5
        0x00002026:    9600        ..      STR      r6,[sp,#0]
        0x00002028:    88db        ..      LDRH     r3,[r3,#6]
        0x0000202a:    b2da        ..      UXTB     r2,r3
        0x0000202c:    230c        .#      MOVS     r3,#0xc
        0x0000202e:    4363        cC      MULS     r3,r4,r3
        0x00002030:    195b        [.      ADDS     r3,r3,r5
        0x00002032:    889b        ..      LDRH     r3,[r3,#4]
        0x00002034:    3b08        .;      SUBS     r3,r3,#8
        0x00002036:    b2d9        ..      UXTB     r1,r3
        0x00002038:    783b        ;x      LDRB     r3,[r7,#0]
        0x0000203a:    1cdb        ..      ADDS     r3,r3,#3
        0x0000203c:    b2d8        ..      UXTB     r0,r3
        0x0000203e:    23b2        .#      MOVS     r3,#0xb2
        0x00002040:    f003fa68    ..h.    BL       writeOneSprite ; 0x5514
        0x00002044:    4630        0F      MOV      r0,r6
        0x00002046:    2140        @!      MOVS     r1,#0x40
        0x00002048:    4308        .C      ORRS     r0,r0,r1
        0x0000204a:    230c        .#      MOVS     r3,#0xc
        0x0000204c:    4363        cC      MULS     r3,r4,r3
        0x0000204e:    195b        [.      ADDS     r3,r3,r5
        0x00002050:    9000        ..      STR      r0,[sp,#0]
        0x00002052:    88db        ..      LDRH     r3,[r3,#6]
        0x00002054:    b2da        ..      UXTB     r2,r3
        0x00002056:    230c        .#      MOVS     r3,#0xc
        0x00002058:    4363        cC      MULS     r3,r4,r3
        0x0000205a:    195b        [.      ADDS     r3,r3,r5
        0x0000205c:    889b        ..      LDRH     r3,[r3,#4]
        0x0000205e:    3308        .3      ADDS     r3,r3,#8
        0x00002060:    b2d9        ..      UXTB     r1,r3
        0x00002062:    783b        ;x      LDRB     r3,[r7,#0]
        0x00002064:    1d1b        ..      ADDS     r3,r3,#4
        0x00002066:    b2d8        ..      UXTB     r0,r3
        0x00002068:    23b2        .#      MOVS     r3,#0xb2
        0x0000206a:    f003fa53    ..S.    BL       writeOneSprite ; 0x5514
        0x0000206e:    7838        8x      LDRB     r0,[r7,#0]
        0x00002070:    1d40        @.      ADDS     r0,r0,#5
        0x00002072:    7038        8p      STRB     r0,[r7,#0]
        0x00002074:    e000        ..      B        0x2078 ; m_straight_drawPlane + 556
        0x00002076:    bf00        ..      NOP      
        0x00002078:    bf00        ..      NOP      
        0x0000207a:    bf00        ..      NOP      
        0x0000207c:    1c64        d.      ADDS     r4,r4,#1
        0x0000207e:    4803        .H      LDR      r0,[pc,#12] ; [0x208c] = 0x553b
        0x00002080:    7800        .x      LDRB     r0,[r0,#0]
        0x00002082:    4284        .B      CMP      r4,r0
        0x00002084:    da00        ..      BGE      0x2088 ; m_straight_drawPlane + 572
        0x00002086:    e6e6        ..      B        0x1e56 ; m_straight_drawPlane + 10
        0x00002088:    bdf8        ..      POP      {r3-r7,pc}
    $d
        0x0000208a:    0000        ..      DCW    0
        0x0000208c:    0000553b    ;U..    DCD    21819
    $t
    i.m_straight_movePlane
    m_straight_movePlane
        0x00002090:    b510        ..      PUSH     {r4,lr}
        0x00002092:    4601        .F      MOV      r1,r0
        0x00002094:    2000        .       MOVS     r0,#0
        0x00002096:    e04c        L.      B        0x2132 ; m_straight_movePlane + 162
        0x00002098:    220c        ."      MOVS     r2,#0xc
        0x0000209a:    4342        BC      MULS     r2,r0,r2
        0x0000209c:    5c8a        .\      LDRB     r2,[r1,r2]
        0x0000209e:    2a00        .*      CMP      r2,#0
        0x000020a0:    d046        F.      BEQ      0x2130 ; m_straight_movePlane + 160
        0x000020a2:    220c        ."      MOVS     r2,#0xc
        0x000020a4:    4342        BC      MULS     r2,r0,r2
        0x000020a6:    1852        R.      ADDS     r2,r2,r1
        0x000020a8:    7892        .x      LDRB     r2,[r2,#2]
        0x000020aa:    2a02        .*      CMP      r2,#2
        0x000020ac:    d136        6.      BNE      0x211c ; m_straight_movePlane + 140
        0x000020ae:    2300        .#      MOVS     r3,#0
        0x000020b0:    220c        ."      MOVS     r2,#0xc
        0x000020b2:    4342        BC      MULS     r2,r0,r2
        0x000020b4:    1852        R.      ADDS     r2,r2,r1
        0x000020b6:    7093        .p      STRB     r3,[r2,#2]
        0x000020b8:    220c        ."      MOVS     r2,#0xc
        0x000020ba:    4342        BC      MULS     r2,r0,r2
        0x000020bc:    1852        R.      ADDS     r2,r2,r1
        0x000020be:    2304        .#      MOVS     r3,#4
        0x000020c0:    5ed3        .^      LDRSH    r3,[r2,r3]
        0x000020c2:    2b05        .+      CMP      r3,#5
        0x000020c4:    db15        ..      BLT      0x20f2 ; m_straight_movePlane + 98
        0x000020c6:    220c        ."      MOVS     r2,#0xc
        0x000020c8:    4342        BC      MULS     r2,r0,r2
        0x000020ca:    1852        R.      ADDS     r2,r2,r1
        0x000020cc:    2304        .#      MOVS     r3,#4
        0x000020ce:    5ed3        .^      LDRSH    r3,[r2,r3]
        0x000020d0:    2bfb        .+      CMP      r3,#0xfb
        0x000020d2:    dc0e        ..      BGT      0x20f2 ; m_straight_movePlane + 98
        0x000020d4:    220c        ."      MOVS     r2,#0xc
        0x000020d6:    4342        BC      MULS     r2,r0,r2
        0x000020d8:    1853        S.      ADDS     r3,r2,r1
        0x000020da:    2206        ."      MOVS     r2,#6
        0x000020dc:    5e9a        .^      LDRSH    r2,[r3,r2]
        0x000020de:    3208        .2      ADDS     r2,r2,#8
        0x000020e0:    2a0a        .*      CMP      r2,#0xa
        0x000020e2:    db06        ..      BLT      0x20f2 ; m_straight_movePlane + 98
        0x000020e4:    220c        ."      MOVS     r2,#0xc
        0x000020e6:    4342        BC      MULS     r2,r0,r2
        0x000020e8:    1852        R.      ADDS     r2,r2,r1
        0x000020ea:    2306        .#      MOVS     r3,#6
        0x000020ec:    5ed3        .^      LDRSH    r3,[r2,r3]
        0x000020ee:    2be6        .+      CMP      r3,#0xe6
        0x000020f0:    dd04        ..      BLE      0x20fc ; m_straight_movePlane + 108
        0x000020f2:    2300        .#      MOVS     r3,#0
        0x000020f4:    220c        ."      MOVS     r2,#0xc
        0x000020f6:    4342        BC      MULS     r2,r0,r2
        0x000020f8:    548b        .T      STRB     r3,[r1,r2]
        0x000020fa:    e019        ..      B        0x2130 ; m_straight_movePlane + 160
        0x000020fc:    220c        ."      MOVS     r2,#0xc
        0x000020fe:    4342        BC      MULS     r2,r0,r2
        0x00002100:    1852        R.      ADDS     r2,r2,r1
        0x00002102:    88d3        ..      LDRH     r3,[r2,#6]
        0x00002104:    220c        ."      MOVS     r2,#0xc
        0x00002106:    4342        BC      MULS     r2,r0,r2
        0x00002108:    1852        R.      ADDS     r2,r2,r1
        0x0000210a:    2408        .$      MOVS     r4,#8
        0x0000210c:    5714        .W      LDRSB    r4,[r2,r4]
        0x0000210e:    1b1a        ..      SUBS     r2,r3,r4
        0x00002110:    b213        ..      SXTH     r3,r2
        0x00002112:    220c        ."      MOVS     r2,#0xc
        0x00002114:    4342        BC      MULS     r2,r0,r2
        0x00002116:    1852        R.      ADDS     r2,r2,r1
        0x00002118:    80d3        ..      STRH     r3,[r2,#6]
        0x0000211a:    e009        ..      B        0x2130 ; m_straight_movePlane + 160
        0x0000211c:    220c        ."      MOVS     r2,#0xc
        0x0000211e:    4342        BC      MULS     r2,r0,r2
        0x00002120:    1852        R.      ADDS     r2,r2,r1
        0x00002122:    7892        .x      LDRB     r2,[r2,#2]
        0x00002124:    1c52        R.      ADDS     r2,r2,#1
        0x00002126:    b2d3        ..      UXTB     r3,r2
        0x00002128:    220c        ."      MOVS     r2,#0xc
        0x0000212a:    4342        BC      MULS     r2,r0,r2
        0x0000212c:    1852        R.      ADDS     r2,r2,r1
        0x0000212e:    7093        .p      STRB     r3,[r2,#2]
        0x00002130:    1c40        @.      ADDS     r0,r0,#1
        0x00002132:    4a02        .J      LDR      r2,[pc,#8] ; [0x213c] = 0x553b
        0x00002134:    7812        .x      LDRB     r2,[r2,#0]
        0x00002136:    4290        .B      CMP      r0,r2
        0x00002138:    dbae        ..      BLT      0x2098 ; m_straight_movePlane + 8
        0x0000213a:    bd10        ..      POP      {r4,pc}
    $d
        0x0000213c:    0000553b    ;U..    DCD    21819
    $t
    i.m_straight_planeInit
    m_straight_planeInit
        0x00002140:    4601        .F      MOV      r1,r0
        0x00002142:    2000        .       MOVS     r0,#0
        0x00002144:    e022        ".      B        0x218c ; m_straight_planeInit + 76
        0x00002146:    2300        .#      MOVS     r3,#0
        0x00002148:    220c        ."      MOVS     r2,#0xc
        0x0000214a:    4342        BC      MULS     r2,r0,r2
        0x0000214c:    1852        R.      ADDS     r2,r2,r1
        0x0000214e:    8093        ..      STRH     r3,[r2,#4]
        0x00002150:    220c        ."      MOVS     r2,#0xc
        0x00002152:    4342        BC      MULS     r2,r0,r2
        0x00002154:    1852        R.      ADDS     r2,r2,r1
        0x00002156:    80d3        ..      STRH     r3,[r2,#6]
        0x00002158:    220c        ."      MOVS     r2,#0xc
        0x0000215a:    4342        BC      MULS     r2,r0,r2
        0x0000215c:    1852        R.      ADDS     r2,r2,r1
        0x0000215e:    7213        .r      STRB     r3,[r2,#8]
        0x00002160:    220c        ."      MOVS     r2,#0xc
        0x00002162:    4342        BC      MULS     r2,r0,r2
        0x00002164:    548b        .T      STRB     r3,[r1,r2]
        0x00002166:    2305        .#      MOVS     r3,#5
        0x00002168:    220c        ."      MOVS     r2,#0xc
        0x0000216a:    4342        BC      MULS     r2,r0,r2
        0x0000216c:    1852        R.      ADDS     r2,r2,r1
        0x0000216e:    7053        Sp      STRB     r3,[r2,#1]
        0x00002170:    2300        .#      MOVS     r3,#0
        0x00002172:    220c        ."      MOVS     r2,#0xc
        0x00002174:    4342        BC      MULS     r2,r0,r2
        0x00002176:    1852        R.      ADDS     r2,r2,r1
        0x00002178:    7093        .p      STRB     r3,[r2,#2]
        0x0000217a:    220c        ."      MOVS     r2,#0xc
        0x0000217c:    4342        BC      MULS     r2,r0,r2
        0x0000217e:    1852        R.      ADDS     r2,r2,r1
        0x00002180:    7253        Sr      STRB     r3,[r2,#9]
        0x00002182:    220c        ."      MOVS     r2,#0xc
        0x00002184:    4342        BC      MULS     r2,r0,r2
        0x00002186:    1852        R.      ADDS     r2,r2,r1
        0x00002188:    7293        .r      STRB     r3,[r2,#0xa]
        0x0000218a:    1c40        @.      ADDS     r0,r0,#1
        0x0000218c:    4a02        .J      LDR      r2,[pc,#8] ; [0x2198] = 0x553b
        0x0000218e:    7812        .x      LDRB     r2,[r2,#0]
        0x00002190:    4290        .B      CMP      r0,r2
        0x00002192:    dbd8        ..      BLT      0x2146 ; m_straight_planeInit + 6
        0x00002194:    4770        pG      BX       lr
    $d
        0x00002196:    0000        ..      DCW    0
        0x00002198:    0000553b    ;U..    DCD    21819
    $t
    i.main
    main
        0x0000219c:    b51f        ..      PUSH     {r0-r4,lr}
        0x0000219e:    2000        .       MOVS     r0,#0
        0x000021a0:    9000        ..      STR      r0,[sp,#0]
        0x000021a2:    9001        ..      STR      r0,[sp,#4]
        0x000021a4:    9002        ..      STR      r0,[sp,#8]
        0x000021a6:    2301        .#      MOVS     r3,#1
        0x000021a8:    461a        .F      MOV      r2,r3
        0x000021aa:    21ff        .!      MOVS     r1,#0xff
        0x000021ac:    31b3        .1      ADDS     r1,r1,#0xb3
        0x000021ae:    9003        ..      STR      r0,[sp,#0xc]
        0x000021b0:    0748        H.      LSLS     r0,r1,#29
        0x000021b2:    f003f8cc    ....    BL       uart_init ; 0x534e
        0x000021b6:    f7fefb49    ..I.    BL       PS2_Init ; 0x84c
        0x000021ba:    2064        d       MOVS     r0,#0x64
        0x000021bc:    f7fefc18    ....    BL       SPI_Init ; 0x9f0
        0x000021c0:    2000        .       MOVS     r0,#0
        0x000021c2:    f7fefbaf    ....    BL       SPI_Flash_Erase_Block ; 0x924
        0x000021c6:    2001        .       MOVS     r0,#1
        0x000021c8:    0300        ..      LSLS     r0,r0,#12
        0x000021ca:    f7fefbab    ....    BL       SPI_Flash_Erase_Block ; 0x924
        0x000021ce:    2001        .       MOVS     r0,#1
        0x000021d0:    0340        @.      LSLS     r0,r0,#13
        0x000021d2:    f7fefba7    ....    BL       SPI_Flash_Erase_Block ; 0x924
        0x000021d6:    2003        .       MOVS     r0,#3
        0x000021d8:    0300        ..      LSLS     r0,r0,#12
        0x000021da:    f7fefba3    ....    BL       SPI_Flash_Erase_Block ; 0x924
        0x000021de:    2001        .       MOVS     r0,#1
        0x000021e0:    0380        ..      LSLS     r0,r0,#14
        0x000021e2:    f7fefb9f    ....    BL       SPI_Flash_Erase_Block ; 0x924
        0x000021e6:    2005        .       MOVS     r0,#5
        0x000021e8:    0300        ..      LSLS     r0,r0,#12
        0x000021ea:    f7fefb9b    ....    BL       SPI_Flash_Erase_Block ; 0x924
        0x000021ee:    2003        .       MOVS     r0,#3
        0x000021f0:    0340        @.      LSLS     r0,r0,#13
        0x000021f2:    f7fefb97    ....    BL       SPI_Flash_Erase_Block ; 0x924
        0x000021f6:    2007        .       MOVS     r0,#7
        0x000021f8:    0300        ..      LSLS     r0,r0,#12
        0x000021fa:    f7fefb93    ....    BL       SPI_Flash_Erase_Block ; 0x924
        0x000021fe:    48fe        .H      LDR      r0,[pc,#1016] ; [0x25f8] = 0x2000002c
        0x00002200:    6800        .h      LDR      r0,[r0,#0]
        0x00002202:    f000fbb3    ....    BL       makeMapFirst ; 0x296c
        0x00002206:    48fd        .H      LDR      r0,[pc,#1012] ; [0x25fc] = 0x20000028
        0x00002208:    6800        .h      LDR      r0,[r0,#0]
        0x0000220a:    f000fce3    ....    BL       makeMapSecond ; 0x2bd4
        0x0000220e:    e382        ..      B        0x2916 ; main + 1914
        0x00002210:    48fb        .H      LDR      r0,[pc,#1004] ; [0x2600] = 0x20000026
        0x00002212:    7800        .x      LDRB     r0,[r0,#0]
        0x00002214:    2801        .(      CMP      r0,#1
        0x00002216:    d123        #.      BNE      0x2260 ; main + 196
        0x00002218:    2000        .       MOVS     r0,#0
        0x0000221a:    49f9        .I      LDR      r1,[pc,#996] ; [0x2600] = 0x20000026
        0x0000221c:    7008        .p      STRB     r0,[r1,#0]
        0x0000221e:    48f9        .H      LDR      r0,[pc,#996] ; [0x2604] = 0x20000020
        0x00002220:    7800        .x      LDRB     r0,[r0,#0]
        0x00002222:    2800        .(      CMP      r0,#0
        0x00002224:    d11d        ..      BNE      0x2262 ; main + 198
        0x00002226:    2400        .$      MOVS     r4,#0
        0x00002228:    e009        ..      B        0x223e ; main + 162
        0x0000222a:    2000        .       MOVS     r0,#0
        0x0000222c:    23ff        .#      MOVS     r3,#0xff
        0x0000222e:    22e6        ."      MOVS     r2,#0xe6
        0x00002230:    21fb        .!      MOVS     r1,#0xfb
        0x00002232:    9000        ..      STR      r0,[sp,#0]
        0x00002234:    4620         F      MOV      r0,r4
        0x00002236:    f003f96d    ..m.    BL       writeOneSprite ; 0x5514
        0x0000223a:    1c60        `.      ADDS     r0,r4,#1
        0x0000223c:    b2c4        ..      UXTB     r4,r0
        0x0000223e:    2c40        @,      CMP      r4,#0x40
        0x00002240:    dbf3        ..      BLT      0x222a ; main + 142
        0x00002242:    f7fff823    ..#.    BL       clearNameTableAll ; 0x128c
        0x00002246:    2000        .       MOVS     r0,#0
        0x00002248:    49ef        .I      LDR      r1,[pc,#956] ; [0x2608] = 0x20000004
        0x0000224a:    7008        .p      STRB     r0,[r1,#0]
        0x0000224c:    2108        .!      MOVS     r1,#8
        0x0000224e:    2007        .       MOVS     r0,#7
        0x00002250:    f7fffaf4    ....    BL       gameStartInterfaceShow ; 0x183c
        0x00002254:    48ec        .H      LDR      r0,[pc,#944] ; [0x2608] = 0x20000004
        0x00002256:    f7fffa69    ..i.    BL       gameCursorDraw ; 0x172c
        0x0000225a:    2000        .       MOVS     r0,#0
        0x0000225c:    49eb        .I      LDR      r1,[pc,#940] ; [0x260c] = 0x20000030
        0x0000225e:    7008        .p      STRB     r0,[r1,#0]
        0x00002260:    e06d        m.      B        0x233e ; main + 418
        0x00002262:    48e8        .H      LDR      r0,[pc,#928] ; [0x2604] = 0x20000020
        0x00002264:    7800        .x      LDRB     r0,[r0,#0]
        0x00002266:    2801        .(      CMP      r0,#1
        0x00002268:    d149        I.      BNE      0x22fe ; main + 354
        0x0000226a:    2000        .       MOVS     r0,#0
        0x0000226c:    49e8        .I      LDR      r1,[pc,#928] ; [0x2610] = 0x20000000
        0x0000226e:    7008        .p      STRB     r0,[r1,#0]
        0x00002270:    49e8        .I      LDR      r1,[pc,#928] ; [0x2614] = 0x20000001
        0x00002272:    7008        .p      STRB     r0,[r1,#0]
        0x00002274:    49e8        .I      LDR      r1,[pc,#928] ; [0x2618] = 0x20000002
        0x00002276:    7008        .p      STRB     r0,[r1,#0]
        0x00002278:    49e8        .I      LDR      r1,[pc,#928] ; [0x261c] = 0x20000027
        0x0000227a:    7008        .p      STRB     r0,[r1,#0]
        0x0000227c:    49e8        .I      LDR      r1,[pc,#928] ; [0x2620] = 0x20000008
        0x0000227e:    6008        .`      STR      r0,[r1,#0]
        0x00002280:    49e8        .I      LDR      r1,[pc,#928] ; [0x2624] = 0x2000000c
        0x00002282:    6008        .`      STR      r0,[r1,#0]
        0x00002284:    49e8        .I      LDR      r1,[pc,#928] ; [0x2628] = 0x20000010
        0x00002286:    6008        .`      STR      r0,[r1,#0]
        0x00002288:    49e8        .I      LDR      r1,[pc,#928] ; [0x262c] = 0x20000021
        0x0000228a:    7008        .p      STRB     r0,[r1,#0]
        0x0000228c:    49e8        .I      LDR      r1,[pc,#928] ; [0x2630] = 0x20000014
        0x0000228e:    6008        .`      STR      r0,[r1,#0]
        0x00002290:    48e8        .H      LDR      r0,[pc,#928] ; [0x2634] = 0x20002300
        0x00002292:    f001f96c    ..l.    BL       myPlane_Init ; 0x356e
        0x00002296:    48e8        .H      LDR      r0,[pc,#928] ; [0x2638] = 0x2000230a
        0x00002298:    f001f99e    ....    BL       myPlane_bulletInit ; 0x35d8
        0x0000229c:    48e7        .H      LDR      r0,[pc,#924] ; [0x263c] = 0x20002382
        0x0000229e:    f003f815    ....    BL       s_grey_planeInit ; 0x52cc
        0x000022a2:    48e7        .H      LDR      r0,[pc,#924] ; [0x2640] = 0x200023e2
        0x000022a4:    f002f9d0    ....    BL       s_green_planeInit ; 0x4648
        0x000022a8:    48e6        .H      LDR      r0,[pc,#920] ; [0x2644] = 0x20002496
        0x000022aa:    f7ffff49    ..I.    BL       m_straight_planeInit ; 0x2140
        0x000022ae:    48e6        .H      LDR      r0,[pc,#920] ; [0x2648] = 0x200024ba
        0x000022b0:    f7feffc6    ....    BL       b_green_planeInit ; 0x1240
        0x000022b4:    48e5        .H      LDR      r0,[pc,#916] ; [0x264c] = 0x200024d4
        0x000022b6:    f7fffa19    ....    BL       enmey_BulletInit ; 0x16ec
        0x000022ba:    48e5        .H      LDR      r0,[pc,#916] ; [0x2650] = 0x200026a0
        0x000022bc:    f001fb60    ..`.    BL       new_boomInit ; 0x3980
        0x000022c0:    2400        .$      MOVS     r4,#0
        0x000022c2:    e009        ..      B        0x22d8 ; main + 316
        0x000022c4:    2000        .       MOVS     r0,#0
        0x000022c6:    23ff        .#      MOVS     r3,#0xff
        0x000022c8:    22e6        ."      MOVS     r2,#0xe6
        0x000022ca:    21fb        .!      MOVS     r1,#0xfb
        0x000022cc:    9000        ..      STR      r0,[sp,#0]
        0x000022ce:    4620         F      MOV      r0,r4
        0x000022d0:    f003f920    .. .    BL       writeOneSprite ; 0x5514
        0x000022d4:    1c60        `.      ADDS     r0,r4,#1
        0x000022d6:    b2c4        ..      UXTB     r4,r0
        0x000022d8:    2c40        @,      CMP      r4,#0x40
        0x000022da:    dbf3        ..      BLT      0x22c4 ; main + 296
        0x000022dc:    f7feffd6    ....    BL       clearNameTableAll ; 0x128c
        0x000022e0:    f7fffd48    ..H.    BL       loadMapJianchuan ; 0x1d74
        0x000022e4:    2004        .       MOVS     r0,#4
        0x000022e6:    49db        .I      LDR      r1,[pc,#876] ; [0x2654] = 0x50020800
        0x000022e8:    6048        H`      STR      r0,[r1,#4]
        0x000022ea:    48c8        .H      LDR      r0,[pc,#800] ; [0x260c] = 0x20000030
        0x000022ec:    7800        .x      LDRB     r0,[r0,#0]
        0x000022ee:    0380        ..      LSLS     r0,r0,#14
        0x000022f0:    6088        .`      STR      r0,[r1,#8]
        0x000022f2:    2008        .       MOVS     r0,#8
        0x000022f4:    60c8        .`      STR      r0,[r1,#0xc]
        0x000022f6:    2001        .       MOVS     r0,#1
        0x000022f8:    6008        .`      STR      r0,[r1,#0]
        0x000022fa:    6208        .b      STR      r0,[r1,#0x20]
        0x000022fc:    e01f        ..      B        0x233e ; main + 418
        0x000022fe:    48c1        .H      LDR      r0,[pc,#772] ; [0x2604] = 0x20000020
        0x00002300:    7800        .x      LDRB     r0,[r0,#0]
        0x00002302:    2802        .(      CMP      r0,#2
        0x00002304:    d11b        ..      BNE      0x233e ; main + 418
        0x00002306:    2000        .       MOVS     r0,#0
        0x00002308:    49d2        .I      LDR      r1,[pc,#840] ; [0x2654] = 0x50020800
        0x0000230a:    6008        .`      STR      r0,[r1,#0]
        0x0000230c:    2400        .$      MOVS     r4,#0
        0x0000230e:    e009        ..      B        0x2324 ; main + 392
        0x00002310:    2000        .       MOVS     r0,#0
        0x00002312:    23ff        .#      MOVS     r3,#0xff
        0x00002314:    22e6        ."      MOVS     r2,#0xe6
        0x00002316:    21fb        .!      MOVS     r1,#0xfb
        0x00002318:    9000        ..      STR      r0,[sp,#0]
        0x0000231a:    4620         F      MOV      r0,r4
        0x0000231c:    f003f8fa    ....    BL       writeOneSprite ; 0x5514
        0x00002320:    1c60        `.      ADDS     r0,r4,#1
        0x00002322:    b2c4        ..      UXTB     r4,r0
        0x00002324:    2c40        @,      CMP      r4,#0x40
        0x00002326:    dbf3        ..      BLT      0x2310 ; main + 372
        0x00002328:    f7feffb0    ....    BL       clearNameTableAll ; 0x128c
        0x0000232c:    2000        .       MOVS     r0,#0
        0x0000232e:    49ca        .I      LDR      r1,[pc,#808] ; [0x2658] = 0x20000025
        0x00002330:    7008        .p      STRB     r0,[r1,#0]
        0x00002332:    49ca        .I      LDR      r1,[pc,#808] ; [0x265c] = 0x20000003
        0x00002334:    7008        .p      STRB     r0,[r1,#0]
        0x00002336:    49ca        .I      LDR      r1,[pc,#808] ; [0x2660] = 0x20000022
        0x00002338:    7008        .p      STRB     r0,[r1,#0]
        0x0000233a:    49ca        .I      LDR      r1,[pc,#808] ; [0x2664] = 0x20000024
        0x0000233c:    7008        .p      STRB     r0,[r1,#0]
        0x0000233e:    48b1        .H      LDR      r0,[pc,#708] ; [0x2604] = 0x20000020
        0x00002340:    7800        .x      LDRB     r0,[r0,#0]
        0x00002342:    2800        .(      CMP      r0,#0
        0x00002344:    d13a        :.      BNE      0x23bc ; main + 544
        0x00002346:    48ae        .H      LDR      r0,[pc,#696] ; [0x2600] = 0x20000026
        0x00002348:    7800        .x      LDRB     r0,[r0,#0]
        0x0000234a:    2800        .(      CMP      r0,#0
        0x0000234c:    d136        6.      BNE      0x23bc ; main + 544
        0x0000234e:    f7fefa53    ..S.    BL       PS2_DataKey ; 0x7f8
        0x00002352:    49c5        .I      LDR      r1,[pc,#788] ; [0x2668] = 0x2000001c
        0x00002354:    6008        .`      STR      r0,[r1,#0]
        0x00002356:    4608        .F      MOV      r0,r1
        0x00002358:    6800        .h      LDR      r0,[r0,#0]
        0x0000235a:    2805        .(      CMP      r0,#5
        0x0000235c:    d10c        ..      BNE      0x2378 ; main + 476
        0x0000235e:    48aa        .H      LDR      r0,[pc,#680] ; [0x2608] = 0x20000004
        0x00002360:    7800        .x      LDRB     r0,[r0,#0]
        0x00002362:    2800        .(      CMP      r0,#0
        0x00002364:    dd26        &.      BLE      0x23b4 ; main + 536
        0x00002366:    48a8        .H      LDR      r0,[pc,#672] ; [0x2608] = 0x20000004
        0x00002368:    7800        .x      LDRB     r0,[r0,#0]
        0x0000236a:    1e40        @.      SUBS     r0,r0,#1
        0x0000236c:    49a6        .I      LDR      r1,[pc,#664] ; [0x2608] = 0x20000004
        0x0000236e:    7008        .p      STRB     r0,[r1,#0]
        0x00002370:    4608        .F      MOV      r0,r1
        0x00002372:    f7fff9db    ....    BL       gameCursorDraw ; 0x172c
        0x00002376:    e01d        ..      B        0x23b4 ; main + 536
        0x00002378:    48bb        .H      LDR      r0,[pc,#748] ; [0x2668] = 0x2000001c
        0x0000237a:    6800        .h      LDR      r0,[r0,#0]
        0x0000237c:    2807        .(      CMP      r0,#7
        0x0000237e:    d10c        ..      BNE      0x239a ; main + 510
        0x00002380:    48a1        .H      LDR      r0,[pc,#644] ; [0x2608] = 0x20000004
        0x00002382:    7800        .x      LDRB     r0,[r0,#0]
        0x00002384:    2801        .(      CMP      r0,#1
        0x00002386:    da15        ..      BGE      0x23b4 ; main + 536
        0x00002388:    489f        .H      LDR      r0,[pc,#636] ; [0x2608] = 0x20000004
        0x0000238a:    7800        .x      LDRB     r0,[r0,#0]
        0x0000238c:    1c40        @.      ADDS     r0,r0,#1
        0x0000238e:    499e        .I      LDR      r1,[pc,#632] ; [0x2608] = 0x20000004
        0x00002390:    7008        .p      STRB     r0,[r1,#0]
        0x00002392:    4608        .F      MOV      r0,r1
        0x00002394:    f7fff9ca    ....    BL       gameCursorDraw ; 0x172c
        0x00002398:    e00c        ..      B        0x23b4 ; main + 536
        0x0000239a:    48b3        .H      LDR      r0,[pc,#716] ; [0x2668] = 0x2000001c
        0x0000239c:    6800        .h      LDR      r0,[r0,#0]
        0x0000239e:    280d        .(      CMP      r0,#0xd
        0x000023a0:    d108        ..      BNE      0x23b4 ; main + 536
        0x000023a2:    4899        .H      LDR      r0,[pc,#612] ; [0x2608] = 0x20000004
        0x000023a4:    7800        .x      LDRB     r0,[r0,#0]
        0x000023a6:    2800        .(      CMP      r0,#0
        0x000023a8:    d104        ..      BNE      0x23b4 ; main + 536
        0x000023aa:    2001        .       MOVS     r0,#1
        0x000023ac:    4994        .I      LDR      r1,[pc,#592] ; [0x2600] = 0x20000026
        0x000023ae:    7008        .p      STRB     r0,[r1,#0]
        0x000023b0:    4994        .I      LDR      r1,[pc,#592] ; [0x2604] = 0x20000020
        0x000023b2:    7008        .p      STRB     r0,[r1,#0]
        0x000023b4:    2096        .       MOVS     r0,#0x96
        0x000023b6:    f7fefff3    ....    BL       delay_ms ; 0x13a0
        0x000023ba:    e2ac        ..      B        0x2916 ; main + 1914
        0x000023bc:    4891        .H      LDR      r0,[pc,#580] ; [0x2604] = 0x20000020
        0x000023be:    7800        .x      LDRB     r0,[r0,#0]
        0x000023c0:    2801        .(      CMP      r0,#1
        0x000023c2:    d17c        |.      BNE      0x24be ; main + 802
        0x000023c4:    488e        .H      LDR      r0,[pc,#568] ; [0x2600] = 0x20000026
        0x000023c6:    7800        .x      LDRB     r0,[r0,#0]
        0x000023c8:    2800        .(      CMP      r0,#0
        0x000023ca:    d1fa        ..      BNE      0x23c2 ; main + 550
        0x000023cc:    4893        .H      LDR      r0,[pc,#588] ; [0x261c] = 0x20000027
        0x000023ce:    7800        .x      LDRB     r0,[r0,#0]
        0x000023d0:    2800        .(      CMP      r0,#0
        0x000023d2:    d175        u.      BNE      0x24c0 ; main + 804
        0x000023d4:    489f        .H      LDR      r0,[pc,#636] ; [0x2654] = 0x50020800
        0x000023d6:    6900        .i      LDR      r0,[r0,#0x10]
        0x000023d8:    499e        .I      LDR      r1,[pc,#632] ; [0x2654] = 0x50020800
        0x000023da:    68c9        .h      LDR      r1,[r1,#0xc]
        0x000023dc:    4288        .B      CMP      r0,r1
        0x000023de:    d301        ..      BCC      0x23e4 ; main + 584
        0x000023e0:    489c        .H      LDR      r0,[pc,#624] ; [0x2654] = 0x50020800
        0x000023e2:    6940        @i      LDR      r0,[r0,#0x14]
        0x000023e4:    f7fefa08    ....    BL       PS2_DataKey ; 0x7f8
        0x000023e8:    499f        .I      LDR      r1,[pc,#636] ; [0x2668] = 0x2000001c
        0x000023ea:    6008        .`      STR      r0,[r1,#0]
        0x000023ec:    4888        .H      LDR      r0,[pc,#544] ; [0x2610] = 0x20000000
        0x000023ee:    7800        .x      LDRB     r0,[r0,#0]
        0x000023f0:    1c40        @.      ADDS     r0,r0,#1
        0x000023f2:    4987        .I      LDR      r1,[pc,#540] ; [0x2610] = 0x20000000
        0x000023f4:    7008        .p      STRB     r0,[r1,#0]
        0x000023f6:    4608        .F      MOV      r0,r1
        0x000023f8:    7800        .x      LDRB     r0,[r0,#0]
        0x000023fa:    2810        .(      CMP      r0,#0x10
        0x000023fc:    db2b        +.      BLT      0x2456 ; main + 698
        0x000023fe:    2000        .       MOVS     r0,#0
        0x00002400:    7008        .p      STRB     r0,[r1,#0]
        0x00002402:    489a        .H      LDR      r0,[pc,#616] ; [0x266c] = 0x200026d6
        0x00002404:    7900        .y      LDRB     r0,[r0,#4]
        0x00002406:    2110        .!      MOVS     r1,#0x10
        0x00002408:    4008        .@      ANDS     r0,r0,r1
        0x0000240a:    2800        .(      CMP      r0,#0
        0x0000240c:    d108        ..      BNE      0x2420 ; main + 644
        0x0000240e:    4889        .H      LDR      r0,[pc,#548] ; [0x2634] = 0x20002300
        0x00002410:    79c0        .y      LDRB     r0,[r0,#7]
        0x00002412:    2800        .(      CMP      r0,#0
        0x00002414:    d11f        ..      BNE      0x2456 ; main + 698
        0x00002416:    4988        .I      LDR      r1,[pc,#544] ; [0x2638] = 0x2000230a
        0x00002418:    4886        .H      LDR      r0,[pc,#536] ; [0x2634] = 0x20002300
        0x0000241a:    f001f8ed    ....    BL       myPlane_createOneBullet ; 0x35f8
        0x0000241e:    e01a        ..      B        0x2456 ; main + 698
        0x00002420:    4891        .H      LDR      r0,[pc,#580] ; [0x2668] = 0x2000001c
        0x00002422:    6800        .h      LDR      r0,[r0,#0]
        0x00002424:    280e        .(      CMP      r0,#0xe
        0x00002426:    d103        ..      BNE      0x2430 ; main + 660
        0x00002428:    2001        .       MOVS     r0,#1
        0x0000242a:    497a        zI      LDR      r1,[pc,#488] ; [0x2614] = 0x20000001
        0x0000242c:    7008        .p      STRB     r0,[r1,#0]
        0x0000242e:    e012        ..      B        0x2456 ; main + 698
        0x00002430:    488d        .H      LDR      r0,[pc,#564] ; [0x2668] = 0x2000001c
        0x00002432:    6800        .h      LDR      r0,[r0,#0]
        0x00002434:    2810        .(      CMP      r0,#0x10
        0x00002436:    d10e        ..      BNE      0x2456 ; main + 698
        0x00002438:    4877        wH      LDR      r0,[pc,#476] ; [0x2618] = 0x20000002
        0x0000243a:    7800        .x      LDRB     r0,[r0,#0]
        0x0000243c:    2800        .(      CMP      r0,#0
        0x0000243e:    d105        ..      BNE      0x244c ; main + 688
        0x00002440:    2001        .       MOVS     r0,#1
        0x00002442:    4984        .I      LDR      r1,[pc,#528] ; [0x2654] = 0x50020800
        0x00002444:    61c8        .a      STR      r0,[r1,#0x1c]
        0x00002446:    4974        tI      LDR      r1,[pc,#464] ; [0x2618] = 0x20000002
        0x00002448:    7008        .p      STRB     r0,[r1,#0]
        0x0000244a:    e004        ..      B        0x2456 ; main + 698
        0x0000244c:    2000        .       MOVS     r0,#0
        0x0000244e:    4981        .I      LDR      r1,[pc,#516] ; [0x2654] = 0x50020800
        0x00002450:    61c8        .a      STR      r0,[r1,#0x1c]
        0x00002452:    4971        qI      LDR      r1,[pc,#452] ; [0x2618] = 0x20000002
        0x00002454:    7008        .p      STRB     r0,[r1,#0]
        0x00002456:    2103        .!      MOVS     r1,#3
        0x00002458:    486d        mH      LDR      r0,[pc,#436] ; [0x2610] = 0x20000000
        0x0000245a:    7800        .x      LDRB     r0,[r0,#0]
        0x0000245c:    f7fdfe7a    ..z.    BL       __aeabi_idiv ; 0x154
        0x00002460:    2901        .)      CMP      r1,#1
        0x00002462:    d13c        <.      BNE      0x24de ; main + 834
        0x00002464:    4880        .H      LDR      r0,[pc,#512] ; [0x2668] = 0x2000001c
        0x00002466:    6800        .h      LDR      r0,[r0,#0]
        0x00002468:    2808        .(      CMP      r0,#8
        0x0000246a:    d10a        ..      BNE      0x2482 ; main + 742
        0x0000246c:    4871        qH      LDR      r0,[pc,#452] ; [0x2634] = 0x20002300
        0x0000246e:    2100        .!      MOVS     r1,#0
        0x00002470:    5e41        A^      LDRSH    r1,[r0,r1]
        0x00002472:    2919        .)      CMP      r1,#0x19
        0x00002474:    dd33        3.      BLE      0x24de ; main + 834
        0x00002476:    8800        ..      LDRH     r0,[r0,#0]
        0x00002478:    1f40        @.      SUBS     r0,r0,#5
        0x0000247a:    b200        ..      SXTH     r0,r0
        0x0000247c:    496d        mI      LDR      r1,[pc,#436] ; [0x2634] = 0x20002300
        0x0000247e:    8008        ..      STRH     r0,[r1,#0]
        0x00002480:    e02d        -.      B        0x24de ; main + 834
        0x00002482:    4879        yH      LDR      r0,[pc,#484] ; [0x2668] = 0x2000001c
        0x00002484:    6800        .h      LDR      r0,[r0,#0]
        0x00002486:    2806        .(      CMP      r0,#6
        0x00002488:    d10a        ..      BNE      0x24a0 ; main + 772
        0x0000248a:    486a        jH      LDR      r0,[pc,#424] ; [0x2634] = 0x20002300
        0x0000248c:    2100        .!      MOVS     r1,#0
        0x0000248e:    5e41        A^      LDRSH    r1,[r0,r1]
        0x00002490:    29e7        .)      CMP      r1,#0xe7
        0x00002492:    da24        $.      BGE      0x24de ; main + 834
        0x00002494:    8800        ..      LDRH     r0,[r0,#0]
        0x00002496:    1d40        @.      ADDS     r0,r0,#5
        0x00002498:    b200        ..      SXTH     r0,r0
        0x0000249a:    4966        fI      LDR      r1,[pc,#408] ; [0x2634] = 0x20002300
        0x0000249c:    8008        ..      STRH     r0,[r1,#0]
        0x0000249e:    e01e        ..      B        0x24de ; main + 834
        0x000024a0:    4871        qH      LDR      r0,[pc,#452] ; [0x2668] = 0x2000001c
        0x000024a2:    6800        .h      LDR      r0,[r0,#0]
        0x000024a4:    2805        .(      CMP      r0,#5
        0x000024a6:    d10c        ..      BNE      0x24c2 ; main + 806
        0x000024a8:    4862        bH      LDR      r0,[pc,#392] ; [0x2634] = 0x20002300
        0x000024aa:    2102        .!      MOVS     r1,#2
        0x000024ac:    5e41        A^      LDRSH    r1,[r0,r1]
        0x000024ae:    291e        .)      CMP      r1,#0x1e
        0x000024b0:    dd15        ..      BLE      0x24de ; main + 834
        0x000024b2:    8840        @.      LDRH     r0,[r0,#2]
        0x000024b4:    1f40        @.      SUBS     r0,r0,#5
        0x000024b6:    b200        ..      SXTH     r0,r0
        0x000024b8:    495e        ^I      LDR      r1,[pc,#376] ; [0x2634] = 0x20002300
        0x000024ba:    8048        H.      STRH     r0,[r1,#2]
        0x000024bc:    e00f        ..      B        0x24de ; main + 834
        0x000024be:    e1f3        ..      B        0x28a8 ; main + 1804
        0x000024c0:    e073        s.      B        0x25aa ; main + 1038
        0x000024c2:    4869        iH      LDR      r0,[pc,#420] ; [0x2668] = 0x2000001c
        0x000024c4:    6800        .h      LDR      r0,[r0,#0]
        0x000024c6:    2807        .(      CMP      r0,#7
        0x000024c8:    d109        ..      BNE      0x24de ; main + 834
        0x000024ca:    485a        ZH      LDR      r0,[pc,#360] ; [0x2634] = 0x20002300
        0x000024cc:    2102        .!      MOVS     r1,#2
        0x000024ce:    5e41        A^      LDRSH    r1,[r0,r1]
        0x000024d0:    29d2        .)      CMP      r1,#0xd2
        0x000024d2:    da04        ..      BGE      0x24de ; main + 834
        0x000024d4:    8840        @.      LDRH     r0,[r0,#2]
        0x000024d6:    1d40        @.      ADDS     r0,r0,#5
        0x000024d8:    b200        ..      SXTH     r0,r0
        0x000024da:    4956        VI      LDR      r1,[pc,#344] ; [0x2634] = 0x20002300
        0x000024dc:    8048        H.      STRH     r0,[r1,#2]
        0x000024de:    484e        NH      LDR      r0,[pc,#312] ; [0x2618] = 0x20000002
        0x000024e0:    7800        .x      LDRB     r0,[r0,#0]
        0x000024e2:    2801        .(      CMP      r0,#1
        0x000024e4:    d01c        ..      BEQ      0x2520 ; main + 900
        0x000024e6:    494b        KI      LDR      r1,[pc,#300] ; [0x2614] = 0x20000001
        0x000024e8:    4852        RH      LDR      r0,[pc,#328] ; [0x2634] = 0x20002300
        0x000024ea:    f000fce7    ....    BL       myPlane_Act ; 0x2ebc
        0x000024ee:    4852        RH      LDR      r0,[pc,#328] ; [0x2638] = 0x2000230a
        0x000024f0:    f001f95a    ..Z.    BL       myPlane_updateBulletData ; 0x37a8
        0x000024f4:    4a55        UJ      LDR      r2,[pc,#340] ; [0x264c] = 0x200024d4
        0x000024f6:    494f        OI      LDR      r1,[pc,#316] ; [0x2634] = 0x20002300
        0x000024f8:    4850        PH      LDR      r0,[pc,#320] ; [0x263c] = 0x20002382
        0x000024fa:    f002fcf5    ....    BL       s_grey_movePlane ; 0x4ee8
        0x000024fe:    4a53        SJ      LDR      r2,[pc,#332] ; [0x264c] = 0x200024d4
        0x00002500:    494c        LI      LDR      r1,[pc,#304] ; [0x2634] = 0x20002300
        0x00002502:    484f        OH      LDR      r0,[pc,#316] ; [0x2640] = 0x200023e2
        0x00002504:    f001fdca    ....    BL       s_green_movePlane ; 0x409c
        0x00002508:    484e        NH      LDR      r0,[pc,#312] ; [0x2644] = 0x20002496
        0x0000250a:    f7fffdc1    ....    BL       m_straight_movePlane ; 0x2090
        0x0000250e:    484e        NH      LDR      r0,[pc,#312] ; [0x2648] = 0x200024ba
        0x00002510:    f7fefcda    ....    BL       b_green_movePlane ; 0xec8
        0x00002514:    484d        MH      LDR      r0,[pc,#308] ; [0x264c] = 0x200024d4
        0x00002516:    f002ff47    ..G.    BL       updateEnemyBulletData ; 0x53a8
        0x0000251a:    484d        MH      LDR      r0,[pc,#308] ; [0x2650] = 0x200026a0
        0x0000251c:    f001fa64    ..d.    BL       new_updateBoomData ; 0x39e8
        0x00002520:    484c        LH      LDR      r0,[pc,#304] ; [0x2654] = 0x50020800
        0x00002522:    6900        .i      LDR      r0,[r0,#0x10]
        0x00002524:    2808        .(      CMP      r0,#8
        0x00002526:    d10e        ..      BNE      0x2546 ; main + 938
        0x00002528:    484a        JH      LDR      r0,[pc,#296] ; [0x2654] = 0x50020800
        0x0000252a:    6940        @i      LDR      r0,[r0,#0x14]
        0x0000252c:    2878        x(      CMP      r0,#0x78
        0x0000252e:    d80a        ..      BHI      0x2546 ; main + 938
        0x00002530:    2000        .       MOVS     r0,#0
        0x00002532:    e005        ..      B        0x2540 ; main + 932
        0x00002534:    2100        .!      MOVS     r1,#0
        0x00002536:    43c9        .C      MVNS     r1,r1
        0x00002538:    0082        ..      LSLS     r2,r0,#2
        0x0000253a:    4b4d        MK      LDR      r3,[pc,#308] ; [0x2670] = 0x200025b0
        0x0000253c:    5099        .P      STR      r1,[r3,r2]
        0x0000253e:    1c40        @.      ADDS     r0,r0,#1
        0x00002540:    281e        .(      CMP      r0,#0x1e
        0x00002542:    dbf7        ..      BLT      0x2534 ; main + 920
        0x00002544:    e003        ..      B        0x254e ; main + 946
        0x00002546:    494a        JI      LDR      r1,[pc,#296] ; [0x2670] = 0x200025b0
        0x00002548:    483b        ;H      LDR      r0,[pc,#236] ; [0x2638] = 0x2000230a
        0x0000254a:    f000fc8f    ....    BL       myBulletsMapCreate ; 0x2e6c
        0x0000254e:    4849        IH      LDR      r0,[pc,#292] ; [0x2674] = 0x20002628
        0x00002550:    4b3e        >K      LDR      r3,[pc,#248] ; [0x264c] = 0x200024d4
        0x00002552:    4a3d        =J      LDR      r2,[pc,#244] ; [0x2648] = 0x200024ba
        0x00002554:    493a        :I      LDR      r1,[pc,#232] ; [0x2640] = 0x200023e2
        0x00002556:    9000        ..      STR      r0,[sp,#0]
        0x00002558:    4838        8H      LDR      r0,[pc,#224] ; [0x263c] = 0x20002382
        0x0000255a:    f7feffb5    ....    BL       enemyAndBulletMapCreate ; 0x14c8
        0x0000255e:    4b3c        <K      LDR      r3,[pc,#240] ; [0x2650] = 0x200026a0
        0x00002560:    4a43        CJ      LDR      r2,[pc,#268] ; [0x2670] = 0x200025b0
        0x00002562:    4937        7I      LDR      r1,[pc,#220] ; [0x2640] = 0x200023e2
        0x00002564:    4835        5H      LDR      r0,[pc,#212] ; [0x263c] = 0x20002382
        0x00002566:    f7fffb49    ..I.    BL       isHit_s_EnemyPlane ; 0x1bfc
        0x0000256a:    4a39        9J      LDR      r2,[pc,#228] ; [0x2650] = 0x200026a0
        0x0000256c:    4940        @I      LDR      r1,[pc,#256] ; [0x2670] = 0x200025b0
        0x0000256e:    4835        5H      LDR      r0,[pc,#212] ; [0x2644] = 0x20002496
        0x00002570:    f7fffa9e    ....    BL       isHit_m_straight_EnemyPlane ; 0x1ab0
        0x00002574:    4a36        6J      LDR      r2,[pc,#216] ; [0x2650] = 0x200026a0
        0x00002576:    493e        >I      LDR      r1,[pc,#248] ; [0x2670] = 0x200025b0
        0x00002578:    4833        3H      LDR      r0,[pc,#204] ; [0x2648] = 0x200024ba
        0x0000257a:    f7fffa13    ....    BL       isHit_b_EnemyPlane ; 0x19a4
        0x0000257e:    493d        =I      LDR      r1,[pc,#244] ; [0x2674] = 0x20002628
        0x00002580:    482d        -H      LDR      r0,[pc,#180] ; [0x2638] = 0x2000230a
        0x00002582:    f7fffaff    ....    BL       isHit_myBullets ; 0x1b84
        0x00002586:    482b        +H      LDR      r0,[pc,#172] ; [0x2634] = 0x20002300
        0x00002588:    7900        .y      LDRB     r0,[r0,#4]
        0x0000258a:    2800        .(      CMP      r0,#0
        0x0000258c:    d109        ..      BNE      0x25a2 ; main + 1030
        0x0000258e:    4827        'H      LDR      r0,[pc,#156] ; [0x262c] = 0x20000021
        0x00002590:    7800        .x      LDRB     r0,[r0,#0]
        0x00002592:    28f0        .(      CMP      r0,#0xf0
        0x00002594:    db05        ..      BLT      0x25a2 ; main + 1030
        0x00002596:    2001        .       MOVS     r0,#1
        0x00002598:    4919        .I      LDR      r1,[pc,#100] ; [0x2600] = 0x20000026
        0x0000259a:    7008        .p      STRB     r0,[r1,#0]
        0x0000259c:    2002        .       MOVS     r0,#2
        0x0000259e:    4919        .I      LDR      r1,[pc,#100] ; [0x2604] = 0x20000020
        0x000025a0:    7008        .p      STRB     r0,[r1,#0]
        0x000025a2:    2001        .       MOVS     r0,#1
        0x000025a4:    491d        .I      LDR      r1,[pc,#116] ; [0x261c] = 0x20000027
        0x000025a6:    7008        .p      STRB     r0,[r1,#0]
        0x000025a8:    e1b5        ..      B        0x2916 ; main + 1914
        0x000025aa:    481c        .H      LDR      r0,[pc,#112] ; [0x261c] = 0x20000027
        0x000025ac:    7800        .x      LDRB     r0,[r0,#0]
        0x000025ae:    2802        .(      CMP      r0,#2
        0x000025b0:    d17d        }.      BNE      0x26ae ; main + 1298
        0x000025b2:    2000        .       MOVS     r0,#0
        0x000025b4:    4929        )I      LDR      r1,[pc,#164] ; [0x265c] = 0x20000003
        0x000025b6:    7008        .p      STRB     r0,[r1,#0]
        0x000025b8:    4817        .H      LDR      r0,[pc,#92] ; [0x2618] = 0x20000002
        0x000025ba:    7800        .x      LDRB     r0,[r0,#0]
        0x000025bc:    2801        .(      CMP      r0,#1
        0x000025be:    d15c        \.      BNE      0x267a ; main + 1246
        0x000025c0:    2020                MOVS     r0,#0x20
        0x000025c2:    4603        .F      MOV      r3,r0
        0x000025c4:    226e        n"      MOVS     r2,#0x6e
        0x000025c6:    4611        .F      MOV      r1,r2
        0x000025c8:    9000        ..      STR      r0,[sp,#0]
        0x000025ca:    4824        $H      LDR      r0,[pc,#144] ; [0x265c] = 0x20000003
        0x000025cc:    7800        .x      LDRB     r0,[r0,#0]
        0x000025ce:    f002ffa1    ....    BL       writeOneSprite ; 0x5514
        0x000025d2:    4822        "H      LDR      r0,[pc,#136] ; [0x265c] = 0x20000003
        0x000025d4:    7800        .x      LDRB     r0,[r0,#0]
        0x000025d6:    1c40        @.      ADDS     r0,r0,#1
        0x000025d8:    4920         I      LDR      r1,[pc,#128] ; [0x265c] = 0x20000003
        0x000025da:    7008        .p      STRB     r0,[r1,#0]
        0x000025dc:    2020                MOVS     r0,#0x20
        0x000025de:    2321        !#      MOVS     r3,#0x21
        0x000025e0:    226e        n"      MOVS     r2,#0x6e
        0x000025e2:    217e        ~!      MOVS     r1,#0x7e
        0x000025e4:    9000        ..      STR      r0,[sp,#0]
        0x000025e6:    481d        .H      LDR      r0,[pc,#116] ; [0x265c] = 0x20000003
        0x000025e8:    7800        .x      LDRB     r0,[r0,#0]
        0x000025ea:    f002ff93    ....    BL       writeOneSprite ; 0x5514
        0x000025ee:    481b        .H      LDR      r0,[pc,#108] ; [0x265c] = 0x20000003
        0x000025f0:    7800        .x      LDRB     r0,[r0,#0]
        0x000025f2:    1c40        @.      ADDS     r0,r0,#1
        0x000025f4:    4919        .I      LDR      r1,[pc,#100] ; [0x265c] = 0x20000003
        0x000025f6:    e03f        ?.      B        0x2678 ; main + 1244
    $d
        0x000025f8:    2000002c    ,..     DCD    536870956
        0x000025fc:    20000028    (..     DCD    536870952
        0x00002600:    20000026    &..     DCD    536870950
        0x00002604:    20000020     ..     DCD    536870944
        0x00002608:    20000004    ...     DCD    536870916
        0x0000260c:    20000030    0..     DCD    536870960
        0x00002610:    20000000    ...     DCD    536870912
        0x00002614:    20000001    ...     DCD    536870913
        0x00002618:    20000002    ...     DCD    536870914
        0x0000261c:    20000027    '..     DCD    536870951
        0x00002620:    20000008    ...     DCD    536870920
        0x00002624:    2000000c    ...     DCD    536870924
        0x00002628:    20000010    ...     DCD    536870928
        0x0000262c:    20000021    !..     DCD    536870945
        0x00002630:    20000014    ...     DCD    536870932
        0x00002634:    20002300    .#.     DCD    536879872
        0x00002638:    2000230a    .#.     DCD    536879882
        0x0000263c:    20002382    .#.     DCD    536880002
        0x00002640:    200023e2    .#.     DCD    536880098
        0x00002644:    20002496    .$.     DCD    536880278
        0x00002648:    200024ba    .$.     DCD    536880314
        0x0000264c:    200024d4    .$.     DCD    536880340
        0x00002650:    200026a0    .&.     DCD    536880800
        0x00002654:    50020800    ...P    DCD    1342310400
        0x00002658:    20000025    %..     DCD    536870949
        0x0000265c:    20000003    ...     DCD    536870915
        0x00002660:    20000022    "..     DCD    536870946
        0x00002664:    20000024    $..     DCD    536870948
        0x00002668:    2000001c    ...     DCD    536870940
        0x0000266c:    200026d6    .&.     DCD    536880854
        0x00002670:    200025b0    .%.     DCD    536880560
        0x00002674:    20002628    (&.     DCD    536880680
    $t
        0x00002678:    7008        .p      STRB     r0,[r1,#0]
        0x0000267a:    4ba7        .K      LDR      r3,[pc,#668] ; [0x2918] = 0x20000003
        0x0000267c:    48a7        .H      LDR      r0,[pc,#668] ; [0x291c] = 0x20000008
        0x0000267e:    210a        .!      MOVS     r1,#0xa
        0x00002680:    6802        .h      LDR      r2,[r0,#0]
        0x00002682:    2003        .       MOVS     r0,#3
        0x00002684:    f7fff881    ....    BL       gameScoreDraw ; 0x178a
        0x00002688:    49a3        .I      LDR      r1,[pc,#652] ; [0x2918] = 0x20000003
        0x0000268a:    48a5        .H      LDR      r0,[pc,#660] ; [0x2920] = 0x20002300
        0x0000268c:    f000fc50    ..P.    BL       myPlane_Draw ; 0x2f30
        0x00002690:    49a1        .I      LDR      r1,[pc,#644] ; [0x2918] = 0x20000003
        0x00002692:    48a4        .H      LDR      r0,[pc,#656] ; [0x2924] = 0x2000230a
        0x00002694:    f000ff7a    ..z.    BL       myPlane_bulletDraw ; 0x358c
        0x00002698:    499f        .I      LDR      r1,[pc,#636] ; [0x2918] = 0x20000003
        0x0000269a:    48a3        .H      LDR      r0,[pc,#652] ; [0x2928] = 0x200026a0
        0x0000269c:    f001f908    ....    BL       new_boomDraw ; 0x38b0
        0x000026a0:    499d        .I      LDR      r1,[pc,#628] ; [0x2918] = 0x20000003
        0x000026a2:    48a2        .H      LDR      r0,[pc,#648] ; [0x292c] = 0x20002382
        0x000026a4:    f002fa3c    ..<.    BL       s_grey_drawPlane ; 0x4b20
        0x000026a8:    499b        .I      LDR      r1,[pc,#620] ; [0x2918] = 0x20000003
        0x000026aa:    48a1        .H      LDR      r0,[pc,#644] ; [0x2930] = 0x200023e2
        0x000026ac:    e000        ..      B        0x26b0 ; main + 1300
        0x000026ae:    e026        &.      B        0x26fe ; main + 1378
        0x000026b0:    f001fb7e    ..~.    BL       s_green_drawPlane ; 0x3db0
        0x000026b4:    4998        .I      LDR      r1,[pc,#608] ; [0x2918] = 0x20000003
        0x000026b6:    489f        .H      LDR      r0,[pc,#636] ; [0x2934] = 0x20002496
        0x000026b8:    f7fffbc8    ....    BL       m_straight_drawPlane ; 0x1e4c
        0x000026bc:    4996        .I      LDR      r1,[pc,#600] ; [0x2918] = 0x20000003
        0x000026be:    489e        .H      LDR      r0,[pc,#632] ; [0x2938] = 0x200024ba
        0x000026c0:    f7fefad8    ....    BL       b_green_drawPlane ; 0xc74
        0x000026c4:    4994        .I      LDR      r1,[pc,#592] ; [0x2918] = 0x20000003
        0x000026c6:    489d        .H      LDR      r0,[pc,#628] ; [0x293c] = 0x200024d4
        0x000026c8:    f7feffea    ....    BL       enmeyBulletDraw ; 0x16a0
        0x000026cc:    4892        .H      LDR      r0,[pc,#584] ; [0x2918] = 0x20000003
        0x000026ce:    7804        .x      LDRB     r4,[r0,#0]
        0x000026d0:    e00f        ..      B        0x26f2 ; main + 1366
        0x000026d2:    2000        .       MOVS     r0,#0
        0x000026d4:    23ff        .#      MOVS     r3,#0xff
        0x000026d6:    22e6        ."      MOVS     r2,#0xe6
        0x000026d8:    21fb        .!      MOVS     r1,#0xfb
        0x000026da:    9000        ..      STR      r0,[sp,#0]
        0x000026dc:    488e        .H      LDR      r0,[pc,#568] ; [0x2918] = 0x20000003
        0x000026de:    7800        .x      LDRB     r0,[r0,#0]
        0x000026e0:    f002ff18    ....    BL       writeOneSprite ; 0x5514
        0x000026e4:    488c        .H      LDR      r0,[pc,#560] ; [0x2918] = 0x20000003
        0x000026e6:    7800        .x      LDRB     r0,[r0,#0]
        0x000026e8:    1c40        @.      ADDS     r0,r0,#1
        0x000026ea:    498b        .I      LDR      r1,[pc,#556] ; [0x2918] = 0x20000003
        0x000026ec:    7008        .p      STRB     r0,[r1,#0]
        0x000026ee:    1c60        `.      ADDS     r0,r4,#1
        0x000026f0:    b2c4        ..      UXTB     r4,r0
        0x000026f2:    2c40        @,      CMP      r4,#0x40
        0x000026f4:    dbed        ..      BLT      0x26d2 ; main + 1334
        0x000026f6:    2000        .       MOVS     r0,#0
        0x000026f8:    4991        .I      LDR      r1,[pc,#580] ; [0x2940] = 0x20000027
        0x000026fa:    7008        .p      STRB     r0,[r1,#0]
        0x000026fc:    e10b        ..      B        0x2916 ; main + 1914
        0x000026fe:    4890        .H      LDR      r0,[pc,#576] ; [0x2940] = 0x20000027
        0x00002700:    7800        .x      LDRB     r0,[r0,#0]
        0x00002702:    2803        .(      CMP      r0,#3
        0x00002704:    d1fa        ..      BNE      0x26fc ; main + 1376
        0x00002706:    488f        .H      LDR      r0,[pc,#572] ; [0x2944] = 0x20000030
        0x00002708:    7800        .x      LDRB     r0,[r0,#0]
        0x0000270a:    1c40        @.      ADDS     r0,r0,#1
        0x0000270c:    498d        .I      LDR      r1,[pc,#564] ; [0x2944] = 0x20000030
        0x0000270e:    7008        .p      STRB     r0,[r1,#0]
        0x00002710:    4608        .F      MOV      r0,r1
        0x00002712:    7800        .x      LDRB     r0,[r0,#0]
        0x00002714:    2802        .(      CMP      r0,#2
        0x00002716:    d166        f.      BNE      0x27e6 ; main + 1610
        0x00002718:    2400        .$      MOVS     r4,#0
        0x0000271a:    e053        S.      B        0x27c4 ; main + 1576
        0x0000271c:    2000        .       MOVS     r0,#0
        0x0000271e:    497e        ~I      LDR      r1,[pc,#504] ; [0x2918] = 0x20000003
        0x00002720:    7008        .p      STRB     r0,[r1,#0]
        0x00002722:    460b        .F      MOV      r3,r1
        0x00002724:    487d        }H      LDR      r0,[pc,#500] ; [0x291c] = 0x20000008
        0x00002726:    210a        .!      MOVS     r1,#0xa
        0x00002728:    6802        .h      LDR      r2,[r0,#0]
        0x0000272a:    2003        .       MOVS     r0,#3
        0x0000272c:    f7fff82d    ..-.    BL       gameScoreDraw ; 0x178a
        0x00002730:    4979        yI      LDR      r1,[pc,#484] ; [0x2918] = 0x20000003
        0x00002732:    4884        .H      LDR      r0,[pc,#528] ; [0x2944] = 0x20000030
        0x00002734:    7800        .x      LDRB     r0,[r0,#0]
        0x00002736:    f001f85f    .._.    BL       newGuanqiaInterFaceDraw ; 0x37f8
        0x0000273a:    4977        wI      LDR      r1,[pc,#476] ; [0x2918] = 0x20000003
        0x0000273c:    4878        xH      LDR      r0,[pc,#480] ; [0x2920] = 0x20002300
        0x0000273e:    f000fbf7    ....    BL       myPlane_Draw ; 0x2f30
        0x00002742:    4875        uH      LDR      r0,[pc,#468] ; [0x2918] = 0x20000003
        0x00002744:    7805        .x      LDRB     r5,[r0,#0]
        0x00002746:    e00f        ..      B        0x2768 ; main + 1484
        0x00002748:    2000        .       MOVS     r0,#0
        0x0000274a:    23ff        .#      MOVS     r3,#0xff
        0x0000274c:    22e6        ."      MOVS     r2,#0xe6
        0x0000274e:    21fb        .!      MOVS     r1,#0xfb
        0x00002750:    9000        ..      STR      r0,[sp,#0]
        0x00002752:    4871        qH      LDR      r0,[pc,#452] ; [0x2918] = 0x20000003
        0x00002754:    7800        .x      LDRB     r0,[r0,#0]
        0x00002756:    f002fedd    ....    BL       writeOneSprite ; 0x5514
        0x0000275a:    486f        oH      LDR      r0,[pc,#444] ; [0x2918] = 0x20000003
        0x0000275c:    7800        .x      LDRB     r0,[r0,#0]
        0x0000275e:    1c40        @.      ADDS     r0,r0,#1
        0x00002760:    496d        mI      LDR      r1,[pc,#436] ; [0x2918] = 0x20000003
        0x00002762:    7008        .p      STRB     r0,[r1,#0]
        0x00002764:    1c68        h.      ADDS     r0,r5,#1
        0x00002766:    b2c5        ..      UXTB     r5,r0
        0x00002768:    2d40        @-      CMP      r5,#0x40
        0x0000276a:    dbed        ..      BLT      0x2748 ; main + 1452
        0x0000276c:    20ff        .       MOVS     r0,#0xff
        0x0000276e:    302d        -0      ADDS     r0,r0,#0x2d
        0x00002770:    f7fefe16    ....    BL       delay_ms ; 0x13a0
        0x00002774:    2000        .       MOVS     r0,#0
        0x00002776:    4968        hI      LDR      r1,[pc,#416] ; [0x2918] = 0x20000003
        0x00002778:    7008        .p      STRB     r0,[r1,#0]
        0x0000277a:    460b        .F      MOV      r3,r1
        0x0000277c:    4867        gH      LDR      r0,[pc,#412] ; [0x291c] = 0x20000008
        0x0000277e:    210a        .!      MOVS     r1,#0xa
        0x00002780:    6802        .h      LDR      r2,[r0,#0]
        0x00002782:    2003        .       MOVS     r0,#3
        0x00002784:    f7fff801    ....    BL       gameScoreDraw ; 0x178a
        0x00002788:    4963        cI      LDR      r1,[pc,#396] ; [0x2918] = 0x20000003
        0x0000278a:    4865        eH      LDR      r0,[pc,#404] ; [0x2920] = 0x20002300
        0x0000278c:    f000fbd0    ....    BL       myPlane_Draw ; 0x2f30
        0x00002790:    4861        aH      LDR      r0,[pc,#388] ; [0x2918] = 0x20000003
        0x00002792:    7805        .x      LDRB     r5,[r0,#0]
        0x00002794:    e00f        ..      B        0x27b6 ; main + 1562
        0x00002796:    2000        .       MOVS     r0,#0
        0x00002798:    23ff        .#      MOVS     r3,#0xff
        0x0000279a:    22e6        ."      MOVS     r2,#0xe6
        0x0000279c:    21fb        .!      MOVS     r1,#0xfb
        0x0000279e:    9000        ..      STR      r0,[sp,#0]
        0x000027a0:    485d        ]H      LDR      r0,[pc,#372] ; [0x2918] = 0x20000003
        0x000027a2:    7800        .x      LDRB     r0,[r0,#0]
        0x000027a4:    f002feb6    ....    BL       writeOneSprite ; 0x5514
        0x000027a8:    485b        [H      LDR      r0,[pc,#364] ; [0x2918] = 0x20000003
        0x000027aa:    7800        .x      LDRB     r0,[r0,#0]
        0x000027ac:    1c40        @.      ADDS     r0,r0,#1
        0x000027ae:    495a        ZI      LDR      r1,[pc,#360] ; [0x2918] = 0x20000003
        0x000027b0:    7008        .p      STRB     r0,[r1,#0]
        0x000027b2:    1c68        h.      ADDS     r0,r5,#1
        0x000027b4:    b2c5        ..      UXTB     r5,r0
        0x000027b6:    2d40        @-      CMP      r5,#0x40
        0x000027b8:    dbed        ..      BLT      0x2796 ; main + 1530
        0x000027ba:    20ff        .       MOVS     r0,#0xff
        0x000027bc:    302d        -0      ADDS     r0,r0,#0x2d
        0x000027be:    f7fefdef    ....    BL       delay_ms ; 0x13a0
        0x000027c2:    1c64        d.      ADDS     r4,r4,#1
        0x000027c4:    2c06        .,      CMP      r4,#6
        0x000027c6:    dba9        ..      BLT      0x271c ; main + 1408
        0x000027c8:    2000        .       MOVS     r0,#0
        0x000027ca:    495f        _I      LDR      r1,[pc,#380] ; [0x2948] = 0x50020800
        0x000027cc:    6008        .`      STR      r0,[r1,#0]
        0x000027ce:    495c        \I      LDR      r1,[pc,#368] ; [0x2940] = 0x20000027
        0x000027d0:    7008        .p      STRB     r0,[r1,#0]
        0x000027d2:    2001        .       MOVS     r0,#1
        0x000027d4:    495d        ]I      LDR      r1,[pc,#372] ; [0x294c] = 0x20000026
        0x000027d6:    7008        .p      STRB     r0,[r1,#0]
        0x000027d8:    2002        .       MOVS     r0,#2
        0x000027da:    495d        ]I      LDR      r1,[pc,#372] ; [0x2950] = 0x20000020
        0x000027dc:    7008        .p      STRB     r0,[r1,#0]
        0x000027de:    2000        .       MOVS     r0,#0
        0x000027e0:    494f        OI      LDR      r1,[pc,#316] ; [0x2920] = 0x20002300
        0x000027e2:    7108        .q      STRB     r0,[r1,#4]
        0x000027e4:    e097        ..      B        0x2916 ; main + 1914
        0x000027e6:    2400        .$      MOVS     r4,#0
        0x000027e8:    e053        S.      B        0x2892 ; main + 1782
        0x000027ea:    2000        .       MOVS     r0,#0
        0x000027ec:    494a        JI      LDR      r1,[pc,#296] ; [0x2918] = 0x20000003
        0x000027ee:    7008        .p      STRB     r0,[r1,#0]
        0x000027f0:    460b        .F      MOV      r3,r1
        0x000027f2:    484a        JH      LDR      r0,[pc,#296] ; [0x291c] = 0x20000008
        0x000027f4:    210a        .!      MOVS     r1,#0xa
        0x000027f6:    6802        .h      LDR      r2,[r0,#0]
        0x000027f8:    2003        .       MOVS     r0,#3
        0x000027fa:    f7feffc6    ....    BL       gameScoreDraw ; 0x178a
        0x000027fe:    4946        FI      LDR      r1,[pc,#280] ; [0x2918] = 0x20000003
        0x00002800:    4850        PH      LDR      r0,[pc,#320] ; [0x2944] = 0x20000030
        0x00002802:    7800        .x      LDRB     r0,[r0,#0]
        0x00002804:    f000fff8    ....    BL       newGuanqiaInterFaceDraw ; 0x37f8
        0x00002808:    4943        CI      LDR      r1,[pc,#268] ; [0x2918] = 0x20000003
        0x0000280a:    4845        EH      LDR      r0,[pc,#276] ; [0x2920] = 0x20002300
        0x0000280c:    f000fb90    ....    BL       myPlane_Draw ; 0x2f30
        0x00002810:    4841        AH      LDR      r0,[pc,#260] ; [0x2918] = 0x20000003
        0x00002812:    7805        .x      LDRB     r5,[r0,#0]
        0x00002814:    e00f        ..      B        0x2836 ; main + 1690
        0x00002816:    2000        .       MOVS     r0,#0
        0x00002818:    23ff        .#      MOVS     r3,#0xff
        0x0000281a:    22e6        ."      MOVS     r2,#0xe6
        0x0000281c:    21fb        .!      MOVS     r1,#0xfb
        0x0000281e:    9000        ..      STR      r0,[sp,#0]
        0x00002820:    483d        =H      LDR      r0,[pc,#244] ; [0x2918] = 0x20000003
        0x00002822:    7800        .x      LDRB     r0,[r0,#0]
        0x00002824:    f002fe76    ..v.    BL       writeOneSprite ; 0x5514
        0x00002828:    483b        ;H      LDR      r0,[pc,#236] ; [0x2918] = 0x20000003
        0x0000282a:    7800        .x      LDRB     r0,[r0,#0]
        0x0000282c:    1c40        @.      ADDS     r0,r0,#1
        0x0000282e:    493a        :I      LDR      r1,[pc,#232] ; [0x2918] = 0x20000003
        0x00002830:    7008        .p      STRB     r0,[r1,#0]
        0x00002832:    1c68        h.      ADDS     r0,r5,#1
        0x00002834:    b2c5        ..      UXTB     r5,r0
        0x00002836:    2d40        @-      CMP      r5,#0x40
        0x00002838:    dbed        ..      BLT      0x2816 ; main + 1658
        0x0000283a:    20ff        .       MOVS     r0,#0xff
        0x0000283c:    30f5        .0      ADDS     r0,r0,#0xf5
        0x0000283e:    f7fefdaf    ....    BL       delay_ms ; 0x13a0
        0x00002842:    2000        .       MOVS     r0,#0
        0x00002844:    4934        4I      LDR      r1,[pc,#208] ; [0x2918] = 0x20000003
        0x00002846:    7008        .p      STRB     r0,[r1,#0]
        0x00002848:    460b        .F      MOV      r3,r1
        0x0000284a:    4834        4H      LDR      r0,[pc,#208] ; [0x291c] = 0x20000008
        0x0000284c:    210a        .!      MOVS     r1,#0xa
        0x0000284e:    6802        .h      LDR      r2,[r0,#0]
        0x00002850:    2003        .       MOVS     r0,#3
        0x00002852:    f7feff9a    ....    BL       gameScoreDraw ; 0x178a
        0x00002856:    4930        0I      LDR      r1,[pc,#192] ; [0x2918] = 0x20000003
        0x00002858:    4831        1H      LDR      r0,[pc,#196] ; [0x2920] = 0x20002300
        0x0000285a:    f000fb69    ..i.    BL       myPlane_Draw ; 0x2f30
        0x0000285e:    482e        .H      LDR      r0,[pc,#184] ; [0x2918] = 0x20000003
        0x00002860:    7805        .x      LDRB     r5,[r0,#0]
        0x00002862:    e00f        ..      B        0x2884 ; main + 1768
        0x00002864:    2000        .       MOVS     r0,#0
        0x00002866:    23ff        .#      MOVS     r3,#0xff
        0x00002868:    22e6        ."      MOVS     r2,#0xe6
        0x0000286a:    21fb        .!      MOVS     r1,#0xfb
        0x0000286c:    9000        ..      STR      r0,[sp,#0]
        0x0000286e:    482a        *H      LDR      r0,[pc,#168] ; [0x2918] = 0x20000003
        0x00002870:    7800        .x      LDRB     r0,[r0,#0]
        0x00002872:    f002fe4f    ..O.    BL       writeOneSprite ; 0x5514
        0x00002876:    4828        (H      LDR      r0,[pc,#160] ; [0x2918] = 0x20000003
        0x00002878:    7800        .x      LDRB     r0,[r0,#0]
        0x0000287a:    1c40        @.      ADDS     r0,r0,#1
        0x0000287c:    4926        &I      LDR      r1,[pc,#152] ; [0x2918] = 0x20000003
        0x0000287e:    7008        .p      STRB     r0,[r1,#0]
        0x00002880:    1c68        h.      ADDS     r0,r5,#1
        0x00002882:    b2c5        ..      UXTB     r5,r0
        0x00002884:    2d40        @-      CMP      r5,#0x40
        0x00002886:    dbed        ..      BLT      0x2864 ; main + 1736
        0x00002888:    20ff        .       MOVS     r0,#0xff
        0x0000288a:    302d        -0      ADDS     r0,r0,#0x2d
        0x0000288c:    f7fefd88    ....    BL       delay_ms ; 0x13a0
        0x00002890:    1c64        d.      ADDS     r4,r4,#1
        0x00002892:    2c06        .,      CMP      r4,#6
        0x00002894:    dba9        ..      BLT      0x27ea ; main + 1614
        0x00002896:    2000        .       MOVS     r0,#0
        0x00002898:    4929        )I      LDR      r1,[pc,#164] ; [0x2940] = 0x20000027
        0x0000289a:    7008        .p      STRB     r0,[r1,#0]
        0x0000289c:    2001        .       MOVS     r0,#1
        0x0000289e:    492b        +I      LDR      r1,[pc,#172] ; [0x294c] = 0x20000026
        0x000028a0:    7008        .p      STRB     r0,[r1,#0]
        0x000028a2:    492b        +I      LDR      r1,[pc,#172] ; [0x2950] = 0x20000020
        0x000028a4:    7008        .p      STRB     r0,[r1,#0]
        0x000028a6:    e036        6.      B        0x2916 ; main + 1914
        0x000028a8:    4829        )H      LDR      r0,[pc,#164] ; [0x2950] = 0x20000020
        0x000028aa:    7800        .x      LDRB     r0,[r0,#0]
        0x000028ac:    2802        .(      CMP      r0,#2
        0x000028ae:    d132        2.      BNE      0x2916 ; main + 1914
        0x000028b0:    4826        &H      LDR      r0,[pc,#152] ; [0x294c] = 0x20000026
        0x000028b2:    7800        .x      LDRB     r0,[r0,#0]
        0x000028b4:    2800        .(      CMP      r0,#0
        0x000028b6:    d12e        ..      BNE      0x2916 ; main + 1914
        0x000028b8:    4826        &H      LDR      r0,[pc,#152] ; [0x2954] = 0x2000000c
        0x000028ba:    6800        .h      LDR      r0,[r0,#0]
        0x000028bc:    f7fdfd4f    ..O.    BL       __aeabi_ui2f ; 0x35e
        0x000028c0:    4604        .F      MOV      r4,r0
        0x000028c2:    4825        %H      LDR      r0,[pc,#148] ; [0x2958] = 0x20000010
        0x000028c4:    6800        .h      LDR      r0,[r0,#0]
        0x000028c6:    f7fdfd4a    ..J.    BL       __aeabi_ui2f ; 0x35e
        0x000028ca:    4605        .F      MOV      r5,r0
        0x000028cc:    4621        !F      MOV      r1,r4
        0x000028ce:    f7fdfcfd    ....    BL       __aeabi_fdiv ; 0x2cc
        0x000028d2:    4922        "I      LDR      r1,[pc,#136] ; [0x295c] = 0x20000014
        0x000028d4:    6008        .`      STR      r0,[r1,#0]
        0x000028d6:    4608        .F      MOV      r0,r1
        0x000028d8:    6803        .h      LDR      r3,[r0,#0]
        0x000028da:    481f        .H      LDR      r0,[pc,#124] ; [0x2958] = 0x20000010
        0x000028dc:    4920         I      LDR      r1,[pc,#128] ; [0x2960] = 0x20000024
        0x000028de:    6802        .h      LDR      r2,[r0,#0]
        0x000028e0:    4820         H      LDR      r0,[pc,#128] ; [0x2964] = 0x20000025
        0x000028e2:    f7fefd77    ..w.    BL       endInterFaceDraw ; 0x13d4
        0x000028e6:    481e        .H      LDR      r0,[pc,#120] ; [0x2960] = 0x20000024
        0x000028e8:    7800        .x      LDRB     r0,[r0,#0]
        0x000028ea:    2814        .(      CMP      r0,#0x14
        0x000028ec:    db13        ..      BLT      0x2916 ; main + 1914
        0x000028ee:    f7fdff83    ....    BL       PS2_DataKey ; 0x7f8
        0x000028f2:    491d        .I      LDR      r1,[pc,#116] ; [0x2968] = 0x2000001c
        0x000028f4:    6008        .`      STR      r0,[r1,#0]
        0x000028f6:    4608        .F      MOV      r0,r1
        0x000028f8:    6800        .h      LDR      r0,[r0,#0]
        0x000028fa:    2810        .(      CMP      r0,#0x10
        0x000028fc:    d108        ..      BNE      0x2910 ; main + 1908
        0x000028fe:    2000        .       MOVS     r0,#0
        0x00002900:    4913        .I      LDR      r1,[pc,#76] ; [0x2950] = 0x20000020
        0x00002902:    7008        .p      STRB     r0,[r1,#0]
        0x00002904:    2001        .       MOVS     r0,#1
        0x00002906:    4911        .I      LDR      r1,[pc,#68] ; [0x294c] = 0x20000026
        0x00002908:    7008        .p      STRB     r0,[r1,#0]
        0x0000290a:    2000        .       MOVS     r0,#0
        0x0000290c:    4914        .I      LDR      r1,[pc,#80] ; [0x2960] = 0x20000024
        0x0000290e:    7008        .p      STRB     r0,[r1,#0]
        0x00002910:    2064        d       MOVS     r0,#0x64
        0x00002912:    f7fefd45    ..E.    BL       delay_ms ; 0x13a0
        0x00002916:    e47b        {.      B        0x2210 ; main + 116
    $d
        0x00002918:    20000003    ...     DCD    536870915
        0x0000291c:    20000008    ...     DCD    536870920
        0x00002920:    20002300    .#.     DCD    536879872
        0x00002924:    2000230a    .#.     DCD    536879882
        0x00002928:    200026a0    .&.     DCD    536880800
        0x0000292c:    20002382    .#.     DCD    536880002
        0x00002930:    200023e2    .#.     DCD    536880098
        0x00002934:    20002496    .$.     DCD    536880278
        0x00002938:    200024ba    .$.     DCD    536880314
        0x0000293c:    200024d4    .$.     DCD    536880340
        0x00002940:    20000027    '..     DCD    536870951
        0x00002944:    20000030    0..     DCD    536870960
        0x00002948:    50020800    ...P    DCD    1342310400
        0x0000294c:    20000026    &..     DCD    536870950
        0x00002950:    20000020     ..     DCD    536870944
        0x00002954:    2000000c    ...     DCD    536870924
        0x00002958:    20000010    ...     DCD    536870928
        0x0000295c:    20000014    ...     DCD    536870932
        0x00002960:    20000024    $..     DCD    536870948
        0x00002964:    20000025    %..     DCD    536870949
        0x00002968:    2000001c    ...     DCD    536870940
    $t
    i.makeMapFirst
    makeMapFirst
        0x0000296c:    b510        ..      PUSH     {r4,lr}
        0x0000296e:    4604        .F      MOV      r4,r0
        0x00002970:    22ff        ."      MOVS     r2,#0xff
        0x00002972:    3201        .2      ADDS     r2,#1
        0x00002974:    4621        !F      MOV      r1,r4
        0x00002976:    488b        .H      LDR      r0,[pc,#556] ; [0x2ba4] = 0x200006fa
        0x00002978:    f7fef812    ....    BL       SPI_Flash_Write_Page ; 0x9a0
        0x0000297c:    22ff        ."      MOVS     r2,#0xff
        0x0000297e:    3201        .2      ADDS     r2,#1
        0x00002980:    18a1        ..      ADDS     r1,r4,r2
        0x00002982:    4889        .H      LDR      r0,[pc,#548] ; [0x2ba8] = 0x200007fa
        0x00002984:    f7fef80c    ....    BL       SPI_Flash_Write_Page ; 0x9a0
        0x00002988:    22ff        ."      MOVS     r2,#0xff
        0x0000298a:    3201        .2      ADDS     r2,#1
        0x0000298c:    1de1        ..      ADDS     r1,r4,#7
        0x0000298e:    31ff        .1      ADDS     r1,r1,#0xff
        0x00002990:    31fa        .1      ADDS     r1,r1,#0xfa
        0x00002992:    4886        .H      LDR      r0,[pc,#536] ; [0x2bac] = 0x200008fa
        0x00002994:    f7fef804    ....    BL       SPI_Flash_Write_Page ; 0x9a0
        0x00002998:    22ff        ."      MOVS     r2,#0xff
        0x0000299a:    3201        .2      ADDS     r2,#1
        0x0000299c:    2003        .       MOVS     r0,#3
        0x0000299e:    0200        ..      LSLS     r0,r0,#8
        0x000029a0:    1821        !.      ADDS     r1,r4,r0
        0x000029a2:    4883        .H      LDR      r0,[pc,#524] ; [0x2bb0] = 0x200009fa
        0x000029a4:    f7fdfffc    ....    BL       SPI_Flash_Write_Page ; 0x9a0
        0x000029a8:    22ff        ."      MOVS     r2,#0xff
        0x000029aa:    3201        .2      ADDS     r2,#1
        0x000029ac:    0090        ..      LSLS     r0,r2,#2
        0x000029ae:    1821        !.      ADDS     r1,r4,r0
        0x000029b0:    487c        |H      LDR      r0,[pc,#496] ; [0x2ba4] = 0x200006fa
        0x000029b2:    f7fdfff5    ....    BL       SPI_Flash_Write_Page ; 0x9a0
        0x000029b6:    22ff        ."      MOVS     r2,#0xff
        0x000029b8:    3201        .2      ADDS     r2,#1
        0x000029ba:    2005        .       MOVS     r0,#5
        0x000029bc:    0200        ..      LSLS     r0,r0,#8
        0x000029be:    1821        !.      ADDS     r1,r4,r0
        0x000029c0:    4879        yH      LDR      r0,[pc,#484] ; [0x2ba8] = 0x200007fa
        0x000029c2:    f7fdffed    ....    BL       SPI_Flash_Write_Page ; 0x9a0
        0x000029c6:    22ff        ."      MOVS     r2,#0xff
        0x000029c8:    3201        .2      ADDS     r2,#1
        0x000029ca:    2003        .       MOVS     r0,#3
        0x000029cc:    0240        @.      LSLS     r0,r0,#9
        0x000029ce:    1821        !.      ADDS     r1,r4,r0
        0x000029d0:    4876        vH      LDR      r0,[pc,#472] ; [0x2bac] = 0x200008fa
        0x000029d2:    f7fdffe5    ....    BL       SPI_Flash_Write_Page ; 0x9a0
        0x000029d6:    22ff        ."      MOVS     r2,#0xff
        0x000029d8:    3201        .2      ADDS     r2,#1
        0x000029da:    2007        .       MOVS     r0,#7
        0x000029dc:    0200        ..      LSLS     r0,r0,#8
        0x000029de:    1821        !.      ADDS     r1,r4,r0
        0x000029e0:    4873        sH      LDR      r0,[pc,#460] ; [0x2bb0] = 0x200009fa
        0x000029e2:    f7fdffdd    ....    BL       SPI_Flash_Write_Page ; 0x9a0
        0x000029e6:    22ff        ."      MOVS     r2,#0xff
        0x000029e8:    3201        .2      ADDS     r2,#1
        0x000029ea:    00d0        ..      LSLS     r0,r2,#3
        0x000029ec:    1821        !.      ADDS     r1,r4,r0
        0x000029ee:    486d        mH      LDR      r0,[pc,#436] ; [0x2ba4] = 0x200006fa
        0x000029f0:    f7fdffd6    ....    BL       SPI_Flash_Write_Page ; 0x9a0
        0x000029f4:    22ff        ."      MOVS     r2,#0xff
        0x000029f6:    3201        .2      ADDS     r2,#1
        0x000029f8:    2009        .       MOVS     r0,#9
        0x000029fa:    0200        ..      LSLS     r0,r0,#8
        0x000029fc:    1821        !.      ADDS     r1,r4,r0
        0x000029fe:    486a        jH      LDR      r0,[pc,#424] ; [0x2ba8] = 0x200007fa
        0x00002a00:    f7fdffce    ....    BL       SPI_Flash_Write_Page ; 0x9a0
        0x00002a04:    22ff        ."      MOVS     r2,#0xff
        0x00002a06:    3201        .2      ADDS     r2,#1
        0x00002a08:    2005        .       MOVS     r0,#5
        0x00002a0a:    0240        @.      LSLS     r0,r0,#9
        0x00002a0c:    1821        !.      ADDS     r1,r4,r0
        0x00002a0e:    4867        gH      LDR      r0,[pc,#412] ; [0x2bac] = 0x200008fa
        0x00002a10:    f7fdffc6    ....    BL       SPI_Flash_Write_Page ; 0x9a0
        0x00002a14:    22ff        ."      MOVS     r2,#0xff
        0x00002a16:    3201        .2      ADDS     r2,#1
        0x00002a18:    200b        .       MOVS     r0,#0xb
        0x00002a1a:    0200        ..      LSLS     r0,r0,#8
        0x00002a1c:    1821        !.      ADDS     r1,r4,r0
        0x00002a1e:    4864        dH      LDR      r0,[pc,#400] ; [0x2bb0] = 0x200009fa
        0x00002a20:    f7fdffbe    ....    BL       SPI_Flash_Write_Page ; 0x9a0
        0x00002a24:    22ff        ."      MOVS     r2,#0xff
        0x00002a26:    3201        .2      ADDS     r2,#1
        0x00002a28:    2003        .       MOVS     r0,#3
        0x00002a2a:    0280        ..      LSLS     r0,r0,#10
        0x00002a2c:    1821        !.      ADDS     r1,r4,r0
        0x00002a2e:    485d        ]H      LDR      r0,[pc,#372] ; [0x2ba4] = 0x200006fa
        0x00002a30:    f7fdffb6    ....    BL       SPI_Flash_Write_Page ; 0x9a0
        0x00002a34:    22ff        ."      MOVS     r2,#0xff
        0x00002a36:    3201        .2      ADDS     r2,#1
        0x00002a38:    200d        .       MOVS     r0,#0xd
        0x00002a3a:    0200        ..      LSLS     r0,r0,#8
        0x00002a3c:    1821        !.      ADDS     r1,r4,r0
        0x00002a3e:    485a        ZH      LDR      r0,[pc,#360] ; [0x2ba8] = 0x200007fa
        0x00002a40:    f7fdffae    ....    BL       SPI_Flash_Write_Page ; 0x9a0
        0x00002a44:    22ff        ."      MOVS     r2,#0xff
        0x00002a46:    3201        .2      ADDS     r2,#1
        0x00002a48:    2007        .       MOVS     r0,#7
        0x00002a4a:    0240        @.      LSLS     r0,r0,#9
        0x00002a4c:    1821        !.      ADDS     r1,r4,r0
        0x00002a4e:    4857        WH      LDR      r0,[pc,#348] ; [0x2bac] = 0x200008fa
        0x00002a50:    f7fdffa6    ....    BL       SPI_Flash_Write_Page ; 0x9a0
        0x00002a54:    22ff        ."      MOVS     r2,#0xff
        0x00002a56:    3201        .2      ADDS     r2,#1
        0x00002a58:    200f        .       MOVS     r0,#0xf
        0x00002a5a:    0200        ..      LSLS     r0,r0,#8
        0x00002a5c:    1821        !.      ADDS     r1,r4,r0
        0x00002a5e:    4854        TH      LDR      r0,[pc,#336] ; [0x2bb0] = 0x200009fa
        0x00002a60:    f7fdff9e    ....    BL       SPI_Flash_Write_Page ; 0x9a0
        0x00002a64:    22ff        ."      MOVS     r2,#0xff
        0x00002a66:    3201        .2      ADDS     r2,#1
        0x00002a68:    0110        ..      LSLS     r0,r2,#4
        0x00002a6a:    1821        !.      ADDS     r1,r4,r0
        0x00002a6c:    4851        QH      LDR      r0,[pc,#324] ; [0x2bb4] = 0x20000efa
        0x00002a6e:    f7fdff97    ....    BL       SPI_Flash_Write_Page ; 0x9a0
        0x00002a72:    22ff        ."      MOVS     r2,#0xff
        0x00002a74:    3201        .2      ADDS     r2,#1
        0x00002a76:    2011        .       MOVS     r0,#0x11
        0x00002a78:    0200        ..      LSLS     r0,r0,#8
        0x00002a7a:    1821        !.      ADDS     r1,r4,r0
        0x00002a7c:    484e        NH      LDR      r0,[pc,#312] ; [0x2bb8] = 0x20000ffa
        0x00002a7e:    f7fdff8f    ....    BL       SPI_Flash_Write_Page ; 0x9a0
        0x00002a82:    22ff        ."      MOVS     r2,#0xff
        0x00002a84:    3201        .2      ADDS     r2,#1
        0x00002a86:    2009        .       MOVS     r0,#9
        0x00002a88:    0240        @.      LSLS     r0,r0,#9
        0x00002a8a:    1821        !.      ADDS     r1,r4,r0
        0x00002a8c:    484b        KH      LDR      r0,[pc,#300] ; [0x2bbc] = 0x200010fa
        0x00002a8e:    f7fdff87    ....    BL       SPI_Flash_Write_Page ; 0x9a0
        0x00002a92:    22ff        ."      MOVS     r2,#0xff
        0x00002a94:    3201        .2      ADDS     r2,#1
        0x00002a96:    2013        .       MOVS     r0,#0x13
        0x00002a98:    0200        ..      LSLS     r0,r0,#8
        0x00002a9a:    1821        !.      ADDS     r1,r4,r0
        0x00002a9c:    4848        HH      LDR      r0,[pc,#288] ; [0x2bc0] = 0x200011fa
        0x00002a9e:    f7fdff7f    ....    BL       SPI_Flash_Write_Page ; 0x9a0
        0x00002aa2:    22ff        ."      MOVS     r2,#0xff
        0x00002aa4:    3201        .2      ADDS     r2,#1
        0x00002aa6:    2005        .       MOVS     r0,#5
        0x00002aa8:    0280        ..      LSLS     r0,r0,#10
        0x00002aaa:    1821        !.      ADDS     r1,r4,r0
        0x00002aac:    483d        =H      LDR      r0,[pc,#244] ; [0x2ba4] = 0x200006fa
        0x00002aae:    f7fdff77    ..w.    BL       SPI_Flash_Write_Page ; 0x9a0
        0x00002ab2:    22ff        ."      MOVS     r2,#0xff
        0x00002ab4:    3201        .2      ADDS     r2,#1
        0x00002ab6:    2015        .       MOVS     r0,#0x15
        0x00002ab8:    0200        ..      LSLS     r0,r0,#8
        0x00002aba:    1821        !.      ADDS     r1,r4,r0
        0x00002abc:    483a        :H      LDR      r0,[pc,#232] ; [0x2ba8] = 0x200007fa
        0x00002abe:    f7fdff6f    ..o.    BL       SPI_Flash_Write_Page ; 0x9a0
        0x00002ac2:    22ff        ."      MOVS     r2,#0xff
        0x00002ac4:    3201        .2      ADDS     r2,#1
        0x00002ac6:    200b        .       MOVS     r0,#0xb
        0x00002ac8:    0240        @.      LSLS     r0,r0,#9
        0x00002aca:    1821        !.      ADDS     r1,r4,r0
        0x00002acc:    4837        7H      LDR      r0,[pc,#220] ; [0x2bac] = 0x200008fa
        0x00002ace:    f7fdff67    ..g.    BL       SPI_Flash_Write_Page ; 0x9a0
        0x00002ad2:    22ff        ."      MOVS     r2,#0xff
        0x00002ad4:    3201        .2      ADDS     r2,#1
        0x00002ad6:    2017        .       MOVS     r0,#0x17
        0x00002ad8:    0200        ..      LSLS     r0,r0,#8
        0x00002ada:    1821        !.      ADDS     r1,r4,r0
        0x00002adc:    4834        4H      LDR      r0,[pc,#208] ; [0x2bb0] = 0x200009fa
        0x00002ade:    f7fdff5f    .._.    BL       SPI_Flash_Write_Page ; 0x9a0
        0x00002ae2:    22ff        ."      MOVS     r2,#0xff
        0x00002ae4:    3201        .2      ADDS     r2,#1
        0x00002ae6:    2003        .       MOVS     r0,#3
        0x00002ae8:    02c0        ..      LSLS     r0,r0,#11
        0x00002aea:    1821        !.      ADDS     r1,r4,r0
        0x00002aec:    4831        1H      LDR      r0,[pc,#196] ; [0x2bb4] = 0x20000efa
        0x00002aee:    f7fdff57    ..W.    BL       SPI_Flash_Write_Page ; 0x9a0
        0x00002af2:    22ff        ."      MOVS     r2,#0xff
        0x00002af4:    3201        .2      ADDS     r2,#1
        0x00002af6:    2019        .       MOVS     r0,#0x19
        0x00002af8:    0200        ..      LSLS     r0,r0,#8
        0x00002afa:    1821        !.      ADDS     r1,r4,r0
        0x00002afc:    482e        .H      LDR      r0,[pc,#184] ; [0x2bb8] = 0x20000ffa
        0x00002afe:    f7fdff4f    ..O.    BL       SPI_Flash_Write_Page ; 0x9a0
        0x00002b02:    22ff        ."      MOVS     r2,#0xff
        0x00002b04:    3201        .2      ADDS     r2,#1
        0x00002b06:    200d        .       MOVS     r0,#0xd
        0x00002b08:    0240        @.      LSLS     r0,r0,#9
        0x00002b0a:    1821        !.      ADDS     r1,r4,r0
        0x00002b0c:    482b        +H      LDR      r0,[pc,#172] ; [0x2bbc] = 0x200010fa
        0x00002b0e:    f7fdff47    ..G.    BL       SPI_Flash_Write_Page ; 0x9a0
        0x00002b12:    22ff        ."      MOVS     r2,#0xff
        0x00002b14:    3201        .2      ADDS     r2,#1
        0x00002b16:    201b        .       MOVS     r0,#0x1b
        0x00002b18:    0200        ..      LSLS     r0,r0,#8
        0x00002b1a:    1821        !.      ADDS     r1,r4,r0
        0x00002b1c:    4828        (H      LDR      r0,[pc,#160] ; [0x2bc0] = 0x200011fa
        0x00002b1e:    f7fdff3f    ..?.    BL       SPI_Flash_Write_Page ; 0x9a0
        0x00002b22:    22ff        ."      MOVS     r2,#0xff
        0x00002b24:    3201        .2      ADDS     r2,#1
        0x00002b26:    2007        .       MOVS     r0,#7
        0x00002b28:    0280        ..      LSLS     r0,r0,#10
        0x00002b2a:    1821        !.      ADDS     r1,r4,r0
        0x00002b2c:    481d        .H      LDR      r0,[pc,#116] ; [0x2ba4] = 0x200006fa
        0x00002b2e:    f7fdff37    ..7.    BL       SPI_Flash_Write_Page ; 0x9a0
        0x00002b32:    22ff        ."      MOVS     r2,#0xff
        0x00002b34:    3201        .2      ADDS     r2,#1
        0x00002b36:    201d        .       MOVS     r0,#0x1d
        0x00002b38:    0200        ..      LSLS     r0,r0,#8
        0x00002b3a:    1821        !.      ADDS     r1,r4,r0
        0x00002b3c:    481a        .H      LDR      r0,[pc,#104] ; [0x2ba8] = 0x200007fa
        0x00002b3e:    f7fdff2f    ../.    BL       SPI_Flash_Write_Page ; 0x9a0
        0x00002b42:    22ff        ."      MOVS     r2,#0xff
        0x00002b44:    3201        .2      ADDS     r2,#1
        0x00002b46:    200f        .       MOVS     r0,#0xf
        0x00002b48:    0240        @.      LSLS     r0,r0,#9
        0x00002b4a:    1821        !.      ADDS     r1,r4,r0
        0x00002b4c:    4817        .H      LDR      r0,[pc,#92] ; [0x2bac] = 0x200008fa
        0x00002b4e:    f7fdff27    ..'.    BL       SPI_Flash_Write_Page ; 0x9a0
        0x00002b52:    22ff        ."      MOVS     r2,#0xff
        0x00002b54:    3201        .2      ADDS     r2,#1
        0x00002b56:    201f        .       MOVS     r0,#0x1f
        0x00002b58:    0200        ..      LSLS     r0,r0,#8
        0x00002b5a:    1821        !.      ADDS     r1,r4,r0
        0x00002b5c:    4814        .H      LDR      r0,[pc,#80] ; [0x2bb0] = 0x200009fa
        0x00002b5e:    f7fdff1f    ....    BL       SPI_Flash_Write_Page ; 0x9a0
        0x00002b62:    22ff        ."      MOVS     r2,#0xff
        0x00002b64:    3201        .2      ADDS     r2,#1
        0x00002b66:    0150        P.      LSLS     r0,r2,#5
        0x00002b68:    1821        !.      ADDS     r1,r4,r0
        0x00002b6a:    4816        .H      LDR      r0,[pc,#88] ; [0x2bc4] = 0x20000afa
        0x00002b6c:    f7fdff18    ....    BL       SPI_Flash_Write_Page ; 0x9a0
        0x00002b70:    22ff        ."      MOVS     r2,#0xff
        0x00002b72:    3201        .2      ADDS     r2,#1
        0x00002b74:    2021        !       MOVS     r0,#0x21
        0x00002b76:    0200        ..      LSLS     r0,r0,#8
        0x00002b78:    1821        !.      ADDS     r1,r4,r0
        0x00002b7a:    4813        .H      LDR      r0,[pc,#76] ; [0x2bc8] = 0x20000bfa
        0x00002b7c:    f7fdff10    ....    BL       SPI_Flash_Write_Page ; 0x9a0
        0x00002b80:    22ff        ."      MOVS     r2,#0xff
        0x00002b82:    3201        .2      ADDS     r2,#1
        0x00002b84:    2011        .       MOVS     r0,#0x11
        0x00002b86:    0240        @.      LSLS     r0,r0,#9
        0x00002b88:    1821        !.      ADDS     r1,r4,r0
        0x00002b8a:    4810        .H      LDR      r0,[pc,#64] ; [0x2bcc] = 0x20000cfa
        0x00002b8c:    f7fdff08    ....    BL       SPI_Flash_Write_Page ; 0x9a0
        0x00002b90:    22ff        ."      MOVS     r2,#0xff
        0x00002b92:    3201        .2      ADDS     r2,#1
        0x00002b94:    2023        #       MOVS     r0,#0x23
        0x00002b96:    0200        ..      LSLS     r0,r0,#8
        0x00002b98:    1821        !.      ADDS     r1,r4,r0
        0x00002b9a:    480d        .H      LDR      r0,[pc,#52] ; [0x2bd0] = 0x20000dfa
        0x00002b9c:    f7fdff00    ....    BL       SPI_Flash_Write_Page ; 0x9a0
        0x00002ba0:    bd10        ..      POP      {r4,pc}
    $d
        0x00002ba2:    0000        ..      DCW    0
        0x00002ba4:    200006fa    ...     DCD    536872698
        0x00002ba8:    200007fa    ...     DCD    536872954
        0x00002bac:    200008fa    ...     DCD    536873210
        0x00002bb0:    200009fa    ...     DCD    536873466
        0x00002bb4:    20000efa    ...     DCD    536874746
        0x00002bb8:    20000ffa    ...     DCD    536875002
        0x00002bbc:    200010fa    ...     DCD    536875258
        0x00002bc0:    200011fa    ...     DCD    536875514
        0x00002bc4:    20000afa    ...     DCD    536873722
        0x00002bc8:    20000bfa    ...     DCD    536873978
        0x00002bcc:    20000cfa    ...     DCD    536874234
        0x00002bd0:    20000dfa    ...     DCD    536874490
    $t
    i.makeMapSecond
    makeMapSecond
        0x00002bd4:    b510        ..      PUSH     {r4,lr}
        0x00002bd6:    4604        .F      MOV      r4,r0
        0x00002bd8:    22ff        ."      MOVS     r2,#0xff
        0x00002bda:    3201        .2      ADDS     r2,#1
        0x00002bdc:    4621        !F      MOV      r1,r4
        0x00002bde:    488b        .H      LDR      r0,[pc,#556] ; [0x2e0c] = 0x200006fa
        0x00002be0:    f7fdfede    ....    BL       SPI_Flash_Write_Page ; 0x9a0
        0x00002be4:    22ff        ."      MOVS     r2,#0xff
        0x00002be6:    3201        .2      ADDS     r2,#1
        0x00002be8:    18a1        ..      ADDS     r1,r4,r2
        0x00002bea:    4889        .H      LDR      r0,[pc,#548] ; [0x2e10] = 0x200007fa
        0x00002bec:    f7fdfed8    ....    BL       SPI_Flash_Write_Page ; 0x9a0
        0x00002bf0:    22ff        ."      MOVS     r2,#0xff
        0x00002bf2:    3201        .2      ADDS     r2,#1
        0x00002bf4:    1de1        ..      ADDS     r1,r4,#7
        0x00002bf6:    31ff        .1      ADDS     r1,r1,#0xff
        0x00002bf8:    31fa        .1      ADDS     r1,r1,#0xfa
        0x00002bfa:    4886        .H      LDR      r0,[pc,#536] ; [0x2e14] = 0x200008fa
        0x00002bfc:    f7fdfed0    ....    BL       SPI_Flash_Write_Page ; 0x9a0
        0x00002c00:    22ff        ."      MOVS     r2,#0xff
        0x00002c02:    3201        .2      ADDS     r2,#1
        0x00002c04:    2003        .       MOVS     r0,#3
        0x00002c06:    0200        ..      LSLS     r0,r0,#8
        0x00002c08:    1821        !.      ADDS     r1,r4,r0
        0x00002c0a:    4883        .H      LDR      r0,[pc,#524] ; [0x2e18] = 0x200009fa
        0x00002c0c:    f7fdfec8    ....    BL       SPI_Flash_Write_Page ; 0x9a0
        0x00002c10:    22ff        ."      MOVS     r2,#0xff
        0x00002c12:    3201        .2      ADDS     r2,#1
        0x00002c14:    0090        ..      LSLS     r0,r2,#2
        0x00002c16:    1821        !.      ADDS     r1,r4,r0
        0x00002c18:    487c        |H      LDR      r0,[pc,#496] ; [0x2e0c] = 0x200006fa
        0x00002c1a:    f7fdfec1    ....    BL       SPI_Flash_Write_Page ; 0x9a0
        0x00002c1e:    22ff        ."      MOVS     r2,#0xff
        0x00002c20:    3201        .2      ADDS     r2,#1
        0x00002c22:    2005        .       MOVS     r0,#5
        0x00002c24:    0200        ..      LSLS     r0,r0,#8
        0x00002c26:    1821        !.      ADDS     r1,r4,r0
        0x00002c28:    4879        yH      LDR      r0,[pc,#484] ; [0x2e10] = 0x200007fa
        0x00002c2a:    f7fdfeb9    ....    BL       SPI_Flash_Write_Page ; 0x9a0
        0x00002c2e:    22ff        ."      MOVS     r2,#0xff
        0x00002c30:    3201        .2      ADDS     r2,#1
        0x00002c32:    2003        .       MOVS     r0,#3
        0x00002c34:    0240        @.      LSLS     r0,r0,#9
        0x00002c36:    1821        !.      ADDS     r1,r4,r0
        0x00002c38:    4876        vH      LDR      r0,[pc,#472] ; [0x2e14] = 0x200008fa
        0x00002c3a:    f7fdfeb1    ....    BL       SPI_Flash_Write_Page ; 0x9a0
        0x00002c3e:    22ff        ."      MOVS     r2,#0xff
        0x00002c40:    3201        .2      ADDS     r2,#1
        0x00002c42:    2007        .       MOVS     r0,#7
        0x00002c44:    0200        ..      LSLS     r0,r0,#8
        0x00002c46:    1821        !.      ADDS     r1,r4,r0
        0x00002c48:    4873        sH      LDR      r0,[pc,#460] ; [0x2e18] = 0x200009fa
        0x00002c4a:    f7fdfea9    ....    BL       SPI_Flash_Write_Page ; 0x9a0
        0x00002c4e:    22ff        ."      MOVS     r2,#0xff
        0x00002c50:    3201        .2      ADDS     r2,#1
        0x00002c52:    00d0        ..      LSLS     r0,r2,#3
        0x00002c54:    1821        !.      ADDS     r1,r4,r0
        0x00002c56:    4871        qH      LDR      r0,[pc,#452] ; [0x2e1c] = 0x200012fa
        0x00002c58:    f7fdfea2    ....    BL       SPI_Flash_Write_Page ; 0x9a0
        0x00002c5c:    22ff        ."      MOVS     r2,#0xff
        0x00002c5e:    3201        .2      ADDS     r2,#1
        0x00002c60:    2009        .       MOVS     r0,#9
        0x00002c62:    0200        ..      LSLS     r0,r0,#8
        0x00002c64:    1821        !.      ADDS     r1,r4,r0
        0x00002c66:    486e        nH      LDR      r0,[pc,#440] ; [0x2e20] = 0x200013fa
        0x00002c68:    f7fdfe9a    ....    BL       SPI_Flash_Write_Page ; 0x9a0
        0x00002c6c:    22ff        ."      MOVS     r2,#0xff
        0x00002c6e:    3201        .2      ADDS     r2,#1
        0x00002c70:    2005        .       MOVS     r0,#5
        0x00002c72:    0240        @.      LSLS     r0,r0,#9
        0x00002c74:    1821        !.      ADDS     r1,r4,r0
        0x00002c76:    486b        kH      LDR      r0,[pc,#428] ; [0x2e24] = 0x200014fa
        0x00002c78:    f7fdfe92    ....    BL       SPI_Flash_Write_Page ; 0x9a0
        0x00002c7c:    22ff        ."      MOVS     r2,#0xff
        0x00002c7e:    3201        .2      ADDS     r2,#1
        0x00002c80:    200b        .       MOVS     r0,#0xb
        0x00002c82:    0200        ..      LSLS     r0,r0,#8
        0x00002c84:    1821        !.      ADDS     r1,r4,r0
        0x00002c86:    4868        hH      LDR      r0,[pc,#416] ; [0x2e28] = 0x200015fa
        0x00002c88:    f7fdfe8a    ....    BL       SPI_Flash_Write_Page ; 0x9a0
        0x00002c8c:    22ff        ."      MOVS     r2,#0xff
        0x00002c8e:    3201        .2      ADDS     r2,#1
        0x00002c90:    2003        .       MOVS     r0,#3
        0x00002c92:    0280        ..      LSLS     r0,r0,#10
        0x00002c94:    1821        !.      ADDS     r1,r4,r0
        0x00002c96:    4865        eH      LDR      r0,[pc,#404] ; [0x2e2c] = 0x200016fa
        0x00002c98:    f7fdfe82    ....    BL       SPI_Flash_Write_Page ; 0x9a0
        0x00002c9c:    22ff        ."      MOVS     r2,#0xff
        0x00002c9e:    3201        .2      ADDS     r2,#1
        0x00002ca0:    200d        .       MOVS     r0,#0xd
        0x00002ca2:    0200        ..      LSLS     r0,r0,#8
        0x00002ca4:    1821        !.      ADDS     r1,r4,r0
        0x00002ca6:    4862        bH      LDR      r0,[pc,#392] ; [0x2e30] = 0x200017fa
        0x00002ca8:    f7fdfe7a    ..z.    BL       SPI_Flash_Write_Page ; 0x9a0
        0x00002cac:    22ff        ."      MOVS     r2,#0xff
        0x00002cae:    3201        .2      ADDS     r2,#1
        0x00002cb0:    2007        .       MOVS     r0,#7
        0x00002cb2:    0240        @.      LSLS     r0,r0,#9
        0x00002cb4:    1821        !.      ADDS     r1,r4,r0
        0x00002cb6:    485f        _H      LDR      r0,[pc,#380] ; [0x2e34] = 0x200018fa
        0x00002cb8:    f7fdfe72    ..r.    BL       SPI_Flash_Write_Page ; 0x9a0
        0x00002cbc:    22ff        ."      MOVS     r2,#0xff
        0x00002cbe:    3201        .2      ADDS     r2,#1
        0x00002cc0:    200f        .       MOVS     r0,#0xf
        0x00002cc2:    0200        ..      LSLS     r0,r0,#8
        0x00002cc4:    1821        !.      ADDS     r1,r4,r0
        0x00002cc6:    485c        \H      LDR      r0,[pc,#368] ; [0x2e38] = 0x200019fa
        0x00002cc8:    f7fdfe6a    ..j.    BL       SPI_Flash_Write_Page ; 0x9a0
        0x00002ccc:    22ff        ."      MOVS     r2,#0xff
        0x00002cce:    3201        .2      ADDS     r2,#1
        0x00002cd0:    0110        ..      LSLS     r0,r2,#4
        0x00002cd2:    1821        !.      ADDS     r1,r4,r0
        0x00002cd4:    4859        YH      LDR      r0,[pc,#356] ; [0x2e3c] = 0x20001afa
        0x00002cd6:    f7fdfe63    ..c.    BL       SPI_Flash_Write_Page ; 0x9a0
        0x00002cda:    22ff        ."      MOVS     r2,#0xff
        0x00002cdc:    3201        .2      ADDS     r2,#1
        0x00002cde:    2011        .       MOVS     r0,#0x11
        0x00002ce0:    0200        ..      LSLS     r0,r0,#8
        0x00002ce2:    1821        !.      ADDS     r1,r4,r0
        0x00002ce4:    4856        VH      LDR      r0,[pc,#344] ; [0x2e40] = 0x20001bfa
        0x00002ce6:    f7fdfe5b    ..[.    BL       SPI_Flash_Write_Page ; 0x9a0
        0x00002cea:    22ff        ."      MOVS     r2,#0xff
        0x00002cec:    3201        .2      ADDS     r2,#1
        0x00002cee:    2009        .       MOVS     r0,#9
        0x00002cf0:    0240        @.      LSLS     r0,r0,#9
        0x00002cf2:    1821        !.      ADDS     r1,r4,r0
        0x00002cf4:    4853        SH      LDR      r0,[pc,#332] ; [0x2e44] = 0x20001cfa
        0x00002cf6:    f7fdfe53    ..S.    BL       SPI_Flash_Write_Page ; 0x9a0
        0x00002cfa:    22ff        ."      MOVS     r2,#0xff
        0x00002cfc:    3201        .2      ADDS     r2,#1
        0x00002cfe:    2013        .       MOVS     r0,#0x13
        0x00002d00:    0200        ..      LSLS     r0,r0,#8
        0x00002d02:    1821        !.      ADDS     r1,r4,r0
        0x00002d04:    4850        PH      LDR      r0,[pc,#320] ; [0x2e48] = 0x20001dfa
        0x00002d06:    f7fdfe4b    ..K.    BL       SPI_Flash_Write_Page ; 0x9a0
        0x00002d0a:    22ff        ."      MOVS     r2,#0xff
        0x00002d0c:    3201        .2      ADDS     r2,#1
        0x00002d0e:    2005        .       MOVS     r0,#5
        0x00002d10:    0280        ..      LSLS     r0,r0,#10
        0x00002d12:    1821        !.      ADDS     r1,r4,r0
        0x00002d14:    4849        IH      LDR      r0,[pc,#292] ; [0x2e3c] = 0x20001afa
        0x00002d16:    f7fdfe43    ..C.    BL       SPI_Flash_Write_Page ; 0x9a0
        0x00002d1a:    22ff        ."      MOVS     r2,#0xff
        0x00002d1c:    3201        .2      ADDS     r2,#1
        0x00002d1e:    2015        .       MOVS     r0,#0x15
        0x00002d20:    0200        ..      LSLS     r0,r0,#8
        0x00002d22:    1821        !.      ADDS     r1,r4,r0
        0x00002d24:    4846        FH      LDR      r0,[pc,#280] ; [0x2e40] = 0x20001bfa
        0x00002d26:    f7fdfe3b    ..;.    BL       SPI_Flash_Write_Page ; 0x9a0
        0x00002d2a:    22ff        ."      MOVS     r2,#0xff
        0x00002d2c:    3201        .2      ADDS     r2,#1
        0x00002d2e:    200b        .       MOVS     r0,#0xb
        0x00002d30:    0240        @.      LSLS     r0,r0,#9
        0x00002d32:    1821        !.      ADDS     r1,r4,r0
        0x00002d34:    4843        CH      LDR      r0,[pc,#268] ; [0x2e44] = 0x20001cfa
        0x00002d36:    f7fdfe33    ..3.    BL       SPI_Flash_Write_Page ; 0x9a0
        0x00002d3a:    22ff        ."      MOVS     r2,#0xff
        0x00002d3c:    3201        .2      ADDS     r2,#1
        0x00002d3e:    2017        .       MOVS     r0,#0x17
        0x00002d40:    0200        ..      LSLS     r0,r0,#8
        0x00002d42:    1821        !.      ADDS     r1,r4,r0
        0x00002d44:    4840        @H      LDR      r0,[pc,#256] ; [0x2e48] = 0x20001dfa
        0x00002d46:    f7fdfe2b    ..+.    BL       SPI_Flash_Write_Page ; 0x9a0
        0x00002d4a:    22ff        ."      MOVS     r2,#0xff
        0x00002d4c:    3201        .2      ADDS     r2,#1
        0x00002d4e:    2003        .       MOVS     r0,#3
        0x00002d50:    02c0        ..      LSLS     r0,r0,#11
        0x00002d52:    1821        !.      ADDS     r1,r4,r0
        0x00002d54:    483d        =H      LDR      r0,[pc,#244] ; [0x2e4c] = 0x20001efa
        0x00002d56:    f7fdfe23    ..#.    BL       SPI_Flash_Write_Page ; 0x9a0
        0x00002d5a:    22ff        ."      MOVS     r2,#0xff
        0x00002d5c:    3201        .2      ADDS     r2,#1
        0x00002d5e:    2019        .       MOVS     r0,#0x19
        0x00002d60:    0200        ..      LSLS     r0,r0,#8
        0x00002d62:    1821        !.      ADDS     r1,r4,r0
        0x00002d64:    483a        :H      LDR      r0,[pc,#232] ; [0x2e50] = 0x20001ffa
        0x00002d66:    f7fdfe1b    ....    BL       SPI_Flash_Write_Page ; 0x9a0
        0x00002d6a:    22ff        ."      MOVS     r2,#0xff
        0x00002d6c:    3201        .2      ADDS     r2,#1
        0x00002d6e:    200d        .       MOVS     r0,#0xd
        0x00002d70:    0240        @.      LSLS     r0,r0,#9
        0x00002d72:    1821        !.      ADDS     r1,r4,r0
        0x00002d74:    4837        7H      LDR      r0,[pc,#220] ; [0x2e54] = 0x200020fa
        0x00002d76:    f7fdfe13    ....    BL       SPI_Flash_Write_Page ; 0x9a0
        0x00002d7a:    22ff        ."      MOVS     r2,#0xff
        0x00002d7c:    3201        .2      ADDS     r2,#1
        0x00002d7e:    201b        .       MOVS     r0,#0x1b
        0x00002d80:    0200        ..      LSLS     r0,r0,#8
        0x00002d82:    1821        !.      ADDS     r1,r4,r0
        0x00002d84:    4834        4H      LDR      r0,[pc,#208] ; [0x2e58] = 0x200021fa
        0x00002d86:    f7fdfe0b    ....    BL       SPI_Flash_Write_Page ; 0x9a0
        0x00002d8a:    22ff        ."      MOVS     r2,#0xff
        0x00002d8c:    3201        .2      ADDS     r2,#1
        0x00002d8e:    2007        .       MOVS     r0,#7
        0x00002d90:    0280        ..      LSLS     r0,r0,#10
        0x00002d92:    1821        !.      ADDS     r1,r4,r0
        0x00002d94:    481d        .H      LDR      r0,[pc,#116] ; [0x2e0c] = 0x200006fa
        0x00002d96:    f7fdfe03    ....    BL       SPI_Flash_Write_Page ; 0x9a0
        0x00002d9a:    22ff        ."      MOVS     r2,#0xff
        0x00002d9c:    3201        .2      ADDS     r2,#1
        0x00002d9e:    201d        .       MOVS     r0,#0x1d
        0x00002da0:    0200        ..      LSLS     r0,r0,#8
        0x00002da2:    1821        !.      ADDS     r1,r4,r0
        0x00002da4:    481a        .H      LDR      r0,[pc,#104] ; [0x2e10] = 0x200007fa
        0x00002da6:    f7fdfdfb    ....    BL       SPI_Flash_Write_Page ; 0x9a0
        0x00002daa:    22ff        ."      MOVS     r2,#0xff
        0x00002dac:    3201        .2      ADDS     r2,#1
        0x00002dae:    200f        .       MOVS     r0,#0xf
        0x00002db0:    0240        @.      LSLS     r0,r0,#9
        0x00002db2:    1821        !.      ADDS     r1,r4,r0
        0x00002db4:    4817        .H      LDR      r0,[pc,#92] ; [0x2e14] = 0x200008fa
        0x00002db6:    f7fdfdf3    ....    BL       SPI_Flash_Write_Page ; 0x9a0
        0x00002dba:    22ff        ."      MOVS     r2,#0xff
        0x00002dbc:    3201        .2      ADDS     r2,#1
        0x00002dbe:    201f        .       MOVS     r0,#0x1f
        0x00002dc0:    0200        ..      LSLS     r0,r0,#8
        0x00002dc2:    1821        !.      ADDS     r1,r4,r0
        0x00002dc4:    4814        .H      LDR      r0,[pc,#80] ; [0x2e18] = 0x200009fa
        0x00002dc6:    f7fdfdeb    ....    BL       SPI_Flash_Write_Page ; 0x9a0
        0x00002dca:    22ff        ."      MOVS     r2,#0xff
        0x00002dcc:    3201        .2      ADDS     r2,#1
        0x00002dce:    0150        P.      LSLS     r0,r2,#5
        0x00002dd0:    1821        !.      ADDS     r1,r4,r0
        0x00002dd2:    4822        "H      LDR      r0,[pc,#136] ; [0x2e5c] = 0x20000afa
        0x00002dd4:    f7fdfde4    ....    BL       SPI_Flash_Write_Page ; 0x9a0
        0x00002dd8:    22ff        ."      MOVS     r2,#0xff
        0x00002dda:    3201        .2      ADDS     r2,#1
        0x00002ddc:    2021        !       MOVS     r0,#0x21
        0x00002dde:    0200        ..      LSLS     r0,r0,#8
        0x00002de0:    1821        !.      ADDS     r1,r4,r0
        0x00002de2:    481f        .H      LDR      r0,[pc,#124] ; [0x2e60] = 0x20000bfa
        0x00002de4:    f7fdfddc    ....    BL       SPI_Flash_Write_Page ; 0x9a0
        0x00002de8:    22ff        ."      MOVS     r2,#0xff
        0x00002dea:    3201        .2      ADDS     r2,#1
        0x00002dec:    2011        .       MOVS     r0,#0x11
        0x00002dee:    0240        @.      LSLS     r0,r0,#9
        0x00002df0:    1821        !.      ADDS     r1,r4,r0
        0x00002df2:    481c        .H      LDR      r0,[pc,#112] ; [0x2e64] = 0x20000cfa
        0x00002df4:    f7fdfdd4    ....    BL       SPI_Flash_Write_Page ; 0x9a0
        0x00002df8:    22ff        ."      MOVS     r2,#0xff
        0x00002dfa:    3201        .2      ADDS     r2,#1
        0x00002dfc:    2023        #       MOVS     r0,#0x23
        0x00002dfe:    0200        ..      LSLS     r0,r0,#8
        0x00002e00:    1821        !.      ADDS     r1,r4,r0
        0x00002e02:    4819        .H      LDR      r0,[pc,#100] ; [0x2e68] = 0x20000dfa
        0x00002e04:    f7fdfdcc    ....    BL       SPI_Flash_Write_Page ; 0x9a0
        0x00002e08:    bd10        ..      POP      {r4,pc}
    $d
        0x00002e0a:    0000        ..      DCW    0
        0x00002e0c:    200006fa    ...     DCD    536872698
        0x00002e10:    200007fa    ...     DCD    536872954
        0x00002e14:    200008fa    ...     DCD    536873210
        0x00002e18:    200009fa    ...     DCD    536873466
        0x00002e1c:    200012fa    ...     DCD    536875770
        0x00002e20:    200013fa    ...     DCD    536876026
        0x00002e24:    200014fa    ...     DCD    536876282
        0x00002e28:    200015fa    ...     DCD    536876538
        0x00002e2c:    200016fa    ...     DCD    536876794
        0x00002e30:    200017fa    ...     DCD    536877050
        0x00002e34:    200018fa    ...     DCD    536877306
        0x00002e38:    200019fa    ...     DCD    536877562
        0x00002e3c:    20001afa    ...     DCD    536877818
        0x00002e40:    20001bfa    ...     DCD    536878074
        0x00002e44:    20001cfa    ...     DCD    536878330
        0x00002e48:    20001dfa    ...     DCD    536878586
        0x00002e4c:    20001efa    ...     DCD    536878842
        0x00002e50:    20001ffa    ...     DCD    536879098
        0x00002e54:    200020fa    . .     DCD    536879354
        0x00002e58:    200021fa    .!.     DCD    536879610
        0x00002e5c:    20000afa    ...     DCD    536873722
        0x00002e60:    20000bfa    ...     DCD    536873978
        0x00002e64:    20000cfa    ...     DCD    536874234
        0x00002e68:    20000dfa    ...     DCD    536874490
    $t
    i.myBulletsMapCreate
    myBulletsMapCreate
        0x00002e6c:    b570        p.      PUSH     {r4-r6,lr}
        0x00002e6e:    4605        .F      MOV      r5,r0
        0x00002e70:    460e        .F      MOV      r6,r1
        0x00002e72:    2000        .       MOVS     r0,#0
        0x00002e74:    e003        ..      B        0x2e7e ; myBulletsMapCreate + 18
        0x00002e76:    2100        .!      MOVS     r1,#0
        0x00002e78:    0082        ..      LSLS     r2,r0,#2
        0x00002e7a:    50b1        .P      STR      r1,[r6,r2]
        0x00002e7c:    1c40        @.      ADDS     r0,r0,#1
        0x00002e7e:    281e        .(      CMP      r0,#0x1e
        0x00002e80:    dbf9        ..      BLT      0x2e76 ; myBulletsMapCreate + 10
        0x00002e82:    2400        .$      MOVS     r4,#0
        0x00002e84:    e012        ..      B        0x2eac ; myBulletsMapCreate + 64
        0x00002e86:    200a        .       MOVS     r0,#0xa
        0x00002e88:    4360        `C      MULS     r0,r4,r0
        0x00002e8a:    1940        @.      ADDS     r0,r0,r5
        0x00002e8c:    7900        .y      LDRB     r0,[r0,#4]
        0x00002e8e:    2800        .(      CMP      r0,#0
        0x00002e90:    d00b        ..      BEQ      0x2eaa ; myBulletsMapCreate + 62
        0x00002e92:    220a        ."      MOVS     r2,#0xa
        0x00002e94:    4362        bC      MULS     r2,r4,r2
        0x00002e96:    1952        R.      ADDS     r2,r2,r5
        0x00002e98:    8852        R.      LDRH     r2,[r2,#2]
        0x00002e9a:    b2d1        ..      UXTB     r1,r2
        0x00002e9c:    220a        ."      MOVS     r2,#0xa
        0x00002e9e:    4362        bC      MULS     r2,r4,r2
        0x00002ea0:    5aaa        .Z      LDRH     r2,[r5,r2]
        0x00002ea2:    b2d0        ..      UXTB     r0,r2
        0x00002ea4:    4632        2F      MOV      r2,r6
        0x00002ea6:    f002fa35    ..5.    BL       tileMap ; 0x5314
        0x00002eaa:    1c64        d.      ADDS     r4,r4,#1
        0x00002eac:    4802        .H      LDR      r0,[pc,#8] ; [0x2eb8] = 0x5538
        0x00002eae:    7800        .x      LDRB     r0,[r0,#0]
        0x00002eb0:    4284        .B      CMP      r4,r0
        0x00002eb2:    dbe8        ..      BLT      0x2e86 ; myBulletsMapCreate + 26
        0x00002eb4:    bd70        p.      POP      {r4-r6,pc}
    $d
        0x00002eb6:    0000        ..      DCW    0
        0x00002eb8:    00005538    8U..    DCD    21816
    $t
    i.myPlane_Act
    myPlane_Act
        0x00002ebc:    b570        p.      PUSH     {r4-r6,lr}
        0x00002ebe:    4604        .F      MOV      r4,r0
        0x00002ec0:    460d        .F      MOV      r5,r1
        0x00002ec2:    79e0        .y      LDRB     r0,[r4,#7]
        0x00002ec4:    2800        .(      CMP      r0,#0
        0x00002ec6:    d10d        ..      BNE      0x2ee4 ; myPlane_Act + 40
        0x00002ec8:    7828        (x      LDRB     r0,[r5,#0]
        0x00002eca:    2801        .(      CMP      r0,#1
        0x00002ecc:    d12f        /.      BNE      0x2f2e ; myPlane_Act + 114
        0x00002ece:    71e0        .q      STRB     r0,[r4,#7]
        0x00002ed0:    2000        .       MOVS     r0,#0
        0x00002ed2:    7220         r      STRB     r0,[r4,#8]
        0x00002ed4:    2001        .       MOVS     r0,#1
        0x00002ed6:    7260        `r      STRB     r0,[r4,#9]
        0x00002ed8:    2000        .       MOVS     r0,#0
        0x00002eda:    7028        (p      STRB     r0,[r5,#0]
        0x00002edc:    2003        .       MOVS     r0,#3
        0x00002ede:    f7fdfc11    ....    BL       LED_toggle ; 0x704
        0x00002ee2:    e024        $.      B        0x2f2e ; myPlane_Act + 114
        0x00002ee4:    7a20         z      LDRB     r0,[r4,#8]
        0x00002ee6:    2805        .(      CMP      r0,#5
        0x00002ee8:    d002        ..      BEQ      0x2ef0 ; myPlane_Act + 52
        0x00002eea:    7a20         z      LDRB     r0,[r4,#8]
        0x00002eec:    280a        .(      CMP      r0,#0xa
        0x00002eee:    d10b        ..      BNE      0x2f08 ; myPlane_Act + 76
        0x00002ef0:    7a60        `z      LDRB     r0,[r4,#9]
        0x00002ef2:    2804        .(      CMP      r0,#4
        0x00002ef4:    dc04        ..      BGT      0x2f00 ; myPlane_Act + 68
        0x00002ef6:    8860        `.      LDRH     r0,[r4,#2]
        0x00002ef8:    1ec0        ..      SUBS     r0,r0,#3
        0x00002efa:    b200        ..      SXTH     r0,r0
        0x00002efc:    8060        `.      STRH     r0,[r4,#2]
        0x00002efe:    e003        ..      B        0x2f08 ; myPlane_Act + 76
        0x00002f00:    8860        `.      LDRH     r0,[r4,#2]
        0x00002f02:    1cc0        ..      ADDS     r0,r0,#3
        0x00002f04:    b200        ..      SXTH     r0,r0
        0x00002f06:    8060        `.      STRH     r0,[r4,#2]
        0x00002f08:    7a20         z      LDRB     r0,[r4,#8]
        0x00002f0a:    280a        .(      CMP      r0,#0xa
        0x00002f0c:    db0c        ..      BLT      0x2f28 ; myPlane_Act + 108
        0x00002f0e:    2000        .       MOVS     r0,#0
        0x00002f10:    7220         r      STRB     r0,[r4,#8]
        0x00002f12:    7a60        `z      LDRB     r0,[r4,#9]
        0x00002f14:    2807        .(      CMP      r0,#7
        0x00002f16:    db03        ..      BLT      0x2f20 ; myPlane_Act + 100
        0x00002f18:    2000        .       MOVS     r0,#0
        0x00002f1a:    71e0        .q      STRB     r0,[r4,#7]
        0x00002f1c:    7260        `r      STRB     r0,[r4,#9]
        0x00002f1e:    e006        ..      B        0x2f2e ; myPlane_Act + 114
        0x00002f20:    7a60        `z      LDRB     r0,[r4,#9]
        0x00002f22:    1c40        @.      ADDS     r0,r0,#1
        0x00002f24:    7260        `r      STRB     r0,[r4,#9]
        0x00002f26:    e002        ..      B        0x2f2e ; myPlane_Act + 114
        0x00002f28:    7a20         z      LDRB     r0,[r4,#8]
        0x00002f2a:    1c40        @.      ADDS     r0,r0,#1
        0x00002f2c:    7220         r      STRB     r0,[r4,#8]
        0x00002f2e:    bd70        p.      POP      {r4-r6,pc}
    i.myPlane_Draw
    myPlane_Draw
        0x00002f30:    b503        ..      PUSH     {r0,r1,lr}
        0x00002f32:    b087        ..      SUB      sp,sp,#0x1c
        0x00002f34:    9808        ..      LDR      r0,[sp,#0x20]
        0x00002f36:    7800        .x      LDRB     r0,[r0,#0]
        0x00002f38:    9006        ..      STR      r0,[sp,#0x18]
        0x00002f3a:    9807        ..      LDR      r0,[sp,#0x1c]
        0x00002f3c:    7900        .y      LDRB     r0,[r0,#4]
        0x00002f3e:    2800        .(      CMP      r0,#0
        0x00002f40:    d070        p.      BEQ      0x3024 ; myPlane_Draw + 244
        0x00002f42:    9807        ..      LDR      r0,[sp,#0x1c]
        0x00002f44:    7a40        @z      LDRB     r0,[r0,#9]
        0x00002f46:    0003        ..      MOVS     r3,r0
        0x00002f48:    f7fdfdfc    ....    BL       __ARM_common_switch8 ; 0xb44
    $d
        0x00002f4c:    d46d0508    ..m.    DCD    3563914504
        0x00002f50:    fafbfcfd    ....    DCD    4210818301
        0x00002f54:    f8f9        ..      DCW    63737
    $t
        0x00002f56:    2005        .       MOVS     r0,#5
        0x00002f58:    9005        ..      STR      r0,[sp,#0x14]
        0x00002f5a:    2030        0       MOVS     r0,#0x30
        0x00002f5c:    9000        ..      STR      r0,[sp,#0]
        0x00002f5e:    9807        ..      LDR      r0,[sp,#0x1c]
        0x00002f60:    8840        @.      LDRH     r0,[r0,#2]
        0x00002f62:    b2c0        ..      UXTB     r0,r0
        0x00002f64:    9004        ..      STR      r0,[sp,#0x10]
        0x00002f66:    9807        ..      LDR      r0,[sp,#0x1c]
        0x00002f68:    8800        ..      LDRH     r0,[r0,#0]
        0x00002f6a:    b2c0        ..      UXTB     r0,r0
        0x00002f6c:    9003        ..      STR      r0,[sp,#0xc]
        0x00002f6e:    9806        ..      LDR      r0,[sp,#0x18]
        0x00002f70:    b2c0        ..      UXTB     r0,r0
        0x00002f72:    2333        3#      MOVS     r3,#0x33
        0x00002f74:    9002        ..      STR      r0,[sp,#8]
        0x00002f76:    9a04        ..      LDR      r2,[sp,#0x10]
        0x00002f78:    9903        ..      LDR      r1,[sp,#0xc]
        0x00002f7a:    f002facb    ....    BL       writeOneSprite ; 0x5514
        0x00002f7e:    2030        0       MOVS     r0,#0x30
        0x00002f80:    9000        ..      STR      r0,[sp,#0]
        0x00002f82:    9807        ..      LDR      r0,[sp,#0x1c]
        0x00002f84:    8840        @.      LDRH     r0,[r0,#2]
        0x00002f86:    b2c0        ..      UXTB     r0,r0
        0x00002f88:    9004        ..      STR      r0,[sp,#0x10]
        0x00002f8a:    9807        ..      LDR      r0,[sp,#0x1c]
        0x00002f8c:    8800        ..      LDRH     r0,[r0,#0]
        0x00002f8e:    3008        .0      ADDS     r0,r0,#8
        0x00002f90:    b2c0        ..      UXTB     r0,r0
        0x00002f92:    9003        ..      STR      r0,[sp,#0xc]
        0x00002f94:    9806        ..      LDR      r0,[sp,#0x18]
        0x00002f96:    1c40        @.      ADDS     r0,r0,#1
        0x00002f98:    b2c0        ..      UXTB     r0,r0
        0x00002f9a:    2334        4#      MOVS     r3,#0x34
        0x00002f9c:    9002        ..      STR      r0,[sp,#8]
        0x00002f9e:    9a04        ..      LDR      r2,[sp,#0x10]
        0x00002fa0:    9903        ..      LDR      r1,[sp,#0xc]
        0x00002fa2:    f002fab7    ....    BL       writeOneSprite ; 0x5514
        0x00002fa6:    2070        p       MOVS     r0,#0x70
        0x00002fa8:    9000        ..      STR      r0,[sp,#0]
        0x00002faa:    9807        ..      LDR      r0,[sp,#0x1c]
        0x00002fac:    8840        @.      LDRH     r0,[r0,#2]
        0x00002fae:    b2c0        ..      UXTB     r0,r0
        0x00002fb0:    9004        ..      STR      r0,[sp,#0x10]
        0x00002fb2:    9807        ..      LDR      r0,[sp,#0x1c]
        0x00002fb4:    8800        ..      LDRH     r0,[r0,#0]
        0x00002fb6:    3010        .0      ADDS     r0,r0,#0x10
        0x00002fb8:    b2c0        ..      UXTB     r0,r0
        0x00002fba:    9003        ..      STR      r0,[sp,#0xc]
        0x00002fbc:    9806        ..      LDR      r0,[sp,#0x18]
        0x00002fbe:    1c80        ..      ADDS     r0,r0,#2
        0x00002fc0:    b2c0        ..      UXTB     r0,r0
        0x00002fc2:    2333        3#      MOVS     r3,#0x33
        0x00002fc4:    9002        ..      STR      r0,[sp,#8]
        0x00002fc6:    9a04        ..      LDR      r2,[sp,#0x10]
        0x00002fc8:    9903        ..      LDR      r1,[sp,#0xc]
        0x00002fca:    f002faa3    ....    BL       writeOneSprite ; 0x5514
        0x00002fce:    2030        0       MOVS     r0,#0x30
        0x00002fd0:    9000        ..      STR      r0,[sp,#0]
        0x00002fd2:    9807        ..      LDR      r0,[sp,#0x1c]
        0x00002fd4:    8840        @.      LDRH     r0,[r0,#2]
        0x00002fd6:    1dc0        ..      ADDS     r0,r0,#7
        0x00002fd8:    b2c0        ..      UXTB     r0,r0
        0x00002fda:    9004        ..      STR      r0,[sp,#0x10]
        0x00002fdc:    9807        ..      LDR      r0,[sp,#0x1c]
        0x00002fde:    8800        ..      LDRH     r0,[r0,#0]
        0x00002fe0:    1d00        ..      ADDS     r0,r0,#4
        0x00002fe2:    b2c0        ..      UXTB     r0,r0
        0x00002fe4:    9003        ..      STR      r0,[sp,#0xc]
        0x00002fe6:    9806        ..      LDR      r0,[sp,#0x18]
        0x00002fe8:    1cc0        ..      ADDS     r0,r0,#3
        0x00002fea:    b2c0        ..      UXTB     r0,r0
        0x00002fec:    2335        5#      MOVS     r3,#0x35
        0x00002fee:    9002        ..      STR      r0,[sp,#8]
        0x00002ff0:    9a04        ..      LDR      r2,[sp,#0x10]
        0x00002ff2:    9903        ..      LDR      r1,[sp,#0xc]
        0x00002ff4:    f002fa8e    ....    BL       writeOneSprite ; 0x5514
        0x00002ff8:    2030        0       MOVS     r0,#0x30
        0x00002ffa:    9000        ..      STR      r0,[sp,#0]
        0x00002ffc:    9807        ..      LDR      r0,[sp,#0x1c]
        0x00002ffe:    8840        @.      LDRH     r0,[r0,#2]
        0x00003000:    1dc0        ..      ADDS     r0,r0,#7
        0x00003002:    b2c0        ..      UXTB     r0,r0
        0x00003004:    9004        ..      STR      r0,[sp,#0x10]
        0x00003006:    9807        ..      LDR      r0,[sp,#0x1c]
        0x00003008:    8800        ..      LDRH     r0,[r0,#0]
        0x0000300a:    300c        .0      ADDS     r0,r0,#0xc
        0x0000300c:    b2c0        ..      UXTB     r0,r0
        0x0000300e:    9003        ..      STR      r0,[sp,#0xc]
        0x00003010:    9806        ..      LDR      r0,[sp,#0x18]
        0x00003012:    1d00        ..      ADDS     r0,r0,#4
        0x00003014:    b2c0        ..      UXTB     r0,r0
        0x00003016:    2336        6#      MOVS     r3,#0x36
        0x00003018:    9002        ..      STR      r0,[sp,#8]
        0x0000301a:    9a04        ..      LDR      r2,[sp,#0x10]
        0x0000301c:    9903        ..      LDR      r1,[sp,#0xc]
        0x0000301e:    f002fa79    ..y.    BL       writeOneSprite ; 0x5514
        0x00003022:    e29a        ..      B        0x355a ; myPlane_Draw + 1578
        0x00003024:    e2a1        ..      B        0x356a ; myPlane_Draw + 1594
        0x00003026:    2005        .       MOVS     r0,#5
        0x00003028:    9005        ..      STR      r0,[sp,#0x14]
        0x0000302a:    2030        0       MOVS     r0,#0x30
        0x0000302c:    9000        ..      STR      r0,[sp,#0]
        0x0000302e:    9807        ..      LDR      r0,[sp,#0x1c]
        0x00003030:    8840        @.      LDRH     r0,[r0,#2]
        0x00003032:    b2c0        ..      UXTB     r0,r0
        0x00003034:    9004        ..      STR      r0,[sp,#0x10]
        0x00003036:    9807        ..      LDR      r0,[sp,#0x1c]
        0x00003038:    8800        ..      LDRH     r0,[r0,#0]
        0x0000303a:    b2c0        ..      UXTB     r0,r0
        0x0000303c:    9003        ..      STR      r0,[sp,#0xc]
        0x0000303e:    9806        ..      LDR      r0,[sp,#0x18]
        0x00003040:    b2c0        ..      UXTB     r0,r0
        0x00003042:    2337        7#      MOVS     r3,#0x37
        0x00003044:    9002        ..      STR      r0,[sp,#8]
        0x00003046:    9a04        ..      LDR      r2,[sp,#0x10]
        0x00003048:    9903        ..      LDR      r1,[sp,#0xc]
        0x0000304a:    f002fa63    ..c.    BL       writeOneSprite ; 0x5514
        0x0000304e:    2030        0       MOVS     r0,#0x30
        0x00003050:    9000        ..      STR      r0,[sp,#0]
        0x00003052:    9807        ..      LDR      r0,[sp,#0x1c]
        0x00003054:    8840        @.      LDRH     r0,[r0,#2]
        0x00003056:    b2c0        ..      UXTB     r0,r0
        0x00003058:    9004        ..      STR      r0,[sp,#0x10]
        0x0000305a:    9807        ..      LDR      r0,[sp,#0x1c]
        0x0000305c:    8800        ..      LDRH     r0,[r0,#0]
        0x0000305e:    3008        .0      ADDS     r0,r0,#8
        0x00003060:    b2c0        ..      UXTB     r0,r0
        0x00003062:    9003        ..      STR      r0,[sp,#0xc]
        0x00003064:    9806        ..      LDR      r0,[sp,#0x18]
        0x00003066:    1c40        @.      ADDS     r0,r0,#1
        0x00003068:    b2c0        ..      UXTB     r0,r0
        0x0000306a:    2338        8#      MOVS     r3,#0x38
        0x0000306c:    9002        ..      STR      r0,[sp,#8]
        0x0000306e:    9a04        ..      LDR      r2,[sp,#0x10]
        0x00003070:    9903        ..      LDR      r1,[sp,#0xc]
        0x00003072:    f002fa4f    ..O.    BL       writeOneSprite ; 0x5514
        0x00003076:    2070        p       MOVS     r0,#0x70
        0x00003078:    9000        ..      STR      r0,[sp,#0]
        0x0000307a:    9807        ..      LDR      r0,[sp,#0x1c]
        0x0000307c:    8840        @.      LDRH     r0,[r0,#2]
        0x0000307e:    b2c0        ..      UXTB     r0,r0
        0x00003080:    9004        ..      STR      r0,[sp,#0x10]
        0x00003082:    9807        ..      LDR      r0,[sp,#0x1c]
        0x00003084:    8800        ..      LDRH     r0,[r0,#0]
        0x00003086:    3010        .0      ADDS     r0,r0,#0x10
        0x00003088:    b2c0        ..      UXTB     r0,r0
        0x0000308a:    9003        ..      STR      r0,[sp,#0xc]
        0x0000308c:    9806        ..      LDR      r0,[sp,#0x18]
        0x0000308e:    1c80        ..      ADDS     r0,r0,#2
        0x00003090:    b2c0        ..      UXTB     r0,r0
        0x00003092:    2337        7#      MOVS     r3,#0x37
        0x00003094:    9002        ..      STR      r0,[sp,#8]
        0x00003096:    9a04        ..      LDR      r2,[sp,#0x10]
        0x00003098:    9903        ..      LDR      r1,[sp,#0xc]
        0x0000309a:    f002fa3b    ..;.    BL       writeOneSprite ; 0x5514
        0x0000309e:    2030        0       MOVS     r0,#0x30
        0x000030a0:    9000        ..      STR      r0,[sp,#0]
        0x000030a2:    9807        ..      LDR      r0,[sp,#0x1c]
        0x000030a4:    8840        @.      LDRH     r0,[r0,#2]
        0x000030a6:    1dc0        ..      ADDS     r0,r0,#7
        0x000030a8:    b2c0        ..      UXTB     r0,r0
        0x000030aa:    9004        ..      STR      r0,[sp,#0x10]
        0x000030ac:    9807        ..      LDR      r0,[sp,#0x1c]
        0x000030ae:    8800        ..      LDRH     r0,[r0,#0]
        0x000030b0:    1d00        ..      ADDS     r0,r0,#4
        0x000030b2:    b2c0        ..      UXTB     r0,r0
        0x000030b4:    9003        ..      STR      r0,[sp,#0xc]
        0x000030b6:    9806        ..      LDR      r0,[sp,#0x18]
        0x000030b8:    1cc0        ..      ADDS     r0,r0,#3
        0x000030ba:    b2c0        ..      UXTB     r0,r0
        0x000030bc:    2339        9#      MOVS     r3,#0x39
        0x000030be:    9002        ..      STR      r0,[sp,#8]
        0x000030c0:    9a04        ..      LDR      r2,[sp,#0x10]
        0x000030c2:    9903        ..      LDR      r1,[sp,#0xc]
        0x000030c4:    f002fa26    ..&.    BL       writeOneSprite ; 0x5514
        0x000030c8:    2030        0       MOVS     r0,#0x30
        0x000030ca:    9000        ..      STR      r0,[sp,#0]
        0x000030cc:    9807        ..      LDR      r0,[sp,#0x1c]
        0x000030ce:    8840        @.      LDRH     r0,[r0,#2]
        0x000030d0:    1dc0        ..      ADDS     r0,r0,#7
        0x000030d2:    b2c0        ..      UXTB     r0,r0
        0x000030d4:    9004        ..      STR      r0,[sp,#0x10]
        0x000030d6:    9807        ..      LDR      r0,[sp,#0x1c]
        0x000030d8:    8800        ..      LDRH     r0,[r0,#0]
        0x000030da:    300c        .0      ADDS     r0,r0,#0xc
        0x000030dc:    b2c0        ..      UXTB     r0,r0
        0x000030de:    9003        ..      STR      r0,[sp,#0xc]
        0x000030e0:    9806        ..      LDR      r0,[sp,#0x18]
        0x000030e2:    1d00        ..      ADDS     r0,r0,#4
        0x000030e4:    b2c0        ..      UXTB     r0,r0
        0x000030e6:    2339        9#      MOVS     r3,#0x39
        0x000030e8:    9002        ..      STR      r0,[sp,#8]
        0x000030ea:    9a04        ..      LDR      r2,[sp,#0x10]
        0x000030ec:    9903        ..      LDR      r1,[sp,#0xc]
        0x000030ee:    f002fa11    ....    BL       writeOneSprite ; 0x5514
        0x000030f2:    e232        2.      B        0x355a ; myPlane_Draw + 1578
        0x000030f4:    2003        .       MOVS     r0,#3
        0x000030f6:    9005        ..      STR      r0,[sp,#0x14]
        0x000030f8:    2030        0       MOVS     r0,#0x30
        0x000030fa:    9000        ..      STR      r0,[sp,#0]
        0x000030fc:    9807        ..      LDR      r0,[sp,#0x1c]
        0x000030fe:    8840        @.      LDRH     r0,[r0,#2]
        0x00003100:    b2c0        ..      UXTB     r0,r0
        0x00003102:    9004        ..      STR      r0,[sp,#0x10]
        0x00003104:    9807        ..      LDR      r0,[sp,#0x1c]
        0x00003106:    8800        ..      LDRH     r0,[r0,#0]
        0x00003108:    b2c0        ..      UXTB     r0,r0
        0x0000310a:    9003        ..      STR      r0,[sp,#0xc]
        0x0000310c:    9806        ..      LDR      r0,[sp,#0x18]
        0x0000310e:    b2c0        ..      UXTB     r0,r0
        0x00003110:    233a        :#      MOVS     r3,#0x3a
        0x00003112:    9002        ..      STR      r0,[sp,#8]
        0x00003114:    9a04        ..      LDR      r2,[sp,#0x10]
        0x00003116:    9903        ..      LDR      r1,[sp,#0xc]
        0x00003118:    f002f9fc    ....    BL       writeOneSprite ; 0x5514
        0x0000311c:    2030        0       MOVS     r0,#0x30
        0x0000311e:    9000        ..      STR      r0,[sp,#0]
        0x00003120:    9807        ..      LDR      r0,[sp,#0x1c]
        0x00003122:    8840        @.      LDRH     r0,[r0,#2]
        0x00003124:    b2c0        ..      UXTB     r0,r0
        0x00003126:    9004        ..      STR      r0,[sp,#0x10]
        0x00003128:    9807        ..      LDR      r0,[sp,#0x1c]
        0x0000312a:    8800        ..      LDRH     r0,[r0,#0]
        0x0000312c:    3008        .0      ADDS     r0,r0,#8
        0x0000312e:    b2c0        ..      UXTB     r0,r0
        0x00003130:    9003        ..      STR      r0,[sp,#0xc]
        0x00003132:    9806        ..      LDR      r0,[sp,#0x18]
        0x00003134:    1c40        @.      ADDS     r0,r0,#1
        0x00003136:    b2c0        ..      UXTB     r0,r0
        0x00003138:    233b        ;#      MOVS     r3,#0x3b
        0x0000313a:    e005        ..      B        0x3148 ; myPlane_Draw + 536
        0x0000313c:    e20c        ..      B        0x3558 ; myPlane_Draw + 1576
        0x0000313e:    e1a4        ..      B        0x348a ; myPlane_Draw + 1370
        0x00003140:    e166        f.      B        0x3410 ; myPlane_Draw + 1248
        0x00003142:    e0fe        ..      B        0x3342 ; myPlane_Draw + 1042
        0x00003144:    e06c        l.      B        0x3220 ; myPlane_Draw + 752
        0x00003146:    e019        ..      B        0x317c ; myPlane_Draw + 588
        0x00003148:    9002        ..      STR      r0,[sp,#8]
        0x0000314a:    9a04        ..      LDR      r2,[sp,#0x10]
        0x0000314c:    9903        ..      LDR      r1,[sp,#0xc]
        0x0000314e:    f002f9e1    ....    BL       writeOneSprite ; 0x5514
        0x00003152:    2070        p       MOVS     r0,#0x70
        0x00003154:    9000        ..      STR      r0,[sp,#0]
        0x00003156:    9807        ..      LDR      r0,[sp,#0x1c]
        0x00003158:    8840        @.      LDRH     r0,[r0,#2]
        0x0000315a:    b2c0        ..      UXTB     r0,r0
        0x0000315c:    9004        ..      STR      r0,[sp,#0x10]
        0x0000315e:    9807        ..      LDR      r0,[sp,#0x1c]
        0x00003160:    8800        ..      LDRH     r0,[r0,#0]
        0x00003162:    3010        .0      ADDS     r0,r0,#0x10
        0x00003164:    b2c0        ..      UXTB     r0,r0
        0x00003166:    9003        ..      STR      r0,[sp,#0xc]
        0x00003168:    9806        ..      LDR      r0,[sp,#0x18]
        0x0000316a:    1c80        ..      ADDS     r0,r0,#2
        0x0000316c:    b2c0        ..      UXTB     r0,r0
        0x0000316e:    233a        :#      MOVS     r3,#0x3a
        0x00003170:    9002        ..      STR      r0,[sp,#8]
        0x00003172:    9a04        ..      LDR      r2,[sp,#0x10]
        0x00003174:    9903        ..      LDR      r1,[sp,#0xc]
        0x00003176:    f002f9cd    ....    BL       writeOneSprite ; 0x5514
        0x0000317a:    e1ee        ..      B        0x355a ; myPlane_Draw + 1578
        0x0000317c:    2004        .       MOVS     r0,#4
        0x0000317e:    9005        ..      STR      r0,[sp,#0x14]
        0x00003180:    2030        0       MOVS     r0,#0x30
        0x00003182:    9000        ..      STR      r0,[sp,#0]
        0x00003184:    9807        ..      LDR      r0,[sp,#0x1c]
        0x00003186:    8840        @.      LDRH     r0,[r0,#2]
        0x00003188:    b2c0        ..      UXTB     r0,r0
        0x0000318a:    9004        ..      STR      r0,[sp,#0x10]
        0x0000318c:    9807        ..      LDR      r0,[sp,#0x1c]
        0x0000318e:    8800        ..      LDRH     r0,[r0,#0]
        0x00003190:    b2c0        ..      UXTB     r0,r0
        0x00003192:    9003        ..      STR      r0,[sp,#0xc]
        0x00003194:    9806        ..      LDR      r0,[sp,#0x18]
        0x00003196:    b2c0        ..      UXTB     r0,r0
        0x00003198:    233d        =#      MOVS     r3,#0x3d
        0x0000319a:    9002        ..      STR      r0,[sp,#8]
        0x0000319c:    9a04        ..      LDR      r2,[sp,#0x10]
        0x0000319e:    9903        ..      LDR      r1,[sp,#0xc]
        0x000031a0:    f002f9b8    ....    BL       writeOneSprite ; 0x5514
        0x000031a4:    2030        0       MOVS     r0,#0x30
        0x000031a6:    9000        ..      STR      r0,[sp,#0]
        0x000031a8:    9807        ..      LDR      r0,[sp,#0x1c]
        0x000031aa:    8840        @.      LDRH     r0,[r0,#2]
        0x000031ac:    b2c0        ..      UXTB     r0,r0
        0x000031ae:    9004        ..      STR      r0,[sp,#0x10]
        0x000031b0:    9807        ..      LDR      r0,[sp,#0x1c]
        0x000031b2:    8800        ..      LDRH     r0,[r0,#0]
        0x000031b4:    3008        .0      ADDS     r0,r0,#8
        0x000031b6:    b2c0        ..      UXTB     r0,r0
        0x000031b8:    9003        ..      STR      r0,[sp,#0xc]
        0x000031ba:    9806        ..      LDR      r0,[sp,#0x18]
        0x000031bc:    1c40        @.      ADDS     r0,r0,#1
        0x000031be:    b2c0        ..      UXTB     r0,r0
        0x000031c0:    233e        >#      MOVS     r3,#0x3e
        0x000031c2:    9002        ..      STR      r0,[sp,#8]
        0x000031c4:    9a04        ..      LDR      r2,[sp,#0x10]
        0x000031c6:    9903        ..      LDR      r1,[sp,#0xc]
        0x000031c8:    f002f9a4    ....    BL       writeOneSprite ; 0x5514
        0x000031cc:    2070        p       MOVS     r0,#0x70
        0x000031ce:    9000        ..      STR      r0,[sp,#0]
        0x000031d0:    9807        ..      LDR      r0,[sp,#0x1c]
        0x000031d2:    8840        @.      LDRH     r0,[r0,#2]
        0x000031d4:    b2c0        ..      UXTB     r0,r0
        0x000031d6:    9004        ..      STR      r0,[sp,#0x10]
        0x000031d8:    9807        ..      LDR      r0,[sp,#0x1c]
        0x000031da:    8800        ..      LDRH     r0,[r0,#0]
        0x000031dc:    3010        .0      ADDS     r0,r0,#0x10
        0x000031de:    b2c0        ..      UXTB     r0,r0
        0x000031e0:    9003        ..      STR      r0,[sp,#0xc]
        0x000031e2:    9806        ..      LDR      r0,[sp,#0x18]
        0x000031e4:    1c80        ..      ADDS     r0,r0,#2
        0x000031e6:    b2c0        ..      UXTB     r0,r0
        0x000031e8:    233d        =#      MOVS     r3,#0x3d
        0x000031ea:    9002        ..      STR      r0,[sp,#8]
        0x000031ec:    9a04        ..      LDR      r2,[sp,#0x10]
        0x000031ee:    9903        ..      LDR      r1,[sp,#0xc]
        0x000031f0:    f002f990    ....    BL       writeOneSprite ; 0x5514
        0x000031f4:    2070        p       MOVS     r0,#0x70
        0x000031f6:    9000        ..      STR      r0,[sp,#0]
        0x000031f8:    9807        ..      LDR      r0,[sp,#0x1c]
        0x000031fa:    8840        @.      LDRH     r0,[r0,#2]
        0x000031fc:    1fc0        ..      SUBS     r0,r0,#7
        0x000031fe:    b2c0        ..      UXTB     r0,r0
        0x00003200:    9004        ..      STR      r0,[sp,#0x10]
        0x00003202:    9807        ..      LDR      r0,[sp,#0x1c]
        0x00003204:    8800        ..      LDRH     r0,[r0,#0]
        0x00003206:    3008        .0      ADDS     r0,r0,#8
        0x00003208:    b2c0        ..      UXTB     r0,r0
        0x0000320a:    9003        ..      STR      r0,[sp,#0xc]
        0x0000320c:    9806        ..      LDR      r0,[sp,#0x18]
        0x0000320e:    1cc0        ..      ADDS     r0,r0,#3
        0x00003210:    b2c0        ..      UXTB     r0,r0
        0x00003212:    233c        <#      MOVS     r3,#0x3c
        0x00003214:    9002        ..      STR      r0,[sp,#8]
        0x00003216:    9a04        ..      LDR      r2,[sp,#0x10]
        0x00003218:    9903        ..      LDR      r1,[sp,#0xc]
        0x0000321a:    f002f97b    ..{.    BL       writeOneSprite ; 0x5514
        0x0000321e:    e19c        ..      B        0x355a ; myPlane_Draw + 1578
        0x00003220:    2007        .       MOVS     r0,#7
        0x00003222:    9005        ..      STR      r0,[sp,#0x14]
        0x00003224:    2030        0       MOVS     r0,#0x30
        0x00003226:    9000        ..      STR      r0,[sp,#0]
        0x00003228:    9807        ..      LDR      r0,[sp,#0x1c]
        0x0000322a:    8840        @.      LDRH     r0,[r0,#2]
        0x0000322c:    380f        .8      SUBS     r0,r0,#0xf
        0x0000322e:    b2c0        ..      UXTB     r0,r0
        0x00003230:    9004        ..      STR      r0,[sp,#0x10]
        0x00003232:    9807        ..      LDR      r0,[sp,#0x1c]
        0x00003234:    8800        ..      LDRH     r0,[r0,#0]
        0x00003236:    1d00        ..      ADDS     r0,r0,#4
        0x00003238:    b2c0        ..      UXTB     r0,r0
        0x0000323a:    9003        ..      STR      r0,[sp,#0xc]
        0x0000323c:    9806        ..      LDR      r0,[sp,#0x18]
        0x0000323e:    b2c0        ..      UXTB     r0,r0
        0x00003240:    233f        ?#      MOVS     r3,#0x3f
        0x00003242:    9002        ..      STR      r0,[sp,#8]
        0x00003244:    9a04        ..      LDR      r2,[sp,#0x10]
        0x00003246:    9903        ..      LDR      r1,[sp,#0xc]
        0x00003248:    f002f964    ..d.    BL       writeOneSprite ; 0x5514
        0x0000324c:    2030        0       MOVS     r0,#0x30
        0x0000324e:    9000        ..      STR      r0,[sp,#0]
        0x00003250:    9807        ..      LDR      r0,[sp,#0x1c]
        0x00003252:    8840        @.      LDRH     r0,[r0,#2]
        0x00003254:    380f        .8      SUBS     r0,r0,#0xf
        0x00003256:    b2c0        ..      UXTB     r0,r0
        0x00003258:    9004        ..      STR      r0,[sp,#0x10]
        0x0000325a:    9807        ..      LDR      r0,[sp,#0x1c]
        0x0000325c:    8800        ..      LDRH     r0,[r0,#0]
        0x0000325e:    300c        .0      ADDS     r0,r0,#0xc
        0x00003260:    b2c0        ..      UXTB     r0,r0
        0x00003262:    9003        ..      STR      r0,[sp,#0xc]
        0x00003264:    9806        ..      LDR      r0,[sp,#0x18]
        0x00003266:    1c40        @.      ADDS     r0,r0,#1
        0x00003268:    b2c0        ..      UXTB     r0,r0
        0x0000326a:    23f0        .#      MOVS     r3,#0xf0
        0x0000326c:    9002        ..      STR      r0,[sp,#8]
        0x0000326e:    9a04        ..      LDR      r2,[sp,#0x10]
        0x00003270:    9903        ..      LDR      r1,[sp,#0xc]
        0x00003272:    f002f94f    ..O.    BL       writeOneSprite ; 0x5514
        0x00003276:    2030        0       MOVS     r0,#0x30
        0x00003278:    9000        ..      STR      r0,[sp,#0]
        0x0000327a:    9807        ..      LDR      r0,[sp,#0x1c]
        0x0000327c:    8840        @.      LDRH     r0,[r0,#2]
        0x0000327e:    1fc0        ..      SUBS     r0,r0,#7
        0x00003280:    b2c0        ..      UXTB     r0,r0
        0x00003282:    9004        ..      STR      r0,[sp,#0x10]
        0x00003284:    9807        ..      LDR      r0,[sp,#0x1c]
        0x00003286:    8800        ..      LDRH     r0,[r0,#0]
        0x00003288:    1d00        ..      ADDS     r0,r0,#4
        0x0000328a:    b2c0        ..      UXTB     r0,r0
        0x0000328c:    9003        ..      STR      r0,[sp,#0xc]
        0x0000328e:    9806        ..      LDR      r0,[sp,#0x18]
        0x00003290:    1c80        ..      ADDS     r0,r0,#2
        0x00003292:    b2c0        ..      UXTB     r0,r0
        0x00003294:    23f1        .#      MOVS     r3,#0xf1
        0x00003296:    9002        ..      STR      r0,[sp,#8]
        0x00003298:    9a04        ..      LDR      r2,[sp,#0x10]
        0x0000329a:    9903        ..      LDR      r1,[sp,#0xc]
        0x0000329c:    f002f93a    ..:.    BL       writeOneSprite ; 0x5514
        0x000032a0:    2030        0       MOVS     r0,#0x30
        0x000032a2:    9000        ..      STR      r0,[sp,#0]
        0x000032a4:    9807        ..      LDR      r0,[sp,#0x1c]
        0x000032a6:    8840        @.      LDRH     r0,[r0,#2]
        0x000032a8:    1fc0        ..      SUBS     r0,r0,#7
        0x000032aa:    b2c0        ..      UXTB     r0,r0
        0x000032ac:    9004        ..      STR      r0,[sp,#0x10]
        0x000032ae:    9807        ..      LDR      r0,[sp,#0x1c]
        0x000032b0:    8800        ..      LDRH     r0,[r0,#0]
        0x000032b2:    300c        .0      ADDS     r0,r0,#0xc
        0x000032b4:    b2c0        ..      UXTB     r0,r0
        0x000032b6:    9003        ..      STR      r0,[sp,#0xc]
        0x000032b8:    9806        ..      LDR      r0,[sp,#0x18]
        0x000032ba:    1cc0        ..      ADDS     r0,r0,#3
        0x000032bc:    b2c0        ..      UXTB     r0,r0
        0x000032be:    23f2        .#      MOVS     r3,#0xf2
        0x000032c0:    9002        ..      STR      r0,[sp,#8]
        0x000032c2:    9a04        ..      LDR      r2,[sp,#0x10]
        0x000032c4:    9903        ..      LDR      r1,[sp,#0xc]
        0x000032c6:    f002f925    ..%.    BL       writeOneSprite ; 0x5514
        0x000032ca:    2030        0       MOVS     r0,#0x30
        0x000032cc:    9000        ..      STR      r0,[sp,#0]
        0x000032ce:    9807        ..      LDR      r0,[sp,#0x1c]
        0x000032d0:    8840        @.      LDRH     r0,[r0,#2]
        0x000032d2:    b2c0        ..      UXTB     r0,r0
        0x000032d4:    9004        ..      STR      r0,[sp,#0x10]
        0x000032d6:    9807        ..      LDR      r0,[sp,#0x1c]
        0x000032d8:    8800        ..      LDRH     r0,[r0,#0]
        0x000032da:    b2c0        ..      UXTB     r0,r0
        0x000032dc:    9003        ..      STR      r0,[sp,#0xc]
        0x000032de:    9806        ..      LDR      r0,[sp,#0x18]
        0x000032e0:    1d00        ..      ADDS     r0,r0,#4
        0x000032e2:    b2c0        ..      UXTB     r0,r0
        0x000032e4:    23f3        .#      MOVS     r3,#0xf3
        0x000032e6:    9002        ..      STR      r0,[sp,#8]
        0x000032e8:    9a04        ..      LDR      r2,[sp,#0x10]
        0x000032ea:    9903        ..      LDR      r1,[sp,#0xc]
        0x000032ec:    f002f912    ....    BL       writeOneSprite ; 0x5514
        0x000032f0:    2030        0       MOVS     r0,#0x30
        0x000032f2:    9000        ..      STR      r0,[sp,#0]
        0x000032f4:    9807        ..      LDR      r0,[sp,#0x1c]
        0x000032f6:    8840        @.      LDRH     r0,[r0,#2]
        0x000032f8:    b2c0        ..      UXTB     r0,r0
        0x000032fa:    9004        ..      STR      r0,[sp,#0x10]
        0x000032fc:    9807        ..      LDR      r0,[sp,#0x1c]
        0x000032fe:    8800        ..      LDRH     r0,[r0,#0]
        0x00003300:    3008        .0      ADDS     r0,r0,#8
        0x00003302:    b2c0        ..      UXTB     r0,r0
        0x00003304:    9003        ..      STR      r0,[sp,#0xc]
        0x00003306:    9806        ..      LDR      r0,[sp,#0x18]
        0x00003308:    1d40        @.      ADDS     r0,r0,#5
        0x0000330a:    b2c0        ..      UXTB     r0,r0
        0x0000330c:    23f4        .#      MOVS     r3,#0xf4
        0x0000330e:    9002        ..      STR      r0,[sp,#8]
        0x00003310:    9a04        ..      LDR      r2,[sp,#0x10]
        0x00003312:    9903        ..      LDR      r1,[sp,#0xc]
        0x00003314:    f002f8fe    ....    BL       writeOneSprite ; 0x5514
        0x00003318:    2030        0       MOVS     r0,#0x30
        0x0000331a:    9000        ..      STR      r0,[sp,#0]
        0x0000331c:    9807        ..      LDR      r0,[sp,#0x1c]
        0x0000331e:    8840        @.      LDRH     r0,[r0,#2]
        0x00003320:    b2c0        ..      UXTB     r0,r0
        0x00003322:    9004        ..      STR      r0,[sp,#0x10]
        0x00003324:    9807        ..      LDR      r0,[sp,#0x1c]
        0x00003326:    8800        ..      LDRH     r0,[r0,#0]
        0x00003328:    3010        .0      ADDS     r0,r0,#0x10
        0x0000332a:    b2c0        ..      UXTB     r0,r0
        0x0000332c:    9003        ..      STR      r0,[sp,#0xc]
        0x0000332e:    9806        ..      LDR      r0,[sp,#0x18]
        0x00003330:    1d80        ..      ADDS     r0,r0,#6
        0x00003332:    b2c0        ..      UXTB     r0,r0
        0x00003334:    23f5        .#      MOVS     r3,#0xf5
        0x00003336:    9002        ..      STR      r0,[sp,#8]
        0x00003338:    9a04        ..      LDR      r2,[sp,#0x10]
        0x0000333a:    9903        ..      LDR      r1,[sp,#0xc]
        0x0000333c:    f002f8ea    ....    BL       writeOneSprite ; 0x5514
        0x00003340:    e10b        ..      B        0x355a ; myPlane_Draw + 1578
        0x00003342:    2006        .       MOVS     r0,#6
        0x00003344:    9005        ..      STR      r0,[sp,#0x14]
        0x00003346:    2030        0       MOVS     r0,#0x30
        0x00003348:    9000        ..      STR      r0,[sp,#0]
        0x0000334a:    9807        ..      LDR      r0,[sp,#0x1c]
        0x0000334c:    8840        @.      LDRH     r0,[r0,#2]
        0x0000334e:    1fc0        ..      SUBS     r0,r0,#7
        0x00003350:    b2c0        ..      UXTB     r0,r0
        0x00003352:    9004        ..      STR      r0,[sp,#0x10]
        0x00003354:    9807        ..      LDR      r0,[sp,#0x1c]
        0x00003356:    8800        ..      LDRH     r0,[r0,#0]
        0x00003358:    1d00        ..      ADDS     r0,r0,#4
        0x0000335a:    b2c0        ..      UXTB     r0,r0
        0x0000335c:    9003        ..      STR      r0,[sp,#0xc]
        0x0000335e:    9806        ..      LDR      r0,[sp,#0x18]
        0x00003360:    b2c0        ..      UXTB     r0,r0
        0x00003362:    23f6        .#      MOVS     r3,#0xf6
        0x00003364:    9002        ..      STR      r0,[sp,#8]
        0x00003366:    9a04        ..      LDR      r2,[sp,#0x10]
        0x00003368:    9903        ..      LDR      r1,[sp,#0xc]
        0x0000336a:    f002f8d3    ....    BL       writeOneSprite ; 0x5514
        0x0000336e:    2070        p       MOVS     r0,#0x70
        0x00003370:    9000        ..      STR      r0,[sp,#0]
        0x00003372:    9807        ..      LDR      r0,[sp,#0x1c]
        0x00003374:    8840        @.      LDRH     r0,[r0,#2]
        0x00003376:    1fc0        ..      SUBS     r0,r0,#7
        0x00003378:    b2c0        ..      UXTB     r0,r0
        0x0000337a:    9004        ..      STR      r0,[sp,#0x10]
        0x0000337c:    9807        ..      LDR      r0,[sp,#0x1c]
        0x0000337e:    8800        ..      LDRH     r0,[r0,#0]
        0x00003380:    300c        .0      ADDS     r0,r0,#0xc
        0x00003382:    b2c0        ..      UXTB     r0,r0
        0x00003384:    9003        ..      STR      r0,[sp,#0xc]
        0x00003386:    9806        ..      LDR      r0,[sp,#0x18]
        0x00003388:    1c40        @.      ADDS     r0,r0,#1
        0x0000338a:    b2c0        ..      UXTB     r0,r0
        0x0000338c:    23f6        .#      MOVS     r3,#0xf6
        0x0000338e:    9002        ..      STR      r0,[sp,#8]
        0x00003390:    9a04        ..      LDR      r2,[sp,#0x10]
        0x00003392:    9903        ..      LDR      r1,[sp,#0xc]
        0x00003394:    f002f8be    ....    BL       writeOneSprite ; 0x5514
        0x00003398:    2030        0       MOVS     r0,#0x30
        0x0000339a:    9000        ..      STR      r0,[sp,#0]
        0x0000339c:    9807        ..      LDR      r0,[sp,#0x1c]
        0x0000339e:    8840        @.      LDRH     r0,[r0,#2]
        0x000033a0:    b2c0        ..      UXTB     r0,r0
        0x000033a2:    9004        ..      STR      r0,[sp,#0x10]
        0x000033a4:    9807        ..      LDR      r0,[sp,#0x1c]
        0x000033a6:    8800        ..      LDRH     r0,[r0,#0]
        0x000033a8:    b2c0        ..      UXTB     r0,r0
        0x000033aa:    9003        ..      STR      r0,[sp,#0xc]
        0x000033ac:    9806        ..      LDR      r0,[sp,#0x18]
        0x000033ae:    1c80        ..      ADDS     r0,r0,#2
        0x000033b0:    b2c0        ..      UXTB     r0,r0
        0x000033b2:    23f7        .#      MOVS     r3,#0xf7
        0x000033b4:    9002        ..      STR      r0,[sp,#8]
        0x000033b6:    9a04        ..      LDR      r2,[sp,#0x10]
        0x000033b8:    9903        ..      LDR      r1,[sp,#0xc]
        0x000033ba:    f002f8ab    ....    BL       writeOneSprite ; 0x5514
        0x000033be:    2030        0       MOVS     r0,#0x30
        0x000033c0:    9000        ..      STR      r0,[sp,#0]
        0x000033c2:    9807        ..      LDR      r0,[sp,#0x1c]
        0x000033c4:    8840        @.      LDRH     r0,[r0,#2]
        0x000033c6:    b2c0        ..      UXTB     r0,r0
        0x000033c8:    9004        ..      STR      r0,[sp,#0x10]
        0x000033ca:    9807        ..      LDR      r0,[sp,#0x1c]
        0x000033cc:    8800        ..      LDRH     r0,[r0,#0]
        0x000033ce:    3008        .0      ADDS     r0,r0,#8
        0x000033d0:    b2c0        ..      UXTB     r0,r0
        0x000033d2:    9003        ..      STR      r0,[sp,#0xc]
        0x000033d4:    9806        ..      LDR      r0,[sp,#0x18]
        0x000033d6:    1cc0        ..      ADDS     r0,r0,#3
        0x000033d8:    b2c0        ..      UXTB     r0,r0
        0x000033da:    23f8        .#      MOVS     r3,#0xf8
        0x000033dc:    9002        ..      STR      r0,[sp,#8]
        0x000033de:    9a04        ..      LDR      r2,[sp,#0x10]
        0x000033e0:    9903        ..      LDR      r1,[sp,#0xc]
        0x000033e2:    f002f897    ....    BL       writeOneSprite ; 0x5514
        0x000033e6:    2070        p       MOVS     r0,#0x70
        0x000033e8:    9000        ..      STR      r0,[sp,#0]
        0x000033ea:    9807        ..      LDR      r0,[sp,#0x1c]
        0x000033ec:    8840        @.      LDRH     r0,[r0,#2]
        0x000033ee:    b2c0        ..      UXTB     r0,r0
        0x000033f0:    9004        ..      STR      r0,[sp,#0x10]
        0x000033f2:    9807        ..      LDR      r0,[sp,#0x1c]
        0x000033f4:    8800        ..      LDRH     r0,[r0,#0]
        0x000033f6:    3010        .0      ADDS     r0,r0,#0x10
        0x000033f8:    b2c0        ..      UXTB     r0,r0
        0x000033fa:    9003        ..      STR      r0,[sp,#0xc]
        0x000033fc:    9806        ..      LDR      r0,[sp,#0x18]
        0x000033fe:    1d00        ..      ADDS     r0,r0,#4
        0x00003400:    b2c0        ..      UXTB     r0,r0
        0x00003402:    23f7        .#      MOVS     r3,#0xf7
        0x00003404:    9002        ..      STR      r0,[sp,#8]
        0x00003406:    9a04        ..      LDR      r2,[sp,#0x10]
        0x00003408:    9903        ..      LDR      r1,[sp,#0xc]
        0x0000340a:    f002f883    ....    BL       writeOneSprite ; 0x5514
        0x0000340e:    e0a4        ..      B        0x355a ; myPlane_Draw + 1578
        0x00003410:    2003        .       MOVS     r0,#3
        0x00003412:    9005        ..      STR      r0,[sp,#0x14]
        0x00003414:    2030        0       MOVS     r0,#0x30
        0x00003416:    9000        ..      STR      r0,[sp,#0]
        0x00003418:    9807        ..      LDR      r0,[sp,#0x1c]
        0x0000341a:    8840        @.      LDRH     r0,[r0,#2]
        0x0000341c:    b2c0        ..      UXTB     r0,r0
        0x0000341e:    9004        ..      STR      r0,[sp,#0x10]
        0x00003420:    9807        ..      LDR      r0,[sp,#0x1c]
        0x00003422:    8800        ..      LDRH     r0,[r0,#0]
        0x00003424:    b2c0        ..      UXTB     r0,r0
        0x00003426:    9003        ..      STR      r0,[sp,#0xc]
        0x00003428:    9806        ..      LDR      r0,[sp,#0x18]
        0x0000342a:    b2c0        ..      UXTB     r0,r0
        0x0000342c:    233a        :#      MOVS     r3,#0x3a
        0x0000342e:    9002        ..      STR      r0,[sp,#8]
        0x00003430:    9a04        ..      LDR      r2,[sp,#0x10]
        0x00003432:    9903        ..      LDR      r1,[sp,#0xc]
        0x00003434:    f002f86e    ..n.    BL       writeOneSprite ; 0x5514
        0x00003438:    2030        0       MOVS     r0,#0x30
        0x0000343a:    9000        ..      STR      r0,[sp,#0]
        0x0000343c:    9807        ..      LDR      r0,[sp,#0x1c]
        0x0000343e:    8840        @.      LDRH     r0,[r0,#2]
        0x00003440:    b2c0        ..      UXTB     r0,r0
        0x00003442:    9004        ..      STR      r0,[sp,#0x10]
        0x00003444:    9807        ..      LDR      r0,[sp,#0x1c]
        0x00003446:    8800        ..      LDRH     r0,[r0,#0]
        0x00003448:    3008        .0      ADDS     r0,r0,#8
        0x0000344a:    b2c0        ..      UXTB     r0,r0
        0x0000344c:    9003        ..      STR      r0,[sp,#0xc]
        0x0000344e:    9806        ..      LDR      r0,[sp,#0x18]
        0x00003450:    1c40        @.      ADDS     r0,r0,#1
        0x00003452:    b2c0        ..      UXTB     r0,r0
        0x00003454:    233b        ;#      MOVS     r3,#0x3b
        0x00003456:    9002        ..      STR      r0,[sp,#8]
        0x00003458:    9a04        ..      LDR      r2,[sp,#0x10]
        0x0000345a:    9903        ..      LDR      r1,[sp,#0xc]
        0x0000345c:    f002f85a    ..Z.    BL       writeOneSprite ; 0x5514
        0x00003460:    2070        p       MOVS     r0,#0x70
        0x00003462:    9000        ..      STR      r0,[sp,#0]
        0x00003464:    9807        ..      LDR      r0,[sp,#0x1c]
        0x00003466:    8840        @.      LDRH     r0,[r0,#2]
        0x00003468:    b2c0        ..      UXTB     r0,r0
        0x0000346a:    9004        ..      STR      r0,[sp,#0x10]
        0x0000346c:    9807        ..      LDR      r0,[sp,#0x1c]
        0x0000346e:    8800        ..      LDRH     r0,[r0,#0]
        0x00003470:    3010        .0      ADDS     r0,r0,#0x10
        0x00003472:    b2c0        ..      UXTB     r0,r0
        0x00003474:    9003        ..      STR      r0,[sp,#0xc]
        0x00003476:    9806        ..      LDR      r0,[sp,#0x18]
        0x00003478:    1c80        ..      ADDS     r0,r0,#2
        0x0000347a:    b2c0        ..      UXTB     r0,r0
        0x0000347c:    233a        :#      MOVS     r3,#0x3a
        0x0000347e:    9002        ..      STR      r0,[sp,#8]
        0x00003480:    9a04        ..      LDR      r2,[sp,#0x10]
        0x00003482:    9903        ..      LDR      r1,[sp,#0xc]
        0x00003484:    f002f846    ..F.    BL       writeOneSprite ; 0x5514
        0x00003488:    e067        g.      B        0x355a ; myPlane_Draw + 1578
        0x0000348a:    2005        .       MOVS     r0,#5
        0x0000348c:    9005        ..      STR      r0,[sp,#0x14]
        0x0000348e:    2030        0       MOVS     r0,#0x30
        0x00003490:    9000        ..      STR      r0,[sp,#0]
        0x00003492:    9807        ..      LDR      r0,[sp,#0x1c]
        0x00003494:    8840        @.      LDRH     r0,[r0,#2]
        0x00003496:    b2c0        ..      UXTB     r0,r0
        0x00003498:    9004        ..      STR      r0,[sp,#0x10]
        0x0000349a:    9807        ..      LDR      r0,[sp,#0x1c]
        0x0000349c:    8800        ..      LDRH     r0,[r0,#0]
        0x0000349e:    b2c0        ..      UXTB     r0,r0
        0x000034a0:    9003        ..      STR      r0,[sp,#0xc]
        0x000034a2:    9806        ..      LDR      r0,[sp,#0x18]
        0x000034a4:    b2c0        ..      UXTB     r0,r0
        0x000034a6:    2333        3#      MOVS     r3,#0x33
        0x000034a8:    9002        ..      STR      r0,[sp,#8]
        0x000034aa:    9a04        ..      LDR      r2,[sp,#0x10]
        0x000034ac:    9903        ..      LDR      r1,[sp,#0xc]
        0x000034ae:    f002f831    ..1.    BL       writeOneSprite ; 0x5514
        0x000034b2:    2030        0       MOVS     r0,#0x30
        0x000034b4:    9000        ..      STR      r0,[sp,#0]
        0x000034b6:    9807        ..      LDR      r0,[sp,#0x1c]
        0x000034b8:    8840        @.      LDRH     r0,[r0,#2]
        0x000034ba:    b2c0        ..      UXTB     r0,r0
        0x000034bc:    9004        ..      STR      r0,[sp,#0x10]
        0x000034be:    9807        ..      LDR      r0,[sp,#0x1c]
        0x000034c0:    8800        ..      LDRH     r0,[r0,#0]
        0x000034c2:    3008        .0      ADDS     r0,r0,#8
        0x000034c4:    b2c0        ..      UXTB     r0,r0
        0x000034c6:    9003        ..      STR      r0,[sp,#0xc]
        0x000034c8:    9806        ..      LDR      r0,[sp,#0x18]
        0x000034ca:    1c40        @.      ADDS     r0,r0,#1
        0x000034cc:    b2c0        ..      UXTB     r0,r0
        0x000034ce:    2334        4#      MOVS     r3,#0x34
        0x000034d0:    9002        ..      STR      r0,[sp,#8]
        0x000034d2:    9a04        ..      LDR      r2,[sp,#0x10]
        0x000034d4:    9903        ..      LDR      r1,[sp,#0xc]
        0x000034d6:    f002f81d    ....    BL       writeOneSprite ; 0x5514
        0x000034da:    2070        p       MOVS     r0,#0x70
        0x000034dc:    9000        ..      STR      r0,[sp,#0]
        0x000034de:    9807        ..      LDR      r0,[sp,#0x1c]
        0x000034e0:    8840        @.      LDRH     r0,[r0,#2]
        0x000034e2:    b2c0        ..      UXTB     r0,r0
        0x000034e4:    9004        ..      STR      r0,[sp,#0x10]
        0x000034e6:    9807        ..      LDR      r0,[sp,#0x1c]
        0x000034e8:    8800        ..      LDRH     r0,[r0,#0]
        0x000034ea:    3010        .0      ADDS     r0,r0,#0x10
        0x000034ec:    b2c0        ..      UXTB     r0,r0
        0x000034ee:    9003        ..      STR      r0,[sp,#0xc]
        0x000034f0:    9806        ..      LDR      r0,[sp,#0x18]
        0x000034f2:    1c80        ..      ADDS     r0,r0,#2
        0x000034f4:    b2c0        ..      UXTB     r0,r0
        0x000034f6:    2333        3#      MOVS     r3,#0x33
        0x000034f8:    9002        ..      STR      r0,[sp,#8]
        0x000034fa:    9a04        ..      LDR      r2,[sp,#0x10]
        0x000034fc:    9903        ..      LDR      r1,[sp,#0xc]
        0x000034fe:    f002f809    ....    BL       writeOneSprite ; 0x5514
        0x00003502:    2030        0       MOVS     r0,#0x30
        0x00003504:    9000        ..      STR      r0,[sp,#0]
        0x00003506:    9807        ..      LDR      r0,[sp,#0x1c]
        0x00003508:    8840        @.      LDRH     r0,[r0,#2]
        0x0000350a:    1dc0        ..      ADDS     r0,r0,#7
        0x0000350c:    b2c0        ..      UXTB     r0,r0
        0x0000350e:    9004        ..      STR      r0,[sp,#0x10]
        0x00003510:    9807        ..      LDR      r0,[sp,#0x1c]
        0x00003512:    8800        ..      LDRH     r0,[r0,#0]
        0x00003514:    1d00        ..      ADDS     r0,r0,#4
        0x00003516:    b2c0        ..      UXTB     r0,r0
        0x00003518:    9003        ..      STR      r0,[sp,#0xc]
        0x0000351a:    9806        ..      LDR      r0,[sp,#0x18]
        0x0000351c:    1cc0        ..      ADDS     r0,r0,#3
        0x0000351e:    b2c0        ..      UXTB     r0,r0
        0x00003520:    2335        5#      MOVS     r3,#0x35
        0x00003522:    9002        ..      STR      r0,[sp,#8]
        0x00003524:    9a04        ..      LDR      r2,[sp,#0x10]
        0x00003526:    9903        ..      LDR      r1,[sp,#0xc]
        0x00003528:    f001fff4    ....    BL       writeOneSprite ; 0x5514
        0x0000352c:    2030        0       MOVS     r0,#0x30
        0x0000352e:    9000        ..      STR      r0,[sp,#0]
        0x00003530:    9807        ..      LDR      r0,[sp,#0x1c]
        0x00003532:    8840        @.      LDRH     r0,[r0,#2]
        0x00003534:    1dc0        ..      ADDS     r0,r0,#7
        0x00003536:    b2c0        ..      UXTB     r0,r0
        0x00003538:    9004        ..      STR      r0,[sp,#0x10]
        0x0000353a:    9807        ..      LDR      r0,[sp,#0x1c]
        0x0000353c:    8800        ..      LDRH     r0,[r0,#0]
        0x0000353e:    300c        .0      ADDS     r0,r0,#0xc
        0x00003540:    b2c0        ..      UXTB     r0,r0
        0x00003542:    9003        ..      STR      r0,[sp,#0xc]
        0x00003544:    9806        ..      LDR      r0,[sp,#0x18]
        0x00003546:    1d00        ..      ADDS     r0,r0,#4
        0x00003548:    b2c0        ..      UXTB     r0,r0
        0x0000354a:    2336        6#      MOVS     r3,#0x36
        0x0000354c:    9002        ..      STR      r0,[sp,#8]
        0x0000354e:    9a04        ..      LDR      r2,[sp,#0x10]
        0x00003550:    9903        ..      LDR      r1,[sp,#0xc]
        0x00003552:    f001ffdf    ....    BL       writeOneSprite ; 0x5514
        0x00003556:    e000        ..      B        0x355a ; myPlane_Draw + 1578
        0x00003558:    bf00        ..      NOP      
        0x0000355a:    bf00        ..      NOP      
        0x0000355c:    9808        ..      LDR      r0,[sp,#0x20]
        0x0000355e:    7801        .x      LDRB     r1,[r0,#0]
        0x00003560:    9805        ..      LDR      r0,[sp,#0x14]
        0x00003562:    1808        ..      ADDS     r0,r1,r0
        0x00003564:    b2c1        ..      UXTB     r1,r0
        0x00003566:    9808        ..      LDR      r0,[sp,#0x20]
        0x00003568:    7001        .p      STRB     r1,[r0,#0]
        0x0000356a:    b009        ..      ADD      sp,sp,#0x24
        0x0000356c:    bd00        ..      POP      {pc}
    i.myPlane_Init
    myPlane_Init
        0x0000356e:    2178        x!      MOVS     r1,#0x78
        0x00003570:    8001        ..      STRH     r1,[r0,#0]
        0x00003572:    21b4        .!      MOVS     r1,#0xb4
        0x00003574:    8041        A.      STRH     r1,[r0,#2]
        0x00003576:    2101        .!      MOVS     r1,#1
        0x00003578:    7101        .q      STRB     r1,[r0,#4]
        0x0000357a:    2100        .!      MOVS     r1,#0
        0x0000357c:    71c1        .q      STRB     r1,[r0,#7]
        0x0000357e:    7201        .r      STRB     r1,[r0,#8]
        0x00003580:    7241        Ar      STRB     r1,[r0,#9]
        0x00003582:    2101        .!      MOVS     r1,#1
        0x00003584:    7181        .q      STRB     r1,[r0,#6]
        0x00003586:    7141        Aq      STRB     r1,[r0,#5]
        0x00003588:    4770        pG      BX       lr
        0x0000358a:    0000        ..      MOVS     r0,r0
    i.myPlane_bulletDraw
    myPlane_bulletDraw
        0x0000358c:    b5f8        ..      PUSH     {r3-r7,lr}
        0x0000358e:    4605        .F      MOV      r5,r0
        0x00003590:    460e        .F      MOV      r6,r1
        0x00003592:    2400        .$      MOVS     r4,#0
        0x00003594:    e018        ..      B        0x35c8 ; myPlane_bulletDraw + 60
        0x00003596:    200a        .       MOVS     r0,#0xa
        0x00003598:    4360        `C      MULS     r0,r4,r0
        0x0000359a:    1940        @.      ADDS     r0,r0,r5
        0x0000359c:    7900        .y      LDRB     r0,[r0,#4]
        0x0000359e:    2800        .(      CMP      r0,#0
        0x000035a0:    d011        ..      BEQ      0x35c6 ; myPlane_bulletDraw + 58
        0x000035a2:    2010        .       MOVS     r0,#0x10
        0x000035a4:    230a        .#      MOVS     r3,#0xa
        0x000035a6:    4363        cC      MULS     r3,r4,r3
        0x000035a8:    195b        [.      ADDS     r3,r3,r5
        0x000035aa:    9000        ..      STR      r0,[sp,#0]
        0x000035ac:    885b        [.      LDRH     r3,[r3,#2]
        0x000035ae:    b2da        ..      UXTB     r2,r3
        0x000035b0:    230a        .#      MOVS     r3,#0xa
        0x000035b2:    4363        cC      MULS     r3,r4,r3
        0x000035b4:    5aeb        .Z      LDRH     r3,[r5,r3]
        0x000035b6:    b2d9        ..      UXTB     r1,r3
        0x000035b8:    7830        0x      LDRB     r0,[r6,#0]
        0x000035ba:    2331        1#      MOVS     r3,#0x31
        0x000035bc:    f001ffaa    ....    BL       writeOneSprite ; 0x5514
        0x000035c0:    7830        0x      LDRB     r0,[r6,#0]
        0x000035c2:    1c40        @.      ADDS     r0,r0,#1
        0x000035c4:    7030        0p      STRB     r0,[r6,#0]
        0x000035c6:    1c64        d.      ADDS     r4,r4,#1
        0x000035c8:    4802        .H      LDR      r0,[pc,#8] ; [0x35d4] = 0x5538
        0x000035ca:    7800        .x      LDRB     r0,[r0,#0]
        0x000035cc:    4284        .B      CMP      r4,r0
        0x000035ce:    dbe2        ..      BLT      0x3596 ; myPlane_bulletDraw + 10
        0x000035d0:    bdf8        ..      POP      {r3-r7,pc}
    $d
        0x000035d2:    0000        ..      DCW    0
        0x000035d4:    00005538    8U..    DCD    21816
    $t
    i.myPlane_bulletInit
    myPlane_bulletInit
        0x000035d8:    4601        .F      MOV      r1,r0
        0x000035da:    2000        .       MOVS     r0,#0
        0x000035dc:    e005        ..      B        0x35ea ; myPlane_bulletInit + 18
        0x000035de:    2300        .#      MOVS     r3,#0
        0x000035e0:    220a        ."      MOVS     r2,#0xa
        0x000035e2:    4342        BC      MULS     r2,r0,r2
        0x000035e4:    1852        R.      ADDS     r2,r2,r1
        0x000035e6:    7113        .q      STRB     r3,[r2,#4]
        0x000035e8:    1c40        @.      ADDS     r0,r0,#1
        0x000035ea:    4a02        .J      LDR      r2,[pc,#8] ; [0x35f4] = 0x5538
        0x000035ec:    7812        .x      LDRB     r2,[r2,#0]
        0x000035ee:    4290        .B      CMP      r0,r2
        0x000035f0:    dbf5        ..      BLT      0x35de ; myPlane_bulletInit + 6
        0x000035f2:    4770        pG      BX       lr
    $d
        0x000035f4:    00005538    8U..    DCD    21816
    $t
    i.myPlane_createOneBullet
    myPlane_createOneBullet
        0x000035f8:    b510        ..      PUSH     {r4,lr}
        0x000035fa:    7902        .y      LDRB     r2,[r0,#4]
        0x000035fc:    2a00        .*      CMP      r2,#0
        0x000035fe:    d025        %.      BEQ      0x364c ; myPlane_createOneBullet + 84
        0x00003600:    7982        .y      LDRB     r2,[r0,#6]
        0x00003602:    2a00        .*      CMP      r2,#0
        0x00003604:    d123        #.      BNE      0x364e ; myPlane_createOneBullet + 86
        0x00003606:    bf00        ..      NOP      
        0x00003608:    e01e        ..      B        0x3648 ; myPlane_createOneBullet + 80
        0x0000360a:    230a        .#      MOVS     r3,#0xa
        0x0000360c:    4353        SC      MULS     r3,r2,r3
        0x0000360e:    185b        [.      ADDS     r3,r3,r1
        0x00003610:    791b        .y      LDRB     r3,[r3,#4]
        0x00003612:    2b00        .+      CMP      r3,#0
        0x00003614:    d117        ..      BNE      0x3646 ; myPlane_createOneBullet + 78
        0x00003616:    8803        ..      LDRH     r3,[r0,#0]
        0x00003618:    3308        .3      ADDS     r3,r3,#8
        0x0000361a:    b21c        ..      SXTH     r4,r3
        0x0000361c:    230a        .#      MOVS     r3,#0xa
        0x0000361e:    4353        SC      MULS     r3,r2,r3
        0x00003620:    52cc        .R      STRH     r4,[r1,r3]
        0x00003622:    8843        C.      LDRH     r3,[r0,#2]
        0x00003624:    3b08        .;      SUBS     r3,r3,#8
        0x00003626:    b21c        ..      SXTH     r4,r3
        0x00003628:    230a        .#      MOVS     r3,#0xa
        0x0000362a:    4353        SC      MULS     r3,r2,r3
        0x0000362c:    185b        [.      ADDS     r3,r3,r1
        0x0000362e:    805c        \.      STRH     r4,[r3,#2]
        0x00003630:    2401        .$      MOVS     r4,#1
        0x00003632:    230a        .#      MOVS     r3,#0xa
        0x00003634:    4353        SC      MULS     r3,r2,r3
        0x00003636:    185b        [.      ADDS     r3,r3,r1
        0x00003638:    711c        .q      STRB     r4,[r3,#4]
        0x0000363a:    4b5a        ZK      LDR      r3,[pc,#360] ; [0x37a4] = 0x2000000c
        0x0000363c:    681b        .h      LDR      r3,[r3,#0]
        0x0000363e:    1c5b        [.      ADDS     r3,r3,#1
        0x00003640:    4c58        XL      LDR      r4,[pc,#352] ; [0x37a4] = 0x2000000c
        0x00003642:    6023        #`      STR      r3,[r4,#0]
        0x00003644:    e002        ..      B        0x364c ; myPlane_createOneBullet + 84
        0x00003646:    1c52        R.      ADDS     r2,r2,#1
        0x00003648:    2a04        .*      CMP      r2,#4
        0x0000364a:    dbde        ..      BLT      0x360a ; myPlane_createOneBullet + 18
        0x0000364c:    e0a8        ..      B        0x37a0 ; myPlane_createOneBullet + 424
        0x0000364e:    7982        .y      LDRB     r2,[r0,#6]
        0x00003650:    2a01        .*      CMP      r2,#1
        0x00003652:    d13c        <.      BNE      0x36ce ; myPlane_createOneBullet + 214
        0x00003654:    2200        ."      MOVS     r2,#0
        0x00003656:    e037        7.      B        0x36c8 ; myPlane_createOneBullet + 208
        0x00003658:    230a        .#      MOVS     r3,#0xa
        0x0000365a:    4353        SC      MULS     r3,r2,r3
        0x0000365c:    185b        [.      ADDS     r3,r3,r1
        0x0000365e:    791b        .y      LDRB     r3,[r3,#4]
        0x00003660:    2b00        .+      CMP      r3,#0
        0x00003662:    d130        0.      BNE      0x36c6 ; myPlane_createOneBullet + 206
        0x00003664:    230a        .#      MOVS     r3,#0xa
        0x00003666:    4353        SC      MULS     r3,r2,r3
        0x00003668:    185b        [.      ADDS     r3,r3,r1
        0x0000366a:    7b9b        .{      LDRB     r3,[r3,#0xe]
        0x0000366c:    2b00        .+      CMP      r3,#0
        0x0000366e:    d12a        *.      BNE      0x36c6 ; myPlane_createOneBullet + 206
        0x00003670:    8803        ..      LDRH     r3,[r0,#0]
        0x00003672:    1d1b        ..      ADDS     r3,r3,#4
        0x00003674:    b21c        ..      SXTH     r4,r3
        0x00003676:    230a        .#      MOVS     r3,#0xa
        0x00003678:    4353        SC      MULS     r3,r2,r3
        0x0000367a:    52cc        .R      STRH     r4,[r1,r3]
        0x0000367c:    8843        C.      LDRH     r3,[r0,#2]
        0x0000367e:    3b08        .;      SUBS     r3,r3,#8
        0x00003680:    b21c        ..      SXTH     r4,r3
        0x00003682:    230a        .#      MOVS     r3,#0xa
        0x00003684:    4353        SC      MULS     r3,r2,r3
        0x00003686:    185b        [.      ADDS     r3,r3,r1
        0x00003688:    805c        \.      STRH     r4,[r3,#2]
        0x0000368a:    2401        .$      MOVS     r4,#1
        0x0000368c:    230a        .#      MOVS     r3,#0xa
        0x0000368e:    4353        SC      MULS     r3,r2,r3
        0x00003690:    185b        [.      ADDS     r3,r3,r1
        0x00003692:    711c        .q      STRB     r4,[r3,#4]
        0x00003694:    8803        ..      LDRH     r3,[r0,#0]
        0x00003696:    330c        .3      ADDS     r3,r3,#0xc
        0x00003698:    b21c        ..      SXTH     r4,r3
        0x0000369a:    230a        .#      MOVS     r3,#0xa
        0x0000369c:    4353        SC      MULS     r3,r2,r3
        0x0000369e:    185b        [.      ADDS     r3,r3,r1
        0x000036a0:    815c        \.      STRH     r4,[r3,#0xa]
        0x000036a2:    8843        C.      LDRH     r3,[r0,#2]
        0x000036a4:    3b08        .;      SUBS     r3,r3,#8
        0x000036a6:    b21c        ..      SXTH     r4,r3
        0x000036a8:    230a        .#      MOVS     r3,#0xa
        0x000036aa:    4353        SC      MULS     r3,r2,r3
        0x000036ac:    185b        [.      ADDS     r3,r3,r1
        0x000036ae:    819c        ..      STRH     r4,[r3,#0xc]
        0x000036b0:    2401        .$      MOVS     r4,#1
        0x000036b2:    230a        .#      MOVS     r3,#0xa
        0x000036b4:    4353        SC      MULS     r3,r2,r3
        0x000036b6:    185b        [.      ADDS     r3,r3,r1
        0x000036b8:    739c        .s      STRB     r4,[r3,#0xe]
        0x000036ba:    4b3a        :K      LDR      r3,[pc,#232] ; [0x37a4] = 0x2000000c
        0x000036bc:    681b        .h      LDR      r3,[r3,#0]
        0x000036be:    1c9b        ..      ADDS     r3,r3,#2
        0x000036c0:    4c38        8L      LDR      r4,[pc,#224] ; [0x37a4] = 0x2000000c
        0x000036c2:    6023        #`      STR      r3,[r4,#0]
        0x000036c4:    e002        ..      B        0x36cc ; myPlane_createOneBullet + 212
        0x000036c6:    1c52        R.      ADDS     r2,r2,#1
        0x000036c8:    2a08        .*      CMP      r2,#8
        0x000036ca:    dbc5        ..      BLT      0x3658 ; myPlane_createOneBullet + 96
        0x000036cc:    e068        h.      B        0x37a0 ; myPlane_createOneBullet + 424
        0x000036ce:    7982        .y      LDRB     r2,[r0,#6]
        0x000036d0:    2a02        .*      CMP      r2,#2
        0x000036d2:    d165        e.      BNE      0x37a0 ; myPlane_createOneBullet + 424
        0x000036d4:    2200        ."      MOVS     r2,#0
        0x000036d6:    e060        `.      B        0x379a ; myPlane_createOneBullet + 418
        0x000036d8:    790b        .y      LDRB     r3,[r1,#4]
        0x000036da:    2b00        .+      CMP      r3,#0
        0x000036dc:    d15c        \.      BNE      0x3798 ; myPlane_createOneBullet + 416
        0x000036de:    230a        .#      MOVS     r3,#0xa
        0x000036e0:    4353        SC      MULS     r3,r2,r3
        0x000036e2:    185b        [.      ADDS     r3,r3,r1
        0x000036e4:    7b9b        .{      LDRB     r3,[r3,#0xe]
        0x000036e6:    2b00        .+      CMP      r3,#0
        0x000036e8:    d156        V.      BNE      0x3798 ; myPlane_createOneBullet + 416
        0x000036ea:    230a        .#      MOVS     r3,#0xa
        0x000036ec:    4353        SC      MULS     r3,r2,r3
        0x000036ee:    185b        [.      ADDS     r3,r3,r1
        0x000036f0:    7e1b        .~      LDRB     r3,[r3,#0x18]
        0x000036f2:    2b00        .+      CMP      r3,#0
        0x000036f4:    d150        P.      BNE      0x3798 ; myPlane_createOneBullet + 416
        0x000036f6:    230a        .#      MOVS     r3,#0xa
        0x000036f8:    4353        SC      MULS     r3,r2,r3
        0x000036fa:    185b        [.      ADDS     r3,r3,r1
        0x000036fc:    331e        .3      ADDS     r3,r3,#0x1e
        0x000036fe:    791b        .y      LDRB     r3,[r3,#4]
        0x00003700:    2b00        .+      CMP      r3,#0
        0x00003702:    d149        I.      BNE      0x3798 ; myPlane_createOneBullet + 416
        0x00003704:    8803        ..      LDRH     r3,[r0,#0]
        0x00003706:    1f1b        ..      SUBS     r3,r3,#4
        0x00003708:    b21b        ..      SXTH     r3,r3
        0x0000370a:    800b        ..      STRH     r3,[r1,#0]
        0x0000370c:    8843        C.      LDRH     r3,[r0,#2]
        0x0000370e:    3b08        .;      SUBS     r3,r3,#8
        0x00003710:    b21b        ..      SXTH     r3,r3
        0x00003712:    804b        K.      STRH     r3,[r1,#2]
        0x00003714:    2301        .#      MOVS     r3,#1
        0x00003716:    710b        .q      STRB     r3,[r1,#4]
        0x00003718:    8803        ..      LDRH     r3,[r0,#0]
        0x0000371a:    1d1b        ..      ADDS     r3,r3,#4
        0x0000371c:    b21c        ..      SXTH     r4,r3
        0x0000371e:    230a        .#      MOVS     r3,#0xa
        0x00003720:    4353        SC      MULS     r3,r2,r3
        0x00003722:    185b        [.      ADDS     r3,r3,r1
        0x00003724:    815c        \.      STRH     r4,[r3,#0xa]
        0x00003726:    8843        C.      LDRH     r3,[r0,#2]
        0x00003728:    3b08        .;      SUBS     r3,r3,#8
        0x0000372a:    b21c        ..      SXTH     r4,r3
        0x0000372c:    230a        .#      MOVS     r3,#0xa
        0x0000372e:    4353        SC      MULS     r3,r2,r3
        0x00003730:    185b        [.      ADDS     r3,r3,r1
        0x00003732:    819c        ..      STRH     r4,[r3,#0xc]
        0x00003734:    2401        .$      MOVS     r4,#1
        0x00003736:    230a        .#      MOVS     r3,#0xa
        0x00003738:    4353        SC      MULS     r3,r2,r3
        0x0000373a:    185b        [.      ADDS     r3,r3,r1
        0x0000373c:    739c        .s      STRB     r4,[r3,#0xe]
        0x0000373e:    8803        ..      LDRH     r3,[r0,#0]
        0x00003740:    330c        .3      ADDS     r3,r3,#0xc
        0x00003742:    b21c        ..      SXTH     r4,r3
        0x00003744:    230a        .#      MOVS     r3,#0xa
        0x00003746:    4353        SC      MULS     r3,r2,r3
        0x00003748:    185b        [.      ADDS     r3,r3,r1
        0x0000374a:    829c        ..      STRH     r4,[r3,#0x14]
        0x0000374c:    8843        C.      LDRH     r3,[r0,#2]
        0x0000374e:    3b08        .;      SUBS     r3,r3,#8
        0x00003750:    b21c        ..      SXTH     r4,r3
        0x00003752:    230a        .#      MOVS     r3,#0xa
        0x00003754:    4353        SC      MULS     r3,r2,r3
        0x00003756:    185b        [.      ADDS     r3,r3,r1
        0x00003758:    82dc        ..      STRH     r4,[r3,#0x16]
        0x0000375a:    2401        .$      MOVS     r4,#1
        0x0000375c:    230a        .#      MOVS     r3,#0xa
        0x0000375e:    4353        SC      MULS     r3,r2,r3
        0x00003760:    185b        [.      ADDS     r3,r3,r1
        0x00003762:    761c        .v      STRB     r4,[r3,#0x18]
        0x00003764:    8803        ..      LDRH     r3,[r0,#0]
        0x00003766:    3314        .3      ADDS     r3,r3,#0x14
        0x00003768:    b21c        ..      SXTH     r4,r3
        0x0000376a:    230a        .#      MOVS     r3,#0xa
        0x0000376c:    4353        SC      MULS     r3,r2,r3
        0x0000376e:    185b        [.      ADDS     r3,r3,r1
        0x00003770:    83dc        ..      STRH     r4,[r3,#0x1e]
        0x00003772:    8843        C.      LDRH     r3,[r0,#2]
        0x00003774:    3b08        .;      SUBS     r3,r3,#8
        0x00003776:    b21c        ..      SXTH     r4,r3
        0x00003778:    230a        .#      MOVS     r3,#0xa
        0x0000377a:    4353        SC      MULS     r3,r2,r3
        0x0000377c:    185b        [.      ADDS     r3,r3,r1
        0x0000377e:    841c        ..      STRH     r4,[r3,#0x20]
        0x00003780:    2401        .$      MOVS     r4,#1
        0x00003782:    230a        .#      MOVS     r3,#0xa
        0x00003784:    4353        SC      MULS     r3,r2,r3
        0x00003786:    185b        [.      ADDS     r3,r3,r1
        0x00003788:    331e        .3      ADDS     r3,r3,#0x1e
        0x0000378a:    711c        .q      STRB     r4,[r3,#4]
        0x0000378c:    4b05        .K      LDR      r3,[pc,#20] ; [0x37a4] = 0x2000000c
        0x0000378e:    681b        .h      LDR      r3,[r3,#0]
        0x00003790:    1d1b        ..      ADDS     r3,r3,#4
        0x00003792:    4c04        .L      LDR      r4,[pc,#16] ; [0x37a4] = 0x2000000c
        0x00003794:    6023        #`      STR      r3,[r4,#0]
        0x00003796:    e002        ..      B        0x379e ; myPlane_createOneBullet + 422
        0x00003798:    1c52        R.      ADDS     r2,r2,#1
        0x0000379a:    2a10        .*      CMP      r2,#0x10
        0x0000379c:    db9c        ..      BLT      0x36d8 ; myPlane_createOneBullet + 224
        0x0000379e:    bf00        ..      NOP      
        0x000037a0:    bd10        ..      POP      {r4,pc}
    $d
        0x000037a2:    0000        ..      DCW    0
        0x000037a4:    2000000c    ...     DCD    536870924
    $t
    i.myPlane_updateBulletData
    myPlane_updateBulletData
        0x000037a8:    4601        .F      MOV      r1,r0
        0x000037aa:    2000        .       MOVS     r0,#0
        0x000037ac:    e01c        ..      B        0x37e8 ; myPlane_updateBulletData + 64
        0x000037ae:    220a        ."      MOVS     r2,#0xa
        0x000037b0:    4342        BC      MULS     r2,r0,r2
        0x000037b2:    1852        R.      ADDS     r2,r2,r1
        0x000037b4:    7912        .y      LDRB     r2,[r2,#4]
        0x000037b6:    2a00        .*      CMP      r2,#0
        0x000037b8:    d015        ..      BEQ      0x37e6 ; myPlane_updateBulletData + 62
        0x000037ba:    220a        ."      MOVS     r2,#0xa
        0x000037bc:    4342        BC      MULS     r2,r0,r2
        0x000037be:    1852        R.      ADDS     r2,r2,r1
        0x000037c0:    8852        R.      LDRH     r2,[r2,#2]
        0x000037c2:    1f52        R.      SUBS     r2,r2,#5
        0x000037c4:    b213        ..      SXTH     r3,r2
        0x000037c6:    220a        ."      MOVS     r2,#0xa
        0x000037c8:    4342        BC      MULS     r2,r0,r2
        0x000037ca:    1852        R.      ADDS     r2,r2,r1
        0x000037cc:    8053        S.      STRH     r3,[r2,#2]
        0x000037ce:    220a        ."      MOVS     r2,#0xa
        0x000037d0:    4342        BC      MULS     r2,r0,r2
        0x000037d2:    1852        R.      ADDS     r2,r2,r1
        0x000037d4:    2302        .#      MOVS     r3,#2
        0x000037d6:    5ed3        .^      LDRSH    r3,[r2,r3]
        0x000037d8:    2b05        .+      CMP      r3,#5
        0x000037da:    da04        ..      BGE      0x37e6 ; myPlane_updateBulletData + 62
        0x000037dc:    2300        .#      MOVS     r3,#0
        0x000037de:    220a        ."      MOVS     r2,#0xa
        0x000037e0:    4342        BC      MULS     r2,r0,r2
        0x000037e2:    1852        R.      ADDS     r2,r2,r1
        0x000037e4:    7113        .q      STRB     r3,[r2,#4]
        0x000037e6:    1c40        @.      ADDS     r0,r0,#1
        0x000037e8:    4a02        .J      LDR      r2,[pc,#8] ; [0x37f4] = 0x5538
        0x000037ea:    7812        .x      LDRB     r2,[r2,#0]
        0x000037ec:    4290        .B      CMP      r0,r2
        0x000037ee:    dbde        ..      BLT      0x37ae ; myPlane_updateBulletData + 6
        0x000037f0:    4770        pG      BX       lr
    $d
        0x000037f2:    0000        ..      DCW    0
        0x000037f4:    00005538    8U..    DCD    21816
    $t
    i.newGuanqiaInterFaceDraw
    newGuanqiaInterFaceDraw
        0x000037f8:    b5f8        ..      PUSH     {r3-r7,lr}
        0x000037fa:    4607        .F      MOV      r7,r0
        0x000037fc:    460c        .F      MOV      r4,r1
        0x000037fe:    2578        x%      MOVS     r5,#0x78
        0x00003800:    2664        d&      MOVS     r6,#0x64
        0x00003802:    2020                MOVS     r0,#0x20
        0x00003804:    4629        )F      MOV      r1,r5
        0x00003806:    9000        ..      STR      r0,[sp,#0]
        0x00003808:    7820         x      LDRB     r0,[r4,#0]
        0x0000380a:    230c        .#      MOVS     r3,#0xc
        0x0000380c:    4632        2F      MOV      r2,r6
        0x0000380e:    f001fe81    ....    BL       writeOneSprite ; 0x5514
        0x00003812:    7820         x      LDRB     r0,[r4,#0]
        0x00003814:    1c40        @.      ADDS     r0,r0,#1
        0x00003816:    7020         p      STRB     r0,[r4,#0]
        0x00003818:    2020                MOVS     r0,#0x20
        0x0000381a:    4629        )F      MOV      r1,r5
        0x0000381c:    3110        .1      ADDS     r1,r1,#0x10
        0x0000381e:    9000        ..      STR      r0,[sp,#0]
        0x00003820:    7820         x      LDRB     r0,[r4,#0]
        0x00003822:    230d        .#      MOVS     r3,#0xd
        0x00003824:    4632        2F      MOV      r2,r6
        0x00003826:    f001fe75    ..u.    BL       writeOneSprite ; 0x5514
        0x0000382a:    7820         x      LDRB     r0,[r4,#0]
        0x0000382c:    1c40        @.      ADDS     r0,r0,#1
        0x0000382e:    7020         p      STRB     r0,[r4,#0]
        0x00003830:    2020                MOVS     r0,#0x20
        0x00003832:    4632        2F      MOV      r2,r6
        0x00003834:    3210        .2      ADDS     r2,r2,#0x10
        0x00003836:    462b        +F      MOV      r3,r5
        0x00003838:    3b08        .;      SUBS     r3,r3,#8
        0x0000383a:    b2d9        ..      UXTB     r1,r3
        0x0000383c:    9000        ..      STR      r0,[sp,#0]
        0x0000383e:    7820         x      LDRB     r0,[r4,#0]
        0x00003840:    463b        ;F      MOV      r3,r7
        0x00003842:    f001fe67    ..g.    BL       writeOneSprite ; 0x5514
        0x00003846:    7820         x      LDRB     r0,[r4,#0]
        0x00003848:    1c40        @.      ADDS     r0,r0,#1
        0x0000384a:    7020         p      STRB     r0,[r4,#0]
        0x0000384c:    2020                MOVS     r0,#0x20
        0x0000384e:    4632        2F      MOV      r2,r6
        0x00003850:    3210        .2      ADDS     r2,r2,#0x10
        0x00003852:    4629        )F      MOV      r1,r5
        0x00003854:    3108        .1      ADDS     r1,r1,#8
        0x00003856:    9000        ..      STR      r0,[sp,#0]
        0x00003858:    7820         x      LDRB     r0,[r4,#0]
        0x0000385a:    230e        .#      MOVS     r3,#0xe
        0x0000385c:    f001fe5a    ..Z.    BL       writeOneSprite ; 0x5514
        0x00003860:    7820         x      LDRB     r0,[r4,#0]
        0x00003862:    1c40        @.      ADDS     r0,r0,#1
        0x00003864:    7020         p      STRB     r0,[r4,#0]
        0x00003866:    2020                MOVS     r0,#0x20
        0x00003868:    4632        2F      MOV      r2,r6
        0x0000386a:    3210        .2      ADDS     r2,r2,#0x10
        0x0000386c:    4629        )F      MOV      r1,r5
        0x0000386e:    3118        .1      ADDS     r1,r1,#0x18
        0x00003870:    9000        ..      STR      r0,[sp,#0]
        0x00003872:    7820         x      LDRB     r0,[r4,#0]
        0x00003874:    230f        .#      MOVS     r3,#0xf
        0x00003876:    f001fe4d    ..M.    BL       writeOneSprite ; 0x5514
        0x0000387a:    7820         x      LDRB     r0,[r4,#0]
        0x0000387c:    1c40        @.      ADDS     r0,r0,#1
        0x0000387e:    7020         p      STRB     r0,[r4,#0]
        0x00003880:    2020                MOVS     r0,#0x20
        0x00003882:    1832        2.      ADDS     r2,r6,r0
        0x00003884:    4629        )F      MOV      r1,r5
        0x00003886:    9000        ..      STR      r0,[sp,#0]
        0x00003888:    7820         x      LDRB     r0,[r4,#0]
        0x0000388a:    2310        .#      MOVS     r3,#0x10
        0x0000388c:    f001fe42    ..B.    BL       writeOneSprite ; 0x5514
        0x00003890:    7820         x      LDRB     r0,[r4,#0]
        0x00003892:    1c40        @.      ADDS     r0,r0,#1
        0x00003894:    7020         p      STRB     r0,[r4,#0]
        0x00003896:    2020                MOVS     r0,#0x20
        0x00003898:    1832        2.      ADDS     r2,r6,r0
        0x0000389a:    4629        )F      MOV      r1,r5
        0x0000389c:    3110        .1      ADDS     r1,r1,#0x10
        0x0000389e:    9000        ..      STR      r0,[sp,#0]
        0x000038a0:    7820         x      LDRB     r0,[r4,#0]
        0x000038a2:    2311        .#      MOVS     r3,#0x11
        0x000038a4:    f001fe36    ..6.    BL       writeOneSprite ; 0x5514
        0x000038a8:    7820         x      LDRB     r0,[r4,#0]
        0x000038aa:    1c40        @.      ADDS     r0,r0,#1
        0x000038ac:    7020         p      STRB     r0,[r4,#0]
        0x000038ae:    bdf8        ..      POP      {r3-r7,pc}
    i.new_boomDraw
    new_boomDraw
        0x000038b0:    b5fe        ..      PUSH     {r1-r7,lr}
        0x000038b2:    4605        .F      MOV      r5,r0
        0x000038b4:    460e        .F      MOV      r6,r1
        0x000038b6:    2400        .$      MOVS     r4,#0
        0x000038b8:    e05a        Z.      B        0x3970 ; new_boomDraw + 192
        0x000038ba:    00e0        ..      LSLS     r0,r4,#3
        0x000038bc:    1940        @.      ADDS     r0,r0,r5
        0x000038be:    7900        .y      LDRB     r0,[r0,#4]
        0x000038c0:    2800        .(      CMP      r0,#0
        0x000038c2:    d054        T.      BEQ      0x396e ; new_boomDraw + 190
        0x000038c4:    00e0        ..      LSLS     r0,r4,#3
        0x000038c6:    1940        @.      ADDS     r0,r0,r5
        0x000038c8:    7940        @y      LDRB     r0,[r0,#5]
        0x000038ca:    0640        @.      LSLS     r0,r0,#25
        0x000038cc:    0e07        ..      LSRS     r7,r0,#24
        0x000038ce:    2010        .       MOVS     r0,#0x10
        0x000038d0:    4639        9F      MOV      r1,r7
        0x000038d2:    31e0        .1      ADDS     r1,r1,#0xe0
        0x000038d4:    b2cb        ..      UXTB     r3,r1
        0x000038d6:    00e1        ..      LSLS     r1,r4,#3
        0x000038d8:    1949        I.      ADDS     r1,r1,r5
        0x000038da:    9000        ..      STR      r0,[sp,#0]
        0x000038dc:    8849        I.      LDRH     r1,[r1,#2]
        0x000038de:    b2ca        ..      UXTB     r2,r1
        0x000038e0:    00e1        ..      LSLS     r1,r4,#3
        0x000038e2:    5a69        iZ      LDRH     r1,[r5,r1]
        0x000038e4:    b2c9        ..      UXTB     r1,r1
        0x000038e6:    9101        ..      STR      r1,[sp,#4]
        0x000038e8:    7830        0x      LDRB     r0,[r6,#0]
        0x000038ea:    f001fe13    ....    BL       writeOneSprite ; 0x5514
        0x000038ee:    2010        .       MOVS     r0,#0x10
        0x000038f0:    463b        ;F      MOV      r3,r7
        0x000038f2:    33e1        .3      ADDS     r3,r3,#0xe1
        0x000038f4:    b2db        ..      UXTB     r3,r3
        0x000038f6:    9301        ..      STR      r3,[sp,#4]
        0x000038f8:    9000        ..      STR      r0,[sp,#0]
        0x000038fa:    00e3        ..      LSLS     r3,r4,#3
        0x000038fc:    195b        [.      ADDS     r3,r3,r5
        0x000038fe:    885b        [.      LDRH     r3,[r3,#2]
        0x00003900:    b2da        ..      UXTB     r2,r3
        0x00003902:    00e3        ..      LSLS     r3,r4,#3
        0x00003904:    5aeb        .Z      LDRH     r3,[r5,r3]
        0x00003906:    3308        .3      ADDS     r3,r3,#8
        0x00003908:    b2d9        ..      UXTB     r1,r3
        0x0000390a:    7833        3x      LDRB     r3,[r6,#0]
        0x0000390c:    1c5b        [.      ADDS     r3,r3,#1
        0x0000390e:    b2d8        ..      UXTB     r0,r3
        0x00003910:    9b01        ..      LDR      r3,[sp,#4]
        0x00003912:    f001fdff    ....    BL       writeOneSprite ; 0x5514
        0x00003916:    20d0        .       MOVS     r0,#0xd0
        0x00003918:    4639        9F      MOV      r1,r7
        0x0000391a:    31e1        .1      ADDS     r1,r1,#0xe1
        0x0000391c:    b2cb        ..      UXTB     r3,r1
        0x0000391e:    00e1        ..      LSLS     r1,r4,#3
        0x00003920:    1949        I.      ADDS     r1,r1,r5
        0x00003922:    9000        ..      STR      r0,[sp,#0]
        0x00003924:    8849        I.      LDRH     r1,[r1,#2]
        0x00003926:    1dc9        ..      ADDS     r1,r1,#7
        0x00003928:    b2ca        ..      UXTB     r2,r1
        0x0000392a:    00e1        ..      LSLS     r1,r4,#3
        0x0000392c:    5a69        iZ      LDRH     r1,[r5,r1]
        0x0000392e:    b2c9        ..      UXTB     r1,r1
        0x00003930:    9101        ..      STR      r1,[sp,#4]
        0x00003932:    7831        1x      LDRB     r1,[r6,#0]
        0x00003934:    1c89        ..      ADDS     r1,r1,#2
        0x00003936:    b2c8        ..      UXTB     r0,r1
        0x00003938:    9901        ..      LDR      r1,[sp,#4]
        0x0000393a:    f001fdeb    ....    BL       writeOneSprite ; 0x5514
        0x0000393e:    20d0        .       MOVS     r0,#0xd0
        0x00003940:    9000        ..      STR      r0,[sp,#0]
        0x00003942:    4638        8F      MOV      r0,r7
        0x00003944:    30e0        .0      ADDS     r0,r0,#0xe0
        0x00003946:    b2c3        ..      UXTB     r3,r0
        0x00003948:    00e0        ..      LSLS     r0,r4,#3
        0x0000394a:    1940        @.      ADDS     r0,r0,r5
        0x0000394c:    8840        @.      LDRH     r0,[r0,#2]
        0x0000394e:    1dc0        ..      ADDS     r0,r0,#7
        0x00003950:    b2c2        ..      UXTB     r2,r0
        0x00003952:    00e0        ..      LSLS     r0,r4,#3
        0x00003954:    5a28        (Z      LDRH     r0,[r5,r0]
        0x00003956:    3008        .0      ADDS     r0,r0,#8
        0x00003958:    b2c1        ..      UXTB     r1,r0
        0x0000395a:    7830        0x      LDRB     r0,[r6,#0]
        0x0000395c:    1cc0        ..      ADDS     r0,r0,#3
        0x0000395e:    b2c0        ..      UXTB     r0,r0
        0x00003960:    9001        ..      STR      r0,[sp,#4]
        0x00003962:    f001fdd7    ....    BL       writeOneSprite ; 0x5514
        0x00003966:    7830        0x      LDRB     r0,[r6,#0]
        0x00003968:    1d00        ..      ADDS     r0,r0,#4
        0x0000396a:    7030        0p      STRB     r0,[r6,#0]
        0x0000396c:    bf00        ..      NOP      
        0x0000396e:    1c64        d.      ADDS     r4,r4,#1
        0x00003970:    4802        .H      LDR      r0,[pc,#8] ; [0x397c] = 0x553e
        0x00003972:    7800        .x      LDRB     r0,[r0,#0]
        0x00003974:    4284        .B      CMP      r4,r0
        0x00003976:    dba0        ..      BLT      0x38ba ; new_boomDraw + 10
        0x00003978:    bdfe        ..      POP      {r1-r7,pc}
    $d
        0x0000397a:    0000        ..      DCW    0
        0x0000397c:    0000553e    >U..    DCD    21822
    $t
    i.new_boomInit
    new_boomInit
        0x00003980:    4601        .F      MOV      r1,r0
        0x00003982:    2000        .       MOVS     r0,#0
        0x00003984:    e004        ..      B        0x3990 ; new_boomInit + 16
        0x00003986:    2200        ."      MOVS     r2,#0
        0x00003988:    00c3        ..      LSLS     r3,r0,#3
        0x0000398a:    185b        [.      ADDS     r3,r3,r1
        0x0000398c:    711a        .q      STRB     r2,[r3,#4]
        0x0000398e:    1c40        @.      ADDS     r0,r0,#1
        0x00003990:    4a02        .J      LDR      r2,[pc,#8] ; [0x399c] = 0x553e
        0x00003992:    7812        .x      LDRB     r2,[r2,#0]
        0x00003994:    4290        .B      CMP      r0,r2
        0x00003996:    dbf6        ..      BLT      0x3986 ; new_boomInit + 6
        0x00003998:    4770        pG      BX       lr
    $d
        0x0000399a:    0000        ..      DCW    0
        0x0000399c:    0000553e    >U..    DCD    21822
    $t
    i.new_createOneBoom
    new_createOneBoom
        0x000039a0:    b530        0.      PUSH     {r4,r5,lr}
        0x000039a2:    4603        .F      MOV      r3,r0
        0x000039a4:    2000        .       MOVS     r0,#0
        0x000039a6:    e016        ..      B        0x39d6 ; new_createOneBoom + 54
        0x000039a8:    00c4        ..      LSLS     r4,r0,#3
        0x000039aa:    18a4        ..      ADDS     r4,r4,r2
        0x000039ac:    7924        $y      LDRB     r4,[r4,#4]
        0x000039ae:    2c00        .,      CMP      r4,#0
        0x000039b0:    d110        ..      BNE      0x39d4 ; new_createOneBoom + 52
        0x000039b2:    00c5        ..      LSLS     r5,r0,#3
        0x000039b4:    18ad        ..      ADDS     r5,r5,r2
        0x000039b6:    716c        lq      STRB     r4,[r5,#5]
        0x000039b8:    00c4        ..      LSLS     r4,r0,#3
        0x000039ba:    5313        .S      STRH     r3,[r2,r4]
        0x000039bc:    00c4        ..      LSLS     r4,r0,#3
        0x000039be:    18a4        ..      ADDS     r4,r4,r2
        0x000039c0:    8061        a.      STRH     r1,[r4,#2]
        0x000039c2:    2401        .$      MOVS     r4,#1
        0x000039c4:    00c5        ..      LSLS     r5,r0,#3
        0x000039c6:    18ad        ..      ADDS     r5,r5,r2
        0x000039c8:    712c        ,q      STRB     r4,[r5,#4]
        0x000039ca:    2400        .$      MOVS     r4,#0
        0x000039cc:    00c5        ..      LSLS     r5,r0,#3
        0x000039ce:    18ad        ..      ADDS     r5,r5,r2
        0x000039d0:    71ac        .q      STRB     r4,[r5,#6]
        0x000039d2:    e004        ..      B        0x39de ; new_createOneBoom + 62
        0x000039d4:    1c40        @.      ADDS     r0,r0,#1
        0x000039d6:    4c03        .L      LDR      r4,[pc,#12] ; [0x39e4] = 0x553e
        0x000039d8:    7824        $x      LDRB     r4,[r4,#0]
        0x000039da:    42a0        .B      CMP      r0,r4
        0x000039dc:    dbe4        ..      BLT      0x39a8 ; new_createOneBoom + 8
        0x000039de:    bf00        ..      NOP      
        0x000039e0:    bd30        0.      POP      {r4,r5,pc}
    $d
        0x000039e2:    0000        ..      DCW    0
        0x000039e4:    0000553e    >U..    DCD    21822
    $t
    i.new_updateBoomData
    new_updateBoomData
        0x000039e8:    4601        .F      MOV      r1,r0
        0x000039ea:    2000        .       MOVS     r0,#0
        0x000039ec:    e026        &.      B        0x3a3c ; new_updateBoomData + 84
        0x000039ee:    00c2        ..      LSLS     r2,r0,#3
        0x000039f0:    1852        R.      ADDS     r2,r2,r1
        0x000039f2:    7912        .y      LDRB     r2,[r2,#4]
        0x000039f4:    2a00        .*      CMP      r2,#0
        0x000039f6:    d020         .      BEQ      0x3a3a ; new_updateBoomData + 82
        0x000039f8:    00c2        ..      LSLS     r2,r0,#3
        0x000039fa:    1852        R.      ADDS     r2,r2,r1
        0x000039fc:    7992        .y      LDRB     r2,[r2,#6]
        0x000039fe:    2a05        .*      CMP      r2,#5
        0x00003a00:    da07        ..      BGE      0x3a12 ; new_updateBoomData + 42
        0x00003a02:    00c2        ..      LSLS     r2,r0,#3
        0x00003a04:    1852        R.      ADDS     r2,r2,r1
        0x00003a06:    7992        .y      LDRB     r2,[r2,#6]
        0x00003a08:    1c52        R.      ADDS     r2,r2,#1
        0x00003a0a:    00c3        ..      LSLS     r3,r0,#3
        0x00003a0c:    185b        [.      ADDS     r3,r3,r1
        0x00003a0e:    719a        .q      STRB     r2,[r3,#6]
        0x00003a10:    e013        ..      B        0x3a3a ; new_updateBoomData + 82
        0x00003a12:    2200        ."      MOVS     r2,#0
        0x00003a14:    00c3        ..      LSLS     r3,r0,#3
        0x00003a16:    185b        [.      ADDS     r3,r3,r1
        0x00003a18:    719a        .q      STRB     r2,[r3,#6]
        0x00003a1a:    00c2        ..      LSLS     r2,r0,#3
        0x00003a1c:    1852        R.      ADDS     r2,r2,r1
        0x00003a1e:    7952        Ry      LDRB     r2,[r2,#5]
        0x00003a20:    1c52        R.      ADDS     r2,r2,#1
        0x00003a22:    00c3        ..      LSLS     r3,r0,#3
        0x00003a24:    185b        [.      ADDS     r3,r3,r1
        0x00003a26:    715a        Zq      STRB     r2,[r3,#5]
        0x00003a28:    00c2        ..      LSLS     r2,r0,#3
        0x00003a2a:    1852        R.      ADDS     r2,r2,r1
        0x00003a2c:    7952        Ry      LDRB     r2,[r2,#5]
        0x00003a2e:    2a04        .*      CMP      r2,#4
        0x00003a30:    db03        ..      BLT      0x3a3a ; new_updateBoomData + 82
        0x00003a32:    2200        ."      MOVS     r2,#0
        0x00003a34:    00c3        ..      LSLS     r3,r0,#3
        0x00003a36:    185b        [.      ADDS     r3,r3,r1
        0x00003a38:    711a        .q      STRB     r2,[r3,#4]
        0x00003a3a:    1c40        @.      ADDS     r0,r0,#1
        0x00003a3c:    4a02        .J      LDR      r2,[pc,#8] ; [0x3a48] = 0x553e
        0x00003a3e:    7812        .x      LDRB     r2,[r2,#0]
        0x00003a40:    4290        .B      CMP      r0,r2
        0x00003a42:    dbd4        ..      BLT      0x39ee ; new_updateBoomData + 6
        0x00003a44:    4770        pG      BX       lr
    $d
        0x00003a46:    0000        ..      DCW    0
        0x00003a48:    0000553e    >U..    DCD    21822
    $t
    i.readPs2DI
    readPs2DI
        0x00003a4c:    4801        .H      LDR      r0,[pc,#4] ; [0x3a54] = 0x40005000
        0x00003a4e:    68c0        .h      LDR      r0,[r0,#0xc]
        0x00003a50:    4770        pG      BX       lr
    $d
        0x00003a52:    0000        ..      DCW    0
        0x00003a54:    40005000    .P.@    DCD    1073762304
    $t
    i.s_green_createOnePlane
    s_green_createOnePlane
        0x00003a58:    b5ff        ..      PUSH     {r0-r7,lr}
        0x00003a5a:    b081        ..      SUB      sp,sp,#4
        0x00003a5c:    4605        .F      MOV      r5,r0
        0x00003a5e:    461e        .F      MOV      r6,r3
        0x00003a60:    2400        .$      MOVS     r4,#0
        0x00003a62:    e0fd        ..      B        0x3c60 ; s_green_createOnePlane + 520
        0x00003a64:    201e        .       MOVS     r0,#0x1e
        0x00003a66:    4360        `C      MULS     r0,r4,r0
        0x00003a68:    5c28        (\      LDRB     r0,[r5,r0]
        0x00003a6a:    2800        .(      CMP      r0,#0
        0x00003a6c:    d17e        ~.      BNE      0x3b6c ; s_green_createOnePlane + 276
        0x00003a6e:    2101        .!      MOVS     r1,#1
        0x00003a70:    201e        .       MOVS     r0,#0x1e
        0x00003a72:    4360        `C      MULS     r0,r4,r0
        0x00003a74:    5429        )T      STRB     r1,[r5,r0]
        0x00003a76:    2100        .!      MOVS     r1,#0
        0x00003a78:    201e        .       MOVS     r0,#0x1e
        0x00003a7a:    4360        `C      MULS     r0,r4,r0
        0x00003a7c:    1940        @.      ADDS     r0,r0,r5
        0x00003a7e:    7041        Ap      STRB     r1,[r0,#1]
        0x00003a80:    f7fcfb7c    ..|.    BL       rand ; 0x17c
        0x00003a84:    4607        .F      MOV      r7,r0
        0x00003a86:    2103        .!      MOVS     r1,#3
        0x00003a88:    f7fcfb64    ..d.    BL       __aeabi_idiv ; 0x154
        0x00003a8c:    2014        .       MOVS     r0,#0x14
        0x00003a8e:    4341        AC      MULS     r1,r0,r1
        0x00003a90:    4630        0F      MOV      r0,r6
        0x00003a92:    383c        <8      SUBS     r0,r0,#0x3c
        0x00003a94:    1a40        @.      SUBS     r0,r0,r1
        0x00003a96:    b201        ..      SXTH     r1,r0
        0x00003a98:    201e        .       MOVS     r0,#0x1e
        0x00003a9a:    4360        `C      MULS     r0,r4,r0
        0x00003a9c:    1940        @.      ADDS     r0,r0,r5
        0x00003a9e:    8081        ..      STRH     r1,[r0,#4]
        0x00003aa0:    2100        .!      MOVS     r1,#0
        0x00003aa2:    201e        .       MOVS     r0,#0x1e
        0x00003aa4:    4360        `C      MULS     r0,r4,r0
        0x00003aa6:    1940        @.      ADDS     r0,r0,r5
        0x00003aa8:    71c1        .q      STRB     r1,[r0,#7]
        0x00003aaa:    f7fcfb67    ..g.    BL       rand ; 0x17c
        0x00003aae:    4607        .F      MOV      r7,r0
        0x00003ab0:    0fc0        ..      LSRS     r0,r0,#31
        0x00003ab2:    19c0        ..      ADDS     r0,r0,r7
        0x00003ab4:    1040        @.      ASRS     r0,r0,#1
        0x00003ab6:    0040        @.      LSLS     r0,r0,#1
        0x00003ab8:    1a38        8.      SUBS     r0,r7,r0
        0x00003aba:    b241        A.      SXTB     r1,r0
        0x00003abc:    201e        .       MOVS     r0,#0x1e
        0x00003abe:    4360        `C      MULS     r0,r4,r0
        0x00003ac0:    1940        @.      ADDS     r0,r0,r5
        0x00003ac2:    7241        Ar      STRB     r1,[r0,#9]
        0x00003ac4:    211e        .!      MOVS     r1,#0x1e
        0x00003ac6:    4361        aC      MULS     r1,r4,r1
        0x00003ac8:    1949        I.      ADDS     r1,r1,r5
        0x00003aca:    9802        ..      LDR      r0,[sp,#8]
        0x00003acc:    7188        .q      STRB     r0,[r1,#6]
        0x00003ace:    201e        .       MOVS     r0,#0x1e
        0x00003ad0:    4360        `C      MULS     r0,r4,r0
        0x00003ad2:    1940        @.      ADDS     r0,r0,r5
        0x00003ad4:    7980        .y      LDRB     r0,[r0,#6]
        0x00003ad6:    2800        .(      CMP      r0,#0
        0x00003ad8:    d16e        n.      BNE      0x3bb8 ; s_green_createOnePlane + 352
        0x00003ada:    210f        .!      MOVS     r1,#0xf
        0x00003adc:    201e        .       MOVS     r0,#0x1e
        0x00003ade:    4360        `C      MULS     r0,r4,r0
        0x00003ae0:    1940        @.      ADDS     r0,r0,r5
        0x00003ae2:    8041        A.      STRH     r1,[r0,#2]
        0x00003ae4:    2100        .!      MOVS     r1,#0
        0x00003ae6:    201e        .       MOVS     r0,#0x1e
        0x00003ae8:    4360        `C      MULS     r0,r4,r0
        0x00003aea:    1940        @.      ADDS     r0,r0,r5
        0x00003aec:    7701        .w      STRB     r1,[r0,#0x1c]
        0x00003aee:    f7fcfb45    ..E.    BL       rand ; 0x17c
        0x00003af2:    4607        .F      MOV      r7,r0
        0x00003af4:    0fc0        ..      LSRS     r0,r0,#31
        0x00003af6:    19c0        ..      ADDS     r0,r0,r7
        0x00003af8:    1040        @.      ASRS     r0,r0,#1
        0x00003afa:    0040        @.      LSLS     r0,r0,#1
        0x00003afc:    1a38        8.      SUBS     r0,r7,r0
        0x00003afe:    1c80        ..      ADDS     r0,r0,#2
        0x00003b00:    b241        A.      SXTB     r1,r0
        0x00003b02:    201e        .       MOVS     r0,#0x1e
        0x00003b04:    4360        `C      MULS     r0,r4,r0
        0x00003b06:    1940        @.      ADDS     r0,r0,r5
        0x00003b08:    7201        .r      STRB     r1,[r0,#8]
        0x00003b0a:    f7fcfb37    ..7.    BL       rand ; 0x17c
        0x00003b0e:    210a        .!      MOVS     r1,#0xa
        0x00003b10:    4348        HC      MULS     r0,r1,r0
        0x00003b12:    4607        .F      MOV      r7,r0
        0x00003b14:    0fc0        ..      LSRS     r0,r0,#31
        0x00003b16:    19c0        ..      ADDS     r0,r0,r7
        0x00003b18:    1040        @.      ASRS     r0,r0,#1
        0x00003b1a:    0040        @.      LSLS     r0,r0,#1
        0x00003b1c:    1a39        9.      SUBS     r1,r7,r0
        0x00003b1e:    9803        ..      LDR      r0,[sp,#0xc]
        0x00003b20:    3832        28      SUBS     r0,r0,#0x32
        0x00003b22:    1808        ..      ADDS     r0,r1,r0
        0x00003b24:    b201        ..      SXTH     r1,r0
        0x00003b26:    201e        .       MOVS     r0,#0x1e
        0x00003b28:    4360        `C      MULS     r0,r4,r0
        0x00003b2a:    1940        @.      ADDS     r0,r0,r5
        0x00003b2c:    8181        ..      STRH     r1,[r0,#0xc]
        0x00003b2e:    f7fcfb25    ..%.    BL       rand ; 0x17c
        0x00003b32:    2114        .!      MOVS     r1,#0x14
        0x00003b34:    4348        HC      MULS     r0,r1,r0
        0x00003b36:    4607        .F      MOV      r7,r0
        0x00003b38:    0fc0        ..      LSRS     r0,r0,#31
        0x00003b3a:    19c0        ..      ADDS     r0,r0,r7
        0x00003b3c:    1040        @.      ASRS     r0,r0,#1
        0x00003b3e:    0040        @.      LSLS     r0,r0,#1
        0x00003b40:    1a39        9.      SUBS     r1,r7,r0
        0x00003b42:    201e        .       MOVS     r0,#0x1e
        0x00003b44:    4360        `C      MULS     r0,r4,r0
        0x00003b46:    1940        @.      ADDS     r0,r0,r5
        0x00003b48:    8980        ..      LDRH     r0,[r0,#0xc]
        0x00003b4a:    301e        .0      ADDS     r0,r0,#0x1e
        0x00003b4c:    1808        ..      ADDS     r0,r1,r0
        0x00003b4e:    b201        ..      SXTH     r1,r0
        0x00003b50:    201e        .       MOVS     r0,#0x1e
        0x00003b52:    4360        `C      MULS     r0,r4,r0
        0x00003b54:    1940        @.      ADDS     r0,r0,r5
        0x00003b56:    81c1        ..      STRH     r1,[r0,#0xe]
        0x00003b58:    f7fcfb10    ....    BL       rand ; 0x17c
        0x00003b5c:    2114        .!      MOVS     r1,#0x14
        0x00003b5e:    4348        HC      MULS     r0,r1,r0
        0x00003b60:    4607        .F      MOV      r7,r0
        0x00003b62:    0fc0        ..      LSRS     r0,r0,#31
        0x00003b64:    19c0        ..      ADDS     r0,r0,r7
        0x00003b66:    1040        @.      ASRS     r0,r0,#1
        0x00003b68:    0040        @.      LSLS     r0,r0,#1
        0x00003b6a:    e000        ..      B        0x3b6e ; s_green_createOnePlane + 278
        0x00003b6c:    e077        w.      B        0x3c5e ; s_green_createOnePlane + 518
        0x00003b6e:    1a39        9.      SUBS     r1,r7,r0
        0x00003b70:    4630        0F      MOV      r0,r6
        0x00003b72:    3814        .8      SUBS     r0,r0,#0x14
        0x00003b74:    1a40        @.      SUBS     r0,r0,r1
        0x00003b76:    b201        ..      SXTH     r1,r0
        0x00003b78:    201e        .       MOVS     r0,#0x1e
        0x00003b7a:    4360        `C      MULS     r0,r4,r0
        0x00003b7c:    1940        @.      ADDS     r0,r0,r5
        0x00003b7e:    8201        ..      STRH     r1,[r0,#0x10]
        0x00003b80:    f7fcfafc    ....    BL       rand ; 0x17c
        0x00003b84:    4607        .F      MOV      r7,r0
        0x00003b86:    211e        .!      MOVS     r1,#0x1e
        0x00003b88:    f7fcfae4    ....    BL       __aeabi_idiv ; 0x154
        0x00003b8c:    201e        .       MOVS     r0,#0x1e
        0x00003b8e:    4360        `C      MULS     r0,r4,r0
        0x00003b90:    1940        @.      ADDS     r0,r0,r5
        0x00003b92:    8a00        ..      LDRH     r0,[r0,#0x10]
        0x00003b94:    3014        .0      ADDS     r0,r0,#0x14
        0x00003b96:    1808        ..      ADDS     r0,r1,r0
        0x00003b98:    b201        ..      SXTH     r1,r0
        0x00003b9a:    201e        .       MOVS     r0,#0x1e
        0x00003b9c:    4360        `C      MULS     r0,r4,r0
        0x00003b9e:    1940        @.      ADDS     r0,r0,r5
        0x00003ba0:    8241        A.      STRH     r1,[r0,#0x12]
        0x00003ba2:    201e        .       MOVS     r0,#0x1e
        0x00003ba4:    4360        `C      MULS     r0,r4,r0
        0x00003ba6:    1940        @.      ADDS     r0,r0,r5
        0x00003ba8:    89c0        ..      LDRH     r0,[r0,#0xe]
        0x00003baa:    381e        .8      SUBS     r0,r0,#0x1e
        0x00003bac:    b201        ..      SXTH     r1,r0
        0x00003bae:    201e        .       MOVS     r0,#0x1e
        0x00003bb0:    4360        `C      MULS     r0,r4,r0
        0x00003bb2:    1940        @.      ADDS     r0,r0,r5
        0x00003bb4:    8281        ..      STRH     r1,[r0,#0x14]
        0x00003bb6:    e051        Q.      B        0x3c5c ; s_green_createOnePlane + 516
        0x00003bb8:    21f1        .!      MOVS     r1,#0xf1
        0x00003bba:    201e        .       MOVS     r0,#0x1e
        0x00003bbc:    4360        `C      MULS     r0,r4,r0
        0x00003bbe:    1940        @.      ADDS     r0,r0,r5
        0x00003bc0:    8041        A.      STRH     r1,[r0,#2]
        0x00003bc2:    2104        .!      MOVS     r1,#4
        0x00003bc4:    201e        .       MOVS     r0,#0x1e
        0x00003bc6:    4360        `C      MULS     r0,r4,r0
        0x00003bc8:    1940        @.      ADDS     r0,r0,r5
        0x00003bca:    7701        .w      STRB     r1,[r0,#0x1c]
        0x00003bcc:    f7fcfad6    ....    BL       rand ; 0x17c
        0x00003bd0:    4247        GB      RSBS     r7,r0,#0
        0x00003bd2:    0ff8        ..      LSRS     r0,r7,#31
        0x00003bd4:    19c0        ..      ADDS     r0,r0,r7
        0x00003bd6:    1040        @.      ASRS     r0,r0,#1
        0x00003bd8:    0040        @.      LSLS     r0,r0,#1
        0x00003bda:    1a38        8.      SUBS     r0,r7,r0
        0x00003bdc:    1e80        ..      SUBS     r0,r0,#2
        0x00003bde:    b241        A.      SXTB     r1,r0
        0x00003be0:    201e        .       MOVS     r0,#0x1e
        0x00003be2:    4360        `C      MULS     r0,r4,r0
        0x00003be4:    1940        @.      ADDS     r0,r0,r5
        0x00003be6:    7201        .r      STRB     r1,[r0,#8]
        0x00003be8:    f7fcfac8    ....    BL       rand ; 0x17c
        0x00003bec:    4607        .F      MOV      r7,r0
        0x00003bee:    2114        .!      MOVS     r1,#0x14
        0x00003bf0:    f7fcfab0    ....    BL       __aeabi_idiv ; 0x154
        0x00003bf4:    9803        ..      LDR      r0,[sp,#0xc]
        0x00003bf6:    3032        20      ADDS     r0,r0,#0x32
        0x00003bf8:    1808        ..      ADDS     r0,r1,r0
        0x00003bfa:    b201        ..      SXTH     r1,r0
        0x00003bfc:    201e        .       MOVS     r0,#0x1e
        0x00003bfe:    4360        `C      MULS     r0,r4,r0
        0x00003c00:    1940        @.      ADDS     r0,r0,r5
        0x00003c02:    8181        ..      STRH     r1,[r0,#0xc]
        0x00003c04:    201e        .       MOVS     r0,#0x1e
        0x00003c06:    4360        `C      MULS     r0,r4,r0
        0x00003c08:    1940        @.      ADDS     r0,r0,r5
        0x00003c0a:    8980        ..      LDRH     r0,[r0,#0xc]
        0x00003c0c:    383c        <8      SUBS     r0,r0,#0x3c
        0x00003c0e:    b201        ..      SXTH     r1,r0
        0x00003c10:    201e        .       MOVS     r0,#0x1e
        0x00003c12:    4360        `C      MULS     r0,r4,r0
        0x00003c14:    1940        @.      ADDS     r0,r0,r5
        0x00003c16:    81c1        ..      STRH     r1,[r0,#0xe]
        0x00003c18:    4630        0F      MOV      r0,r6
        0x00003c1a:    3814        .8      SUBS     r0,r0,#0x14
        0x00003c1c:    b201        ..      SXTH     r1,r0
        0x00003c1e:    201e        .       MOVS     r0,#0x1e
        0x00003c20:    4360        `C      MULS     r0,r4,r0
        0x00003c22:    1940        @.      ADDS     r0,r0,r5
        0x00003c24:    8201        ..      STRH     r1,[r0,#0x10]
        0x00003c26:    f7fcfaa9    ....    BL       rand ; 0x17c
        0x00003c2a:    4607        .F      MOV      r7,r0
        0x00003c2c:    211e        .!      MOVS     r1,#0x1e
        0x00003c2e:    f7fcfa91    ....    BL       __aeabi_idiv ; 0x154
        0x00003c32:    201e        .       MOVS     r0,#0x1e
        0x00003c34:    4360        `C      MULS     r0,r4,r0
        0x00003c36:    1940        @.      ADDS     r0,r0,r5
        0x00003c38:    8a00        ..      LDRH     r0,[r0,#0x10]
        0x00003c3a:    3014        .0      ADDS     r0,r0,#0x14
        0x00003c3c:    1808        ..      ADDS     r0,r1,r0
        0x00003c3e:    b201        ..      SXTH     r1,r0
        0x00003c40:    201e        .       MOVS     r0,#0x1e
        0x00003c42:    4360        `C      MULS     r0,r4,r0
        0x00003c44:    1940        @.      ADDS     r0,r0,r5
        0x00003c46:    8241        A.      STRH     r1,[r0,#0x12]
        0x00003c48:    201e        .       MOVS     r0,#0x1e
        0x00003c4a:    4360        `C      MULS     r0,r4,r0
        0x00003c4c:    1940        @.      ADDS     r0,r0,r5
        0x00003c4e:    89c0        ..      LDRH     r0,[r0,#0xe]
        0x00003c50:    301e        .0      ADDS     r0,r0,#0x1e
        0x00003c52:    b201        ..      SXTH     r1,r0
        0x00003c54:    201e        .       MOVS     r0,#0x1e
        0x00003c56:    4360        `C      MULS     r0,r4,r0
        0x00003c58:    1940        @.      ADDS     r0,r0,r5
        0x00003c5a:    8281        ..      STRH     r1,[r0,#0x14]
        0x00003c5c:    e005        ..      B        0x3c6a ; s_green_createOnePlane + 530
        0x00003c5e:    1c64        d.      ADDS     r4,r4,#1
        0x00003c60:    4803        .H      LDR      r0,[pc,#12] ; [0x3c70] = 0x553a
        0x00003c62:    7800        .x      LDRB     r0,[r0,#0]
        0x00003c64:    4284        .B      CMP      r4,r0
        0x00003c66:    da00        ..      BGE      0x3c6a ; s_green_createOnePlane + 530
        0x00003c68:    e6fc        ..      B        0x3a64 ; s_green_createOnePlane + 12
        0x00003c6a:    bf00        ..      NOP      
        0x00003c6c:    b005        ..      ADD      sp,sp,#0x14
        0x00003c6e:    bdf0        ..      POP      {r4-r7,pc}
    $d
        0x00003c70:    0000553a    :U..    DCD    21818
    $t
    i.s_green_createPlane_221
    s_green_createPlane_221
        0x00003c74:    b5f8        ..      PUSH     {r3-r7,lr}
        0x00003c76:    4607        .F      MOV      r7,r0
        0x00003c78:    460e        .F      MOV      r6,r1
        0x00003c7a:    4614        .F      MOV      r4,r2
        0x00003c7c:    f7fcfa7e    ..~.    BL       rand ; 0x17c
        0x00003c80:    4605        .F      MOV      r5,r0
        0x00003c82:    0fc0        ..      LSRS     r0,r0,#31
        0x00003c84:    1940        @.      ADDS     r0,r0,r5
        0x00003c86:    1040        @.      ASRS     r0,r0,#1
        0x00003c88:    0040        @.      LSLS     r0,r0,#1
        0x00003c8a:    1a28        (.      SUBS     r0,r5,r0
        0x00003c8c:    b2c0        ..      UXTB     r0,r0
        0x00003c8e:    9000        ..      STR      r0,[sp,#0]
        0x00003c90:    4623        #F      MOV      r3,r4
        0x00003c92:    4632        2F      MOV      r2,r6
        0x00003c94:    4638        8F      MOV      r0,r7
        0x00003c96:    9900        ..      LDR      r1,[sp,#0]
        0x00003c98:    f7fffede    ....    BL       s_green_createOnePlane ; 0x3a58
        0x00003c9c:    4620         F      MOV      r0,r4
        0x00003c9e:    3014        .0      ADDS     r0,r0,#0x14
        0x00003ca0:    b203        ..      SXTH     r3,r0
        0x00003ca2:    4632        2F      MOV      r2,r6
        0x00003ca4:    4638        8F      MOV      r0,r7
        0x00003ca6:    9900        ..      LDR      r1,[sp,#0]
        0x00003ca8:    f7fffed6    ....    BL       s_green_createOnePlane ; 0x3a58
        0x00003cac:    bdf8        ..      POP      {r3-r7,pc}
    i.s_green_createPlane_222
    s_green_createPlane_222
        0x00003cae:    b5f7        ..      PUSH     {r0-r2,r4-r7,lr}
        0x00003cb0:    b082        ..      SUB      sp,sp,#8
        0x00003cb2:    460d        .F      MOV      r5,r1
        0x00003cb4:    4616        .F      MOV      r6,r2
        0x00003cb6:    f7fcfa61    ..a.    BL       rand ; 0x17c
        0x00003cba:    4604        .F      MOV      r4,r0
        0x00003cbc:    0fc0        ..      LSRS     r0,r0,#31
        0x00003cbe:    1900        ..      ADDS     r0,r0,r4
        0x00003cc0:    1040        @.      ASRS     r0,r0,#1
        0x00003cc2:    0040        @.      LSLS     r0,r0,#1
        0x00003cc4:    1a20         .      SUBS     r0,r4,r0
        0x00003cc6:    b2c7        ..      UXTB     r7,r0
        0x00003cc8:    2f01        ./      CMP      r7,#1
        0x00003cca:    d001        ..      BEQ      0x3cd0 ; s_green_createPlane_222 + 34
        0x00003ccc:    2001        .       MOVS     r0,#1
        0x00003cce:    e000        ..      B        0x3cd2 ; s_green_createPlane_222 + 36
        0x00003cd0:    2000        .       MOVS     r0,#0
        0x00003cd2:    9001        ..      STR      r0,[sp,#4]
        0x00003cd4:    4633        3F      MOV      r3,r6
        0x00003cd6:    462a        *F      MOV      r2,r5
        0x00003cd8:    4639        9F      MOV      r1,r7
        0x00003cda:    9802        ..      LDR      r0,[sp,#8]
        0x00003cdc:    f7fffebc    ....    BL       s_green_createOnePlane ; 0x3a58
        0x00003ce0:    4633        3F      MOV      r3,r6
        0x00003ce2:    462a        *F      MOV      r2,r5
        0x00003ce4:    9901        ..      LDR      r1,[sp,#4]
        0x00003ce6:    9802        ..      LDR      r0,[sp,#8]
        0x00003ce8:    f7fffeb6    ....    BL       s_green_createOnePlane ; 0x3a58
        0x00003cec:    b005        ..      ADD      sp,sp,#0x14
        0x00003cee:    bdf0        ..      POP      {r4-r7,pc}
    i.s_green_createPlane_243
    s_green_createPlane_243
        0x00003cf0:    b5fe        ..      PUSH     {r1-r7,lr}
        0x00003cf2:    4607        .F      MOV      r7,r0
        0x00003cf4:    460d        .F      MOV      r5,r1
        0x00003cf6:    4616        .F      MOV      r6,r2
        0x00003cf8:    4632        2F      MOV      r2,r6
        0x00003cfa:    4629        )F      MOV      r1,r5
        0x00003cfc:    4638        8F      MOV      r0,r7
        0x00003cfe:    f7ffffd6    ....    BL       s_green_createPlane_222 ; 0x3cae
        0x00003d02:    f7fcfa3b    ..;.    BL       rand ; 0x17c
        0x00003d06:    4604        .F      MOV      r4,r0
        0x00003d08:    0fc0        ..      LSRS     r0,r0,#31
        0x00003d0a:    1900        ..      ADDS     r0,r0,r4
        0x00003d0c:    1040        @.      ASRS     r0,r0,#1
        0x00003d0e:    0040        @.      LSLS     r0,r0,#1
        0x00003d10:    1a20         .      SUBS     r0,r4,r0
        0x00003d12:    b2c0        ..      UXTB     r0,r0
        0x00003d14:    9001        ..      STR      r0,[sp,#4]
        0x00003d16:    f7fcfa31    ..1.    BL       rand ; 0x17c
        0x00003d1a:    4604        .F      MOV      r4,r0
        0x00003d1c:    0fc0        ..      LSRS     r0,r0,#31
        0x00003d1e:    1900        ..      ADDS     r0,r0,r4
        0x00003d20:    1040        @.      ASRS     r0,r0,#1
        0x00003d22:    0040        @.      LSLS     r0,r0,#1
        0x00003d24:    1a20         .      SUBS     r0,r4,r0
        0x00003d26:    b2c0        ..      UXTB     r0,r0
        0x00003d28:    9000        ..      STR      r0,[sp,#0]
        0x00003d2a:    4633        3F      MOV      r3,r6
        0x00003d2c:    462a        *F      MOV      r2,r5
        0x00003d2e:    4638        8F      MOV      r0,r7
        0x00003d30:    9901        ..      LDR      r1,[sp,#4]
        0x00003d32:    f7fffe91    ....    BL       s_green_createOnePlane ; 0x3a58
        0x00003d36:    4633        3F      MOV      r3,r6
        0x00003d38:    462a        *F      MOV      r2,r5
        0x00003d3a:    4638        8F      MOV      r0,r7
        0x00003d3c:    9900        ..      LDR      r1,[sp,#0]
        0x00003d3e:    f7fffe8b    ....    BL       s_green_createOnePlane ; 0x3a58
        0x00003d42:    bdfe        ..      POP      {r1-r7,pc}
    i.s_green_createPlane_411
    s_green_createPlane_411
        0x00003d44:    b5f8        ..      PUSH     {r3-r7,lr}
        0x00003d46:    4605        .F      MOV      r5,r0
        0x00003d48:    f7fcfa18    ....    BL       rand ; 0x17c
        0x00003d4c:    4604        .F      MOV      r4,r0
        0x00003d4e:    0fc0        ..      LSRS     r0,r0,#31
        0x00003d50:    1900        ..      ADDS     r0,r0,r4
        0x00003d52:    1040        @.      ASRS     r0,r0,#1
        0x00003d54:    0040        @.      LSLS     r0,r0,#1
        0x00003d56:    1a20         .      SUBS     r0,r4,r0
        0x00003d58:    b2c6        ..      UXTB     r6,r0
        0x00003d5a:    2700        .'      MOVS     r7,#0
        0x00003d5c:    2e00        ..      CMP      r6,#0
        0x00003d5e:    d101        ..      BNE      0x3d64 ; s_green_createPlane_411 + 32
        0x00003d60:    2730        0'      MOVS     r7,#0x30
        0x00003d62:    e000        ..      B        0x3d66 ; s_green_createPlane_411 + 34
        0x00003d64:    27d0        .'      MOVS     r7,#0xd0
        0x00003d66:    4639        9F      MOV      r1,r7
        0x00003d68:    4628        (F      MOV      r0,r5
        0x00003d6a:    f7fef819    ....    BL       m_straight_createOnePlane ; 0x1da0
        0x00003d6e:    bdf8        ..      POP      {r3-r7,pc}
    i.s_green_createPlane_422
    s_green_createPlane_422
        0x00003d70:    b5f8        ..      PUSH     {r3-r7,lr}
        0x00003d72:    4606        .F      MOV      r6,r0
        0x00003d74:    f7fcfa02    ....    BL       rand ; 0x17c
        0x00003d78:    4604        .F      MOV      r4,r0
        0x00003d7a:    0fc0        ..      LSRS     r0,r0,#31
        0x00003d7c:    1900        ..      ADDS     r0,r0,r4
        0x00003d7e:    1040        @.      ASRS     r0,r0,#1
        0x00003d80:    0040        @.      LSLS     r0,r0,#1
        0x00003d82:    1a20         .      SUBS     r0,r4,r0
        0x00003d84:    b2c5        ..      UXTB     r5,r0
        0x00003d86:    2700        .'      MOVS     r7,#0
        0x00003d88:    2d00        .-      CMP      r5,#0
        0x00003d8a:    d101        ..      BNE      0x3d90 ; s_green_createPlane_422 + 32
        0x00003d8c:    2730        0'      MOVS     r7,#0x30
        0x00003d8e:    e000        ..      B        0x3d92 ; s_green_createPlane_422 + 34
        0x00003d90:    27d0        .'      MOVS     r7,#0xd0
        0x00003d92:    4639        9F      MOV      r1,r7
        0x00003d94:    4630        0F      MOV      r0,r6
        0x00003d96:    f7fef803    ....    BL       m_straight_createOnePlane ; 0x1da0
        0x00003d9a:    2d01        .-      CMP      r5,#1
        0x00003d9c:    d101        ..      BNE      0x3da2 ; s_green_createPlane_422 + 50
        0x00003d9e:    2730        0'      MOVS     r7,#0x30
        0x00003da0:    e000        ..      B        0x3da4 ; s_green_createPlane_422 + 52
        0x00003da2:    27d0        .'      MOVS     r7,#0xd0
        0x00003da4:    4639        9F      MOV      r1,r7
        0x00003da6:    4630        0F      MOV      r0,r6
        0x00003da8:    f7fdfffa    ....    BL       m_straight_createOnePlane ; 0x1da0
        0x00003dac:    bdf8        ..      POP      {r3-r7,pc}
        0x00003dae:    0000        ..      MOVS     r0,r0
    i.s_green_drawPlane
    s_green_drawPlane
        0x00003db0:    b5f8        ..      PUSH     {r3-r7,lr}
        0x00003db2:    4605        .F      MOV      r5,r0
        0x00003db4:    460e        .F      MOV      r6,r1
        0x00003db6:    2400        .$      MOVS     r4,#0
        0x00003db8:    e167        g.      B        0x408a ; s_green_drawPlane + 730
        0x00003dba:    201e        .       MOVS     r0,#0x1e
        0x00003dbc:    4360        `C      MULS     r0,r4,r0
        0x00003dbe:    5c28        (\      LDRB     r0,[r5,r0]
        0x00003dc0:    2800        .(      CMP      r0,#0
        0x00003dc2:    d07d        }.      BEQ      0x3ec0 ; s_green_drawPlane + 272
        0x00003dc4:    201e        .       MOVS     r0,#0x1e
        0x00003dc6:    4360        `C      MULS     r0,r4,r0
        0x00003dc8:    1940        @.      ADDS     r0,r0,r5
        0x00003dca:    7f00        ..      LDRB     r0,[r0,#0x1c]
        0x00003dcc:    0003        ..      MOVS     r3,r0
        0x00003dce:    f7fcfeb9    ....    BL       __ARM_common_switch8 ; 0xb44
    $d
        0x00003dd2:    0405        ..      DCW    1029
        0x00003dd4:    fecd923f    ?...    DCD    4274885183
        0x00003dd8:    00fd        ..      DCW    253
    $t
        0x00003dda:    2060        `       MOVS     r0,#0x60
        0x00003ddc:    231e        .#      MOVS     r3,#0x1e
        0x00003dde:    4363        cC      MULS     r3,r4,r3
        0x00003de0:    195b        [.      ADDS     r3,r3,r5
        0x00003de2:    9000        ..      STR      r0,[sp,#0]
        0x00003de4:    889b        ..      LDRH     r3,[r3,#4]
        0x00003de6:    b2da        ..      UXTB     r2,r3
        0x00003de8:    231e        .#      MOVS     r3,#0x1e
        0x00003dea:    4363        cC      MULS     r3,r4,r3
        0x00003dec:    195b        [.      ADDS     r3,r3,r5
        0x00003dee:    885b        [.      LDRH     r3,[r3,#2]
        0x00003df0:    b2d9        ..      UXTB     r1,r3
        0x00003df2:    7830        0x      LDRB     r0,[r6,#0]
        0x00003df4:    2359        Y#      MOVS     r3,#0x59
        0x00003df6:    f001fb8d    ....    BL       writeOneSprite ; 0x5514
        0x00003dfa:    2060        `       MOVS     r0,#0x60
        0x00003dfc:    231e        .#      MOVS     r3,#0x1e
        0x00003dfe:    4363        cC      MULS     r3,r4,r3
        0x00003e00:    195b        [.      ADDS     r3,r3,r5
        0x00003e02:    9000        ..      STR      r0,[sp,#0]
        0x00003e04:    889b        ..      LDRH     r3,[r3,#4]
        0x00003e06:    1ddb        ..      ADDS     r3,r3,#7
        0x00003e08:    b2da        ..      UXTB     r2,r3
        0x00003e0a:    231e        .#      MOVS     r3,#0x1e
        0x00003e0c:    4363        cC      MULS     r3,r4,r3
        0x00003e0e:    195b        [.      ADDS     r3,r3,r5
        0x00003e10:    885b        [.      LDRH     r3,[r3,#2]
        0x00003e12:    b2d9        ..      UXTB     r1,r3
        0x00003e14:    7833        3x      LDRB     r3,[r6,#0]
        0x00003e16:    1c5b        [.      ADDS     r3,r3,#1
        0x00003e18:    b2d8        ..      UXTB     r0,r3
        0x00003e1a:    235a        Z#      MOVS     r3,#0x5a
        0x00003e1c:    f001fb7a    ..z.    BL       writeOneSprite ; 0x5514
        0x00003e20:    2060        `       MOVS     r0,#0x60
        0x00003e22:    231e        .#      MOVS     r3,#0x1e
        0x00003e24:    4363        cC      MULS     r3,r4,r3
        0x00003e26:    195b        [.      ADDS     r3,r3,r5
        0x00003e28:    9000        ..      STR      r0,[sp,#0]
        0x00003e2a:    889b        ..      LDRH     r3,[r3,#4]
        0x00003e2c:    1cdb        ..      ADDS     r3,r3,#3
        0x00003e2e:    b2da        ..      UXTB     r2,r3
        0x00003e30:    231e        .#      MOVS     r3,#0x1e
        0x00003e32:    4363        cC      MULS     r3,r4,r3
        0x00003e34:    195b        [.      ADDS     r3,r3,r5
        0x00003e36:    885b        [.      LDRH     r3,[r3,#2]
        0x00003e38:    3b08        .;      SUBS     r3,r3,#8
        0x00003e3a:    b2d9        ..      UXTB     r1,r3
        0x00003e3c:    7833        3x      LDRB     r3,[r6,#0]
        0x00003e3e:    1c9b        ..      ADDS     r3,r3,#2
        0x00003e40:    b2d8        ..      UXTB     r0,r3
        0x00003e42:    235b        [#      MOVS     r3,#0x5b
        0x00003e44:    f001fb66    ..f.    BL       writeOneSprite ; 0x5514
        0x00003e48:    7830        0x      LDRB     r0,[r6,#0]
        0x00003e4a:    1cc0        ..      ADDS     r0,r0,#3
        0x00003e4c:    7030        0p      STRB     r0,[r6,#0]
        0x00003e4e:    e11a        ..      B        0x4086 ; s_green_drawPlane + 726
        0x00003e50:    20a0        .       MOVS     r0,#0xa0
        0x00003e52:    231e        .#      MOVS     r3,#0x1e
        0x00003e54:    4363        cC      MULS     r3,r4,r3
        0x00003e56:    195b        [.      ADDS     r3,r3,r5
        0x00003e58:    9000        ..      STR      r0,[sp,#0]
        0x00003e5a:    889b        ..      LDRH     r3,[r3,#4]
        0x00003e5c:    1c5b        [.      ADDS     r3,r3,#1
        0x00003e5e:    b2da        ..      UXTB     r2,r3
        0x00003e60:    231e        .#      MOVS     r3,#0x1e
        0x00003e62:    4363        cC      MULS     r3,r4,r3
        0x00003e64:    195b        [.      ADDS     r3,r3,r5
        0x00003e66:    885b        [.      LDRH     r3,[r3,#2]
        0x00003e68:    1c5b        [.      ADDS     r3,r3,#1
        0x00003e6a:    b2d9        ..      UXTB     r1,r3
        0x00003e6c:    7830        0x      LDRB     r0,[r6,#0]
        0x00003e6e:    235e        ^#      MOVS     r3,#0x5e
        0x00003e70:    f001fb50    ..P.    BL       writeOneSprite ; 0x5514
        0x00003e74:    20a0        .       MOVS     r0,#0xa0
        0x00003e76:    231e        .#      MOVS     r3,#0x1e
        0x00003e78:    4363        cC      MULS     r3,r4,r3
        0x00003e7a:    195b        [.      ADDS     r3,r3,r5
        0x00003e7c:    9000        ..      STR      r0,[sp,#0]
        0x00003e7e:    889b        ..      LDRH     r3,[r3,#4]
        0x00003e80:    1c5b        [.      ADDS     r3,r3,#1
        0x00003e82:    b2da        ..      UXTB     r2,r3
        0x00003e84:    231e        .#      MOVS     r3,#0x1e
        0x00003e86:    4363        cC      MULS     r3,r4,r3
        0x00003e88:    195b        [.      ADDS     r3,r3,r5
        0x00003e8a:    885b        [.      LDRH     r3,[r3,#2]
        0x00003e8c:    3308        .3      ADDS     r3,r3,#8
        0x00003e8e:    b2d9        ..      UXTB     r1,r3
        0x00003e90:    7833        3x      LDRB     r3,[r6,#0]
        0x00003e92:    1c5b        [.      ADDS     r3,r3,#1
        0x00003e94:    b2d8        ..      UXTB     r0,r3
        0x00003e96:    235f        _#      MOVS     r3,#0x5f
        0x00003e98:    f001fb3c    ..<.    BL       writeOneSprite ; 0x5514
        0x00003e9c:    20a0        .       MOVS     r0,#0xa0
        0x00003e9e:    231e        .#      MOVS     r3,#0x1e
        0x00003ea0:    4363        cC      MULS     r3,r4,r3
        0x00003ea2:    195b        [.      ADDS     r3,r3,r5
        0x00003ea4:    9000        ..      STR      r0,[sp,#0]
        0x00003ea6:    889b        ..      LDRH     r3,[r3,#4]
        0x00003ea8:    3308        .3      ADDS     r3,r3,#8
        0x00003eaa:    b2da        ..      UXTB     r2,r3
        0x00003eac:    231e        .#      MOVS     r3,#0x1e
        0x00003eae:    4363        cC      MULS     r3,r4,r3
        0x00003eb0:    195b        [.      ADDS     r3,r3,r5
        0x00003eb2:    885b        [.      LDRH     r3,[r3,#2]
        0x00003eb4:    b2d9        ..      UXTB     r1,r3
        0x00003eb6:    7833        3x      LDRB     r3,[r6,#0]
        0x00003eb8:    1c9b        ..      ADDS     r3,r3,#2
        0x00003eba:    b2d8        ..      UXTB     r0,r3
        0x00003ebc:    235c        \#      MOVS     r3,#0x5c
        0x00003ebe:    e000        ..      B        0x3ec2 ; s_green_drawPlane + 274
        0x00003ec0:    e0e2        ..      B        0x4088 ; s_green_drawPlane + 728
        0x00003ec2:    f001fb27    ..'.    BL       writeOneSprite ; 0x5514
        0x00003ec6:    20a0        .       MOVS     r0,#0xa0
        0x00003ec8:    231e        .#      MOVS     r3,#0x1e
        0x00003eca:    4363        cC      MULS     r3,r4,r3
        0x00003ecc:    195b        [.      ADDS     r3,r3,r5
        0x00003ece:    9000        ..      STR      r0,[sp,#0]
        0x00003ed0:    889b        ..      LDRH     r3,[r3,#4]
        0x00003ed2:    3308        .3      ADDS     r3,r3,#8
        0x00003ed4:    b2da        ..      UXTB     r2,r3
        0x00003ed6:    231e        .#      MOVS     r3,#0x1e
        0x00003ed8:    4363        cC      MULS     r3,r4,r3
        0x00003eda:    195b        [.      ADDS     r3,r3,r5
        0x00003edc:    885b        [.      LDRH     r3,[r3,#2]
        0x00003ede:    3308        .3      ADDS     r3,r3,#8
        0x00003ee0:    b2d9        ..      UXTB     r1,r3
        0x00003ee2:    7833        3x      LDRB     r3,[r6,#0]
        0x00003ee4:    1cdb        ..      ADDS     r3,r3,#3
        0x00003ee6:    b2d8        ..      UXTB     r0,r3
        0x00003ee8:    235d        ]#      MOVS     r3,#0x5d
        0x00003eea:    f001fb13    ....    BL       writeOneSprite ; 0x5514
        0x00003eee:    7830        0x      LDRB     r0,[r6,#0]
        0x00003ef0:    1d00        ..      ADDS     r0,r0,#4
        0x00003ef2:    7030        0p      STRB     r0,[r6,#0]
        0x00003ef4:    e0c7        ..      B        0x4086 ; s_green_drawPlane + 726
        0x00003ef6:    2020                MOVS     r0,#0x20
        0x00003ef8:    231e        .#      MOVS     r3,#0x1e
        0x00003efa:    4363        cC      MULS     r3,r4,r3
        0x00003efc:    195b        [.      ADDS     r3,r3,r5
        0x00003efe:    9000        ..      STR      r0,[sp,#0]
        0x00003f00:    889b        ..      LDRH     r3,[r3,#4]
        0x00003f02:    b2da        ..      UXTB     r2,r3
        0x00003f04:    231e        .#      MOVS     r3,#0x1e
        0x00003f06:    4363        cC      MULS     r3,r4,r3
        0x00003f08:    195b        [.      ADDS     r3,r3,r5
        0x00003f0a:    885b        [.      LDRH     r3,[r3,#2]
        0x00003f0c:    b2d9        ..      UXTB     r1,r3
        0x00003f0e:    7830        0x      LDRB     r0,[r6,#0]
        0x00003f10:    2340        @#      MOVS     r3,#0x40
        0x00003f12:    f001faff    ....    BL       writeOneSprite ; 0x5514
        0x00003f16:    2020                MOVS     r0,#0x20
        0x00003f18:    231e        .#      MOVS     r3,#0x1e
        0x00003f1a:    4363        cC      MULS     r3,r4,r3
        0x00003f1c:    195b        [.      ADDS     r3,r3,r5
        0x00003f1e:    9000        ..      STR      r0,[sp,#0]
        0x00003f20:    889b        ..      LDRH     r3,[r3,#4]
        0x00003f22:    b2da        ..      UXTB     r2,r3
        0x00003f24:    231e        .#      MOVS     r3,#0x1e
        0x00003f26:    4363        cC      MULS     r3,r4,r3
        0x00003f28:    195b        [.      ADDS     r3,r3,r5
        0x00003f2a:    885b        [.      LDRH     r3,[r3,#2]
        0x00003f2c:    3308        .3      ADDS     r3,r3,#8
        0x00003f2e:    b2d9        ..      UXTB     r1,r3
        0x00003f30:    7833        3x      LDRB     r3,[r6,#0]
        0x00003f32:    1c5b        [.      ADDS     r3,r3,#1
        0x00003f34:    b2d8        ..      UXTB     r0,r3
        0x00003f36:    2341        A#      MOVS     r3,#0x41
        0x00003f38:    f001faec    ....    BL       writeOneSprite ; 0x5514
        0x00003f3c:    2020                MOVS     r0,#0x20
        0x00003f3e:    231e        .#      MOVS     r3,#0x1e
        0x00003f40:    4363        cC      MULS     r3,r4,r3
        0x00003f42:    195b        [.      ADDS     r3,r3,r5
        0x00003f44:    9000        ..      STR      r0,[sp,#0]
        0x00003f46:    889b        ..      LDRH     r3,[r3,#4]
        0x00003f48:    3b08        .;      SUBS     r3,r3,#8
        0x00003f4a:    b2da        ..      UXTB     r2,r3
        0x00003f4c:    231e        .#      MOVS     r3,#0x1e
        0x00003f4e:    4363        cC      MULS     r3,r4,r3
        0x00003f50:    195b        [.      ADDS     r3,r3,r5
        0x00003f52:    885b        [.      LDRH     r3,[r3,#2]
        0x00003f54:    1d1b        ..      ADDS     r3,r3,#4
        0x00003f56:    b2d9        ..      UXTB     r1,r3
        0x00003f58:    7833        3x      LDRB     r3,[r6,#0]
        0x00003f5a:    1c9b        ..      ADDS     r3,r3,#2
        0x00003f5c:    b2d8        ..      UXTB     r0,r3
        0x00003f5e:    2342        B#      MOVS     r3,#0x42
        0x00003f60:    f001fad8    ....    BL       writeOneSprite ; 0x5514
        0x00003f64:    7830        0x      LDRB     r0,[r6,#0]
        0x00003f66:    1cc0        ..      ADDS     r0,r0,#3
        0x00003f68:    7030        0p      STRB     r0,[r6,#0]
        0x00003f6a:    e08c        ..      B        0x4086 ; s_green_drawPlane + 726
        0x00003f6c:    20e0        .       MOVS     r0,#0xe0
        0x00003f6e:    231e        .#      MOVS     r3,#0x1e
        0x00003f70:    4363        cC      MULS     r3,r4,r3
        0x00003f72:    195b        [.      ADDS     r3,r3,r5
        0x00003f74:    9000        ..      STR      r0,[sp,#0]
        0x00003f76:    889b        ..      LDRH     r3,[r3,#4]
        0x00003f78:    b2da        ..      UXTB     r2,r3
        0x00003f7a:    231e        .#      MOVS     r3,#0x1e
        0x00003f7c:    4363        cC      MULS     r3,r4,r3
        0x00003f7e:    195b        [.      ADDS     r3,r3,r5
        0x00003f80:    885b        [.      LDRH     r3,[r3,#2]
        0x00003f82:    b2d9        ..      UXTB     r1,r3
        0x00003f84:    7830        0x      LDRB     r0,[r6,#0]
        0x00003f86:    235f        _#      MOVS     r3,#0x5f
        0x00003f88:    f001fac4    ....    BL       writeOneSprite ; 0x5514
        0x00003f8c:    20e0        .       MOVS     r0,#0xe0
        0x00003f8e:    231e        .#      MOVS     r3,#0x1e
        0x00003f90:    4363        cC      MULS     r3,r4,r3
        0x00003f92:    195b        [.      ADDS     r3,r3,r5
        0x00003f94:    9000        ..      STR      r0,[sp,#0]
        0x00003f96:    889b        ..      LDRH     r3,[r3,#4]
        0x00003f98:    b2da        ..      UXTB     r2,r3
        0x00003f9a:    231e        .#      MOVS     r3,#0x1e
        0x00003f9c:    4363        cC      MULS     r3,r4,r3
        0x00003f9e:    195b        [.      ADDS     r3,r3,r5
        0x00003fa0:    885b        [.      LDRH     r3,[r3,#2]
        0x00003fa2:    3308        .3      ADDS     r3,r3,#8
        0x00003fa4:    b2d9        ..      UXTB     r1,r3
        0x00003fa6:    7833        3x      LDRB     r3,[r6,#0]
        0x00003fa8:    1c5b        [.      ADDS     r3,r3,#1
        0x00003faa:    b2d8        ..      UXTB     r0,r3
        0x00003fac:    235e        ^#      MOVS     r3,#0x5e
        0x00003fae:    f001fab1    ....    BL       writeOneSprite ; 0x5514
        0x00003fb2:    20e0        .       MOVS     r0,#0xe0
        0x00003fb4:    231e        .#      MOVS     r3,#0x1e
        0x00003fb6:    4363        cC      MULS     r3,r4,r3
        0x00003fb8:    195b        [.      ADDS     r3,r3,r5
        0x00003fba:    9000        ..      STR      r0,[sp,#0]
        0x00003fbc:    889b        ..      LDRH     r3,[r3,#4]
        0x00003fbe:    3308        .3      ADDS     r3,r3,#8
        0x00003fc0:    b2da        ..      UXTB     r2,r3
        0x00003fc2:    231e        .#      MOVS     r3,#0x1e
        0x00003fc4:    4363        cC      MULS     r3,r4,r3
        0x00003fc6:    195b        [.      ADDS     r3,r3,r5
        0x00003fc8:    885b        [.      LDRH     r3,[r3,#2]
        0x00003fca:    e001        ..      B        0x3fd0 ; s_green_drawPlane + 544
        0x00003fcc:    e05a        Z.      B        0x4084 ; s_green_drawPlane + 724
        0x00003fce:    e01e        ..      B        0x400e ; s_green_drawPlane + 606
        0x00003fd0:    b2d9        ..      UXTB     r1,r3
        0x00003fd2:    7833        3x      LDRB     r3,[r6,#0]
        0x00003fd4:    1c9b        ..      ADDS     r3,r3,#2
        0x00003fd6:    b2d8        ..      UXTB     r0,r3
        0x00003fd8:    235d        ]#      MOVS     r3,#0x5d
        0x00003fda:    f001fa9b    ....    BL       writeOneSprite ; 0x5514
        0x00003fde:    20e0        .       MOVS     r0,#0xe0
        0x00003fe0:    231e        .#      MOVS     r3,#0x1e
        0x00003fe2:    4363        cC      MULS     r3,r4,r3
        0x00003fe4:    195b        [.      ADDS     r3,r3,r5
        0x00003fe6:    9000        ..      STR      r0,[sp,#0]
        0x00003fe8:    889b        ..      LDRH     r3,[r3,#4]
        0x00003fea:    3308        .3      ADDS     r3,r3,#8
        0x00003fec:    b2da        ..      UXTB     r2,r3
        0x00003fee:    231e        .#      MOVS     r3,#0x1e
        0x00003ff0:    4363        cC      MULS     r3,r4,r3
        0x00003ff2:    195b        [.      ADDS     r3,r3,r5
        0x00003ff4:    885b        [.      LDRH     r3,[r3,#2]
        0x00003ff6:    3308        .3      ADDS     r3,r3,#8
        0x00003ff8:    b2d9        ..      UXTB     r1,r3
        0x00003ffa:    7833        3x      LDRB     r3,[r6,#0]
        0x00003ffc:    1cdb        ..      ADDS     r3,r3,#3
        0x00003ffe:    b2d8        ..      UXTB     r0,r3
        0x00004000:    235c        \#      MOVS     r3,#0x5c
        0x00004002:    f001fa87    ....    BL       writeOneSprite ; 0x5514
        0x00004006:    7830        0x      LDRB     r0,[r6,#0]
        0x00004008:    1d00        ..      ADDS     r0,r0,#4
        0x0000400a:    7030        0p      STRB     r0,[r6,#0]
        0x0000400c:    e03b        ;.      B        0x4086 ; s_green_drawPlane + 726
        0x0000400e:    2020                MOVS     r0,#0x20
        0x00004010:    231e        .#      MOVS     r3,#0x1e
        0x00004012:    4363        cC      MULS     r3,r4,r3
        0x00004014:    195b        [.      ADDS     r3,r3,r5
        0x00004016:    9000        ..      STR      r0,[sp,#0]
        0x00004018:    889b        ..      LDRH     r3,[r3,#4]
        0x0000401a:    b2da        ..      UXTB     r2,r3
        0x0000401c:    231e        .#      MOVS     r3,#0x1e
        0x0000401e:    4363        cC      MULS     r3,r4,r3
        0x00004020:    195b        [.      ADDS     r3,r3,r5
        0x00004022:    885b        [.      LDRH     r3,[r3,#2]
        0x00004024:    b2d9        ..      UXTB     r1,r3
        0x00004026:    7830        0x      LDRB     r0,[r6,#0]
        0x00004028:    2359        Y#      MOVS     r3,#0x59
        0x0000402a:    f001fa73    ..s.    BL       writeOneSprite ; 0x5514
        0x0000402e:    2020                MOVS     r0,#0x20
        0x00004030:    231e        .#      MOVS     r3,#0x1e
        0x00004032:    4363        cC      MULS     r3,r4,r3
        0x00004034:    195b        [.      ADDS     r3,r3,r5
        0x00004036:    9000        ..      STR      r0,[sp,#0]
        0x00004038:    889b        ..      LDRH     r3,[r3,#4]
        0x0000403a:    1ddb        ..      ADDS     r3,r3,#7
        0x0000403c:    b2da        ..      UXTB     r2,r3
        0x0000403e:    231e        .#      MOVS     r3,#0x1e
        0x00004040:    4363        cC      MULS     r3,r4,r3
        0x00004042:    195b        [.      ADDS     r3,r3,r5
        0x00004044:    885b        [.      LDRH     r3,[r3,#2]
        0x00004046:    b2d9        ..      UXTB     r1,r3
        0x00004048:    7833        3x      LDRB     r3,[r6,#0]
        0x0000404a:    1c5b        [.      ADDS     r3,r3,#1
        0x0000404c:    b2d8        ..      UXTB     r0,r3
        0x0000404e:    235a        Z#      MOVS     r3,#0x5a
        0x00004050:    f001fa60    ..`.    BL       writeOneSprite ; 0x5514
        0x00004054:    2020                MOVS     r0,#0x20
        0x00004056:    231e        .#      MOVS     r3,#0x1e
        0x00004058:    4363        cC      MULS     r3,r4,r3
        0x0000405a:    195b        [.      ADDS     r3,r3,r5
        0x0000405c:    9000        ..      STR      r0,[sp,#0]
        0x0000405e:    889b        ..      LDRH     r3,[r3,#4]
        0x00004060:    1cdb        ..      ADDS     r3,r3,#3
        0x00004062:    b2da        ..      UXTB     r2,r3
        0x00004064:    231e        .#      MOVS     r3,#0x1e
        0x00004066:    4363        cC      MULS     r3,r4,r3
        0x00004068:    195b        [.      ADDS     r3,r3,r5
        0x0000406a:    885b        [.      LDRH     r3,[r3,#2]
        0x0000406c:    3308        .3      ADDS     r3,r3,#8
        0x0000406e:    b2d9        ..      UXTB     r1,r3
        0x00004070:    7833        3x      LDRB     r3,[r6,#0]
        0x00004072:    1c9b        ..      ADDS     r3,r3,#2
        0x00004074:    b2d8        ..      UXTB     r0,r3
        0x00004076:    235b        [#      MOVS     r3,#0x5b
        0x00004078:    f001fa4c    ..L.    BL       writeOneSprite ; 0x5514
        0x0000407c:    7830        0x      LDRB     r0,[r6,#0]
        0x0000407e:    1cc0        ..      ADDS     r0,r0,#3
        0x00004080:    7030        0p      STRB     r0,[r6,#0]
        0x00004082:    e000        ..      B        0x4086 ; s_green_drawPlane + 726
        0x00004084:    bf00        ..      NOP      
        0x00004086:    bf00        ..      NOP      
        0x00004088:    1c64        d.      ADDS     r4,r4,#1
        0x0000408a:    4803        .H      LDR      r0,[pc,#12] ; [0x4098] = 0x553a
        0x0000408c:    7800        .x      LDRB     r0,[r0,#0]
        0x0000408e:    4284        .B      CMP      r4,r0
        0x00004090:    da00        ..      BGE      0x4094 ; s_green_drawPlane + 740
        0x00004092:    e692        ..      B        0x3dba ; s_green_drawPlane + 10
        0x00004094:    bdf8        ..      POP      {r3-r7,pc}
    $d
        0x00004096:    0000        ..      DCW    0
        0x00004098:    0000553a    :U..    DCD    21818
    $t
    i.s_green_movePlane
    s_green_movePlane
        0x0000409c:    b5f8        ..      PUSH     {r3-r7,lr}
        0x0000409e:    4605        .F      MOV      r5,r0
        0x000040a0:    460e        .F      MOV      r6,r1
        0x000040a2:    2400        .$      MOVS     r4,#0
        0x000040a4:    e2c8        ..      B        0x4638 ; s_green_movePlane + 1436
        0x000040a6:    201e        .       MOVS     r0,#0x1e
        0x000040a8:    4360        `C      MULS     r0,r4,r0
        0x000040aa:    5c28        (\      LDRB     r0,[r5,r0]
        0x000040ac:    2800        .(      CMP      r0,#0
        0x000040ae:    d02a        *.      BEQ      0x4106 ; s_green_movePlane + 106
        0x000040b0:    201e        .       MOVS     r0,#0x1e
        0x000040b2:    4360        `C      MULS     r0,r4,r0
        0x000040b4:    1940        @.      ADDS     r0,r0,r5
        0x000040b6:    7840        @x      LDRB     r0,[r0,#1]
        0x000040b8:    2802        .(      CMP      r0,#2
        0x000040ba:    d17d        }.      BNE      0x41b8 ; s_green_movePlane + 284
        0x000040bc:    2100        .!      MOVS     r1,#0
        0x000040be:    201e        .       MOVS     r0,#0x1e
        0x000040c0:    4360        `C      MULS     r0,r4,r0
        0x000040c2:    1940        @.      ADDS     r0,r0,r5
        0x000040c4:    7041        Ap      STRB     r1,[r0,#1]
        0x000040c6:    201e        .       MOVS     r0,#0x1e
        0x000040c8:    4360        `C      MULS     r0,r4,r0
        0x000040ca:    1940        @.      ADDS     r0,r0,r5
        0x000040cc:    2102        .!      MOVS     r1,#2
        0x000040ce:    5e41        A^      LDRSH    r1,[r0,r1]
        0x000040d0:    2905        .)      CMP      r1,#5
        0x000040d2:    db14        ..      BLT      0x40fe ; s_green_movePlane + 98
        0x000040d4:    201e        .       MOVS     r0,#0x1e
        0x000040d6:    4360        `C      MULS     r0,r4,r0
        0x000040d8:    1940        @.      ADDS     r0,r0,r5
        0x000040da:    2102        .!      MOVS     r1,#2
        0x000040dc:    5e41        A^      LDRSH    r1,[r0,r1]
        0x000040de:    29fb        .)      CMP      r1,#0xfb
        0x000040e0:    dc0d        ..      BGT      0x40fe ; s_green_movePlane + 98
        0x000040e2:    201e        .       MOVS     r0,#0x1e
        0x000040e4:    4360        `C      MULS     r0,r4,r0
        0x000040e6:    1940        @.      ADDS     r0,r0,r5
        0x000040e8:    2104        .!      MOVS     r1,#4
        0x000040ea:    5e41        A^      LDRSH    r1,[r0,r1]
        0x000040ec:    290a        .)      CMP      r1,#0xa
        0x000040ee:    db06        ..      BLT      0x40fe ; s_green_movePlane + 98
        0x000040f0:    201e        .       MOVS     r0,#0x1e
        0x000040f2:    4360        `C      MULS     r0,r4,r0
        0x000040f4:    1940        @.      ADDS     r0,r0,r5
        0x000040f6:    2104        .!      MOVS     r1,#4
        0x000040f8:    5e41        A^      LDRSH    r1,[r0,r1]
        0x000040fa:    29e6        .)      CMP      r1,#0xe6
        0x000040fc:    dd04        ..      BLE      0x4108 ; s_green_movePlane + 108
        0x000040fe:    2100        .!      MOVS     r1,#0
        0x00004100:    201e        .       MOVS     r0,#0x1e
        0x00004102:    4360        `C      MULS     r0,r4,r0
        0x00004104:    5429        )T      STRB     r1,[r5,r0]
        0x00004106:    e296        ..      B        0x4636 ; s_green_movePlane + 1434
        0x00004108:    201e        .       MOVS     r0,#0x1e
        0x0000410a:    4360        `C      MULS     r0,r4,r0
        0x0000410c:    1940        @.      ADDS     r0,r0,r5
        0x0000410e:    79c0        .y      LDRB     r0,[r0,#7]
        0x00004110:    2800        .(      CMP      r0,#0
        0x00004112:    d15a        Z.      BNE      0x41ca ; s_green_movePlane + 302
        0x00004114:    201e        .       MOVS     r0,#0x1e
        0x00004116:    4360        `C      MULS     r0,r4,r0
        0x00004118:    1940        @.      ADDS     r0,r0,r5
        0x0000411a:    7980        .y      LDRB     r0,[r0,#6]
        0x0000411c:    2800        .(      CMP      r0,#0
        0x0000411e:    d116        ..      BNE      0x414e ; s_green_movePlane + 178
        0x00004120:    201e        .       MOVS     r0,#0x1e
        0x00004122:    4360        `C      MULS     r0,r4,r0
        0x00004124:    1940        @.      ADDS     r0,r0,r5
        0x00004126:    2102        .!      MOVS     r1,#2
        0x00004128:    5e41        A^      LDRSH    r1,[r0,r1]
        0x0000412a:    201e        .       MOVS     r0,#0x1e
        0x0000412c:    4360        `C      MULS     r0,r4,r0
        0x0000412e:    1940        @.      ADDS     r0,r0,r5
        0x00004130:    220c        ."      MOVS     r2,#0xc
        0x00004132:    5e82        .^      LDRSH    r2,[r0,r2]
        0x00004134:    4291        .B      CMP      r1,r2
        0x00004136:    db0a        ..      BLT      0x414e ; s_green_movePlane + 178
        0x00004138:    2101        .!      MOVS     r1,#1
        0x0000413a:    201e        .       MOVS     r0,#0x1e
        0x0000413c:    4360        `C      MULS     r0,r4,r0
        0x0000413e:    1940        @.      ADDS     r0,r0,r5
        0x00004140:    71c1        .q      STRB     r1,[r0,#7]
        0x00004142:    2100        .!      MOVS     r1,#0
        0x00004144:    201e        .       MOVS     r0,#0x1e
        0x00004146:    4360        `C      MULS     r0,r4,r0
        0x00004148:    1940        @.      ADDS     r0,r0,r5
        0x0000414a:    7281        .r      STRB     r1,[r0,#0xa]
        0x0000414c:    e273        s.      B        0x4636 ; s_green_movePlane + 1434
        0x0000414e:    201e        .       MOVS     r0,#0x1e
        0x00004150:    4360        `C      MULS     r0,r4,r0
        0x00004152:    1940        @.      ADDS     r0,r0,r5
        0x00004154:    7980        .y      LDRB     r0,[r0,#6]
        0x00004156:    2801        .(      CMP      r0,#1
        0x00004158:    d116        ..      BNE      0x4188 ; s_green_movePlane + 236
        0x0000415a:    201e        .       MOVS     r0,#0x1e
        0x0000415c:    4360        `C      MULS     r0,r4,r0
        0x0000415e:    1940        @.      ADDS     r0,r0,r5
        0x00004160:    2102        .!      MOVS     r1,#2
        0x00004162:    5e41        A^      LDRSH    r1,[r0,r1]
        0x00004164:    201e        .       MOVS     r0,#0x1e
        0x00004166:    4360        `C      MULS     r0,r4,r0
        0x00004168:    1940        @.      ADDS     r0,r0,r5
        0x0000416a:    220c        ."      MOVS     r2,#0xc
        0x0000416c:    5e82        .^      LDRSH    r2,[r0,r2]
        0x0000416e:    4291        .B      CMP      r1,r2
        0x00004170:    dc0a        ..      BGT      0x4188 ; s_green_movePlane + 236
        0x00004172:    2101        .!      MOVS     r1,#1
        0x00004174:    201e        .       MOVS     r0,#0x1e
        0x00004176:    4360        `C      MULS     r0,r4,r0
        0x00004178:    1940        @.      ADDS     r0,r0,r5
        0x0000417a:    71c1        .q      STRB     r1,[r0,#7]
        0x0000417c:    2100        .!      MOVS     r1,#0
        0x0000417e:    201e        .       MOVS     r0,#0x1e
        0x00004180:    4360        `C      MULS     r0,r4,r0
        0x00004182:    1940        @.      ADDS     r0,r0,r5
        0x00004184:    7281        .r      STRB     r1,[r0,#0xa]
        0x00004186:    e256        V.      B        0x4636 ; s_green_movePlane + 1434
        0x00004188:    201e        .       MOVS     r0,#0x1e
        0x0000418a:    4360        `C      MULS     r0,r4,r0
        0x0000418c:    1940        @.      ADDS     r0,r0,r5
        0x0000418e:    8841        A.      LDRH     r1,[r0,#2]
        0x00004190:    201e        .       MOVS     r0,#0x1e
        0x00004192:    4360        `C      MULS     r0,r4,r0
        0x00004194:    1940        @.      ADDS     r0,r0,r5
        0x00004196:    2208        ."      MOVS     r2,#8
        0x00004198:    5682        .V      LDRSB    r2,[r0,r2]
        0x0000419a:    1888        ..      ADDS     r0,r1,r2
        0x0000419c:    b201        ..      SXTH     r1,r0
        0x0000419e:    201e        .       MOVS     r0,#0x1e
        0x000041a0:    4360        `C      MULS     r0,r4,r0
        0x000041a2:    1940        @.      ADDS     r0,r0,r5
        0x000041a4:    8041        A.      STRH     r1,[r0,#2]
        0x000041a6:    201e        .       MOVS     r0,#0x1e
        0x000041a8:    4360        `C      MULS     r0,r4,r0
        0x000041aa:    1940        @.      ADDS     r0,r0,r5
        0x000041ac:    8881        ..      LDRH     r1,[r0,#4]
        0x000041ae:    201e        .       MOVS     r0,#0x1e
        0x000041b0:    4360        `C      MULS     r0,r4,r0
        0x000041b2:    1940        @.      ADDS     r0,r0,r5
        0x000041b4:    2209        ."      MOVS     r2,#9
        0x000041b6:    e000        ..      B        0x41ba ; s_green_movePlane + 286
        0x000041b8:    e233        3.      B        0x4622 ; s_green_movePlane + 1414
        0x000041ba:    5682        .V      LDRSB    r2,[r0,r2]
        0x000041bc:    1888        ..      ADDS     r0,r1,r2
        0x000041be:    b201        ..      SXTH     r1,r0
        0x000041c0:    201e        .       MOVS     r0,#0x1e
        0x000041c2:    4360        `C      MULS     r0,r4,r0
        0x000041c4:    1940        @.      ADDS     r0,r0,r5
        0x000041c6:    8081        ..      STRH     r1,[r0,#4]
        0x000041c8:    e235        5.      B        0x4636 ; s_green_movePlane + 1434
        0x000041ca:    201e        .       MOVS     r0,#0x1e
        0x000041cc:    4360        `C      MULS     r0,r4,r0
        0x000041ce:    1940        @.      ADDS     r0,r0,r5
        0x000041d0:    79c0        .y      LDRB     r0,[r0,#7]
        0x000041d2:    2801        .(      CMP      r0,#1
        0x000041d4:    d197        ..      BNE      0x4106 ; s_green_movePlane + 106
        0x000041d6:    201e        .       MOVS     r0,#0x1e
        0x000041d8:    4360        `C      MULS     r0,r4,r0
        0x000041da:    1940        @.      ADDS     r0,r0,r5
        0x000041dc:    7980        .y      LDRB     r0,[r0,#6]
        0x000041de:    2800        .(      CMP      r0,#0
        0x000041e0:    d178        x.      BNE      0x42d4 ; s_green_movePlane + 568
        0x000041e2:    201e        .       MOVS     r0,#0x1e
        0x000041e4:    4360        `C      MULS     r0,r4,r0
        0x000041e6:    1940        @.      ADDS     r0,r0,r5
        0x000041e8:    7a80        .z      LDRB     r0,[r0,#0xa]
        0x000041ea:    0003        ..      MOVS     r3,r0
        0x000041ec:    f7fcfcaa    ....    BL       __ARM_common_switch8 ; 0xb44
    $d
        0x000041f0:    73350405    ..5s    DCD    1932854277
        0x000041f4:    00fedda0    ....    DCD    16702880
    $t
        0x000041f8:    2100        .!      MOVS     r1,#0
        0x000041fa:    201e        .       MOVS     r0,#0x1e
        0x000041fc:    4360        `C      MULS     r0,r4,r0
        0x000041fe:    1940        @.      ADDS     r0,r0,r5
        0x00004200:    7701        .w      STRB     r1,[r0,#0x1c]
        0x00004202:    201e        .       MOVS     r0,#0x1e
        0x00004204:    4360        `C      MULS     r0,r4,r0
        0x00004206:    1940        @.      ADDS     r0,r0,r5
        0x00004208:    8840        @.      LDRH     r0,[r0,#2]
        0x0000420a:    1cc0        ..      ADDS     r0,r0,#3
        0x0000420c:    b201        ..      SXTH     r1,r0
        0x0000420e:    201e        .       MOVS     r0,#0x1e
        0x00004210:    4360        `C      MULS     r0,r4,r0
        0x00004212:    1940        @.      ADDS     r0,r0,r5
        0x00004214:    8041        A.      STRH     r1,[r0,#2]
        0x00004216:    f7fbffb1    ....    BL       rand ; 0x17c
        0x0000421a:    4607        .F      MOV      r7,r0
        0x0000421c:    2103        .!      MOVS     r1,#3
        0x0000421e:    f7fbff99    ....    BL       __aeabi_idiv ; 0x154
        0x00004222:    201e        .       MOVS     r0,#0x1e
        0x00004224:    4360        `C      MULS     r0,r4,r0
        0x00004226:    1940        @.      ADDS     r0,r0,r5
        0x00004228:    8880        ..      LDRH     r0,[r0,#4]
        0x0000422a:    1808        ..      ADDS     r0,r1,r0
        0x0000422c:    b201        ..      SXTH     r1,r0
        0x0000422e:    201e        .       MOVS     r0,#0x1e
        0x00004230:    4360        `C      MULS     r0,r4,r0
        0x00004232:    1940        @.      ADDS     r0,r0,r5
        0x00004234:    8081        ..      STRH     r1,[r0,#4]
        0x00004236:    201e        .       MOVS     r0,#0x1e
        0x00004238:    4360        `C      MULS     r0,r4,r0
        0x0000423a:    1940        @.      ADDS     r0,r0,r5
        0x0000423c:    2102        .!      MOVS     r1,#2
        0x0000423e:    5e41        A^      LDRSH    r1,[r0,r1]
        0x00004240:    201e        .       MOVS     r0,#0x1e
        0x00004242:    4360        `C      MULS     r0,r4,r0
        0x00004244:    1940        @.      ADDS     r0,r0,r5
        0x00004246:    220e        ."      MOVS     r2,#0xe
        0x00004248:    5e82        .^      LDRSH    r2,[r0,r2]
        0x0000424a:    4291        .B      CMP      r1,r2
        0x0000424c:    db04        ..      BLT      0x4258 ; s_green_movePlane + 444
        0x0000424e:    2101        .!      MOVS     r1,#1
        0x00004250:    201e        .       MOVS     r0,#0x1e
        0x00004252:    4360        `C      MULS     r0,r4,r0
        0x00004254:    1940        @.      ADDS     r0,r0,r5
        0x00004256:    7281        .r      STRB     r1,[r0,#0xa]
        0x00004258:    e0d4        ..      B        0x4404 ; s_green_movePlane + 872
        0x0000425a:    2101        .!      MOVS     r1,#1
        0x0000425c:    201e        .       MOVS     r0,#0x1e
        0x0000425e:    4360        `C      MULS     r0,r4,r0
        0x00004260:    1940        @.      ADDS     r0,r0,r5
        0x00004262:    7701        .w      STRB     r1,[r0,#0x1c]
        0x00004264:    f7fbff8a    ....    BL       rand ; 0x17c
        0x00004268:    4607        .F      MOV      r7,r0
        0x0000426a:    0fc0        ..      LSRS     r0,r0,#31
        0x0000426c:    19c0        ..      ADDS     r0,r0,r7
        0x0000426e:    1040        @.      ASRS     r0,r0,#1
        0x00004270:    0040        @.      LSLS     r0,r0,#1
        0x00004272:    1a38        8.      SUBS     r0,r7,r0
        0x00004274:    1c80        ..      ADDS     r0,r0,#2
        0x00004276:    211e        .!      MOVS     r1,#0x1e
        0x00004278:    4361        aC      MULS     r1,r4,r1
        0x0000427a:    1949        I.      ADDS     r1,r1,r5
        0x0000427c:    8849        I.      LDRH     r1,[r1,#2]
        0x0000427e:    1840        @.      ADDS     r0,r0,r1
        0x00004280:    b201        ..      SXTH     r1,r0
        0x00004282:    201e        .       MOVS     r0,#0x1e
        0x00004284:    4360        `C      MULS     r0,r4,r0
        0x00004286:    1940        @.      ADDS     r0,r0,r5
        0x00004288:    8041        A.      STRH     r1,[r0,#2]
        0x0000428a:    f7fbff77    ..w.    BL       rand ; 0x17c
        0x0000428e:    4607        .F      MOV      r7,r0
        0x00004290:    0fc0        ..      LSRS     r0,r0,#31
        0x00004292:    19c0        ..      ADDS     r0,r0,r7
        0x00004294:    1040        @.      ASRS     r0,r0,#1
        0x00004296:    0040        @.      LSLS     r0,r0,#1
        0x00004298:    1a38        8.      SUBS     r0,r7,r0
        0x0000429a:    1c80        ..      ADDS     r0,r0,#2
        0x0000429c:    211e        .!      MOVS     r1,#0x1e
        0x0000429e:    4361        aC      MULS     r1,r4,r1
        0x000042a0:    1949        I.      ADDS     r1,r1,r5
        0x000042a2:    8889        ..      LDRH     r1,[r1,#4]
        0x000042a4:    1840        @.      ADDS     r0,r0,r1
        0x000042a6:    b201        ..      SXTH     r1,r0
        0x000042a8:    201e        .       MOVS     r0,#0x1e
        0x000042aa:    4360        `C      MULS     r0,r4,r0
        0x000042ac:    1940        @.      ADDS     r0,r0,r5
        0x000042ae:    8081        ..      STRH     r1,[r0,#4]
        0x000042b0:    201e        .       MOVS     r0,#0x1e
        0x000042b2:    4360        `C      MULS     r0,r4,r0
        0x000042b4:    1940        @.      ADDS     r0,r0,r5
        0x000042b6:    2104        .!      MOVS     r1,#4
        0x000042b8:    5e41        A^      LDRSH    r1,[r0,r1]
        0x000042ba:    201e        .       MOVS     r0,#0x1e
        0x000042bc:    4360        `C      MULS     r0,r4,r0
        0x000042be:    1940        @.      ADDS     r0,r0,r5
        0x000042c0:    2210        ."      MOVS     r2,#0x10
        0x000042c2:    5e82        .^      LDRSH    r2,[r0,r2]
        0x000042c4:    4291        .B      CMP      r1,r2
        0x000042c6:    db04        ..      BLT      0x42d2 ; s_green_movePlane + 566
        0x000042c8:    2102        .!      MOVS     r1,#2
        0x000042ca:    201e        .       MOVS     r0,#0x1e
        0x000042cc:    4360        `C      MULS     r0,r4,r0
        0x000042ce:    1940        @.      ADDS     r0,r0,r5
        0x000042d0:    7281        .r      STRB     r1,[r0,#0xa]
        0x000042d2:    e097        ..      B        0x4404 ; s_green_movePlane + 872
        0x000042d4:    e097        ..      B        0x4406 ; s_green_movePlane + 874
        0x000042d6:    2102        .!      MOVS     r1,#2
        0x000042d8:    201e        .       MOVS     r0,#0x1e
        0x000042da:    4360        `C      MULS     r0,r4,r0
        0x000042dc:    1940        @.      ADDS     r0,r0,r5
        0x000042de:    7701        .w      STRB     r1,[r0,#0x1c]
        0x000042e0:    201e        .       MOVS     r0,#0x1e
        0x000042e2:    4360        `C      MULS     r0,r4,r0
        0x000042e4:    1941        A.      ADDS     r1,r0,r5
        0x000042e6:    2002        .       MOVS     r0,#2
        0x000042e8:    5e08        .^      LDRSH    r0,[r1,r0]
        0x000042ea:    211e        .!      MOVS     r1,#0x1e
        0x000042ec:    4361        aC      MULS     r1,r4,r1
        0x000042ee:    1949        I.      ADDS     r1,r1,r5
        0x000042f0:    8048        H.      STRH     r0,[r1,#2]
        0x000042f2:    201e        .       MOVS     r0,#0x1e
        0x000042f4:    4360        `C      MULS     r0,r4,r0
        0x000042f6:    1940        @.      ADDS     r0,r0,r5
        0x000042f8:    8880        ..      LDRH     r0,[r0,#4]
        0x000042fa:    1cc0        ..      ADDS     r0,r0,#3
        0x000042fc:    b201        ..      SXTH     r1,r0
        0x000042fe:    201e        .       MOVS     r0,#0x1e
        0x00004300:    4360        `C      MULS     r0,r4,r0
        0x00004302:    1940        @.      ADDS     r0,r0,r5
        0x00004304:    8081        ..      STRH     r1,[r0,#4]
        0x00004306:    201e        .       MOVS     r0,#0x1e
        0x00004308:    4360        `C      MULS     r0,r4,r0
        0x0000430a:    1940        @.      ADDS     r0,r0,r5
        0x0000430c:    2104        .!      MOVS     r1,#4
        0x0000430e:    5e41        A^      LDRSH    r1,[r0,r1]
        0x00004310:    201e        .       MOVS     r0,#0x1e
        0x00004312:    4360        `C      MULS     r0,r4,r0
        0x00004314:    1940        @.      ADDS     r0,r0,r5
        0x00004316:    2212        ."      MOVS     r2,#0x12
        0x00004318:    5e82        .^      LDRSH    r2,[r0,r2]
        0x0000431a:    4291        .B      CMP      r1,r2
        0x0000431c:    db07        ..      BLT      0x432e ; s_green_movePlane + 658
        0x0000431e:    2103        .!      MOVS     r1,#3
        0x00004320:    201e        .       MOVS     r0,#0x1e
        0x00004322:    4360        `C      MULS     r0,r4,r0
        0x00004324:    1940        @.      ADDS     r0,r0,r5
        0x00004326:    7281        .r      STRB     r1,[r0,#0xa]
        0x00004328:    2000        .       MOVS     r0,#0
        0x0000432a:    f7fcf9eb    ....    BL       LED_toggle ; 0x704
        0x0000432e:    e069        i.      B        0x4404 ; s_green_movePlane + 872
        0x00004330:    2103        .!      MOVS     r1,#3
        0x00004332:    201e        .       MOVS     r0,#0x1e
        0x00004334:    4360        `C      MULS     r0,r4,r0
        0x00004336:    1940        @.      ADDS     r0,r0,r5
        0x00004338:    7701        .w      STRB     r1,[r0,#0x1c]
        0x0000433a:    f7fbff1f    ....    BL       rand ; 0x17c
        0x0000433e:    4607        .F      MOV      r7,r0
        0x00004340:    0fc0        ..      LSRS     r0,r0,#31
        0x00004342:    19c0        ..      ADDS     r0,r0,r7
        0x00004344:    1040        @.      ASRS     r0,r0,#1
        0x00004346:    0040        @.      LSLS     r0,r0,#1
        0x00004348:    1a38        8.      SUBS     r0,r7,r0
        0x0000434a:    1c80        ..      ADDS     r0,r0,#2
        0x0000434c:    211e        .!      MOVS     r1,#0x1e
        0x0000434e:    4361        aC      MULS     r1,r4,r1
        0x00004350:    1949        I.      ADDS     r1,r1,r5
        0x00004352:    8849        I.      LDRH     r1,[r1,#2]
        0x00004354:    1a08        ..      SUBS     r0,r1,r0
        0x00004356:    b201        ..      SXTH     r1,r0
        0x00004358:    201e        .       MOVS     r0,#0x1e
        0x0000435a:    4360        `C      MULS     r0,r4,r0
        0x0000435c:    1940        @.      ADDS     r0,r0,r5
        0x0000435e:    8041        A.      STRH     r1,[r0,#2]
        0x00004360:    f7fbff0c    ....    BL       rand ; 0x17c
        0x00004364:    4607        .F      MOV      r7,r0
        0x00004366:    0fc0        ..      LSRS     r0,r0,#31
        0x00004368:    19c0        ..      ADDS     r0,r0,r7
        0x0000436a:    1040        @.      ASRS     r0,r0,#1
        0x0000436c:    0040        @.      LSLS     r0,r0,#1
        0x0000436e:    1a38        8.      SUBS     r0,r7,r0
        0x00004370:    1c80        ..      ADDS     r0,r0,#2
        0x00004372:    211e        .!      MOVS     r1,#0x1e
        0x00004374:    4361        aC      MULS     r1,r4,r1
        0x00004376:    1949        I.      ADDS     r1,r1,r5
        0x00004378:    8889        ..      LDRH     r1,[r1,#4]
        0x0000437a:    1840        @.      ADDS     r0,r0,r1
        0x0000437c:    b201        ..      SXTH     r1,r0
        0x0000437e:    201e        .       MOVS     r0,#0x1e
        0x00004380:    4360        `C      MULS     r0,r4,r0
        0x00004382:    1940        @.      ADDS     r0,r0,r5
        0x00004384:    8081        ..      STRH     r1,[r0,#4]
        0x00004386:    201e        .       MOVS     r0,#0x1e
        0x00004388:    4360        `C      MULS     r0,r4,r0
        0x0000438a:    1940        @.      ADDS     r0,r0,r5
        0x0000438c:    2102        .!      MOVS     r1,#2
        0x0000438e:    5e41        A^      LDRSH    r1,[r0,r1]
        0x00004390:    201e        .       MOVS     r0,#0x1e
        0x00004392:    4360        `C      MULS     r0,r4,r0
        0x00004394:    1940        @.      ADDS     r0,r0,r5
        0x00004396:    2214        ."      MOVS     r2,#0x14
        0x00004398:    5e82        .^      LDRSH    r2,[r0,r2]
        0x0000439a:    4291        .B      CMP      r1,r2
        0x0000439c:    dc04        ..      BGT      0x43a8 ; s_green_movePlane + 780
        0x0000439e:    2104        .!      MOVS     r1,#4
        0x000043a0:    201e        .       MOVS     r0,#0x1e
        0x000043a2:    4360        `C      MULS     r0,r4,r0
        0x000043a4:    1940        @.      ADDS     r0,r0,r5
        0x000043a6:    7281        .r      STRB     r1,[r0,#0xa]
        0x000043a8:    e02c        ,.      B        0x4404 ; s_green_movePlane + 872
        0x000043aa:    2104        .!      MOVS     r1,#4
        0x000043ac:    201e        .       MOVS     r0,#0x1e
        0x000043ae:    4360        `C      MULS     r0,r4,r0
        0x000043b0:    1940        @.      ADDS     r0,r0,r5
        0x000043b2:    7701        .w      STRB     r1,[r0,#0x1c]
        0x000043b4:    f7fbfee2    ....    BL       rand ; 0x17c
        0x000043b8:    4607        .F      MOV      r7,r0
        0x000043ba:    0fc0        ..      LSRS     r0,r0,#31
        0x000043bc:    19c0        ..      ADDS     r0,r0,r7
        0x000043be:    1040        @.      ASRS     r0,r0,#1
        0x000043c0:    0040        @.      LSLS     r0,r0,#1
        0x000043c2:    1a38        8.      SUBS     r0,r7,r0
        0x000043c4:    1c80        ..      ADDS     r0,r0,#2
        0x000043c6:    211e        .!      MOVS     r1,#0x1e
        0x000043c8:    4361        aC      MULS     r1,r4,r1
        0x000043ca:    1949        I.      ADDS     r1,r1,r5
        0x000043cc:    8849        I.      LDRH     r1,[r1,#2]
        0x000043ce:    1a08        ..      SUBS     r0,r1,r0
        0x000043d0:    b201        ..      SXTH     r1,r0
        0x000043d2:    201e        .       MOVS     r0,#0x1e
        0x000043d4:    4360        `C      MULS     r0,r4,r0
        0x000043d6:    1940        @.      ADDS     r0,r0,r5
        0x000043d8:    8041        A.      STRH     r1,[r0,#2]
        0x000043da:    201e        .       MOVS     r0,#0x1e
        0x000043dc:    4360        `C      MULS     r0,r4,r0
        0x000043de:    1940        @.      ADDS     r0,r0,r5
        0x000043e0:    2102        .!      MOVS     r1,#2
        0x000043e2:    5e41        A^      LDRSH    r1,[r0,r1]
        0x000043e4:    201e        .       MOVS     r0,#0x1e
        0x000043e6:    4360        `C      MULS     r0,r4,r0
        0x000043e8:    1940        @.      ADDS     r0,r0,r5
        0x000043ea:    e000        ..      B        0x43ee ; s_green_movePlane + 850
        0x000043ec:    e009        ..      B        0x4402 ; s_green_movePlane + 870
        0x000043ee:    2216        ."      MOVS     r2,#0x16
        0x000043f0:    5e82        .^      LDRSH    r2,[r0,r2]
        0x000043f2:    4291        .B      CMP      r1,r2
        0x000043f4:    dc04        ..      BGT      0x4400 ; s_green_movePlane + 868
        0x000043f6:    2104        .!      MOVS     r1,#4
        0x000043f8:    201e        .       MOVS     r0,#0x1e
        0x000043fa:    4360        `C      MULS     r0,r4,r0
        0x000043fc:    1940        @.      ADDS     r0,r0,r5
        0x000043fe:    7281        .r      STRB     r1,[r0,#0xa]
        0x00004400:    e000        ..      B        0x4404 ; s_green_movePlane + 872
        0x00004402:    bf00        ..      NOP      
        0x00004404:    e117        ..      B        0x4636 ; s_green_movePlane + 1434
        0x00004406:    201e        .       MOVS     r0,#0x1e
        0x00004408:    4360        `C      MULS     r0,r4,r0
        0x0000440a:    1940        @.      ADDS     r0,r0,r5
        0x0000440c:    7a80        .z      LDRB     r0,[r0,#0xa]
        0x0000440e:    0003        ..      MOVS     r3,r0
        0x00004410:    f7fcfb98    ....    BL       __ARM_common_switch8 ; 0xb44
    $d
        0x00004414:    72350405    ..5r    DCD    1916077061
        0x00004418:    00fed99c    ....    DCD    16701852
    $t
        0x0000441c:    2104        .!      MOVS     r1,#4
        0x0000441e:    201e        .       MOVS     r0,#0x1e
        0x00004420:    4360        `C      MULS     r0,r4,r0
        0x00004422:    1940        @.      ADDS     r0,r0,r5
        0x00004424:    7701        .w      STRB     r1,[r0,#0x1c]
        0x00004426:    201e        .       MOVS     r0,#0x1e
        0x00004428:    4360        `C      MULS     r0,r4,r0
        0x0000442a:    1940        @.      ADDS     r0,r0,r5
        0x0000442c:    8840        @.      LDRH     r0,[r0,#2]
        0x0000442e:    1ec0        ..      SUBS     r0,r0,#3
        0x00004430:    b201        ..      SXTH     r1,r0
        0x00004432:    201e        .       MOVS     r0,#0x1e
        0x00004434:    4360        `C      MULS     r0,r4,r0
        0x00004436:    1940        @.      ADDS     r0,r0,r5
        0x00004438:    8041        A.      STRH     r1,[r0,#2]
        0x0000443a:    f7fbfe9f    ....    BL       rand ; 0x17c
        0x0000443e:    4607        .F      MOV      r7,r0
        0x00004440:    2103        .!      MOVS     r1,#3
        0x00004442:    f7fbfe87    ....    BL       __aeabi_idiv ; 0x154
        0x00004446:    201e        .       MOVS     r0,#0x1e
        0x00004448:    4360        `C      MULS     r0,r4,r0
        0x0000444a:    1940        @.      ADDS     r0,r0,r5
        0x0000444c:    8880        ..      LDRH     r0,[r0,#4]
        0x0000444e:    1808        ..      ADDS     r0,r1,r0
        0x00004450:    b201        ..      SXTH     r1,r0
        0x00004452:    201e        .       MOVS     r0,#0x1e
        0x00004454:    4360        `C      MULS     r0,r4,r0
        0x00004456:    1940        @.      ADDS     r0,r0,r5
        0x00004458:    8081        ..      STRH     r1,[r0,#4]
        0x0000445a:    201e        .       MOVS     r0,#0x1e
        0x0000445c:    4360        `C      MULS     r0,r4,r0
        0x0000445e:    1940        @.      ADDS     r0,r0,r5
        0x00004460:    2102        .!      MOVS     r1,#2
        0x00004462:    5e41        A^      LDRSH    r1,[r0,r1]
        0x00004464:    201e        .       MOVS     r0,#0x1e
        0x00004466:    4360        `C      MULS     r0,r4,r0
        0x00004468:    1940        @.      ADDS     r0,r0,r5
        0x0000446a:    220e        ."      MOVS     r2,#0xe
        0x0000446c:    5e82        .^      LDRSH    r2,[r0,r2]
        0x0000446e:    4291        .B      CMP      r1,r2
        0x00004470:    dc04        ..      BGT      0x447c ; s_green_movePlane + 992
        0x00004472:    2101        .!      MOVS     r1,#1
        0x00004474:    201e        .       MOVS     r0,#0x1e
        0x00004476:    4360        `C      MULS     r0,r4,r0
        0x00004478:    1940        @.      ADDS     r0,r0,r5
        0x0000447a:    7281        .r      STRB     r1,[r0,#0xa]
        0x0000447c:    e0d0        ..      B        0x4620 ; s_green_movePlane + 1412
        0x0000447e:    2103        .!      MOVS     r1,#3
        0x00004480:    201e        .       MOVS     r0,#0x1e
        0x00004482:    4360        `C      MULS     r0,r4,r0
        0x00004484:    1940        @.      ADDS     r0,r0,r5
        0x00004486:    7701        .w      STRB     r1,[r0,#0x1c]
        0x00004488:    f7fbfe78    ..x.    BL       rand ; 0x17c
        0x0000448c:    4607        .F      MOV      r7,r0
        0x0000448e:    0fc0        ..      LSRS     r0,r0,#31
        0x00004490:    19c0        ..      ADDS     r0,r0,r7
        0x00004492:    1040        @.      ASRS     r0,r0,#1
        0x00004494:    0040        @.      LSLS     r0,r0,#1
        0x00004496:    1a38        8.      SUBS     r0,r7,r0
        0x00004498:    1c80        ..      ADDS     r0,r0,#2
        0x0000449a:    211e        .!      MOVS     r1,#0x1e
        0x0000449c:    4361        aC      MULS     r1,r4,r1
        0x0000449e:    1949        I.      ADDS     r1,r1,r5
        0x000044a0:    8849        I.      LDRH     r1,[r1,#2]
        0x000044a2:    1a08        ..      SUBS     r0,r1,r0
        0x000044a4:    b201        ..      SXTH     r1,r0
        0x000044a6:    201e        .       MOVS     r0,#0x1e
        0x000044a8:    4360        `C      MULS     r0,r4,r0
        0x000044aa:    1940        @.      ADDS     r0,r0,r5
        0x000044ac:    8041        A.      STRH     r1,[r0,#2]
        0x000044ae:    f7fbfe65    ..e.    BL       rand ; 0x17c
        0x000044b2:    4607        .F      MOV      r7,r0
        0x000044b4:    0fc0        ..      LSRS     r0,r0,#31
        0x000044b6:    19c0        ..      ADDS     r0,r0,r7
        0x000044b8:    1040        @.      ASRS     r0,r0,#1
        0x000044ba:    0040        @.      LSLS     r0,r0,#1
        0x000044bc:    1a38        8.      SUBS     r0,r7,r0
        0x000044be:    1c80        ..      ADDS     r0,r0,#2
        0x000044c0:    211e        .!      MOVS     r1,#0x1e
        0x000044c2:    4361        aC      MULS     r1,r4,r1
        0x000044c4:    1949        I.      ADDS     r1,r1,r5
        0x000044c6:    8889        ..      LDRH     r1,[r1,#4]
        0x000044c8:    1840        @.      ADDS     r0,r0,r1
        0x000044ca:    b201        ..      SXTH     r1,r0
        0x000044cc:    201e        .       MOVS     r0,#0x1e
        0x000044ce:    4360        `C      MULS     r0,r4,r0
        0x000044d0:    1940        @.      ADDS     r0,r0,r5
        0x000044d2:    8081        ..      STRH     r1,[r0,#4]
        0x000044d4:    201e        .       MOVS     r0,#0x1e
        0x000044d6:    4360        `C      MULS     r0,r4,r0
        0x000044d8:    1940        @.      ADDS     r0,r0,r5
        0x000044da:    2104        .!      MOVS     r1,#4
        0x000044dc:    5e41        A^      LDRSH    r1,[r0,r1]
        0x000044de:    201e        .       MOVS     r0,#0x1e
        0x000044e0:    4360        `C      MULS     r0,r4,r0
        0x000044e2:    1940        @.      ADDS     r0,r0,r5
        0x000044e4:    2210        ."      MOVS     r2,#0x10
        0x000044e6:    5e82        .^      LDRSH    r2,[r0,r2]
        0x000044e8:    4291        .B      CMP      r1,r2
        0x000044ea:    dc04        ..      BGT      0x44f6 ; s_green_movePlane + 1114
        0x000044ec:    2102        .!      MOVS     r1,#2
        0x000044ee:    201e        .       MOVS     r0,#0x1e
        0x000044f0:    4360        `C      MULS     r0,r4,r0
        0x000044f2:    1940        @.      ADDS     r0,r0,r5
        0x000044f4:    7281        .r      STRB     r1,[r0,#0xa]
        0x000044f6:    e093        ..      B        0x4620 ; s_green_movePlane + 1412
        0x000044f8:    2102        .!      MOVS     r1,#2
        0x000044fa:    201e        .       MOVS     r0,#0x1e
        0x000044fc:    4360        `C      MULS     r0,r4,r0
        0x000044fe:    1940        @.      ADDS     r0,r0,r5
        0x00004500:    7701        .w      STRB     r1,[r0,#0x1c]
        0x00004502:    201e        .       MOVS     r0,#0x1e
        0x00004504:    4360        `C      MULS     r0,r4,r0
        0x00004506:    1941        A.      ADDS     r1,r0,r5
        0x00004508:    2002        .       MOVS     r0,#2
        0x0000450a:    5e08        .^      LDRSH    r0,[r1,r0]
        0x0000450c:    211e        .!      MOVS     r1,#0x1e
        0x0000450e:    4361        aC      MULS     r1,r4,r1
        0x00004510:    1949        I.      ADDS     r1,r1,r5
        0x00004512:    8048        H.      STRH     r0,[r1,#2]
        0x00004514:    201e        .       MOVS     r0,#0x1e
        0x00004516:    4360        `C      MULS     r0,r4,r0
        0x00004518:    1940        @.      ADDS     r0,r0,r5
        0x0000451a:    8880        ..      LDRH     r0,[r0,#4]
        0x0000451c:    1cc0        ..      ADDS     r0,r0,#3
        0x0000451e:    b201        ..      SXTH     r1,r0
        0x00004520:    201e        .       MOVS     r0,#0x1e
        0x00004522:    4360        `C      MULS     r0,r4,r0
        0x00004524:    1940        @.      ADDS     r0,r0,r5
        0x00004526:    8081        ..      STRH     r1,[r0,#4]
        0x00004528:    201e        .       MOVS     r0,#0x1e
        0x0000452a:    4360        `C      MULS     r0,r4,r0
        0x0000452c:    1940        @.      ADDS     r0,r0,r5
        0x0000452e:    2104        .!      MOVS     r1,#4
        0x00004530:    5e41        A^      LDRSH    r1,[r0,r1]
        0x00004532:    201e        .       MOVS     r0,#0x1e
        0x00004534:    4360        `C      MULS     r0,r4,r0
        0x00004536:    1940        @.      ADDS     r0,r0,r5
        0x00004538:    2212        ."      MOVS     r2,#0x12
        0x0000453a:    5e82        .^      LDRSH    r2,[r0,r2]
        0x0000453c:    4291        .B      CMP      r1,r2
        0x0000453e:    db04        ..      BLT      0x454a ; s_green_movePlane + 1198
        0x00004540:    2103        .!      MOVS     r1,#3
        0x00004542:    201e        .       MOVS     r0,#0x1e
        0x00004544:    4360        `C      MULS     r0,r4,r0
        0x00004546:    1940        @.      ADDS     r0,r0,r5
        0x00004548:    7281        .r      STRB     r1,[r0,#0xa]
        0x0000454a:    e069        i.      B        0x4620 ; s_green_movePlane + 1412
        0x0000454c:    2101        .!      MOVS     r1,#1
        0x0000454e:    201e        .       MOVS     r0,#0x1e
        0x00004550:    4360        `C      MULS     r0,r4,r0
        0x00004552:    1940        @.      ADDS     r0,r0,r5
        0x00004554:    7701        .w      STRB     r1,[r0,#0x1c]
        0x00004556:    f7fbfe11    ....    BL       rand ; 0x17c
        0x0000455a:    4607        .F      MOV      r7,r0
        0x0000455c:    0fc0        ..      LSRS     r0,r0,#31
        0x0000455e:    19c0        ..      ADDS     r0,r0,r7
        0x00004560:    1040        @.      ASRS     r0,r0,#1
        0x00004562:    0040        @.      LSLS     r0,r0,#1
        0x00004564:    1a38        8.      SUBS     r0,r7,r0
        0x00004566:    1c80        ..      ADDS     r0,r0,#2
        0x00004568:    211e        .!      MOVS     r1,#0x1e
        0x0000456a:    4361        aC      MULS     r1,r4,r1
        0x0000456c:    1949        I.      ADDS     r1,r1,r5
        0x0000456e:    8849        I.      LDRH     r1,[r1,#2]
        0x00004570:    1840        @.      ADDS     r0,r0,r1
        0x00004572:    b201        ..      SXTH     r1,r0
        0x00004574:    201e        .       MOVS     r0,#0x1e
        0x00004576:    4360        `C      MULS     r0,r4,r0
        0x00004578:    1940        @.      ADDS     r0,r0,r5
        0x0000457a:    8041        A.      STRH     r1,[r0,#2]
        0x0000457c:    f7fbfdfe    ....    BL       rand ; 0x17c
        0x00004580:    4607        .F      MOV      r7,r0
        0x00004582:    0fc0        ..      LSRS     r0,r0,#31
        0x00004584:    19c0        ..      ADDS     r0,r0,r7
        0x00004586:    1040        @.      ASRS     r0,r0,#1
        0x00004588:    0040        @.      LSLS     r0,r0,#1
        0x0000458a:    1a38        8.      SUBS     r0,r7,r0
        0x0000458c:    1c80        ..      ADDS     r0,r0,#2
        0x0000458e:    211e        .!      MOVS     r1,#0x1e
        0x00004590:    4361        aC      MULS     r1,r4,r1
        0x00004592:    1949        I.      ADDS     r1,r1,r5
        0x00004594:    8889        ..      LDRH     r1,[r1,#4]
        0x00004596:    1840        @.      ADDS     r0,r0,r1
        0x00004598:    b201        ..      SXTH     r1,r0
        0x0000459a:    201e        .       MOVS     r0,#0x1e
        0x0000459c:    4360        `C      MULS     r0,r4,r0
        0x0000459e:    1940        @.      ADDS     r0,r0,r5
        0x000045a0:    8081        ..      STRH     r1,[r0,#4]
        0x000045a2:    201e        .       MOVS     r0,#0x1e
        0x000045a4:    4360        `C      MULS     r0,r4,r0
        0x000045a6:    1940        @.      ADDS     r0,r0,r5
        0x000045a8:    2102        .!      MOVS     r1,#2
        0x000045aa:    5e41        A^      LDRSH    r1,[r0,r1]
        0x000045ac:    201e        .       MOVS     r0,#0x1e
        0x000045ae:    4360        `C      MULS     r0,r4,r0
        0x000045b0:    1940        @.      ADDS     r0,r0,r5
        0x000045b2:    2214        ."      MOVS     r2,#0x14
        0x000045b4:    5e82        .^      LDRSH    r2,[r0,r2]
        0x000045b6:    4291        .B      CMP      r1,r2
        0x000045b8:    db04        ..      BLT      0x45c4 ; s_green_movePlane + 1320
        0x000045ba:    2104        .!      MOVS     r1,#4
        0x000045bc:    201e        .       MOVS     r0,#0x1e
        0x000045be:    4360        `C      MULS     r0,r4,r0
        0x000045c0:    1940        @.      ADDS     r0,r0,r5
        0x000045c2:    7281        .r      STRB     r1,[r0,#0xa]
        0x000045c4:    e02c        ,.      B        0x4620 ; s_green_movePlane + 1412
        0x000045c6:    2100        .!      MOVS     r1,#0
        0x000045c8:    201e        .       MOVS     r0,#0x1e
        0x000045ca:    4360        `C      MULS     r0,r4,r0
        0x000045cc:    1940        @.      ADDS     r0,r0,r5
        0x000045ce:    7701        .w      STRB     r1,[r0,#0x1c]
        0x000045d0:    f7fbfdd4    ....    BL       rand ; 0x17c
        0x000045d4:    4607        .F      MOV      r7,r0
        0x000045d6:    0fc0        ..      LSRS     r0,r0,#31
        0x000045d8:    19c0        ..      ADDS     r0,r0,r7
        0x000045da:    1040        @.      ASRS     r0,r0,#1
        0x000045dc:    0040        @.      LSLS     r0,r0,#1
        0x000045de:    1a38        8.      SUBS     r0,r7,r0
        0x000045e0:    1c80        ..      ADDS     r0,r0,#2
        0x000045e2:    211e        .!      MOVS     r1,#0x1e
        0x000045e4:    4361        aC      MULS     r1,r4,r1
        0x000045e6:    1949        I.      ADDS     r1,r1,r5
        0x000045e8:    8849        I.      LDRH     r1,[r1,#2]
        0x000045ea:    1840        @.      ADDS     r0,r0,r1
        0x000045ec:    b201        ..      SXTH     r1,r0
        0x000045ee:    201e        .       MOVS     r0,#0x1e
        0x000045f0:    4360        `C      MULS     r0,r4,r0
        0x000045f2:    1940        @.      ADDS     r0,r0,r5
        0x000045f4:    8041        A.      STRH     r1,[r0,#2]
        0x000045f6:    201e        .       MOVS     r0,#0x1e
        0x000045f8:    4360        `C      MULS     r0,r4,r0
        0x000045fa:    1940        @.      ADDS     r0,r0,r5
        0x000045fc:    2102        .!      MOVS     r1,#2
        0x000045fe:    5e41        A^      LDRSH    r1,[r0,r1]
        0x00004600:    201e        .       MOVS     r0,#0x1e
        0x00004602:    4360        `C      MULS     r0,r4,r0
        0x00004604:    1940        @.      ADDS     r0,r0,r5
        0x00004606:    2216        ."      MOVS     r2,#0x16
        0x00004608:    5e82        .^      LDRSH    r2,[r0,r2]
        0x0000460a:    4291        .B      CMP      r1,r2
        0x0000460c:    db06        ..      BLT      0x461c ; s_green_movePlane + 1408
        0x0000460e:    e000        ..      B        0x4612 ; s_green_movePlane + 1398
        0x00004610:    e005        ..      B        0x461e ; s_green_movePlane + 1410
        0x00004612:    2104        .!      MOVS     r1,#4
        0x00004614:    201e        .       MOVS     r0,#0x1e
        0x00004616:    4360        `C      MULS     r0,r4,r0
        0x00004618:    1940        @.      ADDS     r0,r0,r5
        0x0000461a:    7281        .r      STRB     r1,[r0,#0xa]
        0x0000461c:    e000        ..      B        0x4620 ; s_green_movePlane + 1412
        0x0000461e:    bf00        ..      NOP      
        0x00004620:    e009        ..      B        0x4636 ; s_green_movePlane + 1434
        0x00004622:    201e        .       MOVS     r0,#0x1e
        0x00004624:    4360        `C      MULS     r0,r4,r0
        0x00004626:    1940        @.      ADDS     r0,r0,r5
        0x00004628:    7840        @x      LDRB     r0,[r0,#1]
        0x0000462a:    1c40        @.      ADDS     r0,r0,#1
        0x0000462c:    b2c1        ..      UXTB     r1,r0
        0x0000462e:    201e        .       MOVS     r0,#0x1e
        0x00004630:    4360        `C      MULS     r0,r4,r0
        0x00004632:    1940        @.      ADDS     r0,r0,r5
        0x00004634:    7041        Ap      STRB     r1,[r0,#1]
        0x00004636:    1c64        d.      ADDS     r4,r4,#1
        0x00004638:    4802        .H      LDR      r0,[pc,#8] ; [0x4644] = 0x553a
        0x0000463a:    7800        .x      LDRB     r0,[r0,#0]
        0x0000463c:    4284        .B      CMP      r4,r0
        0x0000463e:    da00        ..      BGE      0x4642 ; s_green_movePlane + 1446
        0x00004640:    e531        1.      B        0x40a6 ; s_green_movePlane + 10
        0x00004642:    bdf8        ..      POP      {r3-r7,pc}
    $d
        0x00004644:    0000553a    :U..    DCD    21818
    $t
    i.s_green_planeInit
    s_green_planeInit
        0x00004648:    4601        .F      MOV      r1,r0
        0x0000464a:    2000        .       MOVS     r0,#0
        0x0000464c:    e010        ..      B        0x4670 ; s_green_planeInit + 40
        0x0000464e:    2300        .#      MOVS     r3,#0
        0x00004650:    221e        ."      MOVS     r2,#0x1e
        0x00004652:    4342        BC      MULS     r2,r0,r2
        0x00004654:    1852        R.      ADDS     r2,r2,r1
        0x00004656:    8053        S.      STRH     r3,[r2,#2]
        0x00004658:    221e        ."      MOVS     r2,#0x1e
        0x0000465a:    4342        BC      MULS     r2,r0,r2
        0x0000465c:    1852        R.      ADDS     r2,r2,r1
        0x0000465e:    8093        ..      STRH     r3,[r2,#4]
        0x00004660:    221e        ."      MOVS     r2,#0x1e
        0x00004662:    4342        BC      MULS     r2,r0,r2
        0x00004664:    548b        .T      STRB     r3,[r1,r2]
        0x00004666:    221e        ."      MOVS     r2,#0x1e
        0x00004668:    4342        BC      MULS     r2,r0,r2
        0x0000466a:    1852        R.      ADDS     r2,r2,r1
        0x0000466c:    7053        Sp      STRB     r3,[r2,#1]
        0x0000466e:    1c40        @.      ADDS     r0,r0,#1
        0x00004670:    4a02        .J      LDR      r2,[pc,#8] ; [0x467c] = 0x553a
        0x00004672:    7812        .x      LDRB     r2,[r2,#0]
        0x00004674:    4290        .B      CMP      r0,r2
        0x00004676:    dbea        ..      BLT      0x464e ; s_green_planeInit + 6
        0x00004678:    4770        pG      BX       lr
    $d
        0x0000467a:    0000        ..      DCW    0
        0x0000467c:    0000553a    :U..    DCD    21818
    $t
    i.s_grey_createOneEnmeyBullet
    s_grey_createOneEnmeyBullet
        0x00004680:    b5f0        ..      PUSH     {r4-r7,lr}
        0x00004682:    b08b        ..      SUB      sp,sp,#0x2c
        0x00004684:    4605        .F      MOV      r5,r0
        0x00004686:    460e        .F      MOV      r6,r1
        0x00004688:    4617        .F      MOV      r7,r2
        0x0000468a:    2400        .$      MOVS     r4,#0
        0x0000468c:    e08c        ..      B        0x47a8 ; s_grey_createOneEnmeyBullet + 296
        0x0000468e:    200a        .       MOVS     r0,#0xa
        0x00004690:    4360        `C      MULS     r0,r4,r0
        0x00004692:    1940        @.      ADDS     r0,r0,r5
        0x00004694:    7900        .y      LDRB     r0,[r0,#4]
        0x00004696:    2800        .(      CMP      r0,#0
        0x00004698:    d17c        |.      BNE      0x4794 ; s_grey_createOneEnmeyBullet + 276
        0x0000469a:    88b0        ..      LDRH     r0,[r6,#4]
        0x0000469c:    3008        .0      ADDS     r0,r0,#8
        0x0000469e:    b201        ..      SXTH     r1,r0
        0x000046a0:    200a        .       MOVS     r0,#0xa
        0x000046a2:    4360        `C      MULS     r0,r4,r0
        0x000046a4:    5229        )R      STRH     r1,[r5,r0]
        0x000046a6:    88f0        ..      LDRH     r0,[r6,#6]
        0x000046a8:    3808        .8      SUBS     r0,r0,#8
        0x000046aa:    b201        ..      SXTH     r1,r0
        0x000046ac:    200a        .       MOVS     r0,#0xa
        0x000046ae:    4360        `C      MULS     r0,r4,r0
        0x000046b0:    1940        @.      ADDS     r0,r0,r5
        0x000046b2:    8041        A.      STRH     r1,[r0,#2]
        0x000046b4:    2101        .!      MOVS     r1,#1
        0x000046b6:    200a        .       MOVS     r0,#0xa
        0x000046b8:    4360        `C      MULS     r0,r4,r0
        0x000046ba:    1940        @.      ADDS     r0,r0,r5
        0x000046bc:    7101        .q      STRB     r1,[r0,#4]
        0x000046be:    2004        .       MOVS     r0,#4
        0x000046c0:    5e30        0^      LDRSH    r0,[r6,r0]
        0x000046c2:    900a        ..      STR      r0,[sp,#0x28]
        0x000046c4:    2006        .       MOVS     r0,#6
        0x000046c6:    5e30        0^      LDRSH    r0,[r6,r0]
        0x000046c8:    9009        ..      STR      r0,[sp,#0x24]
        0x000046ca:    2000        .       MOVS     r0,#0
        0x000046cc:    5e38        8^      LDRSH    r0,[r7,r0]
        0x000046ce:    9008        ..      STR      r0,[sp,#0x20]
        0x000046d0:    2002        .       MOVS     r0,#2
        0x000046d2:    5e38        8^      LDRSH    r0,[r7,r0]
        0x000046d4:    9007        ..      STR      r0,[sp,#0x1c]
        0x000046d6:    8838        8.      LDRH     r0,[r7,#0]
        0x000046d8:    88b1        ..      LDRH     r1,[r6,#4]
        0x000046da:    1a40        @.      SUBS     r0,r0,r1
        0x000046dc:    b200        ..      SXTH     r0,r0
        0x000046de:    9006        ..      STR      r0,[sp,#0x18]
        0x000046e0:    8878        x.      LDRH     r0,[r7,#2]
        0x000046e2:    88f1        ..      LDRH     r1,[r6,#6]
        0x000046e4:    1a40        @.      SUBS     r0,r0,r1
        0x000046e6:    b200        ..      SXTH     r0,r0
        0x000046e8:    9005        ..      STR      r0,[sp,#0x14]
        0x000046ea:    9906        ..      LDR      r1,[sp,#0x18]
        0x000046ec:    2900        .)      CMP      r1,#0
        0x000046ee:    da02        ..      BGE      0x46f6 ; s_grey_createOneEnmeyBullet + 118
        0x000046f0:    9906        ..      LDR      r1,[sp,#0x18]
        0x000046f2:    4249        IB      RSBS     r1,r1,#0
        0x000046f4:    e000        ..      B        0x46f8 ; s_grey_createOneEnmeyBullet + 120
        0x000046f6:    9906        ..      LDR      r1,[sp,#0x18]
        0x000046f8:    4608        .F      MOV      r0,r1
        0x000046fa:    f7fbfe25    ..%.    BL       __aeabi_i2f ; 0x348
        0x000046fe:    9004        ..      STR      r0,[sp,#0x10]
        0x00004700:    9905        ..      LDR      r1,[sp,#0x14]
        0x00004702:    2900        .)      CMP      r1,#0
        0x00004704:    da02        ..      BGE      0x470c ; s_grey_createOneEnmeyBullet + 140
        0x00004706:    9905        ..      LDR      r1,[sp,#0x14]
        0x00004708:    4249        IB      RSBS     r1,r1,#0
        0x0000470a:    e000        ..      B        0x470e ; s_grey_createOneEnmeyBullet + 142
        0x0000470c:    9905        ..      LDR      r1,[sp,#0x14]
        0x0000470e:    4608        .F      MOV      r0,r1
        0x00004710:    f7fbfe1a    ....    BL       __aeabi_i2f ; 0x348
        0x00004714:    9003        ..      STR      r0,[sp,#0xc]
        0x00004716:    9904        ..      LDR      r1,[sp,#0x10]
        0x00004718:    9803        ..      LDR      r0,[sp,#0xc]
        0x0000471a:    f7fbfdd7    ....    BL       __aeabi_fdiv ; 0x2cc
        0x0000471e:    9002        ..      STR      r0,[sp,#8]
        0x00004720:    2000        .       MOVS     r0,#0
        0x00004722:    9001        ..      STR      r0,[sp,#4]
        0x00004724:    e03a        :.      B        0x479c ; s_grey_createOneEnmeyBullet + 284
        0x00004726:    9901        ..      LDR      r1,[sp,#4]
        0x00004728:    0089        ..      LSLS     r1,r1,#2
        0x0000472a:    4a23        #J      LDR      r2,[pc,#140] ; [0x47b8] = 0x5b5c
        0x0000472c:    5850        PX      LDR      r0,[r2,r1]
        0x0000472e:    9902        ..      LDR      r1,[sp,#8]
        0x00004730:    f7fbfd87    ....    BL       __aeabi_fsub ; 0x242
        0x00004734:    2100        .!      MOVS     r1,#0
        0x00004736:    9000        ..      STR      r0,[sp,#0]
        0x00004738:    f7fbfe2c    ..,.    BL       __aeabi_cfrcmple ; 0x394
        0x0000473c:    d82b        +.      BHI      0x4796 ; s_grey_createOneEnmeyBullet + 278
        0x0000473e:    9801        ..      LDR      r0,[sp,#4]
        0x00004740:    0040        @.      LSLS     r0,r0,#1
        0x00004742:    491e        .I      LDR      r1,[pc,#120] ; [0x47bc] = 0x5b46
        0x00004744:    5a09        .Z      LDRH     r1,[r1,r0]
        0x00004746:    200a        .       MOVS     r0,#0xa
        0x00004748:    4360        `C      MULS     r0,r4,r0
        0x0000474a:    1940        @.      ADDS     r0,r0,r5
        0x0000474c:    80c1        ..      STRH     r1,[r0,#6]
        0x0000474e:    9801        ..      LDR      r0,[sp,#4]
        0x00004750:    0040        @.      LSLS     r0,r0,#1
        0x00004752:    491b        .I      LDR      r1,[pc,#108] ; [0x47c0] = 0x5b32
        0x00004754:    5a09        .Z      LDRH     r1,[r1,r0]
        0x00004756:    200a        .       MOVS     r0,#0xa
        0x00004758:    4360        `C      MULS     r0,r4,r0
        0x0000475a:    1940        @.      ADDS     r0,r0,r5
        0x0000475c:    8101        ..      STRH     r1,[r0,#8]
        0x0000475e:    9806        ..      LDR      r0,[sp,#0x18]
        0x00004760:    2800        .(      CMP      r0,#0
        0x00004762:    da09        ..      BGE      0x4778 ; s_grey_createOneEnmeyBullet + 248
        0x00004764:    200a        .       MOVS     r0,#0xa
        0x00004766:    4360        `C      MULS     r0,r4,r0
        0x00004768:    1940        @.      ADDS     r0,r0,r5
        0x0000476a:    88c0        ..      LDRH     r0,[r0,#6]
        0x0000476c:    4240        @B      RSBS     r0,r0,#0
        0x0000476e:    b201        ..      SXTH     r1,r0
        0x00004770:    200a        .       MOVS     r0,#0xa
        0x00004772:    4360        `C      MULS     r0,r4,r0
        0x00004774:    1940        @.      ADDS     r0,r0,r5
        0x00004776:    80c1        ..      STRH     r1,[r0,#6]
        0x00004778:    9805        ..      LDR      r0,[sp,#0x14]
        0x0000477a:    2800        .(      CMP      r0,#0
        0x0000477c:    da09        ..      BGE      0x4792 ; s_grey_createOneEnmeyBullet + 274
        0x0000477e:    200a        .       MOVS     r0,#0xa
        0x00004780:    4360        `C      MULS     r0,r4,r0
        0x00004782:    1940        @.      ADDS     r0,r0,r5
        0x00004784:    8900        ..      LDRH     r0,[r0,#8]
        0x00004786:    4240        @B      RSBS     r0,r0,#0
        0x00004788:    b201        ..      SXTH     r1,r0
        0x0000478a:    200a        .       MOVS     r0,#0xa
        0x0000478c:    4360        `C      MULS     r0,r4,r0
        0x0000478e:    1940        @.      ADDS     r0,r0,r5
        0x00004790:    8101        ..      STRH     r1,[r0,#8]
        0x00004792:    e006        ..      B        0x47a2 ; s_grey_createOneEnmeyBullet + 290
        0x00004794:    e007        ..      B        0x47a6 ; s_grey_createOneEnmeyBullet + 294
        0x00004796:    9801        ..      LDR      r0,[sp,#4]
        0x00004798:    1c40        @.      ADDS     r0,r0,#1
        0x0000479a:    9001        ..      STR      r0,[sp,#4]
        0x0000479c:    9801        ..      LDR      r0,[sp,#4]
        0x0000479e:    280a        .(      CMP      r0,#0xa
        0x000047a0:    dbc1        ..      BLT      0x4726 ; s_grey_createOneEnmeyBullet + 166
        0x000047a2:    bf00        ..      NOP      
        0x000047a4:    e005        ..      B        0x47b2 ; s_grey_createOneEnmeyBullet + 306
        0x000047a6:    1c64        d.      ADDS     r4,r4,#1
        0x000047a8:    4806        .H      LDR      r0,[pc,#24] ; [0x47c4] = 0x553d
        0x000047aa:    7800        .x      LDRB     r0,[r0,#0]
        0x000047ac:    4284        .B      CMP      r4,r0
        0x000047ae:    da00        ..      BGE      0x47b2 ; s_grey_createOneEnmeyBullet + 306
        0x000047b0:    e76d        m.      B        0x468e ; s_grey_createOneEnmeyBullet + 14
        0x000047b2:    bf00        ..      NOP      
        0x000047b4:    b00b        ..      ADD      sp,sp,#0x2c
        0x000047b6:    bdf0        ..      POP      {r4-r7,pc}
    $d
        0x000047b8:    00005b5c    \[..    DCD    23388
        0x000047bc:    00005b46    F[..    DCD    23366
        0x000047c0:    00005b32    2[..    DCD    23346
        0x000047c4:    0000553d    =U..    DCD    21821
    $t
    i.s_grey_createOnePlane
    s_grey_createOnePlane
        0x000047c8:    b5f8        ..      PUSH     {r3-r7,lr}
        0x000047ca:    4605        .F      MOV      r5,r0
        0x000047cc:    460e        .F      MOV      r6,r1
        0x000047ce:    2400        .$      MOVS     r4,#0
        0x000047d0:    e082        ..      B        0x48d8 ; s_grey_createOnePlane + 272
        0x000047d2:    0120         .      LSLS     r0,r4,#4
        0x000047d4:    5c28        (\      LDRB     r0,[r5,r0]
        0x000047d6:    2800        .(      CMP      r0,#0
        0x000047d8:    d17d        }.      BNE      0x48d6 ; s_grey_createOnePlane + 270
        0x000047da:    2001        .       MOVS     r0,#1
        0x000047dc:    0121        !.      LSLS     r1,r4,#4
        0x000047de:    1949        I.      ADDS     r1,r1,r5
        0x000047e0:    7048        Hp      STRB     r0,[r1,#1]
        0x000047e2:    0121        !.      LSLS     r1,r4,#4
        0x000047e4:    5468        hT      STRB     r0,[r5,r1]
        0x000047e6:    2000        .       MOVS     r0,#0
        0x000047e8:    0121        !.      LSLS     r1,r4,#4
        0x000047ea:    1949        I.      ADDS     r1,r1,r5
        0x000047ec:    73c8        .s      STRB     r0,[r1,#0xf]
        0x000047ee:    0121        !.      LSLS     r1,r4,#4
        0x000047f0:    1949        I.      ADDS     r1,r1,r5
        0x000047f2:    7088        .p      STRB     r0,[r1,#2]
        0x000047f4:    0121        !.      LSLS     r1,r4,#4
        0x000047f6:    1949        I.      ADDS     r1,r1,r5
        0x000047f8:    7288        .r      STRB     r0,[r1,#0xa]
        0x000047fa:    f7fbfcbf    ....    BL       rand ; 0x17c
        0x000047fe:    4607        .F      MOV      r7,r0
        0x00004800:    0fc0        ..      LSRS     r0,r0,#31
        0x00004802:    19c0        ..      ADDS     r0,r0,r7
        0x00004804:    1040        @.      ASRS     r0,r0,#1
        0x00004806:    0040        @.      LSLS     r0,r0,#1
        0x00004808:    1a38        8.      SUBS     r0,r7,r0
        0x0000480a:    0121        !.      LSLS     r1,r4,#4
        0x0000480c:    1949        I.      ADDS     r1,r1,r5
        0x0000480e:    7248        Hr      STRB     r0,[r1,#9]
        0x00004810:    2001        .       MOVS     r0,#1
        0x00004812:    0121        !.      LSLS     r1,r4,#4
        0x00004814:    1949        I.      ADDS     r1,r1,r5
        0x00004816:    7208        .r      STRB     r0,[r1,#8]
        0x00004818:    88b0        ..      LDRH     r0,[r6,#4]
        0x0000481a:    0121        !.      LSLS     r1,r4,#4
        0x0000481c:    1949        I.      ADDS     r1,r1,r5
        0x0000481e:    8088        ..      STRH     r0,[r1,#4]
        0x00004820:    f7fbfcac    ....    BL       rand ; 0x17c
        0x00004824:    4607        .F      MOV      r7,r0
        0x00004826:    0fc0        ..      LSRS     r0,r0,#31
        0x00004828:    19c0        ..      ADDS     r0,r0,r7
        0x0000482a:    1040        @.      ASRS     r0,r0,#1
        0x0000482c:    0040        @.      LSLS     r0,r0,#1
        0x0000482e:    1a38        8.      SUBS     r0,r7,r0
        0x00004830:    210a        .!      MOVS     r1,#0xa
        0x00004832:    4348        HC      MULS     r0,r1,r0
        0x00004834:    300f        .0      ADDS     r0,r0,#0xf
        0x00004836:    b200        ..      SXTH     r0,r0
        0x00004838:    0121        !.      LSLS     r1,r4,#4
        0x0000483a:    1949        I.      ADDS     r1,r1,r5
        0x0000483c:    80c8        ..      STRH     r0,[r1,#6]
        0x0000483e:    7af0        .z      LDRB     r0,[r6,#0xb]
        0x00004840:    0121        !.      LSLS     r1,r4,#4
        0x00004842:    1949        I.      ADDS     r1,r1,r5
        0x00004844:    72c8        .r      STRB     r0,[r1,#0xb]
        0x00004846:    0120         .      LSLS     r0,r4,#4
        0x00004848:    1940        @.      ADDS     r0,r0,r5
        0x0000484a:    7ac0        .z      LDRB     r0,[r0,#0xb]
        0x0000484c:    2804        .(      CMP      r0,#4
        0x0000484e:    d11e        ..      BNE      0x488e ; s_grey_createOnePlane + 198
        0x00004850:    2000        .       MOVS     r0,#0
        0x00004852:    0121        !.      LSLS     r1,r4,#4
        0x00004854:    1949        I.      ADDS     r1,r1,r5
        0x00004856:    7308        .s      STRB     r0,[r1,#0xc]
        0x00004858:    2003        .       MOVS     r0,#3
        0x0000485a:    0121        !.      LSLS     r1,r4,#4
        0x0000485c:    1949        I.      ADDS     r1,r1,r5
        0x0000485e:    7348        Hs      STRB     r0,[r1,#0xd]
        0x00004860:    f7fbfc8c    ....    BL       rand ; 0x17c
        0x00004864:    4607        .F      MOV      r7,r0
        0x00004866:    0fc0        ..      LSRS     r0,r0,#31
        0x00004868:    19c0        ..      ADDS     r0,r0,r7
        0x0000486a:    1040        @.      ASRS     r0,r0,#1
        0x0000486c:    0040        @.      LSLS     r0,r0,#1
        0x0000486e:    1a38        8.      SUBS     r0,r7,r0
        0x00004870:    b2c0        ..      UXTB     r0,r0
        0x00004872:    9000        ..      STR      r0,[sp,#0]
        0x00004874:    9800        ..      LDR      r0,[sp,#0]
        0x00004876:    2800        .(      CMP      r0,#0
        0x00004878:    d104        ..      BNE      0x4884 ; s_grey_createOnePlane + 188
        0x0000487a:    2002        .       MOVS     r0,#2
        0x0000487c:    0121        !.      LSLS     r1,r4,#4
        0x0000487e:    1949        I.      ADDS     r1,r1,r5
        0x00004880:    7388        .s      STRB     r0,[r1,#0xe]
        0x00004882:    e003        ..      B        0x488c ; s_grey_createOnePlane + 196
        0x00004884:    2003        .       MOVS     r0,#3
        0x00004886:    0121        !.      LSLS     r1,r4,#4
        0x00004888:    1949        I.      ADDS     r1,r1,r5
        0x0000488a:    7388        .s      STRB     r0,[r1,#0xe]
        0x0000488c:    e021        !.      B        0x48d2 ; s_grey_createOnePlane + 266
        0x0000488e:    0120         .      LSLS     r0,r4,#4
        0x00004890:    1940        @.      ADDS     r0,r0,r5
        0x00004892:    7ac0        .z      LDRB     r0,[r0,#0xb]
        0x00004894:    2805        .(      CMP      r0,#5
        0x00004896:    d10c        ..      BNE      0x48b2 ; s_grey_createOnePlane + 234
        0x00004898:    1fc0        ..      SUBS     r0,r0,#7
        0x0000489a:    0121        !.      LSLS     r1,r4,#4
        0x0000489c:    1949        I.      ADDS     r1,r1,r5
        0x0000489e:    7308        .s      STRB     r0,[r1,#0xc]
        0x000048a0:    2003        .       MOVS     r0,#3
        0x000048a2:    0121        !.      LSLS     r1,r4,#4
        0x000048a4:    1949        I.      ADDS     r1,r1,r5
        0x000048a6:    7348        Hs      STRB     r0,[r1,#0xd]
        0x000048a8:    2002        .       MOVS     r0,#2
        0x000048aa:    0121        !.      LSLS     r1,r4,#4
        0x000048ac:    1949        I.      ADDS     r1,r1,r5
        0x000048ae:    7388        .s      STRB     r0,[r1,#0xe]
        0x000048b0:    e00f        ..      B        0x48d2 ; s_grey_createOnePlane + 266
        0x000048b2:    0120         .      LSLS     r0,r4,#4
        0x000048b4:    1940        @.      ADDS     r0,r0,r5
        0x000048b6:    7ac0        .z      LDRB     r0,[r0,#0xb]
        0x000048b8:    2806        .(      CMP      r0,#6
        0x000048ba:    d10a        ..      BNE      0x48d2 ; s_grey_createOnePlane + 266
        0x000048bc:    2002        .       MOVS     r0,#2
        0x000048be:    0121        !.      LSLS     r1,r4,#4
        0x000048c0:    1949        I.      ADDS     r1,r1,r5
        0x000048c2:    7308        .s      STRB     r0,[r1,#0xc]
        0x000048c4:    2003        .       MOVS     r0,#3
        0x000048c6:    0121        !.      LSLS     r1,r4,#4
        0x000048c8:    1949        I.      ADDS     r1,r1,r5
        0x000048ca:    7348        Hs      STRB     r0,[r1,#0xd]
        0x000048cc:    0121        !.      LSLS     r1,r4,#4
        0x000048ce:    1949        I.      ADDS     r1,r1,r5
        0x000048d0:    7388        .s      STRB     r0,[r1,#0xe]
        0x000048d2:    e006        ..      B        0x48e2 ; s_grey_createOnePlane + 282
        0x000048d4:    e7ff        ..      B        0x48d6 ; s_grey_createOnePlane + 270
        0x000048d6:    1c64        d.      ADDS     r4,r4,#1
        0x000048d8:    4803        .H      LDR      r0,[pc,#12] ; [0x48e8] = 0x5539
        0x000048da:    7800        .x      LDRB     r0,[r0,#0]
        0x000048dc:    4284        .B      CMP      r4,r0
        0x000048de:    da00        ..      BGE      0x48e2 ; s_grey_createOnePlane + 282
        0x000048e0:    e777        w.      B        0x47d2 ; s_grey_createOnePlane + 10
        0x000048e2:    bf00        ..      NOP      
        0x000048e4:    bdf8        ..      POP      {r3-r7,pc}
    $d
        0x000048e6:    0000        ..      DCW    0
        0x000048e8:    00005539    9U..    DCD    21817
    $t
    i.s_grey_createPlane_111
    s_grey_createPlane_111
        0x000048ec:    b570        p.      PUSH     {r4-r6,lr}
        0x000048ee:    4605        .F      MOV      r5,r0
        0x000048f0:    f7fbfc44    ..D.    BL       rand ; 0x17c
        0x000048f4:    4606        .F      MOV      r6,r0
        0x000048f6:    21aa        .!      MOVS     r1,#0xaa
        0x000048f8:    f7fbfc2c    ..,.    BL       __aeabi_idiv ; 0x154
        0x000048fc:    1d49        I.      ADDS     r1,r1,#5
        0x000048fe:    b208        ..      SXTH     r0,r1
        0x00004900:    80a0        ..      STRH     r0,[r4,#4]
        0x00004902:    2004        .       MOVS     r0,#4
        0x00004904:    5e20         ^      LDRSH    r0,[r4,r0]
        0x00004906:    2805        .(      CMP      r0,#5
        0x00004908:    dd06        ..      BLE      0x4918 ; s_grey_createPlane_111 + 44
        0x0000490a:    2004        .       MOVS     r0,#4
        0x0000490c:    5e20         ^      LDRSH    r0,[r4,r0]
        0x0000490e:    2855        U(      CMP      r0,#0x55
        0x00004910:    da02        ..      BGE      0x4918 ; s_grey_createPlane_111 + 44
        0x00004912:    2006        .       MOVS     r0,#6
        0x00004914:    72e0        .r      STRB     r0,[r4,#0xb]
        0x00004916:    e00c        ..      B        0x4932 ; s_grey_createPlane_111 + 70
        0x00004918:    2004        .       MOVS     r0,#4
        0x0000491a:    5e20         ^      LDRSH    r0,[r4,r0]
        0x0000491c:    28ab        .(      CMP      r0,#0xab
        0x0000491e:    dd06        ..      BLE      0x492e ; s_grey_createPlane_111 + 66
        0x00004920:    2004        .       MOVS     r0,#4
        0x00004922:    5e20         ^      LDRSH    r0,[r4,r0]
        0x00004924:    28fb        .(      CMP      r0,#0xfb
        0x00004926:    da02        ..      BGE      0x492e ; s_grey_createPlane_111 + 66
        0x00004928:    2005        .       MOVS     r0,#5
        0x0000492a:    72e0        .r      STRB     r0,[r4,#0xb]
        0x0000492c:    e001        ..      B        0x4932 ; s_grey_createPlane_111 + 70
        0x0000492e:    2004        .       MOVS     r0,#4
        0x00004930:    72e0        .r      STRB     r0,[r4,#0xb]
        0x00004932:    2300        .#      MOVS     r3,#0
        0x00004934:    461a        .F      MOV      r2,r3
        0x00004936:    4621        !F      MOV      r1,r4
        0x00004938:    4628        (F      MOV      r0,r5
        0x0000493a:    f7ffff45    ..E.    BL       s_grey_createOnePlane ; 0x47c8
        0x0000493e:    bd70        p.      POP      {r4-r6,pc}
    i.s_grey_createPlane_122
    s_grey_createPlane_122
        0x00004940:    b5e0        ..      PUSH     {r5-r7,lr}
        0x00004942:    4606        .F      MOV      r6,r0
        0x00004944:    f7fbfc1a    ....    BL       rand ; 0x17c
        0x00004948:    4607        .F      MOV      r7,r0
        0x0000494a:    21aa        .!      MOVS     r1,#0xaa
        0x0000494c:    f7fbfc02    ....    BL       __aeabi_idiv ; 0x154
        0x00004950:    3119        .1      ADDS     r1,r1,#0x19
        0x00004952:    b20d        ..      SXTH     r5,r1
        0x00004954:    80a5        ..      STRH     r5,[r4,#4]
        0x00004956:    2004        .       MOVS     r0,#4
        0x00004958:    72e0        .r      STRB     r0,[r4,#0xb]
        0x0000495a:    2300        .#      MOVS     r3,#0
        0x0000495c:    461a        .F      MOV      r2,r3
        0x0000495e:    4621        !F      MOV      r1,r4
        0x00004960:    4630        0F      MOV      r0,r6
        0x00004962:    f7ffff31    ..1.    BL       s_grey_createOnePlane ; 0x47c8
        0x00004966:    4628        (F      MOV      r0,r5
        0x00004968:    3014        .0      ADDS     r0,r0,#0x14
        0x0000496a:    b200        ..      SXTH     r0,r0
        0x0000496c:    80a0        ..      STRH     r0,[r4,#4]
        0x0000496e:    2300        .#      MOVS     r3,#0
        0x00004970:    461a        .F      MOV      r2,r3
        0x00004972:    4621        !F      MOV      r1,r4
        0x00004974:    4630        0F      MOV      r0,r6
        0x00004976:    f7ffff27    ..'.    BL       s_grey_createOnePlane ; 0x47c8
        0x0000497a:    bde0        ..      POP      {r5-r7,pc}
    i.s_grey_createPlane_123
    s_grey_createPlane_123
        0x0000497c:    b570        p.      PUSH     {r4-r6,lr}
        0x0000497e:    4605        .F      MOV      r5,r0
        0x00004980:    f7fbfbfc    ....    BL       rand ; 0x17c
        0x00004984:    4606        .F      MOV      r6,r0
        0x00004986:    21aa        .!      MOVS     r1,#0xaa
        0x00004988:    f7fbfbe4    ....    BL       __aeabi_idiv ; 0x154
        0x0000498c:    1d49        I.      ADDS     r1,r1,#5
        0x0000498e:    b208        ..      SXTH     r0,r1
        0x00004990:    80a0        ..      STRH     r0,[r4,#4]
        0x00004992:    2004        .       MOVS     r0,#4
        0x00004994:    5e20         ^      LDRSH    r0,[r4,r0]
        0x00004996:    2805        .(      CMP      r0,#5
        0x00004998:    dd06        ..      BLE      0x49a8 ; s_grey_createPlane_123 + 44
        0x0000499a:    2004        .       MOVS     r0,#4
        0x0000499c:    5e20         ^      LDRSH    r0,[r4,r0]
        0x0000499e:    2855        U(      CMP      r0,#0x55
        0x000049a0:    da02        ..      BGE      0x49a8 ; s_grey_createPlane_123 + 44
        0x000049a2:    2006        .       MOVS     r0,#6
        0x000049a4:    72e0        .r      STRB     r0,[r4,#0xb]
        0x000049a6:    e00c        ..      B        0x49c2 ; s_grey_createPlane_123 + 70
        0x000049a8:    2004        .       MOVS     r0,#4
        0x000049aa:    5e20         ^      LDRSH    r0,[r4,r0]
        0x000049ac:    28ab        .(      CMP      r0,#0xab
        0x000049ae:    dd06        ..      BLE      0x49be ; s_grey_createPlane_123 + 66
        0x000049b0:    2004        .       MOVS     r0,#4
        0x000049b2:    5e20         ^      LDRSH    r0,[r4,r0]
        0x000049b4:    28fb        .(      CMP      r0,#0xfb
        0x000049b6:    da02        ..      BGE      0x49be ; s_grey_createPlane_123 + 66
        0x000049b8:    2005        .       MOVS     r0,#5
        0x000049ba:    72e0        .r      STRB     r0,[r4,#0xb]
        0x000049bc:    e001        ..      B        0x49c2 ; s_grey_createPlane_123 + 70
        0x000049be:    2004        .       MOVS     r0,#4
        0x000049c0:    72e0        .r      STRB     r0,[r4,#0xb]
        0x000049c2:    2300        .#      MOVS     r3,#0
        0x000049c4:    461a        .F      MOV      r2,r3
        0x000049c6:    4621        !F      MOV      r1,r4
        0x000049c8:    4628        (F      MOV      r0,r5
        0x000049ca:    f7fffefd    ....    BL       s_grey_createOnePlane ; 0x47c8
        0x000049ce:    88a0        ..      LDRH     r0,[r4,#4]
        0x000049d0:    21ff        .!      MOVS     r1,#0xff
        0x000049d2:    3101        .1      ADDS     r1,#1
        0x000049d4:    1a08        ..      SUBS     r0,r1,r0
        0x000049d6:    b200        ..      SXTH     r0,r0
        0x000049d8:    80a0        ..      STRH     r0,[r4,#4]
        0x000049da:    7ae0        .z      LDRB     r0,[r4,#0xb]
        0x000049dc:    2806        .(      CMP      r0,#6
        0x000049de:    d102        ..      BNE      0x49e6 ; s_grey_createPlane_123 + 106
        0x000049e0:    2005        .       MOVS     r0,#5
        0x000049e2:    72e0        .r      STRB     r0,[r4,#0xb]
        0x000049e4:    e004        ..      B        0x49f0 ; s_grey_createPlane_123 + 116
        0x000049e6:    7ae0        .z      LDRB     r0,[r4,#0xb]
        0x000049e8:    2805        .(      CMP      r0,#5
        0x000049ea:    d101        ..      BNE      0x49f0 ; s_grey_createPlane_123 + 116
        0x000049ec:    2006        .       MOVS     r0,#6
        0x000049ee:    72e0        .r      STRB     r0,[r4,#0xb]
        0x000049f0:    2300        .#      MOVS     r3,#0
        0x000049f2:    461a        .F      MOV      r2,r3
        0x000049f4:    4621        !F      MOV      r1,r4
        0x000049f6:    4628        (F      MOV      r0,r5
        0x000049f8:    f7fffee6    ....    BL       s_grey_createOnePlane ; 0x47c8
        0x000049fc:    bd70        p.      POP      {r4-r6,pc}
    i.s_grey_createPlane_144
    s_grey_createPlane_144
        0x000049fe:    b5e0        ..      PUSH     {r5-r7,lr}
        0x00004a00:    4606        .F      MOV      r6,r0
        0x00004a02:    f7fbfbbb    ....    BL       rand ; 0x17c
        0x00004a06:    4607        .F      MOV      r7,r0
        0x00004a08:    21aa        .!      MOVS     r1,#0xaa
        0x00004a0a:    f7fbfba3    ....    BL       __aeabi_idiv ; 0x154
        0x00004a0e:    3119        .1      ADDS     r1,r1,#0x19
        0x00004a10:    b20d        ..      SXTH     r5,r1
        0x00004a12:    80a5        ..      STRH     r5,[r4,#4]
        0x00004a14:    2004        .       MOVS     r0,#4
        0x00004a16:    72e0        .r      STRB     r0,[r4,#0xb]
        0x00004a18:    2300        .#      MOVS     r3,#0
        0x00004a1a:    461a        .F      MOV      r2,r3
        0x00004a1c:    4621        !F      MOV      r1,r4
        0x00004a1e:    4630        0F      MOV      r0,r6
        0x00004a20:    f7fffed2    ....    BL       s_grey_createOnePlane ; 0x47c8
        0x00004a24:    4628        (F      MOV      r0,r5
        0x00004a26:    3014        .0      ADDS     r0,r0,#0x14
        0x00004a28:    b200        ..      SXTH     r0,r0
        0x00004a2a:    80a0        ..      STRH     r0,[r4,#4]
        0x00004a2c:    2300        .#      MOVS     r3,#0
        0x00004a2e:    461a        .F      MOV      r2,r3
        0x00004a30:    4621        !F      MOV      r1,r4
        0x00004a32:    4630        0F      MOV      r0,r6
        0x00004a34:    f7fffec8    ....    BL       s_grey_createOnePlane ; 0x47c8
        0x00004a38:    4628        (F      MOV      r0,r5
        0x00004a3a:    3028        (0      ADDS     r0,r0,#0x28
        0x00004a3c:    b200        ..      SXTH     r0,r0
        0x00004a3e:    80a0        ..      STRH     r0,[r4,#4]
        0x00004a40:    2300        .#      MOVS     r3,#0
        0x00004a42:    461a        .F      MOV      r2,r3
        0x00004a44:    4621        !F      MOV      r1,r4
        0x00004a46:    4630        0F      MOV      r0,r6
        0x00004a48:    f7fffebe    ....    BL       s_grey_createOnePlane ; 0x47c8
        0x00004a4c:    4628        (F      MOV      r0,r5
        0x00004a4e:    303c        <0      ADDS     r0,r0,#0x3c
        0x00004a50:    b200        ..      SXTH     r0,r0
        0x00004a52:    80a0        ..      STRH     r0,[r4,#4]
        0x00004a54:    2300        .#      MOVS     r3,#0
        0x00004a56:    461a        .F      MOV      r2,r3
        0x00004a58:    4621        !F      MOV      r1,r4
        0x00004a5a:    4630        0F      MOV      r0,r6
        0x00004a5c:    f7fffeb4    ....    BL       s_grey_createOnePlane ; 0x47c8
        0x00004a60:    bde0        ..      POP      {r5-r7,pc}
    i.s_grey_createPlane_145
    s_grey_createPlane_145
        0x00004a62:    b570        p.      PUSH     {r4-r6,lr}
        0x00004a64:    4605        .F      MOV      r5,r0
        0x00004a66:    f7fbfb89    ....    BL       rand ; 0x17c
        0x00004a6a:    4606        .F      MOV      r6,r0
        0x00004a6c:    21aa        .!      MOVS     r1,#0xaa
        0x00004a6e:    f7fbfb71    ..q.    BL       __aeabi_idiv ; 0x154
        0x00004a72:    1d49        I.      ADDS     r1,r1,#5
        0x00004a74:    b208        ..      SXTH     r0,r1
        0x00004a76:    80a0        ..      STRH     r0,[r4,#4]
        0x00004a78:    2004        .       MOVS     r0,#4
        0x00004a7a:    5e20         ^      LDRSH    r0,[r4,r0]
        0x00004a7c:    2805        .(      CMP      r0,#5
        0x00004a7e:    dd06        ..      BLE      0x4a8e ; s_grey_createPlane_145 + 44
        0x00004a80:    2004        .       MOVS     r0,#4
        0x00004a82:    5e20         ^      LDRSH    r0,[r4,r0]
        0x00004a84:    2855        U(      CMP      r0,#0x55
        0x00004a86:    da02        ..      BGE      0x4a8e ; s_grey_createPlane_145 + 44
        0x00004a88:    2006        .       MOVS     r0,#6
        0x00004a8a:    72e0        .r      STRB     r0,[r4,#0xb]
        0x00004a8c:    e00c        ..      B        0x4aa8 ; s_grey_createPlane_145 + 70
        0x00004a8e:    2004        .       MOVS     r0,#4
        0x00004a90:    5e20         ^      LDRSH    r0,[r4,r0]
        0x00004a92:    28ab        .(      CMP      r0,#0xab
        0x00004a94:    dd06        ..      BLE      0x4aa4 ; s_grey_createPlane_145 + 66
        0x00004a96:    2004        .       MOVS     r0,#4
        0x00004a98:    5e20         ^      LDRSH    r0,[r4,r0]
        0x00004a9a:    28fb        .(      CMP      r0,#0xfb
        0x00004a9c:    da02        ..      BGE      0x4aa4 ; s_grey_createPlane_145 + 66
        0x00004a9e:    2005        .       MOVS     r0,#5
        0x00004aa0:    72e0        .r      STRB     r0,[r4,#0xb]
        0x00004aa2:    e001        ..      B        0x4aa8 ; s_grey_createPlane_145 + 70
        0x00004aa4:    2004        .       MOVS     r0,#4
        0x00004aa6:    72e0        .r      STRB     r0,[r4,#0xb]
        0x00004aa8:    2300        .#      MOVS     r3,#0
        0x00004aaa:    461a        .F      MOV      r2,r3
        0x00004aac:    4621        !F      MOV      r1,r4
        0x00004aae:    4628        (F      MOV      r0,r5
        0x00004ab0:    f7fffe8a    ....    BL       s_grey_createOnePlane ; 0x47c8
        0x00004ab4:    88a0        ..      LDRH     r0,[r4,#4]
        0x00004ab6:    3014        .0      ADDS     r0,r0,#0x14
        0x00004ab8:    b200        ..      SXTH     r0,r0
        0x00004aba:    80a0        ..      STRH     r0,[r4,#4]
        0x00004abc:    2300        .#      MOVS     r3,#0
        0x00004abe:    461a        .F      MOV      r2,r3
        0x00004ac0:    4621        !F      MOV      r1,r4
        0x00004ac2:    4628        (F      MOV      r0,r5
        0x00004ac4:    f7fffe80    ....    BL       s_grey_createOnePlane ; 0x47c8
        0x00004ac8:    88a0        ..      LDRH     r0,[r4,#4]
        0x00004aca:    21ff        .!      MOVS     r1,#0xff
        0x00004acc:    3101        .1      ADDS     r1,#1
        0x00004ace:    1a08        ..      SUBS     r0,r1,r0
        0x00004ad0:    b200        ..      SXTH     r0,r0
        0x00004ad2:    80a0        ..      STRH     r0,[r4,#4]
        0x00004ad4:    7ae0        .z      LDRB     r0,[r4,#0xb]
        0x00004ad6:    2806        .(      CMP      r0,#6
        0x00004ad8:    d102        ..      BNE      0x4ae0 ; s_grey_createPlane_145 + 126
        0x00004ada:    2005        .       MOVS     r0,#5
        0x00004adc:    72e0        .r      STRB     r0,[r4,#0xb]
        0x00004ade:    e004        ..      B        0x4aea ; s_grey_createPlane_145 + 136
        0x00004ae0:    7ae0        .z      LDRB     r0,[r4,#0xb]
        0x00004ae2:    2805        .(      CMP      r0,#5
        0x00004ae4:    d101        ..      BNE      0x4aea ; s_grey_createPlane_145 + 136
        0x00004ae6:    2006        .       MOVS     r0,#6
        0x00004ae8:    72e0        .r      STRB     r0,[r4,#0xb]
        0x00004aea:    2300        .#      MOVS     r3,#0
        0x00004aec:    461a        .F      MOV      r2,r3
        0x00004aee:    4621        !F      MOV      r1,r4
        0x00004af0:    4628        (F      MOV      r0,r5
        0x00004af2:    f7fffe69    ..i.    BL       s_grey_createOnePlane ; 0x47c8
        0x00004af6:    88a0        ..      LDRH     r0,[r4,#4]
        0x00004af8:    3014        .0      ADDS     r0,r0,#0x14
        0x00004afa:    b200        ..      SXTH     r0,r0
        0x00004afc:    80a0        ..      STRH     r0,[r4,#4]
        0x00004afe:    2300        .#      MOVS     r3,#0
        0x00004b00:    461a        .F      MOV      r2,r3
        0x00004b02:    4621        !F      MOV      r1,r4
        0x00004b04:    4628        (F      MOV      r0,r5
        0x00004b06:    f7fffe5f    .._.    BL       s_grey_createOnePlane ; 0x47c8
        0x00004b0a:    bd70        p.      POP      {r4-r6,pc}
    i.s_grey_createPlane_166
    s_grey_createPlane_166
        0x00004b0c:    b510        ..      PUSH     {r4,lr}
        0x00004b0e:    4604        .F      MOV      r4,r0
        0x00004b10:    4620         F      MOV      r0,r4
        0x00004b12:    f7ffff74    ..t.    BL       s_grey_createPlane_144 ; 0x49fe
        0x00004b16:    4620         F      MOV      r0,r4
        0x00004b18:    f7ffff12    ....    BL       s_grey_createPlane_122 ; 0x4940
        0x00004b1c:    bd10        ..      POP      {r4,pc}
        0x00004b1e:    0000        ..      MOVS     r0,r0
    i.s_grey_drawPlane
    s_grey_drawPlane
        0x00004b20:    b5fe        ..      PUSH     {r1-r7,lr}
        0x00004b22:    4605        .F      MOV      r5,r0
        0x00004b24:    460e        .F      MOV      r6,r1
        0x00004b26:    2400        .$      MOVS     r4,#0
        0x00004b28:    e1d5        ..      B        0x4ed6 ; s_grey_drawPlane + 950
        0x00004b2a:    0120         .      LSLS     r0,r4,#4
        0x00004b2c:    5c28        (\      LDRB     r0,[r5,r0]
        0x00004b2e:    2800        .(      CMP      r0,#0
        0x00004b30:    d07e        ~.      BEQ      0x4c30 ; s_grey_drawPlane + 272
        0x00004b32:    2700        .'      MOVS     r7,#0
        0x00004b34:    2000        .       MOVS     r0,#0
        0x00004b36:    9002        ..      STR      r0,[sp,#8]
        0x00004b38:    0120         .      LSLS     r0,r4,#4
        0x00004b3a:    1940        @.      ADDS     r0,r0,r5
        0x00004b3c:    7bc0        .{      LDRB     r0,[r0,#0xf]
        0x00004b3e:    0003        ..      MOVS     r3,r0
        0x00004b40:    f7fcf800    ....    BL       __ARM_common_switch8 ; 0xb44
    $d
        0x00004b44:    7d400508    ..@}    DCD    2101347592
        0x00004b48:    fcfde4a6    ....    DCD    4244497574
        0x00004b4c:    fafb        ..      DCW    64251
    $t
        0x00004b4e:    2040        @       MOVS     r0,#0x40
        0x00004b50:    9002        ..      STR      r0,[sp,#8]
        0x00004b52:    0122        ".      LSLS     r2,r4,#4
        0x00004b54:    1952        R.      ADDS     r2,r2,r5
        0x00004b56:    9700        ..      STR      r7,[sp,#0]
        0x00004b58:    88d2        ..      LDRH     r2,[r2,#6]
        0x00004b5a:    b2d2        ..      UXTB     r2,r2
        0x00004b5c:    9201        ..      STR      r2,[sp,#4]
        0x00004b5e:    0122        ".      LSLS     r2,r4,#4
        0x00004b60:    1952        R.      ADDS     r2,r2,r5
        0x00004b62:    8892        ..      LDRH     r2,[r2,#4]
        0x00004b64:    b2d1        ..      UXTB     r1,r2
        0x00004b66:    7830        0x      LDRB     r0,[r6,#0]
        0x00004b68:    9b02        ..      LDR      r3,[sp,#8]
        0x00004b6a:    9a01        ..      LDR      r2,[sp,#4]
        0x00004b6c:    f000fcd2    ....    BL       writeOneSprite ; 0x5514
        0x00004b70:    9700        ..      STR      r7,[sp,#0]
        0x00004b72:    9a02        ..      LDR      r2,[sp,#8]
        0x00004b74:    1c53        S.      ADDS     r3,r2,#1
        0x00004b76:    0122        ".      LSLS     r2,r4,#4
        0x00004b78:    1952        R.      ADDS     r2,r2,r5
        0x00004b7a:    88d2        ..      LDRH     r2,[r2,#6]
        0x00004b7c:    b2d2        ..      UXTB     r2,r2
        0x00004b7e:    9201        ..      STR      r2,[sp,#4]
        0x00004b80:    0122        ".      LSLS     r2,r4,#4
        0x00004b82:    1952        R.      ADDS     r2,r2,r5
        0x00004b84:    8892        ..      LDRH     r2,[r2,#4]
        0x00004b86:    3208        .2      ADDS     r2,r2,#8
        0x00004b88:    b2d1        ..      UXTB     r1,r2
        0x00004b8a:    7832        2x      LDRB     r2,[r6,#0]
        0x00004b8c:    1c52        R.      ADDS     r2,r2,#1
        0x00004b8e:    b2d0        ..      UXTB     r0,r2
        0x00004b90:    9a01        ..      LDR      r2,[sp,#4]
        0x00004b92:    f000fcbf    ....    BL       writeOneSprite ; 0x5514
        0x00004b96:    9700        ..      STR      r7,[sp,#0]
        0x00004b98:    9802        ..      LDR      r0,[sp,#8]
        0x00004b9a:    1c83        ..      ADDS     r3,r0,#2
        0x00004b9c:    0120         .      LSLS     r0,r4,#4
        0x00004b9e:    1940        @.      ADDS     r0,r0,r5
        0x00004ba0:    88c0        ..      LDRH     r0,[r0,#6]
        0x00004ba2:    3808        .8      SUBS     r0,r0,#8
        0x00004ba4:    b2c2        ..      UXTB     r2,r0
        0x00004ba6:    0120         .      LSLS     r0,r4,#4
        0x00004ba8:    1940        @.      ADDS     r0,r0,r5
        0x00004baa:    8880        ..      LDRH     r0,[r0,#4]
        0x00004bac:    1d00        ..      ADDS     r0,r0,#4
        0x00004bae:    b2c1        ..      UXTB     r1,r0
        0x00004bb0:    7830        0x      LDRB     r0,[r6,#0]
        0x00004bb2:    1c80        ..      ADDS     r0,r0,#2
        0x00004bb4:    b2c0        ..      UXTB     r0,r0
        0x00004bb6:    9001        ..      STR      r0,[sp,#4]
        0x00004bb8:    f000fcac    ....    BL       writeOneSprite ; 0x5514
        0x00004bbc:    7830        0x      LDRB     r0,[r6,#0]
        0x00004bbe:    1cc0        ..      ADDS     r0,r0,#3
        0x00004bc0:    7030        0p      STRB     r0,[r6,#0]
        0x00004bc2:    e185        ..      B        0x4ed0 ; s_grey_drawPlane + 944
        0x00004bc4:    2043        C       MOVS     r0,#0x43
        0x00004bc6:    9002        ..      STR      r0,[sp,#8]
        0x00004bc8:    0121        !.      LSLS     r1,r4,#4
        0x00004bca:    1949        I.      ADDS     r1,r1,r5
        0x00004bcc:    9700        ..      STR      r7,[sp,#0]
        0x00004bce:    88c9        ..      LDRH     r1,[r1,#6]
        0x00004bd0:    b2ca        ..      UXTB     r2,r1
        0x00004bd2:    0121        !.      LSLS     r1,r4,#4
        0x00004bd4:    1949        I.      ADDS     r1,r1,r5
        0x00004bd6:    8889        ..      LDRH     r1,[r1,#4]
        0x00004bd8:    b2c9        ..      UXTB     r1,r1
        0x00004bda:    9101        ..      STR      r1,[sp,#4]
        0x00004bdc:    7830        0x      LDRB     r0,[r6,#0]
        0x00004bde:    9b02        ..      LDR      r3,[sp,#8]
        0x00004be0:    f000fc98    ....    BL       writeOneSprite ; 0x5514
        0x00004be4:    4638        8F      MOV      r0,r7
        0x00004be6:    2140        @!      MOVS     r1,#0x40
        0x00004be8:    4308        .C      ORRS     r0,r0,r1
        0x00004bea:    9000        ..      STR      r0,[sp,#0]
        0x00004bec:    0120         .      LSLS     r0,r4,#4
        0x00004bee:    1940        @.      ADDS     r0,r0,r5
        0x00004bf0:    88c0        ..      LDRH     r0,[r0,#6]
        0x00004bf2:    b2c2        ..      UXTB     r2,r0
        0x00004bf4:    0120         .      LSLS     r0,r4,#4
        0x00004bf6:    1940        @.      ADDS     r0,r0,r5
        0x00004bf8:    8880        ..      LDRH     r0,[r0,#4]
        0x00004bfa:    3008        .0      ADDS     r0,r0,#8
        0x00004bfc:    b2c1        ..      UXTB     r1,r0
        0x00004bfe:    7830        0x      LDRB     r0,[r6,#0]
        0x00004c00:    1c40        @.      ADDS     r0,r0,#1
        0x00004c02:    b2c0        ..      UXTB     r0,r0
        0x00004c04:    9001        ..      STR      r0,[sp,#4]
        0x00004c06:    9b02        ..      LDR      r3,[sp,#8]
        0x00004c08:    f000fc84    ....    BL       writeOneSprite ; 0x5514
        0x00004c0c:    9700        ..      STR      r7,[sp,#0]
        0x00004c0e:    9802        ..      LDR      r0,[sp,#8]
        0x00004c10:    1c43        C.      ADDS     r3,r0,#1
        0x00004c12:    0120         .      LSLS     r0,r4,#4
        0x00004c14:    1940        @.      ADDS     r0,r0,r5
        0x00004c16:    88c0        ..      LDRH     r0,[r0,#6]
        0x00004c18:    3808        .8      SUBS     r0,r0,#8
        0x00004c1a:    b2c2        ..      UXTB     r2,r0
        0x00004c1c:    0120         .      LSLS     r0,r4,#4
        0x00004c1e:    1940        @.      ADDS     r0,r0,r5
        0x00004c20:    8880        ..      LDRH     r0,[r0,#4]
        0x00004c22:    1d00        ..      ADDS     r0,r0,#4
        0x00004c24:    b2c1        ..      UXTB     r1,r0
        0x00004c26:    7830        0x      LDRB     r0,[r6,#0]
        0x00004c28:    1c80        ..      ADDS     r0,r0,#2
        0x00004c2a:    b2c0        ..      UXTB     r0,r0
        0x00004c2c:    9001        ..      STR      r0,[sp,#4]
        0x00004c2e:    e000        ..      B        0x4c32 ; s_grey_drawPlane + 274
        0x00004c30:    e150        P.      B        0x4ed4 ; s_grey_drawPlane + 948
        0x00004c32:    f000fc6f    ..o.    BL       writeOneSprite ; 0x5514
        0x00004c36:    7830        0x      LDRB     r0,[r6,#0]
        0x00004c38:    1cc0        ..      ADDS     r0,r0,#3
        0x00004c3a:    7030        0p      STRB     r0,[r6,#0]
        0x00004c3c:    e148        H.      B        0x4ed0 ; s_grey_drawPlane + 944
        0x00004c3e:    2045        E       MOVS     r0,#0x45
        0x00004c40:    9002        ..      STR      r0,[sp,#8]
        0x00004c42:    0121        !.      LSLS     r1,r4,#4
        0x00004c44:    1949        I.      ADDS     r1,r1,r5
        0x00004c46:    9700        ..      STR      r7,[sp,#0]
        0x00004c48:    88c9        ..      LDRH     r1,[r1,#6]
        0x00004c4a:    b2ca        ..      UXTB     r2,r1
        0x00004c4c:    0121        !.      LSLS     r1,r4,#4
        0x00004c4e:    1949        I.      ADDS     r1,r1,r5
        0x00004c50:    8889        ..      LDRH     r1,[r1,#4]
        0x00004c52:    b2c9        ..      UXTB     r1,r1
        0x00004c54:    9101        ..      STR      r1,[sp,#4]
        0x00004c56:    7830        0x      LDRB     r0,[r6,#0]
        0x00004c58:    9b02        ..      LDR      r3,[sp,#8]
        0x00004c5a:    f000fc5b    ..[.    BL       writeOneSprite ; 0x5514
        0x00004c5e:    4638        8F      MOV      r0,r7
        0x00004c60:    2140        @!      MOVS     r1,#0x40
        0x00004c62:    4308        .C      ORRS     r0,r0,r1
        0x00004c64:    0121        !.      LSLS     r1,r4,#4
        0x00004c66:    1949        I.      ADDS     r1,r1,r5
        0x00004c68:    9000        ..      STR      r0,[sp,#0]
        0x00004c6a:    88c9        ..      LDRH     r1,[r1,#6]
        0x00004c6c:    b2ca        ..      UXTB     r2,r1
        0x00004c6e:    0121        !.      LSLS     r1,r4,#4
        0x00004c70:    1949        I.      ADDS     r1,r1,r5
        0x00004c72:    8889        ..      LDRH     r1,[r1,#4]
        0x00004c74:    3108        .1      ADDS     r1,r1,#8
        0x00004c76:    b2c9        ..      UXTB     r1,r1
        0x00004c78:    9101        ..      STR      r1,[sp,#4]
        0x00004c7a:    7831        1x      LDRB     r1,[r6,#0]
        0x00004c7c:    1c49        I.      ADDS     r1,r1,#1
        0x00004c7e:    b2c8        ..      UXTB     r0,r1
        0x00004c80:    9b02        ..      LDR      r3,[sp,#8]
        0x00004c82:    9901        ..      LDR      r1,[sp,#4]
        0x00004c84:    f000fc46    ..F.    BL       writeOneSprite ; 0x5514
        0x00004c88:    7830        0x      LDRB     r0,[r6,#0]
        0x00004c8a:    1c80        ..      ADDS     r0,r0,#2
        0x00004c8c:    7030        0p      STRB     r0,[r6,#0]
        0x00004c8e:    e11f        ..      B        0x4ed0 ; s_grey_drawPlane + 944
        0x00004c90:    2046        F       MOVS     r0,#0x46
        0x00004c92:    9002        ..      STR      r0,[sp,#8]
        0x00004c94:    0122        ".      LSLS     r2,r4,#4
        0x00004c96:    1952        R.      ADDS     r2,r2,r5
        0x00004c98:    9700        ..      STR      r7,[sp,#0]
        0x00004c9a:    88d2        ..      LDRH     r2,[r2,#6]
        0x00004c9c:    b2d2        ..      UXTB     r2,r2
        0x00004c9e:    9201        ..      STR      r2,[sp,#4]
        0x00004ca0:    0122        ".      LSLS     r2,r4,#4
        0x00004ca2:    1952        R.      ADDS     r2,r2,r5
        0x00004ca4:    8892        ..      LDRH     r2,[r2,#4]
        0x00004ca6:    b2d1        ..      UXTB     r1,r2
        0x00004ca8:    7830        0x      LDRB     r0,[r6,#0]
        0x00004caa:    9b02        ..      LDR      r3,[sp,#8]
        0x00004cac:    9a01        ..      LDR      r2,[sp,#4]
        0x00004cae:    f000fc31    ..1.    BL       writeOneSprite ; 0x5514
        0x00004cb2:    4638        8F      MOV      r0,r7
        0x00004cb4:    2140        @!      MOVS     r1,#0x40
        0x00004cb6:    4308        .C      ORRS     r0,r0,r1
        0x00004cb8:    0121        !.      LSLS     r1,r4,#4
        0x00004cba:    1949        I.      ADDS     r1,r1,r5
        0x00004cbc:    9000        ..      STR      r0,[sp,#0]
        0x00004cbe:    88c9        ..      LDRH     r1,[r1,#6]
        0x00004cc0:    b2ca        ..      UXTB     r2,r1
        0x00004cc2:    0121        !.      LSLS     r1,r4,#4
        0x00004cc4:    1949        I.      ADDS     r1,r1,r5
        0x00004cc6:    8889        ..      LDRH     r1,[r1,#4]
        0x00004cc8:    3108        .1      ADDS     r1,r1,#8
        0x00004cca:    b2c9        ..      UXTB     r1,r1
        0x00004ccc:    9101        ..      STR      r1,[sp,#4]
        0x00004cce:    7831        1x      LDRB     r1,[r6,#0]
        0x00004cd0:    1c49        I.      ADDS     r1,r1,#1
        0x00004cd2:    b2c8        ..      UXTB     r0,r1
        0x00004cd4:    9b02        ..      LDR      r3,[sp,#8]
        0x00004cd6:    9901        ..      LDR      r1,[sp,#4]
        0x00004cd8:    f000fc1c    ....    BL       writeOneSprite ; 0x5514
        0x00004cdc:    9700        ..      STR      r7,[sp,#0]
        0x00004cde:    9902        ..      LDR      r1,[sp,#8]
        0x00004ce0:    1c4b        K.      ADDS     r3,r1,#1
        0x00004ce2:    0121        !.      LSLS     r1,r4,#4
        0x00004ce4:    1949        I.      ADDS     r1,r1,r5
        0x00004ce6:    88c9        ..      LDRH     r1,[r1,#6]
        0x00004ce8:    3108        .1      ADDS     r1,r1,#8
        0x00004cea:    b2ca        ..      UXTB     r2,r1
        0x00004cec:    0121        !.      LSLS     r1,r4,#4
        0x00004cee:    1949        I.      ADDS     r1,r1,r5
        0x00004cf0:    8889        ..      LDRH     r1,[r1,#4]
        0x00004cf2:    1d09        ..      ADDS     r1,r1,#4
        0x00004cf4:    b2c9        ..      UXTB     r1,r1
        0x00004cf6:    9101        ..      STR      r1,[sp,#4]
        0x00004cf8:    7831        1x      LDRB     r1,[r6,#0]
        0x00004cfa:    1c89        ..      ADDS     r1,r1,#2
        0x00004cfc:    b2c8        ..      UXTB     r0,r1
        0x00004cfe:    9901        ..      LDR      r1,[sp,#4]
        0x00004d00:    f000fc08    ....    BL       writeOneSprite ; 0x5514
        0x00004d04:    7830        0x      LDRB     r0,[r6,#0]
        0x00004d06:    1cc0        ..      ADDS     r0,r0,#3
        0x00004d08:    7030        0p      STRB     r0,[r6,#0]
        0x00004d0a:    e0e1        ..      B        0x4ed0 ; s_grey_drawPlane + 944
        0x00004d0c:    2048        H       MOVS     r0,#0x48
        0x00004d0e:    9002        ..      STR      r0,[sp,#8]
        0x00004d10:    0121        !.      LSLS     r1,r4,#4
        0x00004d12:    1949        I.      ADDS     r1,r1,r5
        0x00004d14:    9700        ..      STR      r7,[sp,#0]
        0x00004d16:    88c9        ..      LDRH     r1,[r1,#6]
        0x00004d18:    b2ca        ..      UXTB     r2,r1
        0x00004d1a:    0121        !.      LSLS     r1,r4,#4
        0x00004d1c:    1949        I.      ADDS     r1,r1,r5
        0x00004d1e:    8889        ..      LDRH     r1,[r1,#4]
        0x00004d20:    b2c9        ..      UXTB     r1,r1
        0x00004d22:    9101        ..      STR      r1,[sp,#4]
        0x00004d24:    7830        0x      LDRB     r0,[r6,#0]
        0x00004d26:    9b02        ..      LDR      r3,[sp,#8]
        0x00004d28:    f000fbf4    ....    BL       writeOneSprite ; 0x5514
        0x00004d2c:    4638        8F      MOV      r0,r7
        0x00004d2e:    2140        @!      MOVS     r1,#0x40
        0x00004d30:    4308        .C      ORRS     r0,r0,r1
        0x00004d32:    9000        ..      STR      r0,[sp,#0]
        0x00004d34:    0120         .      LSLS     r0,r4,#4
        0x00004d36:    e003        ..      B        0x4d40 ; s_grey_drawPlane + 544
        0x00004d38:    e0c9        ..      B        0x4ece ; s_grey_drawPlane + 942
        0x00004d3a:    e088        ..      B        0x4e4e ; s_grey_drawPlane + 814
        0x00004d3c:    e060        `.      B        0x4e00 ; s_grey_drawPlane + 736
        0x00004d3e:    e025        %.      B        0x4d8c ; s_grey_drawPlane + 620
        0x00004d40:    1940        @.      ADDS     r0,r0,r5
        0x00004d42:    88c0        ..      LDRH     r0,[r0,#6]
        0x00004d44:    b2c2        ..      UXTB     r2,r0
        0x00004d46:    0120         .      LSLS     r0,r4,#4
        0x00004d48:    1940        @.      ADDS     r0,r0,r5
        0x00004d4a:    8880        ..      LDRH     r0,[r0,#4]
        0x00004d4c:    3008        .0      ADDS     r0,r0,#8
        0x00004d4e:    b2c1        ..      UXTB     r1,r0
        0x00004d50:    7830        0x      LDRB     r0,[r6,#0]
        0x00004d52:    1c40        @.      ADDS     r0,r0,#1
        0x00004d54:    b2c0        ..      UXTB     r0,r0
        0x00004d56:    9001        ..      STR      r0,[sp,#4]
        0x00004d58:    9b02        ..      LDR      r3,[sp,#8]
        0x00004d5a:    f000fbdb    ....    BL       writeOneSprite ; 0x5514
        0x00004d5e:    9700        ..      STR      r7,[sp,#0]
        0x00004d60:    9802        ..      LDR      r0,[sp,#8]
        0x00004d62:    1c43        C.      ADDS     r3,r0,#1
        0x00004d64:    0120         .      LSLS     r0,r4,#4
        0x00004d66:    1940        @.      ADDS     r0,r0,r5
        0x00004d68:    88c0        ..      LDRH     r0,[r0,#6]
        0x00004d6a:    3008        .0      ADDS     r0,r0,#8
        0x00004d6c:    b2c2        ..      UXTB     r2,r0
        0x00004d6e:    0120         .      LSLS     r0,r4,#4
        0x00004d70:    1940        @.      ADDS     r0,r0,r5
        0x00004d72:    8880        ..      LDRH     r0,[r0,#4]
        0x00004d74:    1d00        ..      ADDS     r0,r0,#4
        0x00004d76:    b2c1        ..      UXTB     r1,r0
        0x00004d78:    7830        0x      LDRB     r0,[r6,#0]
        0x00004d7a:    1c80        ..      ADDS     r0,r0,#2
        0x00004d7c:    b2c0        ..      UXTB     r0,r0
        0x00004d7e:    9001        ..      STR      r0,[sp,#4]
        0x00004d80:    f000fbc8    ....    BL       writeOneSprite ; 0x5514
        0x00004d84:    7830        0x      LDRB     r0,[r6,#0]
        0x00004d86:    1cc0        ..      ADDS     r0,r0,#3
        0x00004d88:    7030        0p      STRB     r0,[r6,#0]
        0x00004d8a:    e0a1        ..      B        0x4ed0 ; s_grey_drawPlane + 944
        0x00004d8c:    0121        !.      LSLS     r1,r4,#4
        0x00004d8e:    1949        I.      ADDS     r1,r1,r5
        0x00004d90:    9700        ..      STR      r7,[sp,#0]
        0x00004d92:    88c9        ..      LDRH     r1,[r1,#6]
        0x00004d94:    b2ca        ..      UXTB     r2,r1
        0x00004d96:    0121        !.      LSLS     r1,r4,#4
        0x00004d98:    1949        I.      ADDS     r1,r1,r5
        0x00004d9a:    8889        ..      LDRH     r1,[r1,#4]
        0x00004d9c:    b2c9        ..      UXTB     r1,r1
        0x00004d9e:    9101        ..      STR      r1,[sp,#4]
        0x00004da0:    7830        0x      LDRB     r0,[r6,#0]
        0x00004da2:    234b        K#      MOVS     r3,#0x4b
        0x00004da4:    f000fbb6    ....    BL       writeOneSprite ; 0x5514
        0x00004da8:    4638        8F      MOV      r0,r7
        0x00004daa:    2140        @!      MOVS     r1,#0x40
        0x00004dac:    4308        .C      ORRS     r0,r0,r1
        0x00004dae:    0121        !.      LSLS     r1,r4,#4
        0x00004db0:    1949        I.      ADDS     r1,r1,r5
        0x00004db2:    9000        ..      STR      r0,[sp,#0]
        0x00004db4:    88c9        ..      LDRH     r1,[r1,#6]
        0x00004db6:    b2ca        ..      UXTB     r2,r1
        0x00004db8:    0121        !.      LSLS     r1,r4,#4
        0x00004dba:    1949        I.      ADDS     r1,r1,r5
        0x00004dbc:    8889        ..      LDRH     r1,[r1,#4]
        0x00004dbe:    3108        .1      ADDS     r1,r1,#8
        0x00004dc0:    b2c9        ..      UXTB     r1,r1
        0x00004dc2:    9101        ..      STR      r1,[sp,#4]
        0x00004dc4:    7831        1x      LDRB     r1,[r6,#0]
        0x00004dc6:    1c49        I.      ADDS     r1,r1,#1
        0x00004dc8:    b2c8        ..      UXTB     r0,r1
        0x00004dca:    234a        J#      MOVS     r3,#0x4a
        0x00004dcc:    9901        ..      LDR      r1,[sp,#4]
        0x00004dce:    f000fba1    ....    BL       writeOneSprite ; 0x5514
        0x00004dd2:    0121        !.      LSLS     r1,r4,#4
        0x00004dd4:    1949        I.      ADDS     r1,r1,r5
        0x00004dd6:    9700        ..      STR      r7,[sp,#0]
        0x00004dd8:    88c9        ..      LDRH     r1,[r1,#6]
        0x00004dda:    3908        .9      SUBS     r1,r1,#8
        0x00004ddc:    b2ca        ..      UXTB     r2,r1
        0x00004dde:    0121        !.      LSLS     r1,r4,#4
        0x00004de0:    1949        I.      ADDS     r1,r1,r5
        0x00004de2:    8889        ..      LDRH     r1,[r1,#4]
        0x00004de4:    1d09        ..      ADDS     r1,r1,#4
        0x00004de6:    b2c9        ..      UXTB     r1,r1
        0x00004de8:    9101        ..      STR      r1,[sp,#4]
        0x00004dea:    7831        1x      LDRB     r1,[r6,#0]
        0x00004dec:    1c89        ..      ADDS     r1,r1,#2
        0x00004dee:    b2c8        ..      UXTB     r0,r1
        0x00004df0:    234c        L#      MOVS     r3,#0x4c
        0x00004df2:    9901        ..      LDR      r1,[sp,#4]
        0x00004df4:    f000fb8e    ....    BL       writeOneSprite ; 0x5514
        0x00004df8:    7830        0x      LDRB     r0,[r6,#0]
        0x00004dfa:    1cc0        ..      ADDS     r0,r0,#3
        0x00004dfc:    7030        0p      STRB     r0,[r6,#0]
        0x00004dfe:    e067        g.      B        0x4ed0 ; s_grey_drawPlane + 944
        0x00004e00:    0122        ".      LSLS     r2,r4,#4
        0x00004e02:    1952        R.      ADDS     r2,r2,r5
        0x00004e04:    9700        ..      STR      r7,[sp,#0]
        0x00004e06:    88d2        ..      LDRH     r2,[r2,#6]
        0x00004e08:    b2d2        ..      UXTB     r2,r2
        0x00004e0a:    9201        ..      STR      r2,[sp,#4]
        0x00004e0c:    0122        ".      LSLS     r2,r4,#4
        0x00004e0e:    1952        R.      ADDS     r2,r2,r5
        0x00004e10:    8892        ..      LDRH     r2,[r2,#4]
        0x00004e12:    b2d1        ..      UXTB     r1,r2
        0x00004e14:    7830        0x      LDRB     r0,[r6,#0]
        0x00004e16:    234d        M#      MOVS     r3,#0x4d
        0x00004e18:    9a01        ..      LDR      r2,[sp,#4]
        0x00004e1a:    f000fb7b    ..{.    BL       writeOneSprite ; 0x5514
        0x00004e1e:    4638        8F      MOV      r0,r7
        0x00004e20:    2140        @!      MOVS     r1,#0x40
        0x00004e22:    4308        .C      ORRS     r0,r0,r1
        0x00004e24:    9000        ..      STR      r0,[sp,#0]
        0x00004e26:    0120         .      LSLS     r0,r4,#4
        0x00004e28:    1940        @.      ADDS     r0,r0,r5
        0x00004e2a:    88c0        ..      LDRH     r0,[r0,#6]
        0x00004e2c:    3808        .8      SUBS     r0,r0,#8
        0x00004e2e:    b2c2        ..      UXTB     r2,r0
        0x00004e30:    0120         .      LSLS     r0,r4,#4
        0x00004e32:    1940        @.      ADDS     r0,r0,r5
        0x00004e34:    8880        ..      LDRH     r0,[r0,#4]
        0x00004e36:    b2c1        ..      UXTB     r1,r0
        0x00004e38:    7830        0x      LDRB     r0,[r6,#0]
        0x00004e3a:    1c40        @.      ADDS     r0,r0,#1
        0x00004e3c:    b2c0        ..      UXTB     r0,r0
        0x00004e3e:    234e        N#      MOVS     r3,#0x4e
        0x00004e40:    9001        ..      STR      r0,[sp,#4]
        0x00004e42:    f000fb67    ..g.    BL       writeOneSprite ; 0x5514
        0x00004e46:    7830        0x      LDRB     r0,[r6,#0]
        0x00004e48:    1c80        ..      ADDS     r0,r0,#2
        0x00004e4a:    7030        0p      STRB     r0,[r6,#0]
        0x00004e4c:    e040        @.      B        0x4ed0 ; s_grey_drawPlane + 944
        0x00004e4e:    204a        J       MOVS     r0,#0x4a
        0x00004e50:    9002        ..      STR      r0,[sp,#8]
        0x00004e52:    4638        8F      MOV      r0,r7
        0x00004e54:    2140        @!      MOVS     r1,#0x40
        0x00004e56:    4308        .C      ORRS     r0,r0,r1
        0x00004e58:    9000        ..      STR      r0,[sp,#0]
        0x00004e5a:    0120         .      LSLS     r0,r4,#4
        0x00004e5c:    1940        @.      ADDS     r0,r0,r5
        0x00004e5e:    88c0        ..      LDRH     r0,[r0,#6]
        0x00004e60:    b2c2        ..      UXTB     r2,r0
        0x00004e62:    0120         .      LSLS     r0,r4,#4
        0x00004e64:    1940        @.      ADDS     r0,r0,r5
        0x00004e66:    8880        ..      LDRH     r0,[r0,#4]
        0x00004e68:    b2c1        ..      UXTB     r1,r0
        0x00004e6a:    7830        0x      LDRB     r0,[r6,#0]
        0x00004e6c:    2350        P#      MOVS     r3,#0x50
        0x00004e6e:    9001        ..      STR      r0,[sp,#4]
        0x00004e70:    f000fb50    ..P.    BL       writeOneSprite ; 0x5514
        0x00004e74:    4638        8F      MOV      r0,r7
        0x00004e76:    2140        @!      MOVS     r1,#0x40
        0x00004e78:    4308        .C      ORRS     r0,r0,r1
        0x00004e7a:    9000        ..      STR      r0,[sp,#0]
        0x00004e7c:    0120         .      LSLS     r0,r4,#4
        0x00004e7e:    1940        @.      ADDS     r0,r0,r5
        0x00004e80:    88c0        ..      LDRH     r0,[r0,#6]
        0x00004e82:    b2c2        ..      UXTB     r2,r0
        0x00004e84:    0120         .      LSLS     r0,r4,#4
        0x00004e86:    1940        @.      ADDS     r0,r0,r5
        0x00004e88:    8880        ..      LDRH     r0,[r0,#4]
        0x00004e8a:    3008        .0      ADDS     r0,r0,#8
        0x00004e8c:    b2c1        ..      UXTB     r1,r0
        0x00004e8e:    7830        0x      LDRB     r0,[r6,#0]
        0x00004e90:    1c40        @.      ADDS     r0,r0,#1
        0x00004e92:    b2c0        ..      UXTB     r0,r0
        0x00004e94:    234f        O#      MOVS     r3,#0x4f
        0x00004e96:    9001        ..      STR      r0,[sp,#4]
        0x00004e98:    f000fb3c    ..<.    BL       writeOneSprite ; 0x5514
        0x00004e9c:    4638        8F      MOV      r0,r7
        0x00004e9e:    2140        @!      MOVS     r1,#0x40
        0x00004ea0:    4308        .C      ORRS     r0,r0,r1
        0x00004ea2:    9000        ..      STR      r0,[sp,#0]
        0x00004ea4:    0120         .      LSLS     r0,r4,#4
        0x00004ea6:    1940        @.      ADDS     r0,r0,r5
        0x00004ea8:    88c0        ..      LDRH     r0,[r0,#6]
        0x00004eaa:    1fc0        ..      SUBS     r0,r0,#7
        0x00004eac:    b2c2        ..      UXTB     r2,r0
        0x00004eae:    0120         .      LSLS     r0,r4,#4
        0x00004eb0:    1940        @.      ADDS     r0,r0,r5
        0x00004eb2:    8880        ..      LDRH     r0,[r0,#4]
        0x00004eb4:    1d00        ..      ADDS     r0,r0,#4
        0x00004eb6:    b2c1        ..      UXTB     r1,r0
        0x00004eb8:    7830        0x      LDRB     r0,[r6,#0]
        0x00004eba:    1c80        ..      ADDS     r0,r0,#2
        0x00004ebc:    b2c0        ..      UXTB     r0,r0
        0x00004ebe:    2351        Q#      MOVS     r3,#0x51
        0x00004ec0:    9001        ..      STR      r0,[sp,#4]
        0x00004ec2:    f000fb27    ..'.    BL       writeOneSprite ; 0x5514
        0x00004ec6:    7830        0x      LDRB     r0,[r6,#0]
        0x00004ec8:    1cc0        ..      ADDS     r0,r0,#3
        0x00004eca:    7030        0p      STRB     r0,[r6,#0]
        0x00004ecc:    e000        ..      B        0x4ed0 ; s_grey_drawPlane + 944
        0x00004ece:    bf00        ..      NOP      
        0x00004ed0:    bf00        ..      NOP      
        0x00004ed2:    bf00        ..      NOP      
        0x00004ed4:    1c64        d.      ADDS     r4,r4,#1
        0x00004ed6:    4803        .H      LDR      r0,[pc,#12] ; [0x4ee4] = 0x5539
        0x00004ed8:    7800        .x      LDRB     r0,[r0,#0]
        0x00004eda:    4284        .B      CMP      r4,r0
        0x00004edc:    da00        ..      BGE      0x4ee0 ; s_grey_drawPlane + 960
        0x00004ede:    e624        $.      B        0x4b2a ; s_grey_drawPlane + 10
        0x00004ee0:    bdfe        ..      POP      {r1-r7,pc}
    $d
        0x00004ee2:    0000        ..      DCW    0
        0x00004ee4:    00005539    9U..    DCD    21817
    $t
    i.s_grey_movePlane
    s_grey_movePlane
        0x00004ee8:    b5f7        ..      PUSH     {r0-r2,r4-r7,lr}
        0x00004eea:    b082        ..      SUB      sp,sp,#8
        0x00004eec:    4605        .F      MOV      r5,r0
        0x00004eee:    460e        .F      MOV      r6,r1
        0x00004ef0:    2400        .$      MOVS     r4,#0
        0x00004ef2:    e1e1        ..      B        0x52b8 ; s_grey_movePlane + 976
        0x00004ef4:    0120         .      LSLS     r0,r4,#4
        0x00004ef6:    5c28        (\      LDRB     r0,[r5,r0]
        0x00004ef8:    2800        .(      CMP      r0,#0
        0x00004efa:    d029        ).      BEQ      0x4f50 ; s_grey_movePlane + 104
        0x00004efc:    0120         .      LSLS     r0,r4,#4
        0x00004efe:    1940        @.      ADDS     r0,r0,r5
        0x00004f00:    7880        .x      LDRB     r0,[r0,#2]
        0x00004f02:    2802        .(      CMP      r0,#2
        0x00004f04:    d16f        o.      BNE      0x4fe6 ; s_grey_movePlane + 254
        0x00004f06:    2000        .       MOVS     r0,#0
        0x00004f08:    0121        !.      LSLS     r1,r4,#4
        0x00004f0a:    1949        I.      ADDS     r1,r1,r5
        0x00004f0c:    7088        .p      STRB     r0,[r1,#2]
        0x00004f0e:    0120         .      LSLS     r0,r4,#4
        0x00004f10:    1940        @.      ADDS     r0,r0,r5
        0x00004f12:    2104        .!      MOVS     r1,#4
        0x00004f14:    5e41        A^      LDRSH    r1,[r0,r1]
        0x00004f16:    2905        .)      CMP      r1,#5
        0x00004f18:    db11        ..      BLT      0x4f3e ; s_grey_movePlane + 86
        0x00004f1a:    0120         .      LSLS     r0,r4,#4
        0x00004f1c:    1940        @.      ADDS     r0,r0,r5
        0x00004f1e:    2104        .!      MOVS     r1,#4
        0x00004f20:    5e41        A^      LDRSH    r1,[r0,r1]
        0x00004f22:    29fb        .)      CMP      r1,#0xfb
        0x00004f24:    dc0b        ..      BGT      0x4f3e ; s_grey_movePlane + 86
        0x00004f26:    0120         .      LSLS     r0,r4,#4
        0x00004f28:    1940        @.      ADDS     r0,r0,r5
        0x00004f2a:    2106        .!      MOVS     r1,#6
        0x00004f2c:    5e41        A^      LDRSH    r1,[r0,r1]
        0x00004f2e:    290a        .)      CMP      r1,#0xa
        0x00004f30:    db05        ..      BLT      0x4f3e ; s_grey_movePlane + 86
        0x00004f32:    0120         .      LSLS     r0,r4,#4
        0x00004f34:    1940        @.      ADDS     r0,r0,r5
        0x00004f36:    2106        .!      MOVS     r1,#6
        0x00004f38:    5e41        A^      LDRSH    r1,[r0,r1]
        0x00004f3a:    29e6        .)      CMP      r1,#0xe6
        0x00004f3c:    dd09        ..      BLE      0x4f52 ; s_grey_movePlane + 106
        0x00004f3e:    2000        .       MOVS     r0,#0
        0x00004f40:    0121        !.      LSLS     r1,r4,#4
        0x00004f42:    5468        hT      STRB     r0,[r5,r1]
        0x00004f44:    0121        !.      LSLS     r1,r4,#4
        0x00004f46:    1949        I.      ADDS     r1,r1,r5
        0x00004f48:    8088        ..      STRH     r0,[r1,#4]
        0x00004f4a:    0121        !.      LSLS     r1,r4,#4
        0x00004f4c:    1949        I.      ADDS     r1,r1,r5
        0x00004f4e:    80c8        ..      STRH     r0,[r1,#6]
        0x00004f50:    e1b1        ..      B        0x52b6 ; s_grey_movePlane + 974
        0x00004f52:    0120         .      LSLS     r0,r4,#4
        0x00004f54:    1940        @.      ADDS     r0,r0,r5
        0x00004f56:    7a80        .z      LDRB     r0,[r0,#0xa]
        0x00004f58:    2800        .(      CMP      r0,#0
        0x00004f5a:    d17d        }.      BNE      0x5058 ; s_grey_movePlane + 368
        0x00004f5c:    f7fbf90e    ....    BL       rand ; 0x17c
        0x00004f60:    2114        .!      MOVS     r1,#0x14
        0x00004f62:    4348        HC      MULS     r0,r1,r0
        0x00004f64:    4607        .F      MOV      r7,r0
        0x00004f66:    2103        .!      MOVS     r1,#3
        0x00004f68:    f7fbf8f4    ....    BL       __aeabi_idiv ; 0x154
        0x00004f6c:    2002        .       MOVS     r0,#2
        0x00004f6e:    5e30        0^      LDRSH    r0,[r6,r0]
        0x00004f70:    3828        (8      SUBS     r0,r0,#0x28
        0x00004f72:    1a40        @.      SUBS     r0,r0,r1
        0x00004f74:    0121        !.      LSLS     r1,r4,#4
        0x00004f76:    1949        I.      ADDS     r1,r1,r5
        0x00004f78:    2206        ."      MOVS     r2,#6
        0x00004f7a:    5e8a        .^      LDRSH    r2,[r1,r2]
        0x00004f7c:    4290        .B      CMP      r0,r2
        0x00004f7e:    dc6c        l.      BGT      0x505a ; s_grey_movePlane + 370
        0x00004f80:    0120         .      LSLS     r0,r4,#4
        0x00004f82:    1940        @.      ADDS     r0,r0,r5
        0x00004f84:    7a00        .z      LDRB     r0,[r0,#8]
        0x00004f86:    2801        .(      CMP      r0,#1
        0x00004f88:    d109        ..      BNE      0x4f9e ; s_grey_movePlane + 182
        0x00004f8a:    0120         .      LSLS     r0,r4,#4
        0x00004f8c:    1941        A.      ADDS     r1,r0,r5
        0x00004f8e:    4632        2F      MOV      r2,r6
        0x00004f90:    9804        ..      LDR      r0,[sp,#0x10]
        0x00004f92:    f7fffb75    ..u.    BL       s_grey_createOneEnmeyBullet ; 0x4680
        0x00004f96:    2000        .       MOVS     r0,#0
        0x00004f98:    0121        !.      LSLS     r1,r4,#4
        0x00004f9a:    1949        I.      ADDS     r1,r1,r5
        0x00004f9c:    7208        .r      STRB     r0,[r1,#8]
        0x00004f9e:    0120         .      LSLS     r0,r4,#4
        0x00004fa0:    1940        @.      ADDS     r0,r0,r5
        0x00004fa2:    7a40        @z      LDRB     r0,[r0,#9]
        0x00004fa4:    2800        .(      CMP      r0,#0
        0x00004fa6:    d143        C.      BNE      0x5030 ; s_grey_movePlane + 328
        0x00004fa8:    0120         .      LSLS     r0,r4,#4
        0x00004faa:    1941        A.      ADDS     r1,r0,r5
        0x00004fac:    2004        .       MOVS     r0,#4
        0x00004fae:    5e08        .^      LDRSH    r0,[r1,r0]
        0x00004fb0:    2100        .!      MOVS     r1,#0
        0x00004fb2:    5e71        q^      LDRSH    r1,[r6,r1]
        0x00004fb4:    4288        .B      CMP      r0,r1
        0x00004fb6:    da17        ..      BGE      0x4fe8 ; s_grey_movePlane + 256
        0x00004fb8:    2000        .       MOVS     r0,#0
        0x00004fba:    5e30        0^      LDRSH    r0,[r6,r0]
        0x00004fbc:    0121        !.      LSLS     r1,r4,#4
        0x00004fbe:    1949        I.      ADDS     r1,r1,r5
        0x00004fc0:    2204        ."      MOVS     r2,#4
        0x00004fc2:    5e8a        .^      LDRSH    r2,[r1,r2]
        0x00004fc4:    1a80        ..      SUBS     r0,r0,r2
        0x00004fc6:    283c        <(      CMP      r0,#0x3c
        0x00004fc8:    da0e        ..      BGE      0x4fe8 ; s_grey_movePlane + 256
        0x00004fca:    2000        .       MOVS     r0,#0
        0x00004fcc:    5e30        0^      LDRSH    r0,[r6,r0]
        0x00004fce:    0121        !.      LSLS     r1,r4,#4
        0x00004fd0:    1949        I.      ADDS     r1,r1,r5
        0x00004fd2:    2204        ."      MOVS     r2,#4
        0x00004fd4:    5e8a        .^      LDRSH    r2,[r1,r2]
        0x00004fd6:    1a80        ..      SUBS     r0,r0,r2
        0x00004fd8:    2800        .(      CMP      r0,#0
        0x00004fda:    dd05        ..      BLE      0x4fe8 ; s_grey_movePlane + 256
        0x00004fdc:    2006        .       MOVS     r0,#6
        0x00004fde:    0121        !.      LSLS     r1,r4,#4
        0x00004fe0:    1949        I.      ADDS     r1,r1,r5
        0x00004fe2:    7388        .s      STRB     r0,[r1,#0xe]
        0x00004fe4:    e05e        ^.      B        0x50a4 ; s_grey_movePlane + 444
        0x00004fe6:    e15f        _.      B        0x52a8 ; s_grey_movePlane + 960
        0x00004fe8:    0120         .      LSLS     r0,r4,#4
        0x00004fea:    1941        A.      ADDS     r1,r0,r5
        0x00004fec:    2004        .       MOVS     r0,#4
        0x00004fee:    5e08        .^      LDRSH    r0,[r1,r0]
        0x00004ff0:    2100        .!      MOVS     r1,#0
        0x00004ff2:    5e71        q^      LDRSH    r1,[r6,r1]
        0x00004ff4:    4288        .B      CMP      r0,r1
        0x00004ff6:    dd16        ..      BLE      0x5026 ; s_grey_movePlane + 318
        0x00004ff8:    0120         .      LSLS     r0,r4,#4
        0x00004ffa:    1941        A.      ADDS     r1,r0,r5
        0x00004ffc:    2004        .       MOVS     r0,#4
        0x00004ffe:    5e08        .^      LDRSH    r0,[r1,r0]
        0x00005000:    2100        .!      MOVS     r1,#0
        0x00005002:    5e71        q^      LDRSH    r1,[r6,r1]
        0x00005004:    1a40        @.      SUBS     r0,r0,r1
        0x00005006:    2832        2(      CMP      r0,#0x32
        0x00005008:    da0d        ..      BGE      0x5026 ; s_grey_movePlane + 318
        0x0000500a:    0120         .      LSLS     r0,r4,#4
        0x0000500c:    1941        A.      ADDS     r1,r0,r5
        0x0000500e:    2004        .       MOVS     r0,#4
        0x00005010:    5e08        .^      LDRSH    r0,[r1,r0]
        0x00005012:    2100        .!      MOVS     r1,#0
        0x00005014:    5e71        q^      LDRSH    r1,[r6,r1]
        0x00005016:    1a40        @.      SUBS     r0,r0,r1
        0x00005018:    2800        .(      CMP      r0,#0
        0x0000501a:    dd04        ..      BLE      0x5026 ; s_grey_movePlane + 318
        0x0000501c:    2005        .       MOVS     r0,#5
        0x0000501e:    0121        !.      LSLS     r1,r4,#4
        0x00005020:    1949        I.      ADDS     r1,r1,r5
        0x00005022:    7388        .s      STRB     r0,[r1,#0xe]
        0x00005024:    e03e        >.      B        0x50a4 ; s_grey_movePlane + 444
        0x00005026:    2004        .       MOVS     r0,#4
        0x00005028:    0121        !.      LSLS     r1,r4,#4
        0x0000502a:    1949        I.      ADDS     r1,r1,r5
        0x0000502c:    7388        .s      STRB     r0,[r1,#0xe]
        0x0000502e:    e039        9.      B        0x50a4 ; s_grey_movePlane + 444
        0x00005030:    0120         .      LSLS     r0,r4,#4
        0x00005032:    1940        @.      ADDS     r0,r0,r5
        0x00005034:    7ac0        .z      LDRB     r0,[r0,#0xb]
        0x00005036:    2804        .(      CMP      r0,#4
        0x00005038:    d121        !.      BNE      0x507e ; s_grey_movePlane + 406
        0x0000503a:    2000        .       MOVS     r0,#0
        0x0000503c:    0121        !.      LSLS     r1,r4,#4
        0x0000503e:    1949        I.      ADDS     r1,r1,r5
        0x00005040:    7308        .s      STRB     r0,[r1,#0xc]
        0x00005042:    2003        .       MOVS     r0,#3
        0x00005044:    0121        !.      LSLS     r1,r4,#4
        0x00005046:    1949        I.      ADDS     r1,r1,r5
        0x00005048:    7348        Hs      STRB     r0,[r1,#0xd]
        0x0000504a:    f7fbf897    ....    BL       rand ; 0x17c
        0x0000504e:    4607        .F      MOV      r7,r0
        0x00005050:    0fc0        ..      LSRS     r0,r0,#31
        0x00005052:    19c0        ..      ADDS     r0,r0,r7
        0x00005054:    1040        @.      ASRS     r0,r0,#1
        0x00005056:    e001        ..      B        0x505c ; s_grey_movePlane + 372
        0x00005058:    e05e        ^.      B        0x5118 ; s_grey_movePlane + 560
        0x0000505a:    e044        D.      B        0x50e6 ; s_grey_movePlane + 510
        0x0000505c:    0040        @.      LSLS     r0,r0,#1
        0x0000505e:    1a38        8.      SUBS     r0,r7,r0
        0x00005060:    b2c0        ..      UXTB     r0,r0
        0x00005062:    9001        ..      STR      r0,[sp,#4]
        0x00005064:    9801        ..      LDR      r0,[sp,#4]
        0x00005066:    2800        .(      CMP      r0,#0
        0x00005068:    d104        ..      BNE      0x5074 ; s_grey_movePlane + 396
        0x0000506a:    2002        .       MOVS     r0,#2
        0x0000506c:    0121        !.      LSLS     r1,r4,#4
        0x0000506e:    1949        I.      ADDS     r1,r1,r5
        0x00005070:    7388        .s      STRB     r0,[r1,#0xe]
        0x00005072:    e003        ..      B        0x507c ; s_grey_movePlane + 404
        0x00005074:    2003        .       MOVS     r0,#3
        0x00005076:    0121        !.      LSLS     r1,r4,#4
        0x00005078:    1949        I.      ADDS     r1,r1,r5
        0x0000507a:    7388        .s      STRB     r0,[r1,#0xe]
        0x0000507c:    e012        ..      B        0x50a4 ; s_grey_movePlane + 444
        0x0000507e:    0120         .      LSLS     r0,r4,#4
        0x00005080:    1940        @.      ADDS     r0,r0,r5
        0x00005082:    7ac0        .z      LDRB     r0,[r0,#0xb]
        0x00005084:    2805        .(      CMP      r0,#5
        0x00005086:    d104        ..      BNE      0x5092 ; s_grey_movePlane + 426
        0x00005088:    2002        .       MOVS     r0,#2
        0x0000508a:    0121        !.      LSLS     r1,r4,#4
        0x0000508c:    1949        I.      ADDS     r1,r1,r5
        0x0000508e:    7388        .s      STRB     r0,[r1,#0xe]
        0x00005090:    e008        ..      B        0x50a4 ; s_grey_movePlane + 444
        0x00005092:    0120         .      LSLS     r0,r4,#4
        0x00005094:    1940        @.      ADDS     r0,r0,r5
        0x00005096:    7ac0        .z      LDRB     r0,[r0,#0xb]
        0x00005098:    2806        .(      CMP      r0,#6
        0x0000509a:    d103        ..      BNE      0x50a4 ; s_grey_movePlane + 444
        0x0000509c:    2003        .       MOVS     r0,#3
        0x0000509e:    0121        !.      LSLS     r1,r4,#4
        0x000050a0:    1949        I.      ADDS     r1,r1,r5
        0x000050a2:    7388        .s      STRB     r0,[r1,#0xe]
        0x000050a4:    0120         .      LSLS     r0,r4,#4
        0x000050a6:    1940        @.      ADDS     r0,r0,r5
        0x000050a8:    7a40        @z      LDRB     r0,[r0,#9]
        0x000050aa:    2801        .(      CMP      r0,#1
        0x000050ac:    d108        ..      BNE      0x50c0 ; s_grey_movePlane + 472
        0x000050ae:    2000        .       MOVS     r0,#0
        0x000050b0:    0121        !.      LSLS     r1,r4,#4
        0x000050b2:    1949        I.      ADDS     r1,r1,r5
        0x000050b4:    73c8        .s      STRB     r0,[r1,#0xf]
        0x000050b6:    2001        .       MOVS     r0,#1
        0x000050b8:    0121        !.      LSLS     r1,r4,#4
        0x000050ba:    1949        I.      ADDS     r1,r1,r5
        0x000050bc:    7288        .r      STRB     r0,[r1,#0xa]
        0x000050be:    e0fa        ..      B        0x52b6 ; s_grey_movePlane + 974
        0x000050c0:    0120         .      LSLS     r0,r4,#4
        0x000050c2:    1940        @.      ADDS     r0,r0,r5
        0x000050c4:    7b80        .{      LDRB     r0,[r0,#0xe]
        0x000050c6:    2804        .(      CMP      r0,#4
        0x000050c8:    d104        ..      BNE      0x50d4 ; s_grey_movePlane + 492
        0x000050ca:    2002        .       MOVS     r0,#2
        0x000050cc:    0121        !.      LSLS     r1,r4,#4
        0x000050ce:    1949        I.      ADDS     r1,r1,r5
        0x000050d0:    7288        .r      STRB     r0,[r1,#0xa]
        0x000050d2:    e0f0        ..      B        0x52b6 ; s_grey_movePlane + 974
        0x000050d4:    2001        .       MOVS     r0,#1
        0x000050d6:    0121        !.      LSLS     r1,r4,#4
        0x000050d8:    1949        I.      ADDS     r1,r1,r5
        0x000050da:    7288        .r      STRB     r0,[r1,#0xa]
        0x000050dc:    2005        .       MOVS     r0,#5
        0x000050de:    0121        !.      LSLS     r1,r4,#4
        0x000050e0:    1949        I.      ADDS     r1,r1,r5
        0x000050e2:    73c8        .s      STRB     r0,[r1,#0xf]
        0x000050e4:    e0e7        ..      B        0x52b6 ; s_grey_movePlane + 974
        0x000050e6:    0120         .      LSLS     r0,r4,#4
        0x000050e8:    1940        @.      ADDS     r0,r0,r5
        0x000050ea:    8880        ..      LDRH     r0,[r0,#4]
        0x000050ec:    0121        !.      LSLS     r1,r4,#4
        0x000050ee:    1949        I.      ADDS     r1,r1,r5
        0x000050f0:    220c        ."      MOVS     r2,#0xc
        0x000050f2:    568a        .V      LDRSB    r2,[r1,r2]
        0x000050f4:    1880        ..      ADDS     r0,r0,r2
        0x000050f6:    b200        ..      SXTH     r0,r0
        0x000050f8:    0121        !.      LSLS     r1,r4,#4
        0x000050fa:    1949        I.      ADDS     r1,r1,r5
        0x000050fc:    8088        ..      STRH     r0,[r1,#4]
        0x000050fe:    0120         .      LSLS     r0,r4,#4
        0x00005100:    1940        @.      ADDS     r0,r0,r5
        0x00005102:    88c0        ..      LDRH     r0,[r0,#6]
        0x00005104:    0121        !.      LSLS     r1,r4,#4
        0x00005106:    1949        I.      ADDS     r1,r1,r5
        0x00005108:    220d        ."      MOVS     r2,#0xd
        0x0000510a:    568a        .V      LDRSB    r2,[r1,r2]
        0x0000510c:    1880        ..      ADDS     r0,r0,r2
        0x0000510e:    b200        ..      SXTH     r0,r0
        0x00005110:    0121        !.      LSLS     r1,r4,#4
        0x00005112:    1949        I.      ADDS     r1,r1,r5
        0x00005114:    80c8        ..      STRH     r0,[r1,#6]
        0x00005116:    e0ce        ..      B        0x52b6 ; s_grey_movePlane + 974
        0x00005118:    0120         .      LSLS     r0,r4,#4
        0x0000511a:    1940        @.      ADDS     r0,r0,r5
        0x0000511c:    7a80        .z      LDRB     r0,[r0,#0xa]
        0x0000511e:    2801        .(      CMP      r0,#1
        0x00005120:    d14c        L.      BNE      0x51bc ; s_grey_movePlane + 724
        0x00005122:    0120         .      LSLS     r0,r4,#4
        0x00005124:    1940        @.      ADDS     r0,r0,r5
        0x00005126:    7a40        @z      LDRB     r0,[r0,#9]
        0x00005128:    2801        .(      CMP      r0,#1
        0x0000512a:    d123        #.      BNE      0x5174 ; s_grey_movePlane + 652
        0x0000512c:    0120         .      LSLS     r0,r4,#4
        0x0000512e:    1941        A.      ADDS     r1,r0,r5
        0x00005130:    2004        .       MOVS     r0,#4
        0x00005132:    5e08        .^      LDRSH    r0,[r1,r0]
        0x00005134:    0121        !.      LSLS     r1,r4,#4
        0x00005136:    1949        I.      ADDS     r1,r1,r5
        0x00005138:    8088        ..      STRH     r0,[r1,#4]
        0x0000513a:    0120         .      LSLS     r0,r4,#4
        0x0000513c:    1941        A.      ADDS     r1,r0,r5
        0x0000513e:    2006        .       MOVS     r0,#6
        0x00005140:    5e08        .^      LDRSH    r0,[r1,r0]
        0x00005142:    0121        !.      LSLS     r1,r4,#4
        0x00005144:    1949        I.      ADDS     r1,r1,r5
        0x00005146:    80c8        ..      STRH     r0,[r1,#6]
        0x00005148:    0120         .      LSLS     r0,r4,#4
        0x0000514a:    1940        @.      ADDS     r0,r0,r5
        0x0000514c:    7bc0        .{      LDRB     r0,[r0,#0xf]
        0x0000514e:    2804        .(      CMP      r0,#4
        0x00005150:    dab5        ..      BGE      0x50be ; s_grey_movePlane + 470
        0x00005152:    0120         .      LSLS     r0,r4,#4
        0x00005154:    1940        @.      ADDS     r0,r0,r5
        0x00005156:    7bc0        .{      LDRB     r0,[r0,#0xf]
        0x00005158:    1c40        @.      ADDS     r0,r0,#1
        0x0000515a:    0121        !.      LSLS     r1,r4,#4
        0x0000515c:    1949        I.      ADDS     r1,r1,r5
        0x0000515e:    73c8        .s      STRB     r0,[r1,#0xf]
        0x00005160:    0120         .      LSLS     r0,r4,#4
        0x00005162:    1940        @.      ADDS     r0,r0,r5
        0x00005164:    7bc0        .{      LDRB     r0,[r0,#0xf]
        0x00005166:    2804        .(      CMP      r0,#4
        0x00005168:    d1a9        ..      BNE      0x50be ; s_grey_movePlane + 470
        0x0000516a:    2002        .       MOVS     r0,#2
        0x0000516c:    0121        !.      LSLS     r1,r4,#4
        0x0000516e:    1949        I.      ADDS     r1,r1,r5
        0x00005170:    7288        .r      STRB     r0,[r1,#0xa]
        0x00005172:    e0a0        ..      B        0x52b6 ; s_grey_movePlane + 974
        0x00005174:    0120         .      LSLS     r0,r4,#4
        0x00005176:    1941        A.      ADDS     r1,r0,r5
        0x00005178:    2004        .       MOVS     r0,#4
        0x0000517a:    5e08        .^      LDRSH    r0,[r1,r0]
        0x0000517c:    0121        !.      LSLS     r1,r4,#4
        0x0000517e:    1949        I.      ADDS     r1,r1,r5
        0x00005180:    8088        ..      STRH     r0,[r1,#4]
        0x00005182:    0120         .      LSLS     r0,r4,#4
        0x00005184:    1941        A.      ADDS     r1,r0,r5
        0x00005186:    2006        .       MOVS     r0,#6
        0x00005188:    5e08        .^      LDRSH    r0,[r1,r0]
        0x0000518a:    0121        !.      LSLS     r1,r4,#4
        0x0000518c:    1949        I.      ADDS     r1,r1,r5
        0x0000518e:    80c8        ..      STRH     r0,[r1,#6]
        0x00005190:    0120         .      LSLS     r0,r4,#4
        0x00005192:    1940        @.      ADDS     r0,r0,r5
        0x00005194:    7bc0        .{      LDRB     r0,[r0,#0xf]
        0x00005196:    2807        .(      CMP      r0,#7
        0x00005198:    da0f        ..      BGE      0x51ba ; s_grey_movePlane + 722
        0x0000519a:    0120         .      LSLS     r0,r4,#4
        0x0000519c:    1940        @.      ADDS     r0,r0,r5
        0x0000519e:    7bc0        .{      LDRB     r0,[r0,#0xf]
        0x000051a0:    1c40        @.      ADDS     r0,r0,#1
        0x000051a2:    0121        !.      LSLS     r1,r4,#4
        0x000051a4:    1949        I.      ADDS     r1,r1,r5
        0x000051a6:    73c8        .s      STRB     r0,[r1,#0xf]
        0x000051a8:    0120         .      LSLS     r0,r4,#4
        0x000051aa:    1940        @.      ADDS     r0,r0,r5
        0x000051ac:    7bc0        .{      LDRB     r0,[r0,#0xf]
        0x000051ae:    2807        .(      CMP      r0,#7
        0x000051b0:    d103        ..      BNE      0x51ba ; s_grey_movePlane + 722
        0x000051b2:    2002        .       MOVS     r0,#2
        0x000051b4:    0121        !.      LSLS     r1,r4,#4
        0x000051b6:    1949        I.      ADDS     r1,r1,r5
        0x000051b8:    7288        .r      STRB     r0,[r1,#0xa]
        0x000051ba:    e07c        |.      B        0x52b6 ; s_grey_movePlane + 974
        0x000051bc:    0120         .      LSLS     r0,r4,#4
        0x000051be:    1940        @.      ADDS     r0,r0,r5
        0x000051c0:    7a80        .z      LDRB     r0,[r0,#0xa]
        0x000051c2:    2802        .(      CMP      r0,#2
        0x000051c4:    d177        w.      BNE      0x52b6 ; s_grey_movePlane + 974
        0x000051c6:    0120         .      LSLS     r0,r4,#4
        0x000051c8:    1940        @.      ADDS     r0,r0,r5
        0x000051ca:    7b80        .{      LDRB     r0,[r0,#0xe]
        0x000051cc:    0003        ..      MOVS     r3,r0
        0x000051ce:    f7fbfcb9    ....    BL       __ARM_common_switch8 ; 0xb44
    $d
        0x000051d2:    6907        .i      DCW    26887
        0x000051d4:    37261505    ..&7    DCD    925242629
        0x000051d8:    00695847    GXi.    DCD    6903879
    $t
        0x000051dc:    0120         .      LSLS     r0,r4,#4
        0x000051de:    1941        A.      ADDS     r1,r0,r5
        0x000051e0:    2004        .       MOVS     r0,#4
        0x000051e2:    5e08        .^      LDRSH    r0,[r1,r0]
        0x000051e4:    0121        !.      LSLS     r1,r4,#4
        0x000051e6:    1949        I.      ADDS     r1,r1,r5
        0x000051e8:    8088        ..      STRH     r0,[r1,#4]
        0x000051ea:    0120         .      LSLS     r0,r4,#4
        0x000051ec:    1940        @.      ADDS     r0,r0,r5
        0x000051ee:    88c0        ..      LDRH     r0,[r0,#6]
        0x000051f0:    1f00        ..      SUBS     r0,r0,#4
        0x000051f2:    b200        ..      SXTH     r0,r0
        0x000051f4:    0121        !.      LSLS     r1,r4,#4
        0x000051f6:    1949        I.      ADDS     r1,r1,r5
        0x000051f8:    80c8        ..      STRH     r0,[r1,#6]
        0x000051fa:    e054        T.      B        0x52a6 ; s_grey_movePlane + 958
        0x000051fc:    0120         .      LSLS     r0,r4,#4
        0x000051fe:    1940        @.      ADDS     r0,r0,r5
        0x00005200:    8880        ..      LDRH     r0,[r0,#4]
        0x00005202:    1e80        ..      SUBS     r0,r0,#2
        0x00005204:    b200        ..      SXTH     r0,r0
        0x00005206:    0121        !.      LSLS     r1,r4,#4
        0x00005208:    1949        I.      ADDS     r1,r1,r5
        0x0000520a:    8088        ..      STRH     r0,[r1,#4]
        0x0000520c:    0120         .      LSLS     r0,r4,#4
        0x0000520e:    1940        @.      ADDS     r0,r0,r5
        0x00005210:    88c0        ..      LDRH     r0,[r0,#6]
        0x00005212:    1ec0        ..      SUBS     r0,r0,#3
        0x00005214:    b200        ..      SXTH     r0,r0
        0x00005216:    0121        !.      LSLS     r1,r4,#4
        0x00005218:    1949        I.      ADDS     r1,r1,r5
        0x0000521a:    80c8        ..      STRH     r0,[r1,#6]
        0x0000521c:    e043        C.      B        0x52a6 ; s_grey_movePlane + 958
        0x0000521e:    0120         .      LSLS     r0,r4,#4
        0x00005220:    1940        @.      ADDS     r0,r0,r5
        0x00005222:    8880        ..      LDRH     r0,[r0,#4]
        0x00005224:    1c80        ..      ADDS     r0,r0,#2
        0x00005226:    b200        ..      SXTH     r0,r0
        0x00005228:    0121        !.      LSLS     r1,r4,#4
        0x0000522a:    1949        I.      ADDS     r1,r1,r5
        0x0000522c:    8088        ..      STRH     r0,[r1,#4]
        0x0000522e:    0120         .      LSLS     r0,r4,#4
        0x00005230:    1940        @.      ADDS     r0,r0,r5
        0x00005232:    88c0        ..      LDRH     r0,[r0,#6]
        0x00005234:    1ec0        ..      SUBS     r0,r0,#3
        0x00005236:    b200        ..      SXTH     r0,r0
        0x00005238:    0121        !.      LSLS     r1,r4,#4
        0x0000523a:    1949        I.      ADDS     r1,r1,r5
        0x0000523c:    80c8        ..      STRH     r0,[r1,#6]
        0x0000523e:    e032        2.      B        0x52a6 ; s_grey_movePlane + 958
        0x00005240:    0120         .      LSLS     r0,r4,#4
        0x00005242:    1941        A.      ADDS     r1,r0,r5
        0x00005244:    2004        .       MOVS     r0,#4
        0x00005246:    5e08        .^      LDRSH    r0,[r1,r0]
        0x00005248:    0121        !.      LSLS     r1,r4,#4
        0x0000524a:    1949        I.      ADDS     r1,r1,r5
        0x0000524c:    8088        ..      STRH     r0,[r1,#4]
        0x0000524e:    0120         .      LSLS     r0,r4,#4
        0x00005250:    1940        @.      ADDS     r0,r0,r5
        0x00005252:    88c0        ..      LDRH     r0,[r0,#6]
        0x00005254:    1d40        @.      ADDS     r0,r0,#5
        0x00005256:    b200        ..      SXTH     r0,r0
        0x00005258:    0121        !.      LSLS     r1,r4,#4
        0x0000525a:    1949        I.      ADDS     r1,r1,r5
        0x0000525c:    80c8        ..      STRH     r0,[r1,#6]
        0x0000525e:    e022        ".      B        0x52a6 ; s_grey_movePlane + 958
        0x00005260:    0120         .      LSLS     r0,r4,#4
        0x00005262:    1940        @.      ADDS     r0,r0,r5
        0x00005264:    8880        ..      LDRH     r0,[r0,#4]
        0x00005266:    1e80        ..      SUBS     r0,r0,#2
        0x00005268:    b200        ..      SXTH     r0,r0
        0x0000526a:    0121        !.      LSLS     r1,r4,#4
        0x0000526c:    1949        I.      ADDS     r1,r1,r5
        0x0000526e:    8088        ..      STRH     r0,[r1,#4]
        0x00005270:    0120         .      LSLS     r0,r4,#4
        0x00005272:    1940        @.      ADDS     r0,r0,r5
        0x00005274:    88c0        ..      LDRH     r0,[r0,#6]
        0x00005276:    1cc0        ..      ADDS     r0,r0,#3
        0x00005278:    b200        ..      SXTH     r0,r0
        0x0000527a:    0121        !.      LSLS     r1,r4,#4
        0x0000527c:    1949        I.      ADDS     r1,r1,r5
        0x0000527e:    80c8        ..      STRH     r0,[r1,#6]
        0x00005280:    e011        ..      B        0x52a6 ; s_grey_movePlane + 958
        0x00005282:    0120         .      LSLS     r0,r4,#4
        0x00005284:    1940        @.      ADDS     r0,r0,r5
        0x00005286:    8880        ..      LDRH     r0,[r0,#4]
        0x00005288:    1c80        ..      ADDS     r0,r0,#2
        0x0000528a:    b200        ..      SXTH     r0,r0
        0x0000528c:    0121        !.      LSLS     r1,r4,#4
        0x0000528e:    1949        I.      ADDS     r1,r1,r5
        0x00005290:    8088        ..      STRH     r0,[r1,#4]
        0x00005292:    0120         .      LSLS     r0,r4,#4
        0x00005294:    1940        @.      ADDS     r0,r0,r5
        0x00005296:    88c0        ..      LDRH     r0,[r0,#6]
        0x00005298:    1cc0        ..      ADDS     r0,r0,#3
        0x0000529a:    b200        ..      SXTH     r0,r0
        0x0000529c:    0121        !.      LSLS     r1,r4,#4
        0x0000529e:    1949        I.      ADDS     r1,r1,r5
        0x000052a0:    80c8        ..      STRH     r0,[r1,#6]
        0x000052a2:    e000        ..      B        0x52a6 ; s_grey_movePlane + 958
        0x000052a4:    bf00        ..      NOP      
        0x000052a6:    e006        ..      B        0x52b6 ; s_grey_movePlane + 974
        0x000052a8:    0120         .      LSLS     r0,r4,#4
        0x000052aa:    1940        @.      ADDS     r0,r0,r5
        0x000052ac:    7880        .x      LDRB     r0,[r0,#2]
        0x000052ae:    1c40        @.      ADDS     r0,r0,#1
        0x000052b0:    0121        !.      LSLS     r1,r4,#4
        0x000052b2:    1949        I.      ADDS     r1,r1,r5
        0x000052b4:    7088        .p      STRB     r0,[r1,#2]
        0x000052b6:    1c64        d.      ADDS     r4,r4,#1
        0x000052b8:    4803        .H      LDR      r0,[pc,#12] ; [0x52c8] = 0x5539
        0x000052ba:    7800        .x      LDRB     r0,[r0,#0]
        0x000052bc:    4284        .B      CMP      r4,r0
        0x000052be:    da00        ..      BGE      0x52c2 ; s_grey_movePlane + 986
        0x000052c0:    e618        ..      B        0x4ef4 ; s_grey_movePlane + 12
        0x000052c2:    b005        ..      ADD      sp,sp,#0x14
        0x000052c4:    bdf0        ..      POP      {r4-r7,pc}
    $d
        0x000052c6:    0000        ..      DCW    0
        0x000052c8:    00005539    9U..    DCD    21817
    $t
    i.s_grey_planeInit
    s_grey_planeInit
        0x000052cc:    4601        .F      MOV      r1,r0
        0x000052ce:    2000        .       MOVS     r0,#0
        0x000052d0:    e018        ..      B        0x5304 ; s_grey_planeInit + 56
        0x000052d2:    2200        ."      MOVS     r2,#0
        0x000052d4:    0103        ..      LSLS     r3,r0,#4
        0x000052d6:    185b        [.      ADDS     r3,r3,r1
        0x000052d8:    809a        ..      STRH     r2,[r3,#4]
        0x000052da:    0103        ..      LSLS     r3,r0,#4
        0x000052dc:    185b        [.      ADDS     r3,r3,r1
        0x000052de:    80da        ..      STRH     r2,[r3,#6]
        0x000052e0:    0103        ..      LSLS     r3,r0,#4
        0x000052e2:    54ca        .T      STRB     r2,[r1,r3]
        0x000052e4:    2201        ."      MOVS     r2,#1
        0x000052e6:    0103        ..      LSLS     r3,r0,#4
        0x000052e8:    185b        [.      ADDS     r3,r3,r1
        0x000052ea:    705a        Zp      STRB     r2,[r3,#1]
        0x000052ec:    2200        ."      MOVS     r2,#0
        0x000052ee:    0103        ..      LSLS     r3,r0,#4
        0x000052f0:    185b        [.      ADDS     r3,r3,r1
        0x000052f2:    709a        .p      STRB     r2,[r3,#2]
        0x000052f4:    0103        ..      LSLS     r3,r0,#4
        0x000052f6:    185b        [.      ADDS     r3,r3,r1
        0x000052f8:    721a        .r      STRB     r2,[r3,#8]
        0x000052fa:    2201        ."      MOVS     r2,#1
        0x000052fc:    0103        ..      LSLS     r3,r0,#4
        0x000052fe:    185b        [.      ADDS     r3,r3,r1
        0x00005300:    725a        Zr      STRB     r2,[r3,#9]
        0x00005302:    1c40        @.      ADDS     r0,r0,#1
        0x00005304:    4a02        .J      LDR      r2,[pc,#8] ; [0x5310] = 0x5539
        0x00005306:    7812        .x      LDRB     r2,[r2,#0]
        0x00005308:    4290        .B      CMP      r0,r2
        0x0000530a:    dbe2        ..      BLT      0x52d2 ; s_grey_planeInit + 6
        0x0000530c:    4770        pG      BX       lr
    $d
        0x0000530e:    0000        ..      DCW    0
        0x00005310:    00005539    9U..    DCD    21817
    $t
    i.tileMap
    tileMap
        0x00005314:    b5f0        ..      PUSH     {r4-r7,lr}
        0x00005316:    10c5        ..      ASRS     r5,r0,#3
        0x00005318:    10cb        ..      ASRS     r3,r1,#3
        0x0000531a:    2601        .&      MOVS     r6,#1
        0x0000531c:    40ae        .@      LSLS     r6,r6,r5
        0x0000531e:    4634        4F      MOV      r4,r6
        0x00005320:    009e        ..      LSLS     r6,r3,#2
        0x00005322:    5996        .Y      LDR      r6,[r2,r6]
        0x00005324:    4326        &C      ORRS     r6,r6,r4
        0x00005326:    009f        ..      LSLS     r7,r3,#2
        0x00005328:    51d6        .Q      STR      r6,[r2,r7]
        0x0000532a:    bdf0        ..      POP      {r4-r7,pc}
    i.uart_ClearRxIRQ
    uart_ClearRxIRQ
        0x0000532c:    2102        .!      MOVS     r1,#2
        0x0000532e:    60c1        .`      STR      r1,[r0,#0xc]
        0x00005330:    4770        pG      BX       lr
    i.uart_ClearTxIRQ
    uart_ClearTxIRQ
        0x00005332:    2101        .!      MOVS     r1,#1
        0x00005334:    60c1        .`      STR      r1,[r0,#0xc]
        0x00005336:    4770        pG      BX       lr
    i.uart_SendChar
    uart_SendChar
        0x00005338:    e005        ..      B        0x5346 ; uart_SendChar + 14
        0x0000533a:    6842        Bh      LDR      r2,[r0,#4]
        0x0000533c:    07d2        ..      LSLS     r2,r2,#31
        0x0000533e:    0fd2        ..      LSRS     r2,r2,#31
        0x00005340:    2a00        .*      CMP      r2,#0
        0x00005342:    d100        ..      BNE      0x5346 ; uart_SendChar + 14
        0x00005344:    e000        ..      B        0x5348 ; uart_SendChar + 16
        0x00005346:    e7f8        ..      B        0x533a ; uart_SendChar + 2
        0x00005348:    bf00        ..      NOP      
        0x0000534a:    6001        .`      STR      r1,[r0,#0]
        0x0000534c:    4770        pG      BX       lr
    i.uart_init
    uart_init
        0x0000534e:    b5f0        ..      PUSH     {r4-r7,lr}
        0x00005350:    4604        .F      MOV      r4,r0
        0x00005352:    9d05        ..      LDR      r5,[sp,#0x14]
        0x00005354:    2600        .&      MOVS     r6,#0
        0x00005356:    2a00        .*      CMP      r2,#0
        0x00005358:    d001        ..      BEQ      0x535e ; uart_init + 16
        0x0000535a:    2001        .       MOVS     r0,#1
        0x0000535c:    4306        .C      ORRS     r6,r6,r0
        0x0000535e:    2b00        .+      CMP      r3,#0
        0x00005360:    d001        ..      BEQ      0x5366 ; uart_init + 24
        0x00005362:    2002        .       MOVS     r0,#2
        0x00005364:    4306        .C      ORRS     r6,r6,r0
        0x00005366:    2d00        .-      CMP      r5,#0
        0x00005368:    d001        ..      BEQ      0x536e ; uart_init + 32
        0x0000536a:    2004        .       MOVS     r0,#4
        0x0000536c:    4306        .C      ORRS     r6,r6,r0
        0x0000536e:    9806        ..      LDR      r0,[sp,#0x18]
        0x00005370:    2800        .(      CMP      r0,#0
        0x00005372:    d001        ..      BEQ      0x5378 ; uart_init + 42
        0x00005374:    2008        .       MOVS     r0,#8
        0x00005376:    4306        .C      ORRS     r6,r6,r0
        0x00005378:    9807        ..      LDR      r0,[sp,#0x1c]
        0x0000537a:    2800        .(      CMP      r0,#0
        0x0000537c:    d001        ..      BEQ      0x5382 ; uart_init + 52
        0x0000537e:    2010        .       MOVS     r0,#0x10
        0x00005380:    4306        .C      ORRS     r6,r6,r0
        0x00005382:    9808        ..      LDR      r0,[sp,#0x20]
        0x00005384:    2800        .(      CMP      r0,#0
        0x00005386:    d001        ..      BEQ      0x538c ; uart_init + 62
        0x00005388:    2020                MOVS     r0,#0x20
        0x0000538a:    4306        .C      ORRS     r6,r6,r0
        0x0000538c:    2000        .       MOVS     r0,#0
        0x0000538e:    60a0        .`      STR      r0,[r4,#8]
        0x00005390:    6121        !a      STR      r1,[r4,#0x10]
        0x00005392:    60a6        .`      STR      r6,[r4,#8]
        0x00005394:    6860        `h      LDR      r0,[r4,#4]
        0x00005396:    270c        .'      MOVS     r7,#0xc
        0x00005398:    4038        8@      ANDS     r0,r0,r7
        0x0000539a:    2800        .(      CMP      r0,#0
        0x0000539c:    d001        ..      BEQ      0x53a2 ; uart_init + 84
        0x0000539e:    2001        .       MOVS     r0,#1
        0x000053a0:    bdf0        ..      POP      {r4-r7,pc}
        0x000053a2:    2000        .       MOVS     r0,#0
        0x000053a4:    e7fc        ..      B        0x53a0 ; uart_init + 82
        0x000053a6:    0000        ..      MOVS     r0,r0
    i.updateEnemyBulletData
    updateEnemyBulletData
        0x000053a8:    4601        .F      MOV      r1,r0
        0x000053aa:    2000        .       MOVS     r0,#0
        0x000053ac:    e059        Y.      B        0x5462 ; updateEnemyBulletData + 186
        0x000053ae:    220a        ."      MOVS     r2,#0xa
        0x000053b0:    4342        BC      MULS     r2,r0,r2
        0x000053b2:    1852        R.      ADDS     r2,r2,r1
        0x000053b4:    7952        Ry      LDRB     r2,[r2,#5]
        0x000053b6:    2a04        .*      CMP      r2,#4
        0x000053b8:    d148        H.      BNE      0x544c ; updateEnemyBulletData + 164
        0x000053ba:    2300        .#      MOVS     r3,#0
        0x000053bc:    220a        ."      MOVS     r2,#0xa
        0x000053be:    4342        BC      MULS     r2,r0,r2
        0x000053c0:    1852        R.      ADDS     r2,r2,r1
        0x000053c2:    7153        Sq      STRB     r3,[r2,#5]
        0x000053c4:    220a        ."      MOVS     r2,#0xa
        0x000053c6:    4342        BC      MULS     r2,r0,r2
        0x000053c8:    1852        R.      ADDS     r2,r2,r1
        0x000053ca:    7912        .y      LDRB     r2,[r2,#4]
        0x000053cc:    2a00        .*      CMP      r2,#0
        0x000053ce:    d047        G.      BEQ      0x5460 ; updateEnemyBulletData + 184
        0x000053d0:    220a        ."      MOVS     r2,#0xa
        0x000053d2:    4342        BC      MULS     r2,r0,r2
        0x000053d4:    1852        R.      ADDS     r2,r2,r1
        0x000053d6:    8853        S.      LDRH     r3,[r2,#2]
        0x000053d8:    220a        ."      MOVS     r2,#0xa
        0x000053da:    4342        BC      MULS     r2,r0,r2
        0x000053dc:    1852        R.      ADDS     r2,r2,r1
        0x000053de:    8912        ..      LDRH     r2,[r2,#8]
        0x000053e0:    189a        ..      ADDS     r2,r3,r2
        0x000053e2:    b213        ..      SXTH     r3,r2
        0x000053e4:    220a        ."      MOVS     r2,#0xa
        0x000053e6:    4342        BC      MULS     r2,r0,r2
        0x000053e8:    1852        R.      ADDS     r2,r2,r1
        0x000053ea:    8053        S.      STRH     r3,[r2,#2]
        0x000053ec:    220a        ."      MOVS     r2,#0xa
        0x000053ee:    4342        BC      MULS     r2,r0,r2
        0x000053f0:    5a8b        .Z      LDRH     r3,[r1,r2]
        0x000053f2:    220a        ."      MOVS     r2,#0xa
        0x000053f4:    4342        BC      MULS     r2,r0,r2
        0x000053f6:    1852        R.      ADDS     r2,r2,r1
        0x000053f8:    88d2        ..      LDRH     r2,[r2,#6]
        0x000053fa:    189a        ..      ADDS     r2,r3,r2
        0x000053fc:    b213        ..      SXTH     r3,r2
        0x000053fe:    220a        ."      MOVS     r2,#0xa
        0x00005400:    4342        BC      MULS     r2,r0,r2
        0x00005402:    528b        .R      STRH     r3,[r1,r2]
        0x00005404:    220a        ."      MOVS     r2,#0xa
        0x00005406:    4342        BC      MULS     r2,r0,r2
        0x00005408:    1852        R.      ADDS     r2,r2,r1
        0x0000540a:    2302        .#      MOVS     r3,#2
        0x0000540c:    5ed3        .^      LDRSH    r3,[r2,r3]
        0x0000540e:    2be6        .+      CMP      r3,#0xe6
        0x00005410:    dc06        ..      BGT      0x5420 ; updateEnemyBulletData + 120
        0x00005412:    220a        ."      MOVS     r2,#0xa
        0x00005414:    4342        BC      MULS     r2,r0,r2
        0x00005416:    1852        R.      ADDS     r2,r2,r1
        0x00005418:    2302        .#      MOVS     r3,#2
        0x0000541a:    5ed3        .^      LDRSH    r3,[r2,r3]
        0x0000541c:    2b0a        .+      CMP      r3,#0xa
        0x0000541e:    da05        ..      BGE      0x542c ; updateEnemyBulletData + 132
        0x00005420:    2300        .#      MOVS     r3,#0
        0x00005422:    220a        ."      MOVS     r2,#0xa
        0x00005424:    4342        BC      MULS     r2,r0,r2
        0x00005426:    1852        R.      ADDS     r2,r2,r1
        0x00005428:    7113        .q      STRB     r3,[r2,#4]
        0x0000542a:    e019        ..      B        0x5460 ; updateEnemyBulletData + 184
        0x0000542c:    220a        ."      MOVS     r2,#0xa
        0x0000542e:    4342        BC      MULS     r2,r0,r2
        0x00005430:    5e8a        .^      LDRSH    r2,[r1,r2]
        0x00005432:    2afb        .*      CMP      r2,#0xfb
        0x00005434:    dc04        ..      BGT      0x5440 ; updateEnemyBulletData + 152
        0x00005436:    220a        ."      MOVS     r2,#0xa
        0x00005438:    4342        BC      MULS     r2,r0,r2
        0x0000543a:    5e8a        .^      LDRSH    r2,[r1,r2]
        0x0000543c:    2a05        .*      CMP      r2,#5
        0x0000543e:    da0f        ..      BGE      0x5460 ; updateEnemyBulletData + 184
        0x00005440:    2300        .#      MOVS     r3,#0
        0x00005442:    220a        ."      MOVS     r2,#0xa
        0x00005444:    4342        BC      MULS     r2,r0,r2
        0x00005446:    1852        R.      ADDS     r2,r2,r1
        0x00005448:    7113        .q      STRB     r3,[r2,#4]
        0x0000544a:    e009        ..      B        0x5460 ; updateEnemyBulletData + 184
        0x0000544c:    220a        ."      MOVS     r2,#0xa
        0x0000544e:    4342        BC      MULS     r2,r0,r2
        0x00005450:    1852        R.      ADDS     r2,r2,r1
        0x00005452:    7952        Ry      LDRB     r2,[r2,#5]
        0x00005454:    1c52        R.      ADDS     r2,r2,#1
        0x00005456:    b2d3        ..      UXTB     r3,r2
        0x00005458:    220a        ."      MOVS     r2,#0xa
        0x0000545a:    4342        BC      MULS     r2,r0,r2
        0x0000545c:    1852        R.      ADDS     r2,r2,r1
        0x0000545e:    7153        Sq      STRB     r3,[r2,#5]
        0x00005460:    1c40        @.      ADDS     r0,r0,#1
        0x00005462:    4a02        .J      LDR      r2,[pc,#8] ; [0x546c] = 0x553d
        0x00005464:    7812        .x      LDRB     r2,[r2,#0]
        0x00005466:    4290        .B      CMP      r0,r2
        0x00005468:    dba1        ..      BLT      0x53ae ; updateEnemyBulletData + 6
        0x0000546a:    4770        pG      BX       lr
    $d
        0x0000546c:    0000553d    =U..    DCD    21821
    $t
    i.vga_Handler
    vga_Handler
        0x00005470:    481d        .H      LDR      r0,[pc,#116] ; [0x54e8] = 0x20000020
        0x00005472:    7800        .x      LDRB     r0,[r0,#0]
        0x00005474:    2801        .(      CMP      r0,#1
        0x00005476:    d123        #.      BNE      0x54c0 ; vga_Handler + 80
        0x00005478:    481c        .H      LDR      r0,[pc,#112] ; [0x54ec] = 0x20000027
        0x0000547a:    7800        .x      LDRB     r0,[r0,#0]
        0x0000547c:    2801        .(      CMP      r0,#1
        0x0000547e:    d131        1.      BNE      0x54e4 ; vga_Handler + 116
        0x00005480:    481b        .H      LDR      r0,[pc,#108] ; [0x54f0] = 0x50020800
        0x00005482:    6900        .i      LDR      r0,[r0,#0x10]
        0x00005484:    2809        .(      CMP      r0,#9
        0x00005486:    d10a        ..      BNE      0x549e ; vga_Handler + 46
        0x00005488:    4819        .H      LDR      r0,[pc,#100] ; [0x54f0] = 0x50020800
        0x0000548a:    6980        .i      LDR      r0,[r0,#0x18]
        0x0000548c:    2800        .(      CMP      r0,#0
        0x0000548e:    d106        ..      BNE      0x549e ; vga_Handler + 46
        0x00005490:    2003        .       MOVS     r0,#3
        0x00005492:    4916        .I      LDR      r1,[pc,#88] ; [0x54ec] = 0x20000027
        0x00005494:    7008        .p      STRB     r0,[r1,#0]
        0x00005496:    2000        .       MOVS     r0,#0
        0x00005498:    4915        .I      LDR      r1,[pc,#84] ; [0x54f0] = 0x50020800
        0x0000549a:    6008        .`      STR      r0,[r1,#0]
        0x0000549c:    e002        ..      B        0x54a4 ; vga_Handler + 52
        0x0000549e:    2002        .       MOVS     r0,#2
        0x000054a0:    4912        .I      LDR      r1,[pc,#72] ; [0x54ec] = 0x20000027
        0x000054a2:    7008        .p      STRB     r0,[r1,#0]
        0x000054a4:    4813        .H      LDR      r0,[pc,#76] ; [0x54f4] = 0x20002300
        0x000054a6:    7900        .y      LDRB     r0,[r0,#4]
        0x000054a8:    2800        .(      CMP      r0,#0
        0x000054aa:    d003        ..      BEQ      0x54b4 ; vga_Handler + 68
        0x000054ac:    4810        .H      LDR      r0,[pc,#64] ; [0x54f0] = 0x50020800
        0x000054ae:    6980        .i      LDR      r0,[r0,#0x18]
        0x000054b0:    2800        .(      CMP      r0,#0
        0x000054b2:    d117        ..      BNE      0x54e4 ; vga_Handler + 116
        0x000054b4:    4810        .H      LDR      r0,[pc,#64] ; [0x54f8] = 0x20000021
        0x000054b6:    7800        .x      LDRB     r0,[r0,#0]
        0x000054b8:    1c40        @.      ADDS     r0,r0,#1
        0x000054ba:    490f        .I      LDR      r1,[pc,#60] ; [0x54f8] = 0x20000021
        0x000054bc:    7008        .p      STRB     r0,[r1,#0]
        0x000054be:    e011        ..      B        0x54e4 ; vga_Handler + 116
        0x000054c0:    4809        .H      LDR      r0,[pc,#36] ; [0x54e8] = 0x20000020
        0x000054c2:    7800        .x      LDRB     r0,[r0,#0]
        0x000054c4:    2802        .(      CMP      r0,#2
        0x000054c6:    d10d        ..      BNE      0x54e4 ; vga_Handler + 116
        0x000054c8:    480c        .H      LDR      r0,[pc,#48] ; [0x54fc] = 0x20000022
        0x000054ca:    7800        .x      LDRB     r0,[r0,#0]
        0x000054cc:    1c40        @.      ADDS     r0,r0,#1
        0x000054ce:    490b        .I      LDR      r1,[pc,#44] ; [0x54fc] = 0x20000022
        0x000054d0:    7008        .p      STRB     r0,[r1,#0]
        0x000054d2:    4608        .F      MOV      r0,r1
        0x000054d4:    7800        .x      LDRB     r0,[r0,#0]
        0x000054d6:    280a        .(      CMP      r0,#0xa
        0x000054d8:    d104        ..      BNE      0x54e4 ; vga_Handler + 116
        0x000054da:    2000        .       MOVS     r0,#0
        0x000054dc:    7008        .p      STRB     r0,[r1,#0]
        0x000054de:    2001        .       MOVS     r0,#1
        0x000054e0:    4907        .I      LDR      r1,[pc,#28] ; [0x5500] = 0x20000025
        0x000054e2:    7008        .p      STRB     r0,[r1,#0]
        0x000054e4:    4770        pG      BX       lr
    $d
        0x000054e6:    0000        ..      DCW    0
        0x000054e8:    20000020     ..     DCD    536870944
        0x000054ec:    20000027    '..     DCD    536870951
        0x000054f0:    50020800    ...P    DCD    1342310400
        0x000054f4:    20002300    .#.     DCD    536879872
        0x000054f8:    20000021    !..     DCD    536870945
        0x000054fc:    20000022    "..     DCD    536870946
        0x00005500:    20000025    %..     DCD    536870949
    $t
    i.writeOneNametable
    writeOneNametable
        0x00005504:    b510        ..      PUSH     {r4,lr}
        0x00005506:    014b        K.      LSLS     r3,r1,#5
        0x00005508:    4c01        .L      LDR      r4,[pc,#4] ; [0x5510] = 0x50020000
        0x0000550a:    191b        ..      ADDS     r3,r3,r4
        0x0000550c:    541a        .T      STRB     r2,[r3,r0]
        0x0000550e:    bd10        ..      POP      {r4,pc}
    $d
        0x00005510:    50020000    ...P    DCD    1342308352
    $t
    i.writeOneSprite
    writeOneSprite
        0x00005514:    b570        p.      PUSH     {r4-r6,lr}
        0x00005516:    9c04        ..      LDR      r4,[sp,#0x10]
        0x00005518:    0085        ..      LSLS     r5,r0,#2
        0x0000551a:    4e06        .N      LDR      r6,[pc,#24] ; [0x5534] = 0x50010000
        0x0000551c:    19ad        ..      ADDS     r5,r5,r6
        0x0000551e:    70e9        .p      STRB     r1,[r5,#3]
        0x00005520:    0085        ..      LSLS     r5,r0,#2
        0x00005522:    19ad        ..      ADDS     r5,r5,r6
        0x00005524:    70aa        .p      STRB     r2,[r5,#2]
        0x00005526:    0085        ..      LSLS     r5,r0,#2
        0x00005528:    19ad        ..      ADDS     r5,r5,r6
        0x0000552a:    706b        kp      STRB     r3,[r5,#1]
        0x0000552c:    0085        ..      LSLS     r5,r0,#2
        0x0000552e:    19ad        ..      ADDS     r5,r5,r6
        0x00005530:    702c        ,p      STRB     r4,[r5,#0]
        0x00005532:    bd70        p.      POP      {r4-r6,pc}
    $d
        0x00005534:    50010000    ...P    DCD    1342242816
    $d.realdata
    .constdata
    MYPLANE_BULLET_NUMMAX
        0x00005538:    0c          .       DCB    12
    S_GREY_NUMMAX
        0x00005539:    06          .       DCB    6
    S_GREEN_NUMMAX
        0x0000553a:    06          .       DCB    6
    M_STRAIGHT_NUMMAX
        0x0000553b:    03          .       DCB    3
    B_GREEN_NUMMAX
        0x0000553c:    01          .       DCB    1
    ENEMY_BULLETS_NUMMAX
        0x0000553d:    0a          .       DCB    10
    BOOM_NUMMAX
        0x0000553e:    05          .       DCB    5
    .constdata
    asc2_1608
        0x0000553f:    00          .       DCB    0
        0x00005540:    00000000    ....    DCD    0
        0x00005544:    00000000    ....    DCD    0
        0x00005548:    00000000    ....    DCD    0
        0x0000554c:    00000000    ....    DCD    0
        0x00005550:    00000000    ....    DCD    0
        0x00005554:    00cc1f00    ....    DCD    13377280
        0x00005558:    0000000c    ....    DCD    12
        0x0000555c:    00000000    ....    DCD    0
        0x00005560:    30000800    ...0    DCD    805308416
        0x00005564:    08006000    .`..    DCD    134242304
        0x00005568:    60003000    .0.`    DCD    1610625024
        0x0000556c:    02000000    ....    DCD    33554432
        0x00005570:    1efc0320     ...    DCD    519832352
        0x00005574:    03200220     . .    DCD    52429344
        0x00005578:    02201efc    .. .    DCD    35659516
        0x0000557c:    00000020     ...    DCD    32
        0x00005580:    11180e00    ....    DCD    286789120
        0x00005584:    10ff3f04    .?..    DCD    285163268
        0x00005588:    00780c84    ..x.    DCD    7867524
        0x0000558c:    0f000000    ....    DCD    251658240
        0x00005590:    0f841000    ....    DCD    260313088
        0x00005594:    07c00038    8...    DCD    130023480
        0x00005598:    00841878    x...    DCD    8657016
        0x0000559c:    00000078    x...    DCD    120
        0x000055a0:    10840f78    x...    DCD    277090168
        0x000055a4:    0e2411c4    ..$.    DCD    237244868
        0x000055a8:    00e40098    ....    DCD    14942360
        0x000055ac:    08080084    ....    DCD    134742148
        0x000055b0:    70006800    .h.p    DCD    1879074816
        0x000055b4:    00000000    ....    DCD    0
        0x000055b8:    00000000    ....    DCD    0
        0x000055bc:    00000000    ....    DCD    0
        0x000055c0:    00000000    ....    DCD    0
        0x000055c4:    18e00700    ....    DCD    417335040
        0x000055c8:    40042018    . .@    DCD    1074012184
        0x000055cc:    00000002    ....    DCD    2
        0x000055d0:    20024000    .@.     DCD    537018368
        0x000055d4:    07181804    ....    DCD    119019524
        0x000055d8:    000000e0    ....    DCD    224
        0x000055dc:    02000000    ....    DCD    33554432
        0x000055e0:    01400240    @.@.    DCD    20972096
        0x000055e4:    01f00f80    ....    DCD    32509824
        0x000055e8:    02400280    ..@.    DCD    37749376
        0x000055ec:    00000040    @...    DCD    64
        0x000055f0:    00800080    ....    DCD    8388736
        0x000055f4:    00f80f80    ....    DCD    16256896
        0x000055f8:    00800080    ....    DCD    8388736
        0x000055fc:    00000080    ....    DCD    128
        0x00005600:    000d0001    ....    DCD    851969
        0x00005604:    0000000e    ....    DCD    14
        0x00005608:    00000000    ....    DCD    0
        0x0000560c:    00000000    ....    DCD    0
        0x00005610:    00800000    ....    DCD    8388608
        0x00005614:    00800080    ....    DCD    8388736
        0x00005618:    00800080    ....    DCD    8388736
        0x0000561c:    00800080    ....    DCD    8388736
        0x00005620:    000c0000    ....    DCD    786432
        0x00005624:    0000000c    ....    DCD    12
        0x00005628:    00000000    ....    DCD    0
        0x0000562c:    00000000    ....    DCD    0
        0x00005630:    00060000    ....    DCD    393216
        0x00005634:    01600018    ..`.    DCD    23068696
        0x00005638:    18000680    ....    DCD    402654848
        0x0000563c:    00002000    . ..    DCD    8192
        0x00005640:    08f00700    ....    DCD    149948160
        0x00005644:    10041008    ....    DCD    268701704
        0x00005648:    07080804    ....    DCD    117966852
        0x0000564c:    000000f0    ....    DCD    240
        0x00005650:    08040800    ....    DCD    134481920
        0x00005654:    00fc1f04    ....    DCD    16523012
        0x00005658:    00040004    ....    DCD    262148
        0x0000565c:    00000000    ....    DCD    0
        0x00005660:    100c0e00    ....    DCD    269225472
        0x00005664:    10241014    ..$.    DCD    270798868
        0x00005668:    0e841144    D...    DCD    243536196
        0x0000566c:    0000000c    ....    DCD    12
        0x00005670:    10180c00    ....    DCD    270011392
        0x00005674:    11041104    ....    DCD    285479172
        0x00005678:    0c881204    ....    DCD    210244100
        0x0000567c:    00000070    p...    DCD    112
        0x00005680:    03e00000    ....    DCD    65011712
        0x00005684:    08240420     .$.    DCD    136578080
        0x00005688:    00fc1f24    $...    DCD    16523044
        0x0000568c:    00000024    $...    DCD    36
        0x00005690:    10981f00    ....    DCD    278404864
        0x00005694:    11041184    ....    DCD    285479300
        0x00005698:    10881004    ....    DCD    277352452
        0x0000569c:    00000070    p...    DCD    112
        0x000056a0:    08f00700    ....    DCD    149948160
        0x000056a4:    11041188    ....    DCD    285479304
        0x000056a8:    00881804    ....    DCD    8919044
        0x000056ac:    00000070    p...    DCD    112
        0x000056b0:    10001c00    ....    DCD    268442624
        0x000056b4:    13fc1000    ....    DCD    335286272
        0x000056b8:    10001c00    ....    DCD    268442624
        0x000056bc:    00000000    ....    DCD    0
        0x000056c0:    11380e00    ..8.    DCD    288886272
        0x000056c4:    10841044    D...    DCD    277090372
        0x000056c8:    0e441184    ..D.    DCD    239341956
        0x000056cc:    00000038    8...    DCD    56
        0x000056d0:    08000700    ....    DCD    134219520
        0x000056d4:    1044108c    ..D.    DCD    272896140
        0x000056d8:    07880844    D...    DCD    126355524
        0x000056dc:    000000f0    ....    DCD    240
        0x000056e0:    00000000    ....    DCD    0
        0x000056e4:    030c0300    ....    DCD    51118848
        0x000056e8:    0000000c    ....    DCD    12
        0x000056ec:    00000000    ....    DCD    0
        0x000056f0:    00000000    ....    DCD    0
        0x000056f4:    00060101    ....    DCD    393473
        0x000056f8:    00000000    ....    DCD    0
        0x000056fc:    00000000    ....    DCD    0
        0x00005700:    01800000    ....    DCD    25165824
        0x00005704:    04200240    @. .    DCD    69206592
        0x00005708:    10080810    ....    DCD    268961808
        0x0000570c:    02000004    ....    DCD    33554436
        0x00005710:    02200220     . .    DCD    35652128
        0x00005714:    02200220     . .    DCD    35652128
        0x00005718:    02200220     . .    DCD    35652128
        0x0000571c:    00000020     ...    DCD    32
        0x00005720:    08041000    ....    DCD    134483968
        0x00005724:    02100408    ....    DCD    34604040
        0x00005728:    00400120     .@.    DCD    4194592
        0x0000572c:    00000080    ....    DCD    128
        0x00005730:    12000e00    ....    DCD    301993472
        0x00005734:    100c1000    ....    DCD    269225984
        0x00005738:    0f80106c    l...    DCD    260051052
        0x0000573c:    03000000    ....    DCD    50331648
        0x00005740:    13180ce0    ....    DCD    320343264
        0x00005744:    172414e4    ..$.    DCD    388240612
        0x00005748:    072808c4    ..(.    DCD    120064196
        0x0000574c:    000000d0    ....    DCD    208
        0x00005750:    033c0004    ..<.    DCD    54263812
        0x00005754:    07401cc4    ..@.    DCD    121642180
        0x00005758:    00e40040    @...    DCD    14942272
        0x0000575c:    1004001c    ....    DCD    268697628
        0x00005760:    11fc1f04    ....    DCD    301735684
        0x00005764:    11041104    ....    DCD    285479172
        0x00005768:    00880e04    ....    DCD    8916484
        0x0000576c:    03000070    p...    DCD    50331760
        0x00005770:    10180ce0    ....    DCD    270011616
        0x00005774:    10041004    ....    DCD    268701700
        0x00005778:    1c081004    ....    DCD    470290436
        0x0000577c:    10000010    ....    DCD    268435472
        0x00005780:    10fc1f04    ....    DCD    284958468
        0x00005784:    10041004    ....    DCD    268701700
        0x00005788:    07080804    ....    DCD    117966852
        0x0000578c:    100000f0    ....    DCD    268435696
        0x00005790:    11fc1f04    ....    DCD    301735684
        0x00005794:    17041104    ....    DCD    386142468
        0x00005798:    080410c4    ....    DCD    134484164
        0x0000579c:    10000018    ....    DCD    268435480
        0x000057a0:    11fc1f04    ....    DCD    301735684
        0x000057a4:    17001104    ....    DCD    385880324
        0x000057a8:    080010c0    ....    DCD    134222016
        0x000057ac:    03000000    ....    DCD    50331648
        0x000057b0:    10180ce0    ....    DCD    270011616
        0x000057b4:    10041004    ....    DCD    268701700
        0x000057b8:    00781c44    D.x.    DCD    7871556
        0x000057bc:    10000040    @...    DCD    268435520
        0x000057c0:    10fc1f04    ....    DCD    284958468
        0x000057c4:    00800084    ....    DCD    8388740
        0x000057c8:    1f841080    ....    DCD    528748672
        0x000057cc:    000410fc    ....    DCD    266492
        0x000057d0:    10041000    ....    DCD    268701696
        0x000057d4:    10fc1f04    ....    DCD    284958468
        0x000057d8:    00041004    ....    DCD    266244
        0x000057dc:    00000000    ....    DCD    0
        0x000057e0:    10010003    ....    DCD    268500995
        0x000057e4:    1f011001    ....    DCD    520163329
        0x000057e8:    100010fe    ....    DCD    268439806
        0x000057ec:    10000000    ....    DCD    268435456
        0x000057f0:    11fc1f04    ....    DCD    301735684
        0x000057f4:    14800304    ....    DCD    343933700
        0x000057f8:    101c1864    d...    DCD    270276708
        0x000057fc:    10000004    ....    DCD    268435460
        0x00005800:    10fc1f04    ....    DCD    284958468
        0x00005804:    00040004    ....    DCD    262148
        0x00005808:    00040004    ....    DCD    262148
        0x0000580c:    1000000c    ....    DCD    268435468
        0x00005810:    1ffc1f04    ....    DCD    536616708
        0x00005814:    1ffc0000    ....    DCD    536608768
        0x00005818:    10fc1f00    ....    DCD    284958464
        0x0000581c:    10000004    ....    DCD    268435460
        0x00005820:    0cfc1f04    ....    DCD    217849604
        0x00005824:    00000304    ....    DCD    772
        0x00005828:    1f1810e0    ....    DCD    521670880
        0x0000582c:    070010fc    ....    DCD    117444860
        0x00005830:    100808f0    ....    DCD    268962032
        0x00005834:    10041004    ....    DCD    268701700
        0x00005838:    07080804    ....    DCD    117966852
        0x0000583c:    100000f0    ....    DCD    268435696
        0x00005840:    10fc1f04    ....    DCD    284958468
        0x00005844:    10801084    ....    DCD    276828292
        0x00005848:    0f801080    ....    DCD    260051072
        0x0000584c:    07000000    ....    DCD    117440512
        0x00005850:    101808f0    ....    DCD    270010608
        0x00005854:    10241024    $.$.    DCD    270798884
        0x00005858:    070a081c    ....    DCD    118097948
        0x0000585c:    100000f2    ....    DCD    268435698
        0x00005860:    11fc1f04    ....    DCD    301735684
        0x00005864:    11001104    ....    DCD    285217028
        0x00005868:    0e3011c0    ..0.    DCD    238031296
        0x0000586c:    0004000c    ....    DCD    262156
        0x00005870:    111c0e00    ....    DCD    287051264
        0x00005874:    10841004    ....    DCD    277090308
        0x00005878:    1c441084    ..D.    DCD    474222724
        0x0000587c:    18000038    8...    DCD    402653240
        0x00005880:    10001000    ....    DCD    268439552
        0x00005884:    10fc1f04    ....    DCD    284958468
        0x00005888:    18001004    ....    DCD    402657284
        0x0000588c:    10000000    ....    DCD    268435456
        0x00005890:    10f81f00    ....    DCD    284696320
        0x00005894:    00040004    ....    DCD    262148
        0x00005898:    1f041004    ....    DCD    520359940
        0x0000589c:    100010f8    ....    DCD    268439800
        0x000058a0:    11001e00    ....    DCD    285220352
        0x000058a4:    001c00e0    ....    DCD    1835232
        0x000058a8:    1c801370    p...    DCD    478155632
        0x000058ac:    1f001000    ....    DCD    520097792
        0x000058b0:    003c10c0    ..<.    DCD    3936448
        0x000058b4:    00001fe0    ....    DCD    8160
        0x000058b8:    1f3c10e0    ..<.    DCD    524030176
        0x000058bc:    100000c0    ....    DCD    268435648
        0x000058c0:    160c1804    ....    DCD    369891332
        0x000058c4:    01c00134    4...    DCD    29360436
        0x000058c8:    183416c0    ..4.    DCD    406066880
        0x000058cc:    1004100c    ....    DCD    268701708
        0x000058d0:    13001c00    ....    DCD    318774272
        0x000058d4:    13fc0004    ....    DCD    335282180
        0x000058d8:    10001c04    ....    DCD    268442628
        0x000058dc:    08000000    ....    DCD    134217728
        0x000058e0:    101c1004    ....    DCD    270274564
        0x000058e4:    13841064    d...    DCD    327422052
        0x000058e8:    10041c04    ....    DCD    268704772
        0x000058ec:    00000018    ....    DCD    24
        0x000058f0:    00000000    ....    DCD    0
        0x000058f4:    40fe7f00    ...@    DCD    1090420480
        0x000058f8:    40024002    .@.@    DCD    1073889282
        0x000058fc:    00000002    ....    DCD    2
        0x00005900:    0c003000    .0..    DCD    201338880
        0x00005904:    00800300    ....    DCD    8389376
        0x00005908:    001c0060    `...    DCD    1835104
        0x0000590c:    00000003    ....    DCD    3
        0x00005910:    40024000    .@.@    DCD    1073889280
        0x00005914:    7f024002    .@..    DCD    2130853890
        0x00005918:    000000fe    ....    DCD    254
        0x0000591c:    00000000    ....    DCD    0
        0x00005920:    20000000    ...     DCD    536870912
        0x00005924:    40004000    .@.@    DCD    1073758208
        0x00005928:    20004000    .@.     DCD    536887296
        0x0000592c:    00000000    ....    DCD    0
        0x00005930:    00010001    ....    DCD    65537
        0x00005934:    00010001    ....    DCD    65537
        0x00005938:    00010001    ....    DCD    65537
        0x0000593c:    00010001    ....    DCD    65537
        0x00005940:    40004000    .@.@    DCD    1073758208
        0x00005944:    00002000    . ..    DCD    8192
        0x00005948:    00000000    ....    DCD    0
        0x0000594c:    00000000    ....    DCD    0
        0x00005950:    01980000    ....    DCD    26738688
        0x00005954:    01440124    $.D.    DCD    21233956
        0x00005958:    00440144    D.D.    DCD    4456772
        0x0000595c:    100400fc    ....    DCD    268697852
        0x00005960:    00fc1f00    ....    DCD    16523008
        0x00005964:    01040188    ....    DCD    17039752
        0x00005968:    00880004    ....    DCD    8912900
        0x0000596c:    00000070    p...    DCD    112
        0x00005970:    00700000    ..p.    DCD    7340032
        0x00005974:    01040188    ....    DCD    17039752
        0x00005978:    00040104    ....    DCD    262404
        0x0000597c:    00000088    ....    DCD    136
        0x00005980:    00700000    ..p.    DCD    7340032
        0x00005984:    01040188    ....    DCD    17039752
        0x00005988:    1f081104    ....    DCD    520622340
        0x0000598c:    000400fc    ....    DCD    262396
        0x00005990:    01f80000    ....    DCD    33030144
        0x00005994:    01440144    D.D.    DCD    21233988
        0x00005998:    00440144    D.D.    DCD    4456772
        0x0000599c:    000000c8    ....    DCD    200
        0x000059a0:    01040100    ....    DCD    17039616
        0x000059a4:    11fc0f04    ....    DCD    301731588
        0x000059a8:    11041104    ....    DCD    285479172
        0x000059ac:    00001800    ....    DCD    6144
        0x000059b0:    01d60000    ....    DCD    30801920
        0x000059b4:    01290129    ).).    DCD    19464489
        0x000059b8:    01c90129    )...    DCD    29950249
        0x000059bc:    10000006    ....    DCD    268435462
        0x000059c0:    00fc1f04    ....    DCD    16523012
        0x000059c4:    01000184    ....    DCD    16777604
        0x000059c8:    00040100    ....    DCD    262400
        0x000059cc:    000400fc    ....    DCD    262396
        0x000059d0:    19040100    ....    DCD    419692800
        0x000059d4:    00fc1904    ....    DCD    16521476
        0x000059d8:    00040004    ....    DCD    262148
        0x000059dc:    00000000    ....    DCD    0
        0x000059e0:    00030000    ....    DCD    196608
        0x000059e4:    19010101    ....    DCD    419496193
        0x000059e8:    00fe1901    ....    DCD    16652545
        0x000059ec:    10000000    ....    DCD    268435456
        0x000059f0:    00fc1f04    ....    DCD    16523012
        0x000059f4:    01400024    $.@.    DCD    20971556
        0x000059f8:    010c01b4    ....    DCD    17564084
        0x000059fc:    00000004    ....    DCD    4
        0x00005a00:    10041000    ....    DCD    268701696
        0x00005a04:    00fc1f04    ....    DCD    16523012
        0x00005a08:    00040004    ....    DCD    262148
        0x00005a0c:    01000000    ....    DCD    16777216
        0x00005a10:    01fc0104    ....    DCD    33292548
        0x00005a14:    01000104    ....    DCD    16777476
        0x00005a18:    010401fc    ....    DCD    17039868
        0x00005a1c:    01fc0000    ....    DCD    33292288
        0x00005a20:    00fc0104    ....    DCD    16515332
        0x00005a24:    01000184    ....    DCD    16777604
        0x00005a28:    00040100    ....    DCD    262400
        0x00005a2c:    000400fc    ....    DCD    262396
        0x00005a30:    01f80000    ....    DCD    33030144
        0x00005a34:    01040104    ....    DCD    17039620
        0x00005a38:    00040104    ....    DCD    262404
        0x00005a3c:    010000f8    ....    DCD    16777464
        0x00005a40:    00ff0101    ....    DCD    16711937
        0x00005a44:    01040185    ....    DCD    17039749
        0x00005a48:    00880004    ....    DCD    8912900
        0x00005a4c:    00000070    p...    DCD    112
        0x00005a50:    00700000    ..p.    DCD    7340032
        0x00005a54:    01040188    ....    DCD    17039752
        0x00005a58:    01050104    ....    DCD    17105156
        0x00005a5c:    010100ff    ....    DCD    16843007
        0x00005a60:    01040104    ....    DCD    17039620
        0x00005a64:    018400fc    ....    DCD    25428220
        0x00005a68:    01000104    ....    DCD    16777476
        0x00005a6c:    00000080    ....    DCD    128
        0x00005a70:    01cc0000    ....    DCD    30146560
        0x00005a74:    01240124    $.$.    DCD    19136804
        0x00005a78:    01240124    $.$.    DCD    19136804
        0x00005a7c:    00000098    ....    DCD    152
        0x00005a80:    01000100    ....    DCD    16777472
        0x00005a84:    01f80700    ....    DCD    33031936
        0x00005a88:    00040104    ....    DCD    262404
        0x00005a8c:    01000000    ....    DCD    16777216
        0x00005a90:    00f80100    ....    DCD    16253184
        0x00005a94:    00040004    ....    DCD    262148
        0x00005a98:    01080104    ....    DCD    17301764
        0x00005a9c:    010400fc    ....    DCD    17039612
        0x00005aa0:    01800100    ....    DCD    25166080
        0x00005aa4:    000c0070    p...    DCD    786544
        0x00005aa8:    01600110    ..`.    DCD    23068944
        0x00005aac:    01000180    ....    DCD    16777600
        0x00005ab0:    000c01f0    ....    DCD    786928
        0x00005ab4:    00c00130    0...    DCD    12583216
        0x00005ab8:    010c0130    0...    DCD    17563952
        0x00005abc:    000001f0    ....    DCD    496
        0x00005ac0:    01040100    ....    DCD    17039616
        0x00005ac4:    0174008c    ..t.    DCD    24379532
        0x00005ac8:    018c0170    p...    DCD    25952624
        0x00005acc:    01000004    ....    DCD    16777220
        0x00005ad0:    01810101    ....    DCD    25231617
        0x00005ad4:    000e0071    q...    DCD    917617
        0x00005ad8:    01600118    ..`.    DCD    23068952
        0x00005adc:    00000180    ....    DCD    384
        0x00005ae0:    01840100    ....    DCD    25428224
        0x00005ae4:    0134010c    ..4.    DCD    20185356
        0x00005ae8:    01840144    D...    DCD    25428292
        0x00005aec:    0000000c    ....    DCD    12
        0x00005af0:    00000000    ....    DCD    0
        0x00005af4:    01000000    ....    DCD    16777216
        0x00005af8:    40fc3e00    .>.@    DCD    1090272768
        0x00005afc:    00024002    .@..    DCD    147458
        0x00005b00:    00000000    ....    DCD    0
        0x00005b04:    ff000000    ....    DCD    4278190080
        0x00005b08:    000000ff    ....    DCD    255
        0x00005b0c:    00000000    ....    DCD    0
        0x00005b10:    40024000    .@.@    DCD    1073889280
        0x00005b14:    01fc3e02    .>..    DCD    33308162
        0x00005b18:    00000000    ....    DCD    0
        0x00005b1c:    00000000    ....    DCD    0
        0x00005b20:    80006000    .`..    DCD    2147508224
        0x00005b24:    40008000    ...@    DCD    1073774592
        0x00005b28:    20004000    .@.     DCD    536887296
        0x00005b2c:    00002000    . ..    DCD    8192
    .constdata
    ANGLE_NUMMAX
        0x00005b30:    000a        ..      DCW    10
    sin_array
        0x00005b32:    0001        ..      DCW    1
        0x00005b34:    00020002    ....    DCD    131074
        0x00005b38:    00030002    ....    DCD    196610
        0x00005b3c:    00040004    ....    DCD    262148
        0x00005b40:    00050004    ....    DCD    327684
        0x00005b44:    0005        ..      DCW    5
    cos_array
        0x00005b46:    0004        ..      DCW    4
        0x00005b48:    00040004    ....    DCD    262148
        0x00005b4c:    00040004    ....    DCD    262148
        0x00005b50:    00020003    ....    DCD    131075
        0x00005b54:    00010002    ....    DCD    65538
        0x00005b58:    00000000    ....    DCD    0
    tan_array
        0x00005b5c:    00000000    ....    DCD    0
        0x00005b60:    3e3851ec    .Q8>    DCD    1043878380
        0x00005b64:    3eb851ec    .Q.>    DCD    1052266988
        0x00005b68:    3f147ae1    .z.?    DCD    1058306785
        0x00005b6c:    3f570a3d    =.W?    DCD    1062668861
        0x00005b70:    3f9851ec    .Q.?    DCD    1066947052
        0x00005b74:    3fdd70a4    .p.?    DCD    1071476900
        0x00005b78:    40300000    ..0@    DCD    1076887552
        0x00005b7c:    40b570a4    .p.@    DCD    1085632676
        0x00005b80:    43480000    ..HC    DCD    1128792064
    Region$$Table$$Base
        0x00005b84:    00005ba4    .[..    DCD    23460
        0x00005b88:    20000000    ...     DCD    536870912
        0x00005b8c:    00002300    .#..    DCD    8960
        0x00005b90:    00000450    P...    DCD    1104
        0x00005b94:    00006994    .i..    DCD    27028
        0x00005b98:    20002300    .#.     DCD    536879872
        0x00005b9c:    000007e0    ....    DCD    2016
        0x00005ba0:    00000b70    p...    DCD    2928
    Region$$Table$$Limit

====================================

** Section #2

    Name        : RW_IRAM1
    Type        : SHT_PROGBITS (0x00000001)
    Flags       : SHF_ALLOC + SHF_WRITE (0x00000003)
    Addr        : 0x20000000
    File Offset : 23512 (0x5bd8)
    Size        : 3568 bytes (0xdf0)
    Link        : SHN_UNDEF
    Info        : 0
    Alignment   : 4
    Entry Size  : 0


====================================

** Section #3

    Name        : RW_IRAM1
    Type        : SHT_NOBITS (0x00000008)
    Flags       : SHF_ALLOC + SHF_WRITE (0x00000003)
    Addr        : 0x20002300
    File Offset : 27080 (0x69c8)
    Size        : 2016 bytes (0x7e0)
    Link        : SHN_UNDEF
    Info        : 0
    Alignment   : 8
    Entry Size  : 0


====================================

** Section #4

    Name        : .debug_abbrev
    Type        : SHT_PROGBITS (0x00000001)
    Flags       : None (0x00000000)
    Addr        : 0x00000000
    File Offset : 27080 (0x69c8)
    Size        : 1476 bytes (0x5c4)
    Link        : SHN_UNDEF
    Info        : 0
    Alignment   : 1
    Entry Size  : 0


====================================

** Section #5

    Name        : .debug_frame
    Type        : SHT_PROGBITS (0x00000001)
    Flags       : None (0x00000000)
    Addr        : 0x00000000
    File Offset : 28556 (0x6f8c)
    Size        : 4344 bytes (0x10f8)
    Link        : SHN_UNDEF
    Info        : 0
    Alignment   : 1
    Entry Size  : 0


====================================

** Section #6

    Name        : .debug_info
    Type        : SHT_PROGBITS (0x00000001)
    Flags       : None (0x00000000)
    Addr        : 0x00000000
    File Offset : 32900 (0x8084)
    Size        : 45532 bytes (0xb1dc)
    Link        : SHN_UNDEF
    Info        : 0
    Alignment   : 1
    Entry Size  : 0


====================================

** Section #7

    Name        : .debug_line
    Type        : SHT_PROGBITS (0x00000001)
    Flags       : None (0x00000000)
    Addr        : 0x00000000
    File Offset : 78432 (0x13260)
    Size        : 21148 bytes (0x529c)
    Link        : SHN_UNDEF
    Info        : 0
    Alignment   : 1
    Entry Size  : 0


====================================

** Section #8

    Name        : .debug_loc
    Type        : SHT_PROGBITS (0x00000001)
    Flags       : None (0x00000000)
    Addr        : 0x00000000
    File Offset : 99580 (0x184fc)
    Size        : 10744 bytes (0x29f8)
    Link        : SHN_UNDEF
    Info        : 0
    Alignment   : 1
    Entry Size  : 0


====================================

** Section #9

    Name        : .debug_macinfo
    Type        : SHT_PROGBITS (0x00000001)
    Flags       : None (0x00000000)
    Addr        : 0x00000000
    File Offset : 110324 (0x1aef4)
    Size        : 10320 bytes (0x2850)
    Link        : SHN_UNDEF
    Info        : 0
    Alignment   : 1
    Entry Size  : 0


====================================

** Section #10

    Name        : .debug_pubnames
    Type        : SHT_PROGBITS (0x00000001)
    Flags       : None (0x00000000)
    Addr        : 0x00000000
    File Offset : 120644 (0x1d744)
    Size        : 6577 bytes (0x19b1)
    Link        : SHN_UNDEF
    Info        : 0
    Alignment   : 1
    Entry Size  : 0


====================================

** Section #11

    Name        : .symtab
    Type        : SHT_SYMTAB (0x00000002)
    Flags       : None (0x00000000)
    Addr        : 0x00000000
    File Offset : 127224 (0x1f0f8)
    Size        : 10608 bytes (0x2970)
    Link        : Section 12 (.strtab)
    Info        : Last local symbol no = 412
    Alignment   : 4
    Entry Size  : 16


====================================

** Section #12

    Name        : .strtab
    Type        : SHT_STRTAB (0x00000003)
    Flags       : None (0x00000000)
    Addr        : 0x00000000
    File Offset : 137832 (0x21a68)
    Size        : 7468 bytes (0x1d2c)
    Link        : SHN_UNDEF
    Info        : 0
    Alignment   : 1
    Entry Size  : 0


====================================

** Section #13

    Name        : .note
    Type        : SHT_NOTE (0x00000007)
    Flags       : None (0x00000000)
    Addr        : 0x00000000
    File Offset : 145300 (0x23794)
    Size        : 28 bytes (0x1c)
    Link        : SHN_UNDEF
    Info        : 0
    Alignment   : 4
    Entry Size  : 0

        Section     Segment
    ====================================

              1           0
              2           0
              3           0

====================================

** Section #14

    Name        : .comment
    Type        : SHT_PROGBITS (0x00000001)
    Flags       : None (0x00000000)
    Addr        : 0x00000000
    File Offset : 145328 (0x237b0)
    Size        : 15484 bytes (0x3c7c)
    Link        : SHN_UNDEF
    Info        : 0
    Alignment   : 1
    Entry Size  : 0

    Component: ARM Compiler 5.06 update 6 (build 750) Tool: armlink [4d35ed]
    ArmLink --strict --library_type=microlib --callgraph --load_addr_map_info --map --symbols --xref --diag_suppress=9931 --cpu=Cortex-M0 --list=.\Listings\m0.map --output=.\Objects\m0.axf --scatter=.\Objects\m0.sct --info=summarysizes,sizes,totals,unused,veneers

    D:\Program Files\Keil_V5\ARM\ARMCC\Bin\..\lib\armlib\h_p.l
    D:\Program Files\Keil_V5\ARM\ARMCC\Bin\..\lib\armlib\m_ps.l
    D:\Program Files\Keil_V5\ARM\ARMCC\Bin\..\lib\armlib\mc_p.l
    D:\Program Files\Keil_V5\ARM\ARMCC\Bin\..\lib\armlib\mf_p.l
    D:\Program Files\Keil_V5\ARM\ARMCC\Bin\..\lib\armlib\vfpsupport.l
    Input Comments:
    
    main.o
    
    Component: ARM Compiler 5.06 update 6 (build 750) Tool: armlink [4d35ed]
    armlink --partial --no_add_relocs_to_undefined --no_generate_mapping_symbols --diag_suppress=9931,9931,6642 --cpu=Cortex-M0 --fpu=SoftVFP --output=.\objects\main.o --vfemode=force

    Input Comments:
    
    p594c-3
    
    Component: ARM Compiler 5.06 update 6 (build 750) Tool: armasm [4d35ec]
    armasm --debug --diag_suppress=9931,9931,1602,1073 --cpu=Cortex-M0 --fpu=SoftVFP --apcs=/interwork/interwork --no_divide 
    main.o
    
    Component: ARM Compiler 5.06 update 6 (build 750) Tool: ArmCC [4d3637]
    ArmCC --c99 --split_sections --debug -c --gnu -o.\objects\main.o --depend=.\objects\main.d --cpu=Cortex-M0 --apcs=interwork -O0 --diag_suppress=9931 -I..\CORE -I..\DEVICE -I..\USER -I..\MY_GAME -I.\RTE\_Target_1 -I"D:\Program Files\Keil_V5\Arm\Packs\Keil\V2M-MPS2_CMx_BSP\1.7.1\Device\CMSDK_CM0\Include" -I"D:\Program Files\Keil_V5\ARM\CMSIS\Include" -D__MICROLIB -D__UVISION_VERSION=528 -DCMSDK_CM0 --omf_browse=.\objects\main.crf main.c
    
    
    
    
    
    handler.o
    
    Component: ARM Compiler 5.06 update 6 (build 750) Tool: armlink [4d35ed]
    armlink --partial --no_add_relocs_to_undefined --no_generate_mapping_symbols --diag_suppress=9931,9931,6642 --cpu=Cortex-M0 --fpu=SoftVFP --output=.\objects\handler.o --vfemode=force

    Input Comments:
    
    p7668-3
    
    Component: ARM Compiler 5.06 update 6 (build 750) Tool: armasm [4d35ec]
    armasm --debug --diag_suppress=9931,9931,1602,1073 --cpu=Cortex-M0 --fpu=SoftVFP --apcs=/interwork/interwork --no_divide 
    handler.o
    
    Component: ARM Compiler 5.06 update 6 (build 750) Tool: ArmCC [4d3637]
    ArmCC --c99 --split_sections --debug -c --gnu -o.\objects\handler.o --depend=.\objects\handler.d --cpu=Cortex-M0 --apcs=interwork -O0 --diag_suppress=9931 -I..\CORE -I..\DEVICE -I..\USER -I..\MY_GAME -I.\RTE\_Target_1 -I"D:\Program Files\Keil_V5\Arm\Packs\Keil\V2M-MPS2_CMx_BSP\1.7.1\Device\CMSDK_CM0\Include" -I"D:\Program Files\Keil_V5\ARM\CMSIS\Include" -D__MICROLIB -D__UVISION_VERSION=528 -DCMSDK_CM0 --omf_browse=.\objects\handler.crf ..\CORE\handler.c
    
    
    
    startup_cm0ds.o
    
    Component: ARM Compiler 5.06 update 6 (build 750) Tool: armasm [4d35ec]
    ArmAsm --debug --xref --diag_suppress=9931 --cpu=Cortex-M0 --apcs=interwork --depend=.\objects\startup_cm0ds.d  -I.\RTE\_Target_1 -I"D:\Program Files\Keil_V5\Arm\Packs\Keil\V2M-MPS2_CMx_BSP\1.7.1\Device\CMSDK_CM0\Include" -I"D:\Program
    
    
    system.o
    
    Component: ARM Compiler 5.06 update 6 (build 750) Tool: armlink [4d35ed]
    armlink --partial --no_add_relocs_to_undefined --no_generate_mapping_symbols --diag_suppress=9931,9931,6642 --cpu=Cortex-M0 --fpu=SoftVFP --output=.\objects\system.o --vfemode=force

    Input Comments:
    
    p6aa8-3
    
    Component: ARM Compiler 5.06 update 6 (build 750) Tool: armasm [4d35ec]
    armasm --debug --diag_suppress=9931,9931,1602,1073 --cpu=Cortex-M0 --fpu=SoftVFP --apcs=/interwork/interwork --no_divide 
    system.o
    
    Component: ARM Compiler 5.06 update 6 (build 750) Tool: ArmCC [4d3637]
    ArmCC --c99 --split_sections --debug -c --gnu -o.\objects\system.o --depend=.\objects\system.d --cpu=Cortex-M0 --apcs=interwork -O0 --diag_suppress=9931 -I..\CORE -I..\DEVICE -I..\USER -I..\MY_GAME -I.\RTE\_Target_1 -I"D:\Program Files\Keil_V5\Arm\Packs\Keil\V2M-MPS2_CMx_BSP\1.7.1\Device\CMSDK_CM0\Include" -I"D:\Program Files\Keil_V5\ARM\CMSIS\Include" -D__MICROLIB -D__UVISION_VERSION=528 -DCMSDK_CM0 --omf_browse=.\objects\system.crf ..\CORE\system.c
    
    
    
    
    
    camera.o
    
    Component: ARM Compiler 5.06 update 6 (build 750) Tool: ArmCC [4d3637]
    ArmCC --c99 --split_sections --debug -c --gnu -o.\objects\camera.o --depend=.\objects\camera.d --cpu=Cortex-M0 --apcs=interwork -O0 --diag_suppress=9931 -I..\CORE -I..\DEVICE -I..\USER -I..\MY_GAME -I.\RTE\_Target_1 -I"D:\Program Files\Keil_V5\Arm\Packs\Keil\V2M-MPS2_CMx_BSP\1.7.1\Device\CMSDK_CM0\Include" -I"D:\Program Files\Keil_V5\ARM\CMSIS\Include" -D__MICROLIB -D__UVISION_VERSION=528 -DCMSDK_CM0 --omf_browse=.\objects\camera.crf ..\DEVICE\camera.c
    
    key.o
    
    Component: ARM Compiler 5.06 update 6 (build 750) Tool: ArmCC [4d3637]
    ArmCC --c99 --split_sections --debug -c --gnu -o.\objects\key.o --depend=.\objects\key.d --cpu=Cortex-M0 --apcs=interwork -O0 --diag_suppress=9931 -I..\CORE -I..\DEVICE -I..\USER -I..\MY_GAME -I.\RTE\_Target_1 -I"D:\Program Files\Keil_V5\Arm\Packs\Keil\V2M-MPS2_CMx_BSP\1.7.1\Device\CMSDK_CM0\Include" -I"D:\Program Files\Keil_V5\ARM\CMSIS\Include" -D__MICROLIB -D__UVISION_VERSION=528 -DCMSDK_CM0 --omf_browse=.\objects\key.crf ..\DEVICE\key.c
    
    lcd.o
    
    Component: ARM Compiler 5.06 update 6 (build 750) Tool: ArmCC [4d3637]
    ArmCC --c99 --split_sections --debug -c --gnu -o.\objects\lcd.o --depend=.\objects\lcd.d --cpu=Cortex-M0 --apcs=interwork -O0 --diag_suppress=9931 -I..\CORE -I..\DEVICE -I..\USER -I..\MY_GAME -I.\RTE\_Target_1 -I"D:\Program Files\Keil_V5\Arm\Packs\Keil\V2M-MPS2_CMx_BSP\1.7.1\Device\CMSDK_CM0\Include" -I"D:\Program Files\Keil_V5\ARM\CMSIS\Include" -D__MICROLIB -D__UVISION_VERSION=528 -DCMSDK_CM0 --omf_browse=.\objects\lcd.crf ..\DEVICE\lcd.c
    
    led.o
    
    Component: ARM Compiler 5.06 update 6 (build 750) Tool: ArmCC [4d3637]
    ArmCC --c99 --split_sections --debug -c --gnu -o.\objects\led.o --depend=.\objects\led.d --cpu=Cortex-M0 --apcs=interwork -O0 --diag_suppress=9931 -I..\CORE -I..\DEVICE -I..\USER -I..\MY_GAME -I.\RTE\_Target_1 -I"D:\Program Files\Keil_V5\Arm\Packs\Keil\V2M-MPS2_CMx_BSP\1.7.1\Device\CMSDK_CM0\Include" -I"D:\Program Files\Keil_V5\ARM\CMSIS\Include" -D__MICROLIB -D__UVISION_VERSION=528 -DCMSDK_CM0 --omf_browse=.\objects\led.crf ..\DEVICE\led.c
    
    retarget.o
    
    Component: ARM Compiler 5.06 update 6 (build 750) Tool: ArmCC [4d3637]
    ArmCC --c99 --split_sections --debug -c --gnu -o.\objects\retarget.o --depend=.\objects\retarget.d --cpu=Cortex-M0 --apcs=interwork -O0 --diag_suppress=9931 -I..\CORE -I..\DEVICE -I..\USER -I..\MY_GAME -I.\RTE\_Target_1 -I"D:\Program Files\Keil_V5\Arm\Packs\Keil\V2M-MPS2_CMx_BSP\1.7.1\Device\CMSDK_CM0\Include" -I"D:\Program Files\Keil_V5\ARM\CMSIS\Include" -D__MICROLIB -D__UVISION_VERSION=528 -DCMSDK_CM0 --omf_browse=.\objects\retarget.crf ..\DEVICE\Retarget.c
    
    spi_flash.o
    
    Component: ARM Compiler 5.06 update 6 (build 750) Tool: ArmCC [4d3637]
    ArmCC --c99 --split_sections --debug -c --gnu -o.\objects\spi_flash.o --depend=.\objects\spi_flash.d --cpu=Cortex-M0 --apcs=interwork -O0 --diag_suppress=9931 -I..\CORE -I..\DEVICE -I..\USER -I..\MY_GAME -I.\RTE\_Target_1 -I"D:\Program Files\Keil_V5\Arm\Packs\Keil\V2M-MPS2_CMx_BSP\1.7.1\Device\CMSDK_CM0\Include" -I"D:\Program Files\Keil_V5\ARM\CMSIS\Include" -D__MICROLIB -D__UVISION_VERSION=528 -DCMSDK_CM0 --omf_browse=.\objects\spi_flash.crf ..\DEVICE\spi_flash.c
    
    systick.o
    
    Component: ARM Compiler 5.06 update 6 (build 750) Tool: armlink [4d35ed]
    armlink --partial --no_add_relocs_to_undefined --no_generate_mapping_symbols --diag_suppress=9931,9931,6642 --cpu=Cortex-M0 --fpu=SoftVFP --output=.\objects\systick.o --vfemode=force

    Input Comments:
    
    p7398-3
    
    Component: ARM Compiler 5.06 update 6 (build 750) Tool: armasm [4d35ec]
    armasm --debug --diag_suppress=9931,9931,1602,1073 --cpu=Cortex-M0 --fpu=SoftVFP --apcs=/interwork/interwork --no_divide 
    systick.o
    
    Component: ARM Compiler 5.06 update 6 (build 750) Tool: ArmCC [4d3637]
    ArmCC --c99 --split_sections --debug -c --gnu -o.\objects\systick.o --depend=.\objects\systick.d --cpu=Cortex-M0 --apcs=interwork -O0 --diag_suppress=9931 -I..\CORE -I..\DEVICE -I..\USER -I..\MY_GAME -I.\RTE\_Target_1 -I"D:\Program Files\Keil_V5\Arm\Packs\Keil\V2M-MPS2_CMx_BSP\1.7.1\Device\CMSDK_CM0\Include" -I"D:\Program Files\Keil_V5\ARM\CMSIS\Include" -D__MICROLIB -D__UVISION_VERSION=528 -DCMSDK_CM0 --omf_browse=.\objects\systick.crf ..\DEVICE\systick.c
    
    
    
    
    
    timer.o
    
    Component: ARM Compiler 5.06 update 6 (build 750) Tool: ArmCC [4d3637]
    ArmCC --c99 --split_sections --debug -c --gnu -o.\objects\timer.o --depend=.\objects\timer.d --cpu=Cortex-M0 --apcs=interwork -O0 --diag_suppress=9931 -I..\CORE -I..\DEVICE -I..\USER -I..\MY_GAME -I.\RTE\_Target_1 -I"D:\Program Files\Keil_V5\Arm\Packs\Keil\V2M-MPS2_CMx_BSP\1.7.1\Device\CMSDK_CM0\Include" -I"D:\Program Files\Keil_V5\ARM\CMSIS\Include" -D__MICROLIB -D__UVISION_VERSION=528 -DCMSDK_CM0 --omf_browse=.\objects\timer.crf ..\DEVICE\timer.c
    
    uart.o
    
    Component: ARM Compiler 5.06 update 6 (build 750) Tool: ArmCC [4d3637]
    ArmCC --c99 --split_sections --debug -c --gnu -o.\objects\uart.o --depend=.\objects\uart.d --cpu=Cortex-M0 --apcs=interwork -O0 --diag_suppress=9931 -I..\CORE -I..\DEVICE -I..\USER -I..\MY_GAME -I.\RTE\_Target_1 -I"D:\Program Files\Keil_V5\Arm\Packs\Keil\V2M-MPS2_CMx_BSP\1.7.1\Device\CMSDK_CM0\Include" -I"D:\Program Files\Keil_V5\ARM\CMSIS\Include" -D__MICROLIB -D__UVISION_VERSION=528 -DCMSDK_CM0 --omf_browse=.\objects\uart.crf ..\DEVICE\uart.c
    
    malloc.o
    
    Component: ARM Compiler 5.06 update 6 (build 750) Tool: ArmCC [4d3637]
    ArmCC --c99 --split_sections --debug -c --gnu -o.\objects\malloc.o --depend=.\objects\malloc.d --cpu=Cortex-M0 --apcs=interwork -O0 --diag_suppress=9931 -I..\CORE -I..\DEVICE -I..\USER -I..\MY_GAME -I.\RTE\_Target_1 -I"D:\Program Files\Keil_V5\Arm\Packs\Keil\V2M-MPS2_CMx_BSP\1.7.1\Device\CMSDK_CM0\Include" -I"D:\Program Files\Keil_V5\ARM\CMSIS\Include" -D__MICROLIB -D__UVISION_VERSION=528 -DCMSDK_CM0 --omf_browse=.\objects\malloc.crf ..\DEVICE\malloc.c
    
    spriteram.o
    
    Component: ARM Compiler 5.06 update 6 (build 750) Tool: ArmCC [4d3637]
    ArmCC --c99 --split_sections --debug -c --gnu -o.\objects\spriteram.o --depend=.\objects\spriteram.d --cpu=Cortex-M0 --apcs=interwork -O0 --diag_suppress=9931 -I..\CORE -I..\DEVICE -I..\USER -I..\MY_GAME -I.\RTE\_Target_1 -I"D:\Program Files\Keil_V5\Arm\Packs\Keil\V2M-MPS2_CMx_BSP\1.7.1\Device\CMSDK_CM0\Include" -I"D:\Program Files\Keil_V5\ARM\CMSIS\Include" -D__MICROLIB -D__UVISION_VERSION=528 -DCMSDK_CM0 --omf_browse=.\objects\spriteram.crf ..\DEVICE\spriteRam.c
    
    pstwo.o
    
    Component: ARM Compiler 5.06 update 6 (build 750) Tool: ArmCC [4d3637]
    ArmCC --c99 --split_sections --debug -c --gnu -o.\objects\pstwo.o --depend=.\objects\pstwo.d --cpu=Cortex-M0 --apcs=interwork -O0 --diag_suppress=9931 -I..\CORE -I..\DEVICE -I..\USER -I..\MY_GAME -I.\RTE\_Target_1 -I"D:\Program Files\Keil_V5\Arm\Packs\Keil\V2M-MPS2_CMx_BSP\1.7.1\Device\CMSDK_CM0\Include" -I"D:\Program Files\Keil_V5\ARM\CMSIS\Include" -D__MICROLIB -D__UVISION_VERSION=528 -DCMSDK_CM0 --omf_browse=.\objects\pstwo.crf ..\DEVICE\pstwo.c
    
    makeenemyplanearray.o
    
    Component: ARM Compiler 5.06 update 6 (build 750) Tool: ArmCC [4d3637]
    ArmCC --c99 --split_sections --debug -c --gnu -o.\objects\makeenemyplanearray.o --depend=.\objects\makeenemyplanearray.d --cpu=Cortex-M0 --apcs=interwork -O0 --diag_suppress=9931 -I..\CORE -I..\DEVICE -I..\USER -I..\MY_GAME -I.\RTE\_Target_1 -I"D:\Program Files\Keil_V5\Arm\Packs\Keil\V2M-MPS2_CMx_BSP\1.7.1\Device\CMSDK_CM0\Include" -I"D:\Program Files\Keil_V5\ARM\CMSIS\Include" -D__MICROLIB -D__UVISION_VERSION=528 -DCMSDK_CM0 --omf_browse=.\objects\makeenemyplanearray.crf ..\MY_GAME\makeEnemyPlaneArray.c
    
    boom.o
    
    Component: ARM Compiler 5.06 update 6 (build 750) Tool: ArmCC [4d3637]
    ArmCC --c99 --split_sections --debug -c --gnu -o.\objects\boom.o --depend=.\objects\boom.d --cpu=Cortex-M0 --apcs=interwork -O0 --diag_suppress=9931 -I..\CORE -I..\DEVICE -I..\USER -I..\MY_GAME -I.\RTE\_Target_1 -I"D:\Program Files\Keil_V5\Arm\Packs\Keil\V2M-MPS2_CMx_BSP\1.7.1\Device\CMSDK_CM0\Include" -I"D:\Program Files\Keil_V5\ARM\CMSIS\Include" -D__MICROLIB -D__UVISION_VERSION=528 -DCMSDK_CM0 --omf_browse=.\objects\boom.crf ..\MY_GAME\boom.c
    
    enemybullet.o
    
    Component: ARM Compiler 5.06 update 6 (build 750) Tool: ArmCC [4d3637]
    ArmCC --c99 --split_sections --debug -c --gnu -o.\objects\enemybullet.o --depend=.\objects\enemybullet.d --cpu=Cortex-M0 --apcs=interwork -O0 --diag_suppress=9931 -I..\CORE -I..\DEVICE -I..\USER -I..\MY_GAME -I.\RTE\_Target_1 -I"D:\Program Files\Keil_V5\Arm\Packs\Keil\V2M-MPS2_CMx_BSP\1.7.1\Device\CMSDK_CM0\Include" -I"D:\Program Files\Keil_V5\ARM\CMSIS\Include" -D__MICROLIB -D__UVISION_VERSION=528 -DCMSDK_CM0 --omf_browse=.\objects\enemybullet.crf ..\MY_GAME\enemyBullet.c
    
    enemyplane.o
    
    Component: ARM Compiler 5.06 update 6 (build 750) Tool: ArmCC [4d3637]
    ArmCC --c99 --split_sections --debug -c --gnu -o.\objects\enemyplane.o --depend=.\objects\enemyplane.d --cpu=Cortex-M0 --apcs=interwork -O0 --diag_suppress=9931 -I..\CORE -I..\DEVICE -I..\USER -I..\MY_GAME -I.\RTE\_Target_1 -I"D:\Program Files\Keil_V5\Arm\Packs\Keil\V2M-MPS2_CMx_BSP\1.7.1\Device\CMSDK_CM0\Include" -I"D:\Program Files\Keil_V5\ARM\CMSIS\Include" -D__MICROLIB -D__UVISION_VERSION=528 -DCMSDK_CM0 --omf_browse=.\objects\enemyplane.crf ..\MY_GAME\enemyPlane.c
    
    gamehitcheck.o
    
    Component: ARM Compiler 5.06 update 6 (build 750) Tool: ArmCC [4d3637]
    ArmCC --c99 --split_sections --debug -c --gnu -o.\objects\gamehitcheck.o --depend=.\objects\gamehitcheck.d --cpu=Cortex-M0 --apcs=interwork -O0 --diag_suppress=9931 -I..\CORE -I..\DEVICE -I..\USER -I..\MY_GAME -I.\RTE\_Target_1 -I"D:\Program Files\Keil_V5\Arm\Packs\Keil\V2M-MPS2_CMx_BSP\1.7.1\Device\CMSDK_CM0\Include" -I"D:\Program Files\Keil_V5\ARM\CMSIS\Include" -D__MICROLIB -D__UVISION_VERSION=528 -DCMSDK_CM0 --omf_browse=.\objects\gamehitcheck.crf ..\MY_GAME\gameHitCheck.c
    
    gameinterface.o
    
    Component: ARM Compiler 5.06 update 6 (build 750) Tool: ArmCC [4d3637]
    ArmCC --c99 --split_sections --debug -c --gnu -o.\objects\gameinterface.o --depend=.\objects\gameinterface.d --cpu=Cortex-M0 --apcs=interwork -O0 --diag_suppress=9931 -I..\CORE -I..\DEVICE -I..\USER -I..\MY_GAME -I.\RTE\_Target_1 -I"D:\Program Files\Keil_V5\Arm\Packs\Keil\V2M-MPS2_CMx_BSP\1.7.1\Device\CMSDK_CM0\Include" -I"D:\Program Files\Keil_V5\ARM\CMSIS\Include" -D__MICROLIB -D__UVISION_VERSION=528 -DCMSDK_CM0 --omf_browse=.\objects\gameinterface.crf ..\MY_GAME\gameInterFace.c
    
    myplane.o
    
    Component: ARM Compiler 5.06 update 6 (build 750) Tool: ArmCC [4d3637]
    ArmCC --c99 --split_sections --debug -c --gnu -o.\objects\myplane.o --depend=.\objects\myplane.d --cpu=Cortex-M0 --apcs=interwork -O0 --diag_suppress=9931 -I..\CORE -I..\DEVICE -I..\USER -I..\MY_GAME -I.\RTE\_Target_1 -I"D:\Program Files\Keil_V5\Arm\Packs\Keil\V2M-MPS2_CMx_BSP\1.7.1\Device\CMSDK_CM0\Include" -I"D:\Program Files\Keil_V5\ARM\CMSIS\Include" -D__MICROLIB -D__UVISION_VERSION=528 -DCMSDK_CM0 --omf_browse=.\objects\myplane.crf ..\MY_GAME\myPlane.c
    
    makemap.o
    
    Component: ARM Compiler 5.06 update 6 (build 750) Tool: ArmCC [4d3637]
    ArmCC --c99 --split_sections --debug -c --gnu -o.\objects\makemap.o --depend=.\objects\makemap.d --cpu=Cortex-M0 --apcs=interwork -O0 --diag_suppress=9931 -I..\CORE -I..\DEVICE -I..\USER -I..\MY_GAME -I.\RTE\_Target_1 -I"D:\Program Files\Keil_V5\Arm\Packs\Keil\V2M-MPS2_CMx_BSP\1.7.1\Device\CMSDK_CM0\Include" -I"D:\Program Files\Keil_V5\ARM\CMSIS\Include" -D__MICROLIB -D__UVISION_VERSION=528 -DCMSDK_CM0 --omf_browse=.\objects\makemap.crf ..\MY_GAME\makeMap.c
    
    
    

====================================

** Section #15

    Name        : .shstrtab
    Type        : SHT_STRTAB (0x00000003)
    Flags       : None (0x00000000)
    Addr        : 0x00000000
    File Offset : 160812 (0x2742c)
    Size        : 156 bytes (0x9c)
    Link        : SHN_UNDEF
    Info        : 0
    Alignment   : 1
    Entry Size  : 0


====================================

