
========================================================================

** ELF Header Information

    File Name: .\Objects\cm3.axf

    Machine class: ELFCLASS32 (32-bit)
    Data encoding: ELFDATA2LSB (Little endian)
    Header version: EV_CURRENT (Current version)
    Operating System ABI: none
    ABI Version: 0
    File Type: ET_EXEC (Executable) (2)
    Machine: EM_ARM (ARM)

    Image Entry point: 0x00000079
    Flags: EF_ARM_HASENTRY + EF_ARM_ABI_FLOAT_SOFT (0x05000202)

    ARM ELF revision: 5 (ABI version 2)

    Conforms to Soft float procedure-call standard

    Built with
    Component: ARM Compiler 5.06 update 6 (build 750) Tool: armasm [4d35ec]
    Component: ARM Compiler 5.06 update 6 (build 750) Tool: armlink [4d35ed]

    Header size: 52 bytes (0x34)
    Program header entry size: 32 bytes (0x20)
    Section header entry size: 40 bytes (0x28)

    Program header entries: 1
    Section header entries: 16

    Program header offset: 210864 (0x000337b0)
    Section header offset: 210896 (0x000337d0)

    Section header string table index: 15

========================================================================

** Program header #0

    Type          : PT_LOAD (1)
    File Offset   : 52 (0x34)
    Virtual Addr  : 0x00000000
    Physical Addr : 0x00000000
    Size in file  : 23028 bytes (0x59f4)
    Size in memory: 33568 bytes (0x8320)
    Flags         : PF_X + PF_W + PF_R + PF_ARM_ENTRY (0x80000007)
    Alignment     : 8


========================================================================

** Section #1

    Name        : ER_IROM1
    Type        : SHT_PROGBITS (0x00000001)
    Flags       : SHF_ALLOC + SHF_EXECINSTR (0x00000006)
    Addr        : 0x00000000
    File Offset : 52 (0x34)
    Size        : 19184 bytes (0x4af0)
    Link        : SHN_UNDEF
    Info        : 0
    Alignment   : 4
    Entry Size  : 0

    $d.realdata
    RESET
    __Vectors
        0x00000000:    20003830    08.     DCD    536885296
        0x00000004:    0000008d    ....    DCD    141
        0x00000008:    00000099    ....    DCD    153
        0x0000000c:    000000a1    ....    DCD    161
        0x00000010:    000000a9    ....    DCD    169
        0x00000014:    000000b1    ....    DCD    177
        0x00000018:    000000b9    ....    DCD    185
        0x0000001c:    00000000    ....    DCD    0
        0x00000020:    00000000    ....    DCD    0
        0x00000024:    00000000    ....    DCD    0
        0x00000028:    00000000    ....    DCD    0
        0x0000002c:    000000c1    ....    DCD    193
        0x00000030:    000000c9    ....    DCD    201
        0x00000034:    00000000    ....    DCD    0
        0x00000038:    000000d1    ....    DCD    209
        0x0000003c:    000000d9    ....    DCD    217
        0x00000040:    000000e1    ....    DCD    225
        0x00000044:    000000e9    ....    DCD    233
        0x00000048:    000000f1    ....    DCD    241
        0x0000004c:    000000f9    ....    DCD    249
        0x00000050:    00000101    ....    DCD    257
        0x00000054:    00000109    ....    DCD    265
        0x00000058:    00000111    ....    DCD    273
        0x0000005c:    00000119    ....    DCD    281
        0x00000060:    00000121    !...    DCD    289
        0x00000064:    00000129    )...    DCD    297
        0x00000068:    00000131    1...    DCD    305
        0x0000006c:    00000139    9...    DCD    313
        0x00000070:    00000141    A...    DCD    321
        0x00000074:    00000149    I...    DCD    329
    $t
    .ARM.Collect$$$$00000000
    .ARM.Collect$$$$00000001
    __Vectors_End
    __main
    _main_stk
        0x00000078:    f8dfd00c    ....    LDR      sp,__lit__00000000 ; [0x88] = 0x20003830
    .ARM.Collect$$$$00000004
    _main_scatterload
        0x0000007c:    f000f9d0    ....    BL       __scatterload ; 0x420
    .ARM.Collect$$$$00000008
    .ARM.Collect$$$$0000000A
    .ARM.Collect$$$$0000000B
    __main_after_scatterload
    _main_clock
    _main_cpp_init
    _main_init
        0x00000080:    4800        .H      LDR      r0,[pc,#0] ; [0x84] = 0x1e1d
        0x00000082:    4700        .G      BX       r0
    $d
        0x00000084:    00001e1d    ....    DCD    7709
    .ARM.Collect$$$$00002712
    __lit__00000000
    .ARM.Collect$$$$0000000D
    .ARM.Collect$$$$0000000F
    __rt_final_cpp
    __rt_final_exit
        0x00000088:    20003830    08.     DCD    536885296
    $t
    .text
    Reset_Handler
        0x0000008c:    4680        .F      MOV      r8,r0
        0x0000008e:    46c1        .F      MOV      r9,r8
        0x00000090:    482f        /H      LDR      r0,[pc,#188] ; [0x150] = 0x8f9
        0x00000092:    4780        .G      BLX      r0
        0x00000094:    482f        /H      LDR      r0,[pc,#188] ; [0x154] = 0x79
        0x00000096:    4700        .G      BX       r0
    NMI_Handler
        0x00000098:    b500        ..      PUSH     {lr}
        0x0000009a:    f000fa76    ..v.    BL       NMIHandler ; 0x58a
        0x0000009e:    bd00        ..      POP      {pc}
    HardFault_Handler
        0x000000a0:    b500        ..      PUSH     {lr}
        0x000000a2:    f000fa1f    ....    BL       HardFaultHandler ; 0x4e4
        0x000000a6:    bd00        ..      POP      {pc}
    MemManage_Handler
        0x000000a8:    b500        ..      PUSH     {lr}
        0x000000aa:    f000fa6d    ..m.    BL       MemManageHandler ; 0x588
        0x000000ae:    bd00        ..      POP      {pc}
    BusFault_Handler
        0x000000b0:    b500        ..      PUSH     {lr}
        0x000000b2:    f000fa15    ....    BL       BusFaultHandler ; 0x4e0
        0x000000b6:    bd00        ..      POP      {pc}
    UsageFault_Handler
        0x000000b8:    b500        ..      PUSH     {lr}
        0x000000ba:    f000fc41    ..A.    BL       UsageFaultHandler ; 0x940
        0x000000be:    bd00        ..      POP      {pc}
    SVC_Handler
        0x000000c0:    b500        ..      PUSH     {lr}
        0x000000c2:    f000fbff    ....    BL       SVCHandler ; 0x8c4
        0x000000c6:    bd00        ..      POP      {pc}
    DebugMon_Handler
        0x000000c8:    b500        ..      PUSH     {lr}
        0x000000ca:    f000fa0a    ....    BL       DebugMonHandler ; 0x4e2
        0x000000ce:    bd00        ..      POP      {pc}
    PendSV_Handler
        0x000000d0:    b500        ..      PUSH     {lr}
        0x000000d2:    f000fb21    ..!.    BL       PendSVHandler ; 0x718
        0x000000d6:    bd00        ..      POP      {pc}
    SysTick_Handler
        0x000000d8:    b500        ..      PUSH     {lr}
        0x000000da:    f000fc01    ....    BL       SysTickHandler ; 0x8e0
        0x000000de:    bd00        ..      POP      {pc}
    UARTRX_Handler
        0x000000e0:    b500        ..      PUSH     {lr}
        0x000000e2:    f000fc2b    ..+.    BL       UARTRXHandler ; 0x93c
        0x000000e6:    bd00        ..      POP      {pc}
    UARTTX_Handler
        0x000000e8:    b500        ..      PUSH     {lr}
        0x000000ea:    f000fc28    ..(.    BL       UARTTXHandler ; 0x93e
        0x000000ee:    bd00        ..      POP      {pc}
    UARTOVR_Handler
        0x000000f0:    b500        ..      PUSH     {lr}
        0x000000f2:    f000fc22    ..".    BL       UARTOVRHandler ; 0x93a
        0x000000f6:    bd00        ..      POP      {pc}
    KEY0_Handler
        0x000000f8:    b507        ..      PUSH     {r0-r2,lr}
        0x000000fa:    f000f9f9    ....    BL       KEY0 ; 0x4f0
        0x000000fe:    bd07        ..      POP      {r0-r2,pc}
    KEY1_Handler
        0x00000100:    b507        ..      PUSH     {r0-r2,lr}
        0x00000102:    f000fa19    ....    BL       KEY1 ; 0x538
        0x00000106:    bd07        ..      POP      {r0-r2,pc}
    KEY2_Handler
        0x00000108:    b507        ..      PUSH     {r0-r2,lr}
        0x0000010a:    f000fa16    ....    BL       KEY2 ; 0x53a
        0x0000010e:    bd07        ..      POP      {r0-r2,pc}
    KEY3_Handler
        0x00000110:    b507        ..      PUSH     {r0-r2,lr}
        0x00000112:    f000fa13    ....    BL       KEY3 ; 0x53c
        0x00000116:    bd07        ..      POP      {r0-r2,pc}
    TIMER_Handler
        0x00000118:    b507        ..      PUSH     {r0-r2,lr}
        0x0000011a:    f000fc0d    ....    BL       Timer_Handler ; 0x938
        0x0000011e:    bd07        ..      POP      {r0-r2,pc}
    VGA_Handler
        0x00000120:    b507        ..      PUSH     {r0-r2,lr}
        0x00000122:    f004fc4f    ..O.    BL       vga_Handler ; 0x49c4
        0x00000126:    bd07        ..      POP      {r0-r2,pc}
    CREATE_PLANE_Handler
        0x00000128:    b507        ..      PUSH     {r0-r2,lr}
        0x0000012a:    f000ffe3    ....    BL       create_plane_Handler ; 0x10f4
        0x0000012e:    bd07        ..      POP      {r0-r2,pc}
    PULSE0_Handler
        0x00000130:    b507        ..      PUSH     {r0-r2,lr}
        0x00000132:    f003fa75    ..u.    BL       pulse0_Handler ; 0x3620
        0x00000136:    bd07        ..      POP      {r0-r2,pc}
    PULSE1_Handler
        0x00000138:    b507        ..      PUSH     {r0-r2,lr}
        0x0000013a:    f003fb23    ..#.    BL       pulse1_Handler ; 0x3784
        0x0000013e:    bd07        ..      POP      {r0-r2,pc}
    TRIANGLE_Handler
        0x00000140:    b507        ..      PUSH     {r0-r2,lr}
        0x00000142:    f004fbdb    ....    BL       triangle_Handler ; 0x48fc
        0x00000146:    bd07        ..      POP      {r0-r2,pc}
    NOISE_Handler
        0x00000148:    b507        ..      PUSH     {r0-r2,lr}
        0x0000014a:    f003fa67    ..g.    BL       noise_Handler ; 0x361c
        0x0000014e:    bd07        ..      POP      {r0-r2,pc}
    $d
        0x00000150:    000008f9    ....    DCD    2297
        0x00000154:    00000079    y...    DCD    121
    $t
    .text
    rand
        0x00000158:    4906        .I      LDR      r1,[pc,#24] ; [0x174] = 0x20002b34
        0x0000015a:    4a07        .J      LDR      r2,[pc,#28] ; [0x178] = 0x41c64e6d
        0x0000015c:    6808        .h      LDR      r0,[r1,#0]
        0x0000015e:    4350        PC      MULS     r0,r2,r0
        0x00000160:    f2430239    C.9.    MOV      r2,#0x3039
        0x00000164:    4410        .D      ADD      r0,r0,r2
        0x00000166:    6008        .`      STR      r0,[r1,#0]
        0x00000168:    0840        @.      LSRS     r0,r0,#1
        0x0000016a:    4770        pG      BX       lr
    srand
        0x0000016c:    4901        .I      LDR      r1,[pc,#4] ; [0x174] = 0x20002b34
        0x0000016e:    6008        .`      STR      r0,[r1,#0]
        0x00000170:    4770        pG      BX       lr
    $d
        0x00000172:    0000        ..      DCW    0
        0x00000174:    20002b34    4+.     DCD    536881972
        0x00000178:    41c64e6d    mN.A    DCD    1103515245
    $t
    .text
    __aeabi_fadd
        0x0000017c:    b4f0        ..      PUSH     {r4-r7}
        0x0000017e:    ea800201    ....    EOR      r2,r0,r1
        0x00000182:    0fd4        ..      LSRS     r4,r2,#31
        0x00000184:    0042        B.      LSLS     r2,r0,#1
        0x00000186:    ebb20f41    ..A.    CMP      r2,r1,LSL #1
        0x0000018a:    d202        ..      BCS      0x192 ; __aeabi_fadd + 22
        0x0000018c:    4602        .F      MOV      r2,r0
        0x0000018e:    4608        .F      MOV      r0,r1
        0x00000190:    4611        .F      MOV      r1,r2
        0x00000192:    004a        J.      LSLS     r2,r1,#1
        0x00000194:    d042        B.      BEQ      0x21c ; __aeabi_fadd + 160
        0x00000196:    0dc3        ..      LSRS     r3,r0,#23
        0x00000198:    b2dd        ..      UXTB     r5,r3
        0x0000019a:    f3c152c7    ...R    UBFX     r2,r1,#23,#8
        0x0000019e:    1aad        ..      SUBS     r5,r5,r2
        0x000001a0:    2d20         -      CMP      r5,#0x20
        0x000001a2:    da35        5.      BGE      0x210 ; __aeabi_fadd + 148
        0x000001a4:    f3c10116    ....    UBFX     r1,r1,#0,#23
        0x000001a8:    f4410200    A...    ORR      r2,r1,#0x800000
        0x000001ac:    b104        ..      CBZ      r4,0x1b0 ; __aeabi_fadd + 52
        0x000001ae:    4252        RB      RSBS     r2,r2,#0
        0x000001b0:    f1c50620    .. .    RSB      r6,r5,#0x20
        0x000001b4:    fa02f106    ....    LSL      r1,r2,r6
        0x000001b8:    412a        *A      ASRS     r2,r2,r5
        0x000001ba:    4410        .D      ADD      r0,r0,r2
        0x000001bc:    ebb35fd0    ..._    CMP      r3,r0,LSR #23
        0x000001c0:    d023        #.      BEQ      0x20a ; __aeabi_fadd + 142
        0x000001c2:    b1c4        ..      CBZ      r4,0x1f6 ; __aeabi_fadd + 122
        0x000001c4:    2d01        .-      CMP      r5,#1
        0x000001c6:    eba050c3    ...P    SUB      r0,r0,r3,LSL #23
        0x000001ca:    dc09        ..      BGT      0x1e0 ; __aeabi_fadd + 100
        0x000001cc:    bcf0        ..      POP      {r4-r7}
        0x000001ce:    f04f4200    O..B    MOV      r2,#0x80000000
        0x000001d2:    ea0252c3    ...R    AND      r2,r2,r3,LSL #23
        0x000001d6:    b2db        ..      UXTB     r3,r3
        0x000001d8:    f5000000    ....    ADD      r0,r0,#0x800000
        0x000001dc:    f000b8f2    ....    B.W      _float_epilogue ; 0x3c4
        0x000001e0:    0040        @.      LSLS     r0,r0,#1
        0x000001e2:    f1007080    ...p    ADD      r0,r0,#0x1000000
        0x000001e6:    eb0050c3    ...P    ADD      r0,r0,r3,LSL #23
        0x000001ea:    f1a07080    ...p    SUB      r0,r0,#0x1000000
        0x000001ee:    ea4070d1    @..p    ORR      r0,r0,r1,LSR #31
        0x000001f2:    0049        I.      LSLS     r1,r1,#1
        0x000001f4:    e009        ..      B        0x20a ; __aeabi_fadd + 142
        0x000001f6:    0849        I.      LSRS     r1,r1,#1
        0x000001f8:    ea4171c0    A..q    ORR      r1,r1,r0,LSL #31
        0x000001fc:    eba050c3    ...P    SUB      r0,r0,r3,LSL #23
        0x00000200:    f5000000    ....    ADD      r0,r0,#0x800000
        0x00000204:    0840        @.      LSRS     r0,r0,#1
        0x00000206:    eb0050c3    ...P    ADD      r0,r0,r3,LSL #23
        0x0000020a:    bcf0        ..      POP      {r4-r7}
        0x0000020c:    f000b8d1    ....    B.W      __I$use$fp ; 0x3b2
        0x00000210:    4261        aB      RSBS     r1,r4,#0
        0x00000212:    2201        ."      MOVS     r2,#1
        0x00000214:    eb020141    ..A.    ADD      r1,r2,r1,LSL #1
        0x00000218:    1b00        ..      SUBS     r0,r0,r4
        0x0000021a:    e7f6        ..      B        0x20a ; __aeabi_fadd + 142
        0x0000021c:    bcf0        ..      POP      {r4-r7}
        0x0000021e:    4770        pG      BX       lr
    __aeabi_fsub
        0x00000220:    f0814100    ...A    EOR      r1,r1,#0x80000000
        0x00000224:    e7aa        ..      B        __aeabi_fadd ; 0x17c
    __aeabi_frsub
        0x00000226:    f0804000    ...@    EOR      r0,r0,#0x80000000
        0x0000022a:    e7a7        ..      B        __aeabi_fadd ; 0x17c
    .text
    __aeabi_fmul
        0x0000022c:    ea800201    ....    EOR      r2,r0,r1
        0x00000230:    b510        ..      PUSH     {r4,lr}
        0x00000232:    f0024300    ...C    AND      r3,r2,#0x80000000
        0x00000236:    0040        @.      LSLS     r0,r0,#1
        0x00000238:    d022        ".      BEQ      0x280 ; __aeabi_fmul + 84
        0x0000023a:    004a        J.      LSLS     r2,r1,#1
        0x0000023c:    d01f        ..      BEQ      0x27e ; __aeabi_fmul + 82
        0x0000023e:    0e01        ..      LSRS     r1,r0,#24
        0x00000240:    eb016112    ...a    ADD      r1,r1,r2,LSR #24
        0x00000244:    f3c00056    ..V.    UBFX     r0,r0,#1,#23
        0x00000248:    f3c20256    ..V.    UBFX     r2,r2,#1,#23
        0x0000024c:    f4400000    @...    ORR      r0,r0,#0x800000
        0x00000250:    f4420200    B...    ORR      r2,r2,#0x800000
        0x00000254:    fba02002    ...     UMULL    r2,r0,r0,r2
        0x00000258:    0400        ..      LSLS     r0,r0,#16
        0x0000025a:    397f        .9      SUBS     r1,r1,#0x7f
        0x0000025c:    0414        ..      LSLS     r4,r2,#16
        0x0000025e:    d000        ..      BEQ      0x262 ; __aeabi_fmul + 54
        0x00000260:    1c40        @.      ADDS     r0,r0,#1
        0x00000262:    ea504012    P..@    ORRS     r0,r0,r2,LSR #16
        0x00000266:    d401        ..      BMI      0x26c ; __aeabi_fmul + 64
        0x00000268:    0040        @.      LSLS     r0,r0,#1
        0x0000026a:    1e49        I.      SUBS     r1,r1,#1
        0x0000026c:    b2c2        ..      UXTB     r2,r0
        0x0000026e:    060c        ..      LSLS     r4,r1,#24
        0x00000270:    eb0410d0    ....    ADD      r0,r4,r0,LSR #7
        0x00000274:    1c40        @.      ADDS     r0,r0,#1
        0x00000276:    0840        @.      LSRS     r0,r0,#1
        0x00000278:    2a80        .*      CMP      r2,#0x80
        0x0000027a:    d002        ..      BEQ      0x282 ; __aeabi_fmul + 86
        0x0000027c:    e003        ..      B        0x286 ; __aeabi_fmul + 90
        0x0000027e:    2000        .       MOVS     r0,#0
        0x00000280:    bd10        ..      POP      {r4,pc}
        0x00000282:    f0200001     ...    BIC      r0,r0,#1
        0x00000286:    2900        .)      CMP      r1,#0
        0x00000288:    da00        ..      BGE      0x28c ; __aeabi_fmul + 96
        0x0000028a:    2000        .       MOVS     r0,#0
        0x0000028c:    4318        .C      ORRS     r0,r0,r3
        0x0000028e:    bd10        ..      POP      {r4,pc}
    .text
    __aeabi_fdiv
        0x00000290:    b430        0.      PUSH     {r4,r5}
        0x00000292:    ea800201    ....    EOR      r2,r0,r1
        0x00000296:    f0024500    ...E    AND      r5,r2,#0x80000000
        0x0000029a:    f0304200    0..B    BICS     r2,r0,#0x80000000
        0x0000029e:    f0214000    !..@    BIC      r0,r1,#0x80000000
        0x000002a2:    d013        ..      BEQ      0x2cc ; __aeabi_fdiv + 60
        0x000002a4:    b190        ..      CBZ      r0,0x2cc ; __aeabi_fdiv + 60
        0x000002a6:    0dc3        ..      LSRS     r3,r0,#23
        0x000002a8:    0dd4        ..      LSRS     r4,r2,#23
        0x000002aa:    f3c20116    ....    UBFX     r1,r2,#0,#23
        0x000002ae:    f3c00016    ....    UBFX     r0,r0,#0,#23
        0x000002b2:    1ae4        ..      SUBS     r4,r4,r3
        0x000002b4:    f4410100    A...    ORR      r1,r1,#0x800000
        0x000002b8:    f4400200    @...    ORR      r2,r0,#0x800000
        0x000002bc:    347d        }4      ADDS     r4,r4,#0x7d
        0x000002be:    4291        .B      CMP      r1,r2
        0x000002c0:    d301        ..      BCC      0x2c6 ; __aeabi_fdiv + 54
        0x000002c2:    1c64        d.      ADDS     r4,r4,#1
        0x000002c4:    e000        ..      B        0x2c8 ; __aeabi_fdiv + 56
        0x000002c6:    0049        I.      LSLS     r1,r1,#1
        0x000002c8:    2c00        .,      CMP      r4,#0
        0x000002ca:    da02        ..      BGE      0x2d2 ; __aeabi_fdiv + 66
        0x000002cc:    bc30        0.      POP      {r4,r5}
        0x000002ce:    2000        .       MOVS     r0,#0
        0x000002d0:    4770        pG      BX       lr
        0x000002d2:    f44f0000    O...    MOV      r0,#0x800000
        0x000002d6:    2300        .#      MOVS     r3,#0
        0x000002d8:    4291        .B      CMP      r1,r2
        0x000002da:    d301        ..      BCC      0x2e0 ; __aeabi_fdiv + 80
        0x000002dc:    1a89        ..      SUBS     r1,r1,r2
        0x000002de:    4303        .C      ORRS     r3,r3,r0
        0x000002e0:    0840        @.      LSRS     r0,r0,#1
        0x000002e2:    ea4f0141    O.A.    LSL      r1,r1,#1
        0x000002e6:    d1f7        ..      BNE      0x2d8 ; __aeabi_fdiv + 72
        0x000002e8:    b151        Q.      CBZ      r1,0x300 ; __aeabi_fdiv + 112
        0x000002ea:    4291        .B      CMP      r1,r2
        0x000002ec:    d102        ..      BNE      0x2f4 ; __aeabi_fdiv + 100
        0x000002ee:    f04f4100    O..A    MOV      r1,#0x80000000
        0x000002f2:    e005        ..      B        0x300 ; __aeabi_fdiv + 112
        0x000002f4:    d202        ..      BCS      0x2fc ; __aeabi_fdiv + 108
        0x000002f6:    f04f0101    O...    MOV      r1,#1
        0x000002fa:    e001        ..      B        0x300 ; __aeabi_fdiv + 112
        0x000002fc:    f06f0101    o...    MVN      r1,#1
        0x00000300:    eb0350c4    ...P    ADD      r0,r3,r4,LSL #23
        0x00000304:    4428        (D      ADD      r0,r0,r5
        0x00000306:    bc30        0.      POP      {r4,r5}
        0x00000308:    f000b853    ..S.    B.W      __I$use$fp ; 0x3b2
    .text
    __aeabi_i2f
        0x0000030c:    0fc1        ..      LSRS     r1,r0,#31
        0x0000030e:    ea8070e0    ...p    EOR      r0,r0,r0,ASR #31
        0x00000312:    4408        .D      ADD      r0,r0,r1
        0x00000314:    07ca        ..      LSLS     r2,r1,#31
        0x00000316:    2396        .#      MOVS     r3,#0x96
        0x00000318:    2100        .!      MOVS     r1,#0
        0x0000031a:    f000b853    ..S.    B.W      _float_epilogue ; 0x3c4
    .text
    __aeabi_ui2f
        0x0000031e:    2396        .#      MOVS     r3,#0x96
        0x00000320:    2200        ."      MOVS     r2,#0
        0x00000322:    4611        .F      MOV      r1,r2
        0x00000324:    f000b84e    ..N.    B.W      _float_epilogue ; 0x3c4
    .text
    __aeabi_f2uiz
        0x00000328:    f0204000     ..@    BIC      r0,r0,#0x80000000
        0x0000032c:    0dc1        ..      LSRS     r1,r0,#23
        0x0000032e:    f3c00016    ....    UBFX     r0,r0,#0,#23
        0x00000332:    f4400000    @...    ORR      r0,r0,#0x800000
        0x00000336:    297f        .)      CMP      r1,#0x7f
        0x00000338:    da01        ..      BGE      0x33e ; __aeabi_f2uiz + 22
        0x0000033a:    2000        .       MOVS     r0,#0
        0x0000033c:    4770        pG      BX       lr
        0x0000033e:    2996        .)      CMP      r1,#0x96
        0x00000340:    dc03        ..      BGT      0x34a ; __aeabi_f2uiz + 34
        0x00000342:    f1c10196    ....    RSB      r1,r1,#0x96
        0x00000346:    40c8        .@      LSRS     r0,r0,r1
        0x00000348:    4770        pG      BX       lr
        0x0000034a:    3996        .9      SUBS     r1,r1,#0x96
        0x0000034c:    4088        .@      LSLS     r0,r0,r1
        0x0000034e:    4770        pG      BX       lr
    .text
    __aeabi_uldivmod
        0x00000350:    e92d5ff0    -.._    PUSH     {r4-r12,lr}
        0x00000354:    4605        .F      MOV      r5,r0
        0x00000356:    2000        .       MOVS     r0,#0
        0x00000358:    4692        .F      MOV      r10,r2
        0x0000035a:    469b        .F      MOV      r11,r3
        0x0000035c:    4688        .F      MOV      r8,r1
        0x0000035e:    4606        .F      MOV      r6,r0
        0x00000360:    4681        .F      MOV      r9,r0
        0x00000362:    2440        @$      MOVS     r4,#0x40
        0x00000364:    e01b        ..      B        0x39e ; __aeabi_uldivmod + 78
        0x00000366:    4628        (F      MOV      r0,r5
        0x00000368:    4641        AF      MOV      r1,r8
        0x0000036a:    4647        GF      MOV      r7,r8
        0x0000036c:    4622        "F      MOV      r2,r4
        0x0000036e:    f000f878    ..x.    BL       __aeabi_llsr ; 0x462
        0x00000372:    4653        SF      MOV      r3,r10
        0x00000374:    465a        ZF      MOV      r2,r11
        0x00000376:    1ac0        ..      SUBS     r0,r0,r3
        0x00000378:    4191        .A      SBCS     r1,r1,r2
        0x0000037a:    d310        ..      BCC      0x39e ; __aeabi_uldivmod + 78
        0x0000037c:    4611        .F      MOV      r1,r2
        0x0000037e:    4618        .F      MOV      r0,r3
        0x00000380:    4622        "F      MOV      r2,r4
        0x00000382:    f000f85f    .._.    BL       __aeabi_llsl ; 0x444
        0x00000386:    1a2d        -.      SUBS     r5,r5,r0
        0x00000388:    eb670801    g...    SBC      r8,r7,r1
        0x0000038c:    464f        OF      MOV      r7,r9
        0x0000038e:    4622        "F      MOV      r2,r4
        0x00000390:    2001        .       MOVS     r0,#1
        0x00000392:    2100        .!      MOVS     r1,#0
        0x00000394:    f000f856    ..V.    BL       __aeabi_llsl ; 0x444
        0x00000398:    eb170900    ....    ADDS     r9,r7,r0
        0x0000039c:    414e        NA      ADCS     r6,r6,r1
        0x0000039e:    1e20         .      SUBS     r0,r4,#0
        0x000003a0:    f1a40401    ....    SUB      r4,r4,#1
        0x000003a4:    dcdf        ..      BGT      0x366 ; __aeabi_uldivmod + 22
        0x000003a6:    4648        HF      MOV      r0,r9
        0x000003a8:    4631        1F      MOV      r1,r6
        0x000003aa:    462a        *F      MOV      r2,r5
        0x000003ac:    4643        CF      MOV      r3,r8
        0x000003ae:    e8bd9ff0    ....    POP      {r4-r12,pc}
    .text
    .text
    __I$use$fp
    _float_round
        0x000003b2:    2900        .)      CMP      r1,#0
        0x000003b4:    bfa8        ..      IT       GE
        0x000003b6:    4770        pG      BXGE     lr
        0x000003b8:    1c40        @.      ADDS     r0,r0,#1
        0x000003ba:    0049        I.      LSLS     r1,r1,#1
        0x000003bc:    bf08        ..      IT       EQ
        0x000003be:    f0200001     ...    BICEQ    r0,r0,#1
        0x000003c2:    4770        pG      BX       lr
    _float_epilogue
        0x000003c4:    b410        ..      PUSH     {r4}
        0x000003c6:    fab0fc80    ....    CLZ      r12,r0
        0x000003ca:    fa00f00c    ....    LSL      r0,r0,r12
        0x000003ce:    ea500401    P...    ORRS     r4,r0,r1
        0x000003d2:    bf04        ..      ITT      EQ
        0x000003d4:    bc10        ..      POPEQ    {r4}
        0x000003d6:    4770        pG      BXEQ     lr
        0x000003d8:    b149        I.      CBZ      r1,0x3ee ; _float_epilogue + 42
        0x000003da:    f1cc0420    .. .    RSB      r4,r12,#0x20
        0x000003de:    fa21f404    !...    LSR      r4,r1,r4
        0x000003e2:    fa11f10c    ....    LSLS     r1,r1,r12
        0x000003e6:    bf18        ..      IT       NE
        0x000003e8:    2101        .!      MOVNE    r1,#1
        0x000003ea:    4321        !C      ORRS     r1,r1,r4
        0x000003ec:    4308        .C      ORRS     r0,r0,r1
        0x000003ee:    eba3010c    ....    SUB      r1,r3,r12
        0x000003f2:    1dcb        ..      ADDS     r3,r1,#7
        0x000003f4:    ea4f6100    O..a    LSL      r1,r0,#24
        0x000003f8:    ea4f2010    O..     LSR      r0,r0,#8
        0x000003fc:    bf42        B.      ITTT     MI
        0x000003fe:    2000        .       MOVMI    r0,#0
        0x00000400:    bc10        ..      POPMI    {r4}
        0x00000402:    4770        pG      BXMI     lr
        0x00000404:    eb0050c3    ...P    ADD      r0,r0,r3,LSL #23
        0x00000408:    4410        .D      ADD      r0,r0,r2
        0x0000040a:    2900        .)      CMP      r1,#0
        0x0000040c:    bfa4        ..      ITT      GE
        0x0000040e:    bc10        ..      POPGE    {r4}
        0x00000410:    4770        pG      BXGE     lr
        0x00000412:    1c40        @.      ADDS     r0,r0,#1
        0x00000414:    0049        I.      LSLS     r1,r1,#1
        0x00000416:    bf08        ..      IT       EQ
        0x00000418:    f0200001     ...    BICEQ    r0,r0,#1
        0x0000041c:    bc10        ..      POP      {r4}
        0x0000041e:    4770        pG      BX       lr
    .text
    __scatterload
    __scatterload_rt2
        0x00000420:    4c06        .L      LDR      r4,[pc,#24] ; [0x43c] = 0x4ad0
        0x00000422:    4d07        .M      LDR      r5,[pc,#28] ; [0x440] = 0x4af0
        0x00000424:    e006        ..      B        0x434 ; __scatterload + 20
        0x00000426:    68e0        .h      LDR      r0,[r4,#0xc]
        0x00000428:    f0400301    @...    ORR      r3,r0,#1
        0x0000042c:    e8940007    ....    LDM      r4,{r0-r2}
        0x00000430:    4798        .G      BLX      r3
        0x00000432:    3410        .4      ADDS     r4,r4,#0x10
        0x00000434:    42ac        .B      CMP      r4,r5
        0x00000436:    d3f6        ..      BCC      0x426 ; __scatterload + 6
        0x00000438:    f7fffe22    ..".    BL       __main_after_scatterload ; 0x80
    $d
        0x0000043c:    00004ad0    .J..    DCD    19152
        0x00000440:    00004af0    .J..    DCD    19184
    $t
    .text
    __aeabi_llsl
    _ll_shift_l
        0x00000444:    2a20         *      CMP      r2,#0x20
        0x00000446:    db04        ..      BLT      0x452 ; __aeabi_llsl + 14
        0x00000448:    3a20         :      SUBS     r2,r2,#0x20
        0x0000044a:    fa00f102    ....    LSL      r1,r0,r2
        0x0000044e:    2000        .       MOVS     r0,#0
        0x00000450:    4770        pG      BX       lr
        0x00000452:    4091        .@      LSLS     r1,r1,r2
        0x00000454:    f1c20320    .. .    RSB      r3,r2,#0x20
        0x00000458:    fa20f303     ...    LSR      r3,r0,r3
        0x0000045c:    4319        .C      ORRS     r1,r1,r3
        0x0000045e:    4090        .@      LSLS     r0,r0,r2
        0x00000460:    4770        pG      BX       lr
    .text
    __aeabi_llsr
    _ll_ushift_r
        0x00000462:    2a20         *      CMP      r2,#0x20
        0x00000464:    db04        ..      BLT      0x470 ; __aeabi_llsr + 14
        0x00000466:    3a20         :      SUBS     r2,r2,#0x20
        0x00000468:    fa21f002    !...    LSR      r0,r1,r2
        0x0000046c:    2100        .!      MOVS     r1,#0
        0x0000046e:    4770        pG      BX       lr
        0x00000470:    fa21f302    !...    LSR      r3,r1,r2
        0x00000474:    40d0        .@      LSRS     r0,r0,r2
        0x00000476:    f1c20220    .. .    RSB      r2,r2,#0x20
        0x0000047a:    4091        .@      LSLS     r1,r1,r2
        0x0000047c:    4308        .C      ORRS     r0,r0,r1
        0x0000047e:    4619        .F      MOV      r1,r3
        0x00000480:    4770        pG      BX       lr
    .text
    __decompress
    __decompress2
        0x00000482:    b570        p.      PUSH     {r4-r6,lr}
        0x00000484:    188d        ..      ADDS     r5,r1,r2
        0x00000486:    f8104b01    ...K    LDRB     r4,[r0],#1
        0x0000048a:    f0140203    ....    ANDS     r2,r4,#3
        0x0000048e:    d101        ..      BNE      0x494 ; __decompress + 18
        0x00000490:    f8102b01    ...+    LDRB     r2,[r0],#1
        0x00000494:    1123        #.      ASRS     r3,r4,#4
        0x00000496:    d106        ..      BNE      0x4a6 ; __decompress + 36
        0x00000498:    f8103b01    ...;    LDRB     r3,[r0],#1
        0x0000049c:    e003        ..      B        0x4a6 ; __decompress + 36
        0x0000049e:    f8106b01    ...k    LDRB     r6,[r0],#1
        0x000004a2:    f8016b01    ...k    STRB     r6,[r1],#1
        0x000004a6:    1e52        R.      SUBS     r2,r2,#1
        0x000004a8:    d1f9        ..      BNE      0x49e ; __decompress + 28
        0x000004aa:    b1ab        ..      CBZ      r3,0x4d8 ; __decompress + 86
        0x000004ac:    f8102b01    ...+    LDRB     r2,[r0],#1
        0x000004b0:    f004040c    ....    AND      r4,r4,#0xc
        0x000004b4:    1a8a        ..      SUBS     r2,r1,r2
        0x000004b6:    2c0c        .,      CMP      r4,#0xc
        0x000004b8:    d003        ..      BEQ      0x4c2 ; __decompress + 64
        0x000004ba:    eba21284    ....    SUB      r2,r2,r4,LSL #6
        0x000004be:    1c9b        ..      ADDS     r3,r3,#2
        0x000004c0:    e008        ..      B        0x4d4 ; __decompress + 82
        0x000004c2:    f8104b01    ...K    LDRB     r4,[r0],#1
        0x000004c6:    eba22204    ..."    SUB      r2,r2,r4,LSL #8
        0x000004ca:    e7f8        ..      B        0x4be ; __decompress + 60
        0x000004cc:    f8124b01    ...K    LDRB     r4,[r2],#1
        0x000004d0:    f8014b01    ...K    STRB     r4,[r1],#1
        0x000004d4:    1e5b        [.      SUBS     r3,r3,#1
        0x000004d6:    d5f9        ..      BPL      0x4cc ; __decompress + 74
        0x000004d8:    42a9        .B      CMP      r1,r5
        0x000004da:    d3d4        ..      BCC      0x486 ; __decompress + 4
        0x000004dc:    2000        .       MOVS     r0,#0
        0x000004de:    bd70        p.      POP      {r4-r6,pc}
    i.BusFaultHandler
    BusFaultHandler
        0x000004e0:    4770        pG      BX       lr
    i.DebugMonHandler
    DebugMonHandler
        0x000004e2:    4770        pG      BX       lr
    i.HardFaultHandler
    HardFaultHandler
        0x000004e4:    4770        pG      BX       lr
    i.Is_SPI_Ready
    Is_SPI_Ready
        0x000004e6:    f04f2040    O.@     MOV      r0,#0x40004000
        0x000004ea:    6940        @i      LDR      r0,[r0,#0x14]
        0x000004ec:    b2c0        ..      UXTB     r0,r0
        0x000004ee:    4770        pG      BX       lr
    i.KEY0
    KEY0
        0x000004f0:    b570        p.      PUSH     {r4-r6,lr}
        0x000004f2:    a00d        ..      ADR      r0,{pc}+0x36 ; 0x528
        0x000004f4:    f000fa26    ..&.    BL       __0printf$5 ; 0x944
        0x000004f8:    480e        .H      LDR      r0,[pc,#56] ; [0x534] = 0x20000054
        0x000004fa:    2100        .!      MOVS     r1,#0
        0x000004fc:    2201        ."      MOVS     r2,#1
        0x000004fe:    7805        .x      LDRB     r5,[r0,#0]
        0x00000500:    0293        ..      LSLS     r3,r2,#10
        0x00000502:    f04f24e0    O..$    MOV      r4,#0xe000e000
        0x00000506:    b13d        =.      CBZ      r5,0x518 ; KEY0 + 40
        0x00000508:    f8c43100    ...1    STR      r3,[r4,#0x100]
        0x0000050c:    7001        .p      STRB     r1,[r0,#0]
        0x0000050e:    e8bd4070    ..p@    POP      {r4-r6,lr}
        0x00000512:    2000        .       MOVS     r0,#0
        0x00000514:    f000b81e    ....    B.W      LED_on ; 0x554
        0x00000518:    f8c43180    ...1    STR      r3,[r4,#0x180]
        0x0000051c:    7002        .p      STRB     r2,[r0,#0]
        0x0000051e:    e8bd4070    ..p@    POP      {r4-r6,lr}
        0x00000522:    2000        .       MOVS     r0,#0
        0x00000524:    f000b80c    ....    B.W      LED_down ; 0x540
    $d
        0x00000528:    72746e69    intr    DCD    1920233065
        0x0000052c:    0a212121    !!!.    DCD    169943329
        0x00000530:    00000000    ....    DCD    0
        0x00000534:    20000054    T..     DCD    536870996
    $t
    i.KEY1
    KEY1
        0x00000538:    4770        pG      BX       lr
    i.KEY2
    KEY2
        0x0000053a:    4770        pG      BX       lr
    i.KEY3
    KEY3
        0x0000053c:    4770        pG      BX       lr
        0x0000053e:    0000        ..      MOVS     r0,r0
    i.LED_down
    LED_down
        0x00000540:    4a03        .J      LDR      r2,[pc,#12] ; [0x550] = 0x40001000
        0x00000542:    6811        .h      LDR      r1,[r2,#0]
        0x00000544:    2301        .#      MOVS     r3,#1
        0x00000546:    4083        .@      LSLS     r3,r3,r0
        0x00000548:    4399        .C      BICS     r1,r1,r3
        0x0000054a:    6011        .`      STR      r1,[r2,#0]
        0x0000054c:    4770        pG      BX       lr
    $d
        0x0000054e:    0000        ..      DCW    0
        0x00000550:    40001000    ...@    DCD    1073745920
    $t
    i.LED_on
    LED_on
        0x00000554:    4a03        .J      LDR      r2,[pc,#12] ; [0x564] = 0x40001000
        0x00000556:    6811        .h      LDR      r1,[r2,#0]
        0x00000558:    2301        .#      MOVS     r3,#1
        0x0000055a:    4083        .@      LSLS     r3,r3,r0
        0x0000055c:    430b        .C      ORRS     r3,r3,r1
        0x0000055e:    6013        .`      STR      r3,[r2,#0]
        0x00000560:    4770        pG      BX       lr
    $d
        0x00000562:    0000        ..      DCW    0
        0x00000564:    40001000    ...@    DCD    1073745920
    $t
    i.LED_toggle
    LED_toggle
        0x00000568:    4b06        .K      LDR      r3,[pc,#24] ; [0x584] = 0x40001000
        0x0000056a:    6819        .h      LDR      r1,[r3,#0]
        0x0000056c:    2201        ."      MOVS     r2,#1
        0x0000056e:    4082        .@      LSLS     r2,r2,r0
        0x00000570:    ea020001    ....    AND      r0,r2,r1
        0x00000574:    2800        .(      CMP      r0,#0
        0x00000576:    d002        ..      BEQ      0x57e ; LED_toggle + 22
        0x00000578:    4391        .C      BICS     r1,r1,r2
        0x0000057a:    6019        .`      STR      r1,[r3,#0]
        0x0000057c:    4770        pG      BX       lr
        0x0000057e:    430a        .C      ORRS     r2,r2,r1
        0x00000580:    601a        .`      STR      r2,[r3,#0]
        0x00000582:    4770        pG      BX       lr
    $d
        0x00000584:    40001000    ...@    DCD    1073745920
    $t
    i.MemManageHandler
    MemManageHandler
        0x00000588:    4770        pG      BX       lr
    i.NMIHandler
    NMIHandler
        0x0000058a:    4770        pG      BX       lr
    i.NVIC_EnableIRQ
    NVIC_EnableIRQ
        0x0000058c:    f000021f    ....    AND      r2,r0,#0x1f
        0x00000590:    2101        .!      MOVS     r1,#1
        0x00000592:    4091        .@      LSLS     r1,r1,r2
        0x00000594:    0940        @.      LSRS     r0,r0,#5
        0x00000596:    0080        ..      LSLS     r0,r0,#2
        0x00000598:    f10020e0    ...     ADD      r0,r0,#0xe000e000
        0x0000059c:    f8c01100    ....    STR      r1,[r0,#0x100]
        0x000005a0:    4770        pG      BX       lr
        0x000005a2:    0000        ..      MOVS     r0,r0
    i.PS2_ClearData
    PS2_ClearData
        0x000005a4:    2000        .       MOVS     r0,#0
        0x000005a6:    4a04        .J      LDR      r2,[pc,#16] ; [0x5b8] = 0x20003024
        0x000005a8:    2100        .!      MOVS     r1,#0
        0x000005aa:    5411        .T      STRB     r1,[r2,r0]
        0x000005ac:    1c40        @.      ADDS     r0,r0,#1
        0x000005ae:    b2c0        ..      UXTB     r0,r0
        0x000005b0:    2809        .(      CMP      r0,#9
        0x000005b2:    d3fa        ..      BCC      0x5aa ; PS2_ClearData + 6
        0x000005b4:    4770        pG      BX       lr
    $d
        0x000005b6:    0000        ..      DCW    0
        0x000005b8:    20003024    $0.     DCD    536883236
    $t
    i.PS2_Cmd
    PS2_Cmd
        0x000005bc:    e92d43f8    -..C    PUSH     {r3-r9,lr}
        0x000005c0:    4680        .F      MOV      r8,r0
        0x000005c2:    2601        .&      MOVS     r6,#1
        0x000005c4:    9600        ..      STR      r6,[sp,#0]
        0x000005c6:    4d17        .M      LDR      r5,[pc,#92] ; [0x624] = 0x20003024
        0x000005c8:    2700        .'      MOVS     r7,#0
        0x000005ca:    706f        op      STRB     r7,[r5,#1]
        0x000005cc:    9600        ..      STR      r6,[sp,#0]
        0x000005ce:    4c16        .L      LDR      r4,[pc,#88] ; [0x628] = 0x40005000
        0x000005d0:    e01f        ..      B        0x612 ; PS2_Cmd + 86
        0x000005d2:    f8bd0000    ....    LDRH     r0,[sp,#0]
        0x000005d6:    ea100f08    ....    TST      r0,r8
        0x000005da:    d001        ..      BEQ      0x5e0 ; PS2_Cmd + 36
        0x000005dc:    60a6        .`      STR      r6,[r4,#8]
        0x000005de:    e000        ..      B        0x5e2 ; PS2_Cmd + 38
        0x000005e0:    60a7        .`      STR      r7,[r4,#8]
        0x000005e2:    6066        f`      STR      r6,[r4,#4]
        0x000005e4:    2005        .       MOVS     r0,#5
        0x000005e6:    f000fe2b    ..+.    BL       delay_us ; 0x1240
        0x000005ea:    6067        g`      STR      r7,[r4,#4]
        0x000005ec:    2005        .       MOVS     r0,#5
        0x000005ee:    f000fe27    ..'.    BL       delay_us ; 0x1240
        0x000005f2:    6066        f`      STR      r6,[r4,#4]
        0x000005f4:    f003f8c8    ....    BL       readPs2DI ; 0x3788
        0x000005f8:    b120         .      CBZ      r0,0x604 ; PS2_Cmd + 72
        0x000005fa:    7869        ix      LDRB     r1,[r5,#1]
        0x000005fc:    f8bd0000    ....    LDRH     r0,[sp,#0]
        0x00000600:    4301        .C      ORRS     r1,r1,r0
        0x00000602:    7069        ip      STRB     r1,[r5,#1]
        0x00000604:    f8bd0000    ....    LDRH     r0,[sp,#0]
        0x00000608:    f64f71ff    O..q    MOV      r1,#0xffff
        0x0000060c:    ea010040    ..@.    AND      r0,r1,r0,LSL #1
        0x00000610:    9000        ..      STR      r0,[sp,#0]
        0x00000612:    f8bd0000    ....    LDRH     r0,[sp,#0]
        0x00000616:    28ff        .(      CMP      r0,#0xff
        0x00000618:    d9db        ..      BLS      0x5d2 ; PS2_Cmd + 22
        0x0000061a:    e8bd43f8    ...C    POP      {r3-r9,lr}
        0x0000061e:    2010        .       MOVS     r0,#0x10
        0x00000620:    f000be0e    ....    B.W      delay_us ; 0x1240
    $d
        0x00000624:    20003024    $0.     DCD    536883236
        0x00000628:    40005000    .P.@    DCD    1073762304
    $t
    i.PS2_DataKey
    PS2_DataKey
        0x0000062c:    b570        p.      PUSH     {r4-r6,lr}
        0x0000062e:    f7ffffb9    ....    BL       PS2_ClearData ; 0x5a4
        0x00000632:    f000f827    ..'.    BL       PS2_ReadData ; 0x684
        0x00000636:    480d        .H      LDR      r0,[pc,#52] ; [0x66c] = 0x20003024
        0x00000638:    78c1        .x      LDRB     r1,[r0,#3]
        0x0000063a:    7900        .y      LDRB     r0,[r0,#4]
        0x0000063c:    ea412100    A..!    ORR      r1,r1,r0,LSL #8
        0x00000640:    480b        .H      LDR      r0,[pc,#44] ; [0x670] = 0x20000a50
        0x00000642:    8041        A.      STRH     r1,[r0,#2]
        0x00000644:    2000        .       MOVS     r0,#0
        0x00000646:    4b0a        .K      LDR      r3,[pc,#40] ; [0x670] = 0x20000a50
        0x00000648:    1d1b        ..      ADDS     r3,r3,#4
        0x0000064a:    2501        .%      MOVS     r5,#1
        0x0000064c:    f8134010    ...@    LDRB     r4,[r3,r0,LSL #1]
        0x00000650:    1e64        d.      SUBS     r4,r4,#1
        0x00000652:    fa05f204    ....    LSL      r2,r5,r4
        0x00000656:    420a        .B      TST      r2,r1
        0x00000658:    d102        ..      BNE      0x660 ; PS2_DataKey + 52
        0x0000065a:    1c40        @.      ADDS     r0,r0,#1
        0x0000065c:    b2c0        ..      UXTB     r0,r0
        0x0000065e:    bd70        p.      POP      {r4-r6,pc}
        0x00000660:    1c40        @.      ADDS     r0,r0,#1
        0x00000662:    b2c0        ..      UXTB     r0,r0
        0x00000664:    2810        .(      CMP      r0,#0x10
        0x00000666:    d3f1        ..      BCC      0x64c ; PS2_DataKey + 32
        0x00000668:    2000        .       MOVS     r0,#0
        0x0000066a:    bd70        p.      POP      {r4-r6,pc}
    $d
        0x0000066c:    20003024    $0.     DCD    536883236
        0x00000670:    20000a50    P..     DCD    536873552
    $t
    i.PS2_Init
    PS2_Init
        0x00000674:    4802        .H      LDR      r0,[pc,#8] ; [0x680] = 0x40005000
        0x00000676:    2100        .!      MOVS     r1,#0
        0x00000678:    6001        .`      STR      r1,[r0,#0]
        0x0000067a:    6041        A`      STR      r1,[r0,#4]
        0x0000067c:    6081        .`      STR      r1,[r0,#8]
        0x0000067e:    4770        pG      BX       lr
    $d
        0x00000680:    40005000    .P.@    DCD    1073762304
    $t
    i.PS2_ReadData
    PS2_ReadData
        0x00000684:    e92d41fc    -..A    PUSH     {r2-r8,lr}
        0x00000688:    2700        .'      MOVS     r7,#0
        0x0000068a:    9701        ..      STR      r7,[sp,#4]
        0x0000068c:    2601        .&      MOVS     r6,#1
        0x0000068e:    9600        ..      STR      r6,[sp,#0]
        0x00000690:    4c1e        .L      LDR      r4,[pc,#120] ; [0x70c] = 0x40005000
        0x00000692:    6027        '`      STR      r7,[r4,#0]
        0x00000694:    4d1e        .M      LDR      r5,[pc,#120] ; [0x710] = 0x20000a50
        0x00000696:    7828        (x      LDRB     r0,[r5,#0]
        0x00000698:    f7ffff90    ....    BL       PS2_Cmd ; 0x5bc
        0x0000069c:    7868        hx      LDRB     r0,[r5,#1]
        0x0000069e:    f7ffff8d    ....    BL       PS2_Cmd ; 0x5bc
        0x000006a2:    2002        .       MOVS     r0,#2
        0x000006a4:    9001        ..      STR      r0,[sp,#4]
        0x000006a6:    e029        ).      B        0x6fc ; PS2_ReadData + 120
        0x000006a8:    9600        ..      STR      r6,[sp,#0]
        0x000006aa:    4d1a        .M      LDR      r5,[pc,#104] ; [0x714] = 0x20003024
        0x000006ac:    f64f78ff    O..x    MOV      r8,#0xffff
        0x000006b0:    e019        ..      B        0x6e6 ; PS2_ReadData + 98
        0x000006b2:    6066        f`      STR      r6,[r4,#4]
        0x000006b4:    2005        .       MOVS     r0,#5
        0x000006b6:    f000fdc3    ....    BL       delay_us ; 0x1240
        0x000006ba:    6067        g`      STR      r7,[r4,#4]
        0x000006bc:    2005        .       MOVS     r0,#5
        0x000006be:    f000fdbf    ....    BL       delay_us ; 0x1240
        0x000006c2:    6066        f`      STR      r6,[r4,#4]
        0x000006c4:    f003f860    ..`.    BL       readPs2DI ; 0x3788
        0x000006c8:    b140        @.      CBZ      r0,0x6dc ; PS2_ReadData + 88
        0x000006ca:    f89d0004    ....    LDRB     r0,[sp,#4]
        0x000006ce:    f8bd1000    ....    LDRH     r1,[sp,#0]
        0x000006d2:    5c28        (\      LDRB     r0,[r5,r0]
        0x000006d4:    4308        .C      ORRS     r0,r0,r1
        0x000006d6:    f89d1004    ....    LDRB     r1,[sp,#4]
        0x000006da:    5468        hT      STRB     r0,[r5,r1]
        0x000006dc:    f8bd0000    ....    LDRH     r0,[sp,#0]
        0x000006e0:    ea080040    ..@.    AND      r0,r8,r0,LSL #1
        0x000006e4:    9000        ..      STR      r0,[sp,#0]
        0x000006e6:    f8bd0000    ....    LDRH     r0,[sp,#0]
        0x000006ea:    28ff        .(      CMP      r0,#0xff
        0x000006ec:    d9e1        ..      BLS      0x6b2 ; PS2_ReadData + 46
        0x000006ee:    2010        .       MOVS     r0,#0x10
        0x000006f0:    f000fda6    ....    BL       delay_us ; 0x1240
        0x000006f4:    f89d0004    ....    LDRB     r0,[sp,#4]
        0x000006f8:    1c40        @.      ADDS     r0,r0,#1
        0x000006fa:    9001        ..      STR      r0,[sp,#4]
        0x000006fc:    f89d0004    ....    LDRB     r0,[sp,#4]
        0x00000700:    2809        .(      CMP      r0,#9
        0x00000702:    d3d1        ..      BCC      0x6a8 ; PS2_ReadData + 36
        0x00000704:    6026        &`      STR      r6,[r4,#0]
        0x00000706:    e8bd81fc    ....    POP      {r2-r8,pc}
    $d
        0x0000070a:    0000        ..      DCW    0
        0x0000070c:    40005000    .P.@    DCD    1073762304
        0x00000710:    20000a50    P..     DCD    536873552
        0x00000714:    20003024    $0.     DCD    536883236
    $t
    i.PendSVHandler
    PendSVHandler
        0x00000718:    4770        pG      BX       lr
    i.SPI_FLASH_Write_Enable
    SPI_FLASH_Write_Enable
        0x0000071a:    b500        ..      PUSH     {lr}
        0x0000071c:    f04f2340    O.@#    MOV      r3,#0x40004000
        0x00000720:    2000        .       MOVS     r0,#0
        0x00000722:    6018        .`      STR      r0,[r3,#0]
        0x00000724:    2006        .       MOVS     r0,#6
        0x00000726:    f000f8a3    ....    BL       SPI_ReadWriteByte ; 0x870
        0x0000072a:    2001        .       MOVS     r0,#1
        0x0000072c:    6018        .`      STR      r0,[r3,#0]
        0x0000072e:    bd00        ..      POP      {pc}
    i.SPI_Flash_Erase_Block
    SPI_Flash_Erase_Block
        0x00000730:    b510        ..      PUSH     {r4,lr}
        0x00000732:    4604        .F      MOV      r4,r0
        0x00000734:    f7fffff1    ....    BL       SPI_FLASH_Write_Enable ; 0x71a
        0x00000738:    f000f867    ..g.    BL       SPI_Flash_Wait_Busy ; 0x80a
        0x0000073c:    f04f2340    O.@#    MOV      r3,#0x40004000
        0x00000740:    2000        .       MOVS     r0,#0
        0x00000742:    6018        .`      STR      r0,[r3,#0]
        0x00000744:    20d8        .       MOVS     r0,#0xd8
        0x00000746:    f000f893    ....    BL       SPI_ReadWriteByte ; 0x870
        0x0000074a:    f3c44007    ...@    UBFX     r0,r4,#16,#8
        0x0000074e:    f000f88f    ....    BL       SPI_ReadWriteByte ; 0x870
        0x00000752:    f3c42007    ...     UBFX     r0,r4,#8,#8
        0x00000756:    f000f88b    ....    BL       SPI_ReadWriteByte ; 0x870
        0x0000075a:    b2e0        ..      UXTB     r0,r4
        0x0000075c:    f000f888    ....    BL       SPI_ReadWriteByte ; 0x870
        0x00000760:    2001        .       MOVS     r0,#1
        0x00000762:    6018        .`      STR      r0,[r3,#0]
        0x00000764:    e8bd4010    ...@    POP      {r4,lr}
        0x00000768:    f000b84f    ..O.    B.W      SPI_Flash_Wait_Busy ; 0x80a
    i.SPI_Flash_Erase_Sector
    SPI_Flash_Erase_Sector
        0x0000076c:    b510        ..      PUSH     {r4,lr}
        0x0000076e:    4604        .F      MOV      r4,r0
        0x00000770:    f7ffffd3    ....    BL       SPI_FLASH_Write_Enable ; 0x71a
        0x00000774:    f000f849    ..I.    BL       SPI_Flash_Wait_Busy ; 0x80a
        0x00000778:    f04f2340    O.@#    MOV      r3,#0x40004000
        0x0000077c:    2000        .       MOVS     r0,#0
        0x0000077e:    6018        .`      STR      r0,[r3,#0]
        0x00000780:    2020                MOVS     r0,#0x20
        0x00000782:    f000f875    ..u.    BL       SPI_ReadWriteByte ; 0x870
        0x00000786:    f3c44007    ...@    UBFX     r0,r4,#16,#8
        0x0000078a:    f000f871    ..q.    BL       SPI_ReadWriteByte ; 0x870
        0x0000078e:    f3c42007    ...     UBFX     r0,r4,#8,#8
        0x00000792:    f000f86d    ..m.    BL       SPI_ReadWriteByte ; 0x870
        0x00000796:    b2e0        ..      UXTB     r0,r4
        0x00000798:    f000f86a    ..j.    BL       SPI_ReadWriteByte ; 0x870
        0x0000079c:    2001        .       MOVS     r0,#1
        0x0000079e:    6018        .`      STR      r0,[r3,#0]
        0x000007a0:    e8bd4010    ...@    POP      {r4,lr}
        0x000007a4:    f000b831    ..1.    B.W      SPI_Flash_Wait_Busy ; 0x80a
    i.SPI_Flash_Read
    SPI_Flash_Read
        0x000007a8:    b570        p.      PUSH     {r4-r6,lr}
        0x000007aa:    4604        .F      MOV      r4,r0
        0x000007ac:    460b        .F      MOV      r3,r1
        0x000007ae:    4615        .F      MOV      r5,r2
        0x000007b0:    f04f2640    O.@&    MOV      r6,#0x40004000
        0x000007b4:    2000        .       MOVS     r0,#0
        0x000007b6:    6030        0`      STR      r0,[r6,#0]
        0x000007b8:    2003        .       MOVS     r0,#3
        0x000007ba:    f000f859    ..Y.    BL       SPI_ReadWriteByte ; 0x870
        0x000007be:    f3c34007    ...@    UBFX     r0,r3,#16,#8
        0x000007c2:    f000f855    ..U.    BL       SPI_ReadWriteByte ; 0x870
        0x000007c6:    f3c32007    ...     UBFX     r0,r3,#8,#8
        0x000007ca:    f000f851    ..Q.    BL       SPI_ReadWriteByte ; 0x870
        0x000007ce:    b2d8        ..      UXTB     r0,r3
        0x000007d0:    f000f84e    ..N.    BL       SPI_ReadWriteByte ; 0x870
        0x000007d4:    2300        .#      MOVS     r3,#0
        0x000007d6:    e005        ..      B        0x7e4 ; SPI_Flash_Read + 60
        0x000007d8:    20ff        .       MOVS     r0,#0xff
        0x000007da:    f000f849    ..I.    BL       SPI_ReadWriteByte ; 0x870
        0x000007de:    54e0        .T      STRB     r0,[r4,r3]
        0x000007e0:    1c5b        [.      ADDS     r3,r3,#1
        0x000007e2:    b29b        ..      UXTH     r3,r3
        0x000007e4:    42ab        .B      CMP      r3,r5
        0x000007e6:    d3f7        ..      BCC      0x7d8 ; SPI_Flash_Read + 48
        0x000007e8:    2001        .       MOVS     r0,#1
        0x000007ea:    6030        0`      STR      r0,[r6,#0]
        0x000007ec:    bd70        p.      POP      {r4-r6,pc}
    i.SPI_Flash_ReadSR
    SPI_Flash_ReadSR
        0x000007ee:    b500        ..      PUSH     {lr}
        0x000007f0:    f04f2340    O.@#    MOV      r3,#0x40004000
        0x000007f4:    2000        .       MOVS     r0,#0
        0x000007f6:    6018        .`      STR      r0,[r3,#0]
        0x000007f8:    2005        .       MOVS     r0,#5
        0x000007fa:    f000f839    ..9.    BL       SPI_ReadWriteByte ; 0x870
        0x000007fe:    20ff        .       MOVS     r0,#0xff
        0x00000800:    f000f836    ..6.    BL       SPI_ReadWriteByte ; 0x870
        0x00000804:    2101        .!      MOVS     r1,#1
        0x00000806:    6019        .`      STR      r1,[r3,#0]
        0x00000808:    bd00        ..      POP      {pc}
    i.SPI_Flash_Wait_Busy
    SPI_Flash_Wait_Busy
        0x0000080a:    b500        ..      PUSH     {lr}
        0x0000080c:    f7ffffef    ....    BL       SPI_Flash_ReadSR ; 0x7ee
        0x00000810:    07c0        ..      LSLS     r0,r0,#31
        0x00000812:    d1fb        ..      BNE      0x80c ; SPI_Flash_Wait_Busy + 2
        0x00000814:    bd00        ..      POP      {pc}
    i.SPI_Flash_Write_Page
    SPI_Flash_Write_Page
        0x00000816:    b5f0        ..      PUSH     {r4-r7,lr}
        0x00000818:    4604        .F      MOV      r4,r0
        0x0000081a:    460f        .F      MOV      r7,r1
        0x0000081c:    4615        .F      MOV      r5,r2
        0x0000081e:    f7ffff7c    ..|.    BL       SPI_FLASH_Write_Enable ; 0x71a
        0x00000822:    f04f2640    O.@&    MOV      r6,#0x40004000
        0x00000826:    2000        .       MOVS     r0,#0
        0x00000828:    6030        0`      STR      r0,[r6,#0]
        0x0000082a:    2002        .       MOVS     r0,#2
        0x0000082c:    f000f820    .. .    BL       SPI_ReadWriteByte ; 0x870
        0x00000830:    f3c74007    ...@    UBFX     r0,r7,#16,#8
        0x00000834:    f000f81c    ....    BL       SPI_ReadWriteByte ; 0x870
        0x00000838:    f3c72007    ...     UBFX     r0,r7,#8,#8
        0x0000083c:    f000f818    ....    BL       SPI_ReadWriteByte ; 0x870
        0x00000840:    b2f8        ..      UXTB     r0,r7
        0x00000842:    f000f815    ....    BL       SPI_ReadWriteByte ; 0x870
        0x00000846:    2300        .#      MOVS     r3,#0
        0x00000848:    e004        ..      B        0x854 ; SPI_Flash_Write_Page + 62
        0x0000084a:    5ce0        .\      LDRB     r0,[r4,r3]
        0x0000084c:    f000f810    ....    BL       SPI_ReadWriteByte ; 0x870
        0x00000850:    1c5b        [.      ADDS     r3,r3,#1
        0x00000852:    b29b        ..      UXTH     r3,r3
        0x00000854:    42ab        .B      CMP      r3,r5
        0x00000856:    d3f8        ..      BCC      0x84a ; SPI_Flash_Write_Page + 52
        0x00000858:    2001        .       MOVS     r0,#1
        0x0000085a:    6030        0`      STR      r0,[r6,#0]
        0x0000085c:    e8bd40f0    ...@    POP      {r4-r7,lr}
        0x00000860:    f7ffbfd3    ....    B.W      SPI_Flash_Wait_Busy ; 0x80a
    i.SPI_Init
    SPI_Init
        0x00000864:    f04f2140    O.@!    MOV      r1,#0x40004000
        0x00000868:    6048        H`      STR      r0,[r1,#4]
        0x0000086a:    2001        .       MOVS     r0,#1
        0x0000086c:    6008        .`      STR      r0,[r1,#0]
        0x0000086e:    4770        pG      BX       lr
    i.SPI_ReadWriteByte
    SPI_ReadWriteByte
        0x00000870:    b500        ..      PUSH     {lr}
        0x00000872:    4602        .F      MOV      r2,r0
        0x00000874:    2100        .!      MOVS     r1,#0
        0x00000876:    e005        ..      B        0x884 ; SPI_ReadWriteByte + 20
        0x00000878:    1c49        I.      ADDS     r1,r1,#1
        0x0000087a:    b2c9        ..      UXTB     r1,r1
        0x0000087c:    29c8        .)      CMP      r1,#0xc8
        0x0000087e:    d901        ..      BLS      0x884 ; SPI_ReadWriteByte + 20
        0x00000880:    2000        .       MOVS     r0,#0
        0x00000882:    bd00        ..      POP      {pc}
        0x00000884:    f7fffe2f    ../.    BL       Is_SPI_Ready ; 0x4e6
        0x00000888:    2800        .(      CMP      r0,#0
        0x0000088a:    d0f5        ..      BEQ      0x878 ; SPI_ReadWriteByte + 8
        0x0000088c:    4610        .F      MOV      r0,r2
        0x0000088e:    f000f811    ....    BL       SPI_SendData ; 0x8b4
        0x00000892:    2100        .!      MOVS     r1,#0
        0x00000894:    e005        ..      B        0x8a2 ; SPI_ReadWriteByte + 50
        0x00000896:    1c49        I.      ADDS     r1,r1,#1
        0x00000898:    b2c9        ..      UXTB     r1,r1
        0x0000089a:    29c8        .)      CMP      r1,#0xc8
        0x0000089c:    d901        ..      BLS      0x8a2 ; SPI_ReadWriteByte + 50
        0x0000089e:    2000        .       MOVS     r0,#0
        0x000008a0:    bd00        ..      POP      {pc}
        0x000008a2:    f7fffe20    .. .    BL       Is_SPI_Ready ; 0x4e6
        0x000008a6:    2800        .(      CMP      r0,#0
        0x000008a8:    d0f5        ..      BEQ      0x896 ; SPI_ReadWriteByte + 38
        0x000008aa:    f04f2040    O.@     MOV      r0,#0x40004000
        0x000008ae:    6900        .i      LDR      r0,[r0,#0x10]
        0x000008b0:    b2c0        ..      UXTB     r0,r0
        0x000008b2:    bd00        ..      POP      {pc}
    i.SPI_SendData
    SPI_SendData
        0x000008b4:    f04f2140    O.@!    MOV      r1,#0x40004000
        0x000008b8:    6088        .`      STR      r0,[r1,#8]
        0x000008ba:    2001        .       MOVS     r0,#1
        0x000008bc:    60c8        .`      STR      r0,[r1,#0xc]
        0x000008be:    2000        .       MOVS     r0,#0
        0x000008c0:    60c8        .`      STR      r0,[r1,#0xc]
        0x000008c2:    4770        pG      BX       lr
    i.SVCHandler
    SVCHandler
        0x000008c4:    4770        pG      BX       lr
    i.Set_SysTick_CTRL
    Set_SysTick_CTRL
        0x000008c6:    f04f21e0    O..!    MOV      r1,#0xe000e000
        0x000008ca:    6108        .a      STR      r0,[r1,#0x10]
        0x000008cc:    4770        pG      BX       lr
    i.Set_SysTick_LOAD
    Set_SysTick_LOAD
        0x000008ce:    f04f21e0    O..!    MOV      r1,#0xe000e000
        0x000008d2:    6148        Ha      STR      r0,[r1,#0x14]
        0x000008d4:    4770        pG      BX       lr
    i.Set_SysTick_VALUE
    Set_SysTick_VALUE
        0x000008d6:    f04f21e0    O..!    MOV      r1,#0xe000e000
        0x000008da:    6188        .a      STR      r0,[r1,#0x18]
        0x000008dc:    4770        pG      BX       lr
        0x000008de:    0000        ..      MOVS     r0,r0
    i.SysTickHandler
    SysTickHandler
        0x000008e0:    b510        ..      PUSH     {r4,lr}
        0x000008e2:    2000        .       MOVS     r0,#0
        0x000008e4:    f7ffffef    ....    BL       Set_SysTick_CTRL ; 0x8c6
        0x000008e8:    4802        .H      LDR      r0,[pc,#8] ; [0x8f4] = 0xe000ed04
        0x000008ea:    6801        .h      LDR      r1,[r0,#0]
        0x000008ec:    f0417100    A..q    ORR      r1,r1,#0x2000000
        0x000008f0:    6001        .`      STR      r1,[r0,#0]
        0x000008f2:    bd10        ..      POP      {r4,pc}
    $d
        0x000008f4:    e000ed04    ....    DCD    3758157060
    $t
    i.SystemInit
    SystemInit
        0x000008f8:    b510        ..      PUSH     {r4,lr}
        0x000008fa:    490d        .I      LDR      r1,[pc,#52] ; [0x930] = 0x20000a48
        0x000008fc:    480b        .H      LDR      r0,[pc,#44] ; [0x92c] = 0x2faf080
        0x000008fe:    6008        .`      STR      r0,[r1,#0]
        0x00000900:    f04f30ff    O..0    MOV      r0,#0xffffffff
        0x00000904:    f7fffe42    ..B.    BL       NVIC_EnableIRQ ; 0x58c
        0x00000908:    490a        .I      LDR      r1,[pc,#40] ; [0x934] = 0xe000e403
        0x0000090a:    2000        .       MOVS     r0,#0
        0x0000090c:    7008        .p      STRB     r0,[r1,#0]
        0x0000090e:    2003        .       MOVS     r0,#3
        0x00000910:    f7fffe3c    ..<.    BL       NVIC_EnableIRQ ; 0x58c
        0x00000914:    2008        .       MOVS     r0,#8
        0x00000916:    f7fffe39    ..9.    BL       NVIC_EnableIRQ ; 0x58c
        0x0000091a:    2009        .       MOVS     r0,#9
        0x0000091c:    f7fffe36    ..6.    BL       NVIC_EnableIRQ ; 0x58c
        0x00000920:    e8bd4010    ...@    POP      {r4,lr}
        0x00000924:    200a        .       MOVS     r0,#0xa
        0x00000926:    f7ffbe31    ..1.    B.W      NVIC_EnableIRQ ; 0x58c
    $d
        0x0000092a:    0000        ..      DCW    0
        0x0000092c:    02faf080    ....    DCD    50000000
        0x00000930:    20000a48    H..     DCD    536873544
        0x00000934:    e000e403    ....    DCD    3758154755
    $t
    i.Timer_Handler
    Timer_Handler
        0x00000938:    4770        pG      BX       lr
    i.UARTOVRHandler
    UARTOVRHandler
        0x0000093a:    4770        pG      BX       lr
    i.UARTRXHandler
    UARTRXHandler
        0x0000093c:    4770        pG      BX       lr
    i.UARTTXHandler
    UARTTXHandler
        0x0000093e:    4770        pG      BX       lr
    i.UsageFaultHandler
    UsageFaultHandler
        0x00000940:    4770        pG      BX       lr
        0x00000942:    0000        ..      MOVS     r0,r0
    i.__0printf$5
    __0printf$5
    __1printf$5
    __2printf
        0x00000944:    b40f        ..      PUSH     {r0-r3}
        0x00000946:    4b05        .K      LDR      r3,[pc,#20] ; [0x95c] = 0x1545
        0x00000948:    b510        ..      PUSH     {r4,lr}
        0x0000094a:    a903        ..      ADD      r1,sp,#0xc
        0x0000094c:    4a04        .J      LDR      r2,[pc,#16] ; [0x960] = 0x20000a4c
        0x0000094e:    9802        ..      LDR      r0,[sp,#8]
        0x00000950:    f000f818    ....    BL       _printf_core ; 0x984
        0x00000954:    bc10        ..      POP      {r4}
        0x00000956:    f85dfb14    ]...    LDR      pc,[sp],#0x14
    $d
        0x0000095a:    0000        ..      DCW    0
        0x0000095c:    00001545    E...    DCD    5445
        0x00000960:    20000a4c    L..     DCD    536873548
    $t
    i.__scatterload_copy
    __scatterload_copy
        0x00000964:    e002        ..      B        0x96c ; __scatterload_copy + 8
        0x00000966:    c808        ..      LDM      r0!,{r3}
        0x00000968:    1f12        ..      SUBS     r2,r2,#4
        0x0000096a:    c108        ..      STM      r1!,{r3}
        0x0000096c:    2a00        .*      CMP      r2,#0
        0x0000096e:    d1fa        ..      BNE      0x966 ; __scatterload_copy + 2
        0x00000970:    4770        pG      BX       lr
    i.__scatterload_null
    __scatterload_null
        0x00000972:    4770        pG      BX       lr
    i.__scatterload_zeroinit
    __scatterload_zeroinit
        0x00000974:    2000        .       MOVS     r0,#0
        0x00000976:    e001        ..      B        0x97c ; __scatterload_zeroinit + 8
        0x00000978:    c101        ..      STM      r1!,{r0}
        0x0000097a:    1f12        ..      SUBS     r2,r2,#4
        0x0000097c:    2a00        .*      CMP      r2,#0
        0x0000097e:    d1fb        ..      BNE      0x978 ; __scatterload_zeroinit + 4
        0x00000980:    4770        pG      BX       lr
        0x00000982:    0000        ..      MOVS     r0,r0
    i._printf_core
    _printf_core
        0x00000984:    e92d4fff    -..O    PUSH     {r0-r11,lr}
        0x00000988:    b08d        ..      SUB      sp,sp,#0x34
        0x0000098a:    469b        .F      MOV      r11,r3
        0x0000098c:    460f        .F      MOV      r7,r1
        0x0000098e:    4604        .F      MOV      r4,r0
        0x00000990:    2600        .&      MOVS     r6,#0
        0x00000992:    e006        ..      B        0x9a2 ; _printf_core + 30
        0x00000994:    2825        %(      CMP      r0,#0x25
        0x00000996:    d00b        ..      BEQ      0x9b0 ; _printf_core + 44
        0x00000998:    465a        ZF      MOV      r2,r11
        0x0000099a:    990f        ..      LDR      r1,[sp,#0x3c]
        0x0000099c:    4790        .G      BLX      r2
        0x0000099e:    1c64        d.      ADDS     r4,r4,#1
        0x000009a0:    1c76        v.      ADDS     r6,r6,#1
        0x000009a2:    7820         x      LDRB     r0,[r4,#0]
        0x000009a4:    2800        .(      CMP      r0,#0
        0x000009a6:    d1f5        ..      BNE      0x994 ; _printf_core + 16
        0x000009a8:    b011        ..      ADD      sp,sp,#0x44
        0x000009aa:    4630        0F      MOV      r0,r6
        0x000009ac:    e8bd8ff0    ....    POP      {r4-r11,pc}
        0x000009b0:    2500        .%      MOVS     r5,#0
        0x000009b2:    46a8        .F      MOV      r8,r5
        0x000009b4:    2201        ."      MOVS     r2,#1
        0x000009b6:    4998        .I      LDR      r1,[pc,#608] ; [0xc18] = 0x12809
        0x000009b8:    e000        ..      B        0x9bc ; _printf_core + 56
        0x000009ba:    4305        .C      ORRS     r5,r5,r0
        0x000009bc:    f8143f01    ...?    LDRB     r3,[r4,#1]!
        0x000009c0:    3b20         ;      SUBS     r3,r3,#0x20
        0x000009c2:    fa02f003    ....    LSL      r0,r2,r3
        0x000009c6:    4208        .B      TST      r0,r1
        0x000009c8:    d1f7        ..      BNE      0x9ba ; _printf_core + 54
        0x000009ca:    7820         x      LDRB     r0,[r4,#0]
        0x000009cc:    282e        .(      CMP      r0,#0x2e
        0x000009ce:    d117        ..      BNE      0xa00 ; _printf_core + 124
        0x000009d0:    f8140f01    ....    LDRB     r0,[r4,#1]!
        0x000009d4:    f0450504    E...    ORR      r5,r5,#4
        0x000009d8:    282a        *(      CMP      r0,#0x2a
        0x000009da:    d00e        ..      BEQ      0x9fa ; _printf_core + 118
        0x000009dc:    f06f022f    o./.    MVN      r2,#0x2f
        0x000009e0:    7820         x      LDRB     r0,[r4,#0]
        0x000009e2:    f1a00130    ..0.    SUB      r1,r0,#0x30
        0x000009e6:    2909        .)      CMP      r1,#9
        0x000009e8:    d80a        ..      BHI      0xa00 ; _printf_core + 124
        0x000009ea:    eb080188    ....    ADD      r1,r8,r8,LSL #2
        0x000009ee:    eb020141    ..A.    ADD      r1,r2,r1,LSL #1
        0x000009f2:    eb000801    ....    ADD      r8,r0,r1
        0x000009f6:    1c64        d.      ADDS     r4,r4,#1
        0x000009f8:    e7f2        ..      B        0x9e0 ; _printf_core + 92
        0x000009fa:    f8578b04    W...    LDR      r8,[r7],#4
        0x000009fe:    1c64        d.      ADDS     r4,r4,#1
        0x00000a00:    7820         x      LDRB     r0,[r4,#0]
        0x00000a02:    286c        l(      CMP      r0,#0x6c
        0x00000a04:    d00d        ..      BEQ      0xa22 ; _printf_core + 158
        0x00000a06:    dc04        ..      BGT      0xa12 ; _printf_core + 142
        0x00000a08:    284c        L(      CMP      r0,#0x4c
        0x00000a0a:    d012        ..      BEQ      0xa32 ; _printf_core + 174
        0x00000a0c:    286a        j(      CMP      r0,#0x6a
        0x00000a0e:    d111        ..      BNE      0xa34 ; _printf_core + 176
        0x00000a10:    e004        ..      B        0xa1c ; _printf_core + 152
        0x00000a12:    2874        t(      CMP      r0,#0x74
        0x00000a14:    d00d        ..      BEQ      0xa32 ; _printf_core + 174
        0x00000a16:    287a        z(      CMP      r0,#0x7a
        0x00000a18:    d10c        ..      BNE      0xa34 ; _printf_core + 176
        0x00000a1a:    e00a        ..      B        0xa32 ; _printf_core + 174
        0x00000a1c:    f4451500    E...    ORR      r5,r5,#0x200000
        0x00000a20:    e007        ..      B        0xa32 ; _printf_core + 174
        0x00000a22:    7861        ax      LDRB     r1,[r4,#1]
        0x00000a24:    f4451580    E...    ORR      r5,r5,#0x100000
        0x00000a28:    4281        .B      CMP      r1,r0
        0x00000a2a:    d102        ..      BNE      0xa32 ; _printf_core + 174
        0x00000a2c:    1c64        d.      ADDS     r4,r4,#1
        0x00000a2e:    f5051580    ....    ADD      r5,r5,#0x100000
        0x00000a32:    1c64        d.      ADDS     r4,r4,#1
        0x00000a34:    7822        "x      LDRB     r2,[r4,#0]
        0x00000a36:    2a69        i*      CMP      r2,#0x69
        0x00000a38:    d045        E.      BEQ      0xac6 ; _printf_core + 322
        0x00000a3a:    dc08        ..      BGT      0xa4e ; _printf_core + 202
        0x00000a3c:    2a00        .*      CMP      r2,#0
        0x00000a3e:    d0b3        ..      BEQ      0x9a8 ; _printf_core + 36
        0x00000a40:    2a58        X*      CMP      r2,#0x58
        0x00000a42:    d069        i.      BEQ      0xb18 ; _printf_core + 404
        0x00000a44:    2a63        c*      CMP      r2,#0x63
        0x00000a46:    d010        ..      BEQ      0xa6a ; _printf_core + 230
        0x00000a48:    2a64        d*      CMP      r2,#0x64
        0x00000a4a:    d108        ..      BNE      0xa5e ; _printf_core + 218
        0x00000a4c:    e03b        ;.      B        0xac6 ; _printf_core + 322
        0x00000a4e:    2a70        p*      CMP      r2,#0x70
        0x00000a50:    d067        g.      BEQ      0xb22 ; _printf_core + 414
        0x00000a52:    2a73        s*      CMP      r2,#0x73
        0x00000a54:    d013        ..      BEQ      0xa7e ; _printf_core + 250
        0x00000a56:    2a75        u*      CMP      r2,#0x75
        0x00000a58:    d05c        \.      BEQ      0xb14 ; _printf_core + 400
        0x00000a5a:    2a78        x*      CMP      r2,#0x78
        0x00000a5c:    d05c        \.      BEQ      0xb18 ; _printf_core + 404
        0x00000a5e:    4610        .F      MOV      r0,r2
        0x00000a60:    465a        ZF      MOV      r2,r11
        0x00000a62:    990f        ..      LDR      r1,[sp,#0x3c]
        0x00000a64:    4790        .G      BLX      r2
        0x00000a66:    1c76        v.      ADDS     r6,r6,#1
        0x00000a68:    e0d3        ..      B        0xc12 ; _printf_core + 654
        0x00000a6a:    f8170b04    ....    LDRB     r0,[r7],#4
        0x00000a6e:    f88d0000    ....    STRB     r0,[sp,#0]
        0x00000a72:    2000        .       MOVS     r0,#0
        0x00000a74:    f88d0001    ....    STRB     r0,[sp,#1]
        0x00000a78:    46e9        .F      MOV      r9,sp
        0x00000a7a:    2001        .       MOVS     r0,#1
        0x00000a7c:    e003        ..      B        0xa86 ; _printf_core + 258
        0x00000a7e:    f8579b04    W...    LDR      r9,[r7],#4
        0x00000a82:    f04f30ff    O..0    MOV      r0,#0xffffffff
        0x00000a86:    0769        i.      LSLS     r1,r5,#29
        0x00000a88:    f04f0500    O...    MOV      r5,#0
        0x00000a8c:    d401        ..      BMI      0xa92 ; _printf_core + 270
        0x00000a8e:    e00a        ..      B        0xaa6 ; _printf_core + 290
        0x00000a90:    1c6d        m.      ADDS     r5,r5,#1
        0x00000a92:    4545        EE      CMP      r5,r8
        0x00000a94:    da0d        ..      BGE      0xab2 ; _printf_core + 302
        0x00000a96:    4285        .B      CMP      r5,r0
        0x00000a98:    dbfa        ..      BLT      0xa90 ; _printf_core + 268
        0x00000a9a:    f8191005    ....    LDRB     r1,[r9,r5]
        0x00000a9e:    2900        .)      CMP      r1,#0
        0x00000aa0:    d1f6        ..      BNE      0xa90 ; _printf_core + 268
        0x00000aa2:    e006        ..      B        0xab2 ; _printf_core + 302
        0x00000aa4:    1c6d        m.      ADDS     r5,r5,#1
        0x00000aa6:    4285        .B      CMP      r5,r0
        0x00000aa8:    dbfc        ..      BLT      0xaa4 ; _printf_core + 288
        0x00000aaa:    f8191005    ....    LDRB     r1,[r9,r5]
        0x00000aae:    2900        .)      CMP      r1,#0
        0x00000ab0:    d1f8        ..      BNE      0xaa4 ; _printf_core + 288
        0x00000ab2:    442e        .D      ADD      r6,r6,r5
        0x00000ab4:    e004        ..      B        0xac0 ; _printf_core + 316
        0x00000ab6:    f8190b01    ....    LDRB     r0,[r9],#1
        0x00000aba:    465a        ZF      MOV      r2,r11
        0x00000abc:    990f        ..      LDR      r1,[sp,#0x3c]
        0x00000abe:    4790        .G      BLX      r2
        0x00000ac0:    1e6d        m.      SUBS     r5,r5,#1
        0x00000ac2:    d2f8        ..      BCS      0xab6 ; _printf_core + 306
        0x00000ac4:    e0a5        ..      B        0xc12 ; _printf_core + 654
        0x00000ac6:    200a        .       MOVS     r0,#0xa
        0x00000ac8:    2100        .!      MOVS     r1,#0
        0x00000aca:    e9cd0108    ....    STRD     r0,r1,[sp,#0x20]
        0x00000ace:    f3c55002    ...P    UBFX     r0,r5,#20,#3
        0x00000ad2:    2802        .(      CMP      r0,#2
        0x00000ad4:    d00d        ..      BEQ      0xaf2 ; _printf_core + 366
        0x00000ad6:    cf01        ..      LDM      r7!,{r0}
        0x00000ad8:    17c1        ..      ASRS     r1,r0,#31
        0x00000ada:    1e03        ..      SUBS     r3,r0,#0
        0x00000adc:    f1710300    q...    SBCS     r3,r1,#0
        0x00000ae0:    da0d        ..      BGE      0xafe ; _printf_core + 378
        0x00000ae2:    f04f0c00    O...    MOV      r12,#0
        0x00000ae6:    ebd0000c    ....    RSBS     r0,r0,r12
        0x00000aea:    eb6c0101    l...    SBC      r1,r12,r1
        0x00000aee:    232d        -#      MOVS     r3,#0x2d
        0x00000af0:    e008        ..      B        0xb04 ; _printf_core + 384
        0x00000af2:    1dff        ..      ADDS     r7,r7,#7
        0x00000af4:    f0270707    '...    BIC      r7,r7,#7
        0x00000af8:    e8f70102    ....    LDRD     r0,r1,[r7],#8
        0x00000afc:    e7ed        ..      B        0xada ; _printf_core + 342
        0x00000afe:    052b        +.      LSLS     r3,r5,#20
        0x00000b00:    d504        ..      BPL      0xb0c ; _printf_core + 392
        0x00000b02:    232b        +#      MOVS     r3,#0x2b
        0x00000b04:    f88d3028    ..(0    STRB     r3,[sp,#0x28]
        0x00000b08:    2301        .#      MOVS     r3,#1
        0x00000b0a:    e03b        ;.      B        0xb84 ; _printf_core + 512
        0x00000b0c:    07eb        ..      LSLS     r3,r5,#31
        0x00000b0e:    d039        9.      BEQ      0xb84 ; _printf_core + 512
        0x00000b10:    2320         #      MOVS     r3,#0x20
        0x00000b12:    e7f7        ..      B        0xb04 ; _printf_core + 384
        0x00000b14:    200a        .       MOVS     r0,#0xa
        0x00000b16:    e000        ..      B        0xb1a ; _printf_core + 406
        0x00000b18:    2010        .       MOVS     r0,#0x10
        0x00000b1a:    2100        .!      MOVS     r1,#0
        0x00000b1c:    e9cd0108    ....    STRD     r0,r1,[sp,#0x20]
        0x00000b20:    e007        ..      B        0xb32 ; _printf_core + 430
        0x00000b22:    2010        .       MOVS     r0,#0x10
        0x00000b24:    2100        .!      MOVS     r1,#0
        0x00000b26:    f0450504    E...    ORR      r5,r5,#4
        0x00000b2a:    e9cd0108    ....    STRD     r0,r1,[sp,#0x20]
        0x00000b2e:    f04f0808    O...    MOV      r8,#8
        0x00000b32:    f3c55002    ...P    UBFX     r0,r5,#20,#3
        0x00000b36:    2802        .(      CMP      r0,#2
        0x00000b38:    d00f        ..      BEQ      0xb5a ; _printf_core + 470
        0x00000b3a:    cf01        ..      LDM      r7!,{r0}
        0x00000b3c:    2100        .!      MOVS     r1,#0
        0x00000b3e:    f04f0a00    O...    MOV      r10,#0
        0x00000b42:    072b        +.      LSLS     r3,r5,#28
        0x00000b44:    d51f        ..      BPL      0xb86 ; _printf_core + 514
        0x00000b46:    2a70        p*      CMP      r2,#0x70
        0x00000b48:    d00d        ..      BEQ      0xb66 ; _printf_core + 482
        0x00000b4a:    e9ddc308    ....    LDRD     r12,r3,[sp,#0x20]
        0x00000b4e:    f08c0c10    ....    EOR      r12,r12,#0x10
        0x00000b52:    ea5c0c03    \...    ORRS     r12,r12,r3
        0x00000b56:    d00c        ..      BEQ      0xb72 ; _printf_core + 494
        0x00000b58:    e015        ..      B        0xb86 ; _printf_core + 514
        0x00000b5a:    1dff        ..      ADDS     r7,r7,#7
        0x00000b5c:    f0270707    '...    BIC      r7,r7,#7
        0x00000b60:    e8f70102    ....    LDRD     r0,r1,[r7],#8
        0x00000b64:    e7eb        ..      B        0xb3e ; _printf_core + 442
        0x00000b66:    2240        @"      MOVS     r2,#0x40
        0x00000b68:    f88d2028    ..(     STRB     r2,[sp,#0x28]
        0x00000b6c:    f04f0a01    O...    MOV      r10,#1
        0x00000b70:    e00b        ..      B        0xb8a ; _printf_core + 518
        0x00000b72:    ea500301    P...    ORRS     r3,r0,r1
        0x00000b76:    d006        ..      BEQ      0xb86 ; _printf_core + 514
        0x00000b78:    2330        0#      MOVS     r3,#0x30
        0x00000b7a:    f88d3028    ..(0    STRB     r3,[sp,#0x28]
        0x00000b7e:    f88d2029    ..)     STRB     r2,[sp,#0x29]
        0x00000b82:    2302        .#      MOVS     r3,#2
        0x00000b84:    469a        .F      MOV      r10,r3
        0x00000b86:    2a58        X*      CMP      r2,#0x58
        0x00000b88:    d004        ..      BEQ      0xb94 ; _printf_core + 528
        0x00000b8a:    a224        $.      ADR      r2,{pc}+0x92 ; 0xc1c
        0x00000b8c:    f10d0920    .. .    ADD      r9,sp,#0x20
        0x00000b90:    920b        ..      STR      r2,[sp,#0x2c]
        0x00000b92:    e009        ..      B        0xba8 ; _printf_core + 548
        0x00000b94:    a226        &.      ADR      r2,{pc}+0x9c ; 0xc30
        0x00000b96:    e7f9        ..      B        0xb8c ; _printf_core + 520
        0x00000b98:    e9dd2308    ...#    LDRD     r2,r3,[sp,#0x20]
        0x00000b9c:    f7fffbd8    ....    BL       __aeabi_uldivmod ; 0x350
        0x00000ba0:    9b0b        ..      LDR      r3,[sp,#0x2c]
        0x00000ba2:    5c9b        .\      LDRB     r3,[r3,r2]
        0x00000ba4:    f8093d01    ...=    STRB     r3,[r9,#-1]!
        0x00000ba8:    ea500201    P...    ORRS     r2,r0,r1
        0x00000bac:    d1f4        ..      BNE      0xb98 ; _printf_core + 532
        0x00000bae:    ebad0009    ....    SUB      r0,sp,r9
        0x00000bb2:    3020         0      ADDS     r0,r0,#0x20
        0x00000bb4:    9008        ..      STR      r0,[sp,#0x20]
        0x00000bb6:    0768        h.      LSLS     r0,r5,#29
        0x00000bb8:    d401        ..      BMI      0xbbe ; _printf_core + 570
        0x00000bba:    f04f0801    O...    MOV      r8,#1
        0x00000bbe:    9908        ..      LDR      r1,[sp,#0x20]
        0x00000bc0:    4588        .E      CMP      r8,r1
        0x00000bc2:    dd02        ..      BLE      0xbca ; _printf_core + 582
        0x00000bc4:    eba80001    ....    SUB      r0,r8,r1
        0x00000bc8:    e000        ..      B        0xbcc ; _printf_core + 584
        0x00000bca:    2000        .       MOVS     r0,#0
        0x00000bcc:    4680        .F      MOV      r8,r0
        0x00000bce:    2500        .%      MOVS     r5,#0
        0x00000bd0:    e006        ..      B        0xbe0 ; _printf_core + 604
        0x00000bd2:    a80a        ..      ADD      r0,sp,#0x28
        0x00000bd4:    465a        ZF      MOV      r2,r11
        0x00000bd6:    5d40        @]      LDRB     r0,[r0,r5]
        0x00000bd8:    990f        ..      LDR      r1,[sp,#0x3c]
        0x00000bda:    4790        .G      BLX      r2
        0x00000bdc:    1c6d        m.      ADDS     r5,r5,#1
        0x00000bde:    1c76        v.      ADDS     r6,r6,#1
        0x00000be0:    4555        UE      CMP      r5,r10
        0x00000be2:    dbf6        ..      BLT      0xbd2 ; _printf_core + 590
        0x00000be4:    e004        ..      B        0xbf0 ; _printf_core + 620
        0x00000be6:    2030        0       MOVS     r0,#0x30
        0x00000be8:    465a        ZF      MOV      r2,r11
        0x00000bea:    990f        ..      LDR      r1,[sp,#0x3c]
        0x00000bec:    4790        .G      BLX      r2
        0x00000bee:    1c76        v.      ADDS     r6,r6,#1
        0x00000bf0:    f1b80100    ....    SUBS     r1,r8,#0
        0x00000bf4:    f1a80801    ....    SUB      r8,r8,#1
        0x00000bf8:    dcf5        ..      BGT      0xbe6 ; _printf_core + 610
        0x00000bfa:    e005        ..      B        0xc08 ; _printf_core + 644
        0x00000bfc:    f8190b01    ....    LDRB     r0,[r9],#1
        0x00000c00:    465a        ZF      MOV      r2,r11
        0x00000c02:    990f        ..      LDR      r1,[sp,#0x3c]
        0x00000c04:    4790        .G      BLX      r2
        0x00000c06:    1c76        v.      ADDS     r6,r6,#1
        0x00000c08:    9908        ..      LDR      r1,[sp,#0x20]
        0x00000c0a:    1e48        H.      SUBS     r0,r1,#1
        0x00000c0c:    9008        ..      STR      r0,[sp,#0x20]
        0x00000c0e:    2900        .)      CMP      r1,#0
        0x00000c10:    dcf4        ..      BGT      0xbfc ; _printf_core + 632
        0x00000c12:    1c64        d.      ADDS     r4,r4,#1
        0x00000c14:    e6c5        ..      B        0x9a2 ; _printf_core + 30
    $d
        0x00000c16:    0000        ..      DCW    0
        0x00000c18:    00012809    .(..    DCD    75785
        0x00000c1c:    33323130    0123    DCD    858927408
        0x00000c20:    37363534    4567    DCD    926299444
        0x00000c24:    62613938    89ab    DCD    1650538808
        0x00000c28:    66656463    cdef    DCD    1717920867
        0x00000c2c:    00000000    ....    DCD    0
        0x00000c30:    33323130    0123    DCD    858927408
        0x00000c34:    37363534    4567    DCD    926299444
        0x00000c38:    42413938    89AB    DCD    1111570744
        0x00000c3c:    46454443    CDEF    DCD    1178944579
        0x00000c40:    00000000    ....    DCD    0
    $t
    i.apu_Button
    apu_Button
        0x00000c44:    b500        ..      PUSH     {lr}
        0x00000c46:    208f        .       MOVS     r0,#0x8f
        0x00000c48:    f003fe18    ....    BL       set_pulse0_00 ; 0x487c
        0x00000c4c:    2049        I       MOVS     r0,#0x49
        0x00000c4e:    f003fe1b    ....    BL       set_pulse0_01 ; 0x4888
        0x00000c52:    20ff        .       MOVS     r0,#0xff
        0x00000c54:    f003fe1e    ....    BL       set_pulse0_10 ; 0x4894
        0x00000c58:    2048        H       MOVS     r0,#0x48
        0x00000c5a:    f85deb04    ]...    POP      {lr}
        0x00000c5e:    f003be1f    ....    B.W      set_pulse0_11 ; 0x48a0
    i.apu_Intr_Trigger
    apu_Intr_Trigger
        0x00000c62:    b500        ..      PUSH     {lr}
        0x00000c64:    2080        .       MOVS     r0,#0x80
        0x00000c66:    f003fe09    ....    BL       set_pulse0_00 ; 0x487c
        0x00000c6a:    2049        I       MOVS     r0,#0x49
        0x00000c6c:    f003fe0c    ....    BL       set_pulse0_01 ; 0x4888
        0x00000c70:    2000        .       MOVS     r0,#0
        0x00000c72:    f003fe0f    ....    BL       set_pulse0_10 ; 0x4894
        0x00000c76:    2038        8       MOVS     r0,#0x38
        0x00000c78:    f85deb04    ]...    POP      {lr}
        0x00000c7c:    f003be10    ....    B.W      set_pulse0_11 ; 0x48a0
    i.b_green_createOnePlane
    b_green_createOnePlane
        0x00000c80:    b570        p.      PUSH     {r4-r6,lr}
        0x00000c82:    2100        .!      MOVS     r1,#0
        0x00000c84:    4a1b        .J      LDR      r2,[pc,#108] ; [0xcf4] = 0x4a7c
        0x00000c86:    7812        .x      LDRB     r2,[r2,#0]
        0x00000c88:    e007        ..      B        0xc9a ; b_green_createOnePlane + 26
        0x00000c8a:    eb010381    ....    ADD      r3,r1,r1,LSL #2
        0x00000c8e:    eb0303c1    ....    ADD      r3,r3,r1,LSL #3
        0x00000c92:    f8103013    ...0    LDRB     r3,[r0,r3,LSL #1]
        0x00000c96:    b11b        ..      CBZ      r3,0xca0 ; b_green_createOnePlane + 32
        0x00000c98:    1c49        I.      ADDS     r1,r1,#1
        0x00000c9a:    4291        .B      CMP      r1,r2
        0x00000c9c:    dbf5        ..      BLT      0xc8a ; b_green_createOnePlane + 10
        0x00000c9e:    bd70        p.      POP      {r4-r6,pc}
        0x00000ca0:    eb010381    ....    ADD      r3,r1,r1,LSL #2
        0x00000ca4:    eb0301c1    ....    ADD      r1,r3,r1,LSL #3
        0x00000ca8:    2201        ."      MOVS     r2,#1
        0x00000caa:    f8002011    ...     STRB     r2,[r0,r1,LSL #1]
        0x00000cae:    eb000441    ..A.    ADD      r4,r0,r1,LSL #1
        0x00000cb2:    261e        .&      MOVS     r6,#0x1e
        0x00000cb4:    7066        fp      STRB     r6,[r4,#1]
        0x00000cb6:    2500        .%      MOVS     r5,#0
        0x00000cb8:    70a5        .p      STRB     r5,[r4,#2]
        0x00000cba:    f7fffa4d    ..M.    BL       rand ; 0x158
        0x00000cbe:    2164        d!      MOVS     r1,#0x64
        0x00000cc0:    4348        HC      MULS     r0,r1,r0
        0x00000cc2:    eb0071d0    ...q    ADD      r1,r0,r0,LSR #31
        0x00000cc6:    f0210101    !...    BIC      r1,r1,#1
        0x00000cca:    1a40        @.      SUBS     r0,r0,r1
        0x00000ccc:    3064        d0      ADDS     r0,r0,#0x64
        0x00000cce:    80a0        ..      STRH     r0,[r4,#4]
        0x00000cd0:    20b4        .       MOVS     r0,#0xb4
        0x00000cd2:    80e0        ..      STRH     r0,[r4,#6]
        0x00000cd4:    7225        %r      STRB     r5,[r4,#8]
        0x00000cd6:    7265        er      STRB     r5,[r4,#9]
        0x00000cd8:    72a5        .r      STRB     r5,[r4,#0xa]
        0x00000cda:    1ea9        ..      SUBS     r1,r5,#2
        0x00000cdc:    81a1        ..      STRH     r1,[r4,#0xc]
        0x00000cde:    81e6        ..      STRH     r6,[r4,#0xe]
        0x00000ce0:    215a        Z!      MOVS     r1,#0x5a
        0x00000ce2:    8221        !.      STRH     r1,[r4,#0x10]
        0x00000ce4:    2128        (!      MOVS     r1,#0x28
        0x00000ce6:    8261        a.      STRH     r1,[r4,#0x12]
        0x00000ce8:    213c        <!      MOVS     r1,#0x3c
        0x00000cea:    82a1        ..      STRH     r1,[r4,#0x14]
        0x00000cec:    21a0        .!      MOVS     r1,#0xa0
        0x00000cee:    82e1        ..      STRH     r1,[r4,#0x16]
        0x00000cf0:    8320         .      STRH     r0,[r4,#0x18]
        0x00000cf2:    bd70        p.      POP      {r4-r6,pc}
    $d
        0x00000cf4:    00004a7c    |J..    DCD    19068
    $t
    i.b_green_createPlane_511
    b_green_createPlane_511
        0x00000cf8:    f7ffbfc2    ....    B.W      b_green_createOnePlane ; 0xc80
    i.b_green_drawPlane
    b_green_drawPlane
        0x00000cfc:    e92d4ff8    -..O    PUSH     {r3-r11,lr}
        0x00000d00:    4680        .F      MOV      r8,r0
        0x00000d02:    460d        .F      MOV      r5,r1
        0x00000d04:    2700        .'      MOVS     r7,#0
        0x00000d06:    f8df919c    ....    LDR      r9,[pc,#412] ; [0xea4] = 0x4a7c
        0x00000d0a:    e0c4        ..      B        0xe96 ; b_green_drawPlane + 410
        0x00000d0c:    eb070087    ....    ADD      r0,r7,r7,LSL #2
        0x00000d10:    eb0000c7    ....    ADD      r0,r0,r7,LSL #3
        0x00000d14:    f8181010    ....    LDRB     r1,[r8,r0,LSL #1]
        0x00000d18:    2900        .)      CMP      r1,#0
        0x00000d1a:    d07d        }.      BEQ      0xe18 ; b_green_drawPlane + 284
        0x00000d1c:    2620         &      MOVS     r6,#0x20
        0x00000d1e:    eb080440    ..@.    ADD      r4,r8,r0,LSL #1
        0x00000d22:    9600        ..      STR      r6,[sp,#0]
        0x00000d24:    88e0        ..      LDRH     r0,[r4,#6]
        0x00000d26:    b2c2        ..      UXTB     r2,r0
        0x00000d28:    88a0        ..      LDRH     r0,[r4,#4]
        0x00000d2a:    23c0        .#      MOVS     r3,#0xc0
        0x00000d2c:    b2c1        ..      UXTB     r1,r0
        0x00000d2e:    7828        (x      LDRB     r0,[r5,#0]
        0x00000d30:    f003fe90    ....    BL       writeOneSprite ; 0x4a54
        0x00000d34:    9600        ..      STR      r6,[sp,#0]
        0x00000d36:    88e0        ..      LDRH     r0,[r4,#6]
        0x00000d38:    1dc0        ..      ADDS     r0,r0,#7
        0x00000d3a:    b2c2        ..      UXTB     r2,r0
        0x00000d3c:    88a0        ..      LDRH     r0,[r4,#4]
        0x00000d3e:    23c1        .#      MOVS     r3,#0xc1
        0x00000d40:    b2c1        ..      UXTB     r1,r0
        0x00000d42:    7828        (x      LDRB     r0,[r5,#0]
        0x00000d44:    1c40        @.      ADDS     r0,r0,#1
        0x00000d46:    b2c0        ..      UXTB     r0,r0
        0x00000d48:    f003fe84    ....    BL       writeOneSprite ; 0x4a54
        0x00000d4c:    9600        ..      STR      r6,[sp,#0]
        0x00000d4e:    88e0        ..      LDRH     r0,[r4,#6]
        0x00000d50:    300e        .0      ADDS     r0,r0,#0xe
        0x00000d52:    b2c2        ..      UXTB     r2,r0
        0x00000d54:    88a0        ..      LDRH     r0,[r4,#4]
        0x00000d56:    23c2        .#      MOVS     r3,#0xc2
        0x00000d58:    b2c1        ..      UXTB     r1,r0
        0x00000d5a:    7828        (x      LDRB     r0,[r5,#0]
        0x00000d5c:    1c80        ..      ADDS     r0,r0,#2
        0x00000d5e:    b2c0        ..      UXTB     r0,r0
        0x00000d60:    f003fe78    ..x.    BL       writeOneSprite ; 0x4a54
        0x00000d64:    9600        ..      STR      r6,[sp,#0]
        0x00000d66:    88e0        ..      LDRH     r0,[r4,#6]
        0x00000d68:    3015        .0      ADDS     r0,r0,#0x15
        0x00000d6a:    b2c2        ..      UXTB     r2,r0
        0x00000d6c:    88a0        ..      LDRH     r0,[r4,#4]
        0x00000d6e:    23c3        .#      MOVS     r3,#0xc3
        0x00000d70:    b2c1        ..      UXTB     r1,r0
        0x00000d72:    7828        (x      LDRB     r0,[r5,#0]
        0x00000d74:    1cc0        ..      ADDS     r0,r0,#3
        0x00000d76:    b2c0        ..      UXTB     r0,r0
        0x00000d78:    f003fe6c    ..l.    BL       writeOneSprite ; 0x4a54
        0x00000d7c:    9600        ..      STR      r6,[sp,#0]
        0x00000d7e:    88e0        ..      LDRH     r0,[r4,#6]
        0x00000d80:    301c        .0      ADDS     r0,r0,#0x1c
        0x00000d82:    b2c2        ..      UXTB     r2,r0
        0x00000d84:    88a0        ..      LDRH     r0,[r4,#4]
        0x00000d86:    23c4        .#      MOVS     r3,#0xc4
        0x00000d88:    1f00        ..      SUBS     r0,r0,#4
        0x00000d8a:    b2c1        ..      UXTB     r1,r0
        0x00000d8c:    7828        (x      LDRB     r0,[r5,#0]
        0x00000d8e:    1d00        ..      ADDS     r0,r0,#4
        0x00000d90:    b2c0        ..      UXTB     r0,r0
        0x00000d92:    f003fe5f    .._.    BL       writeOneSprite ; 0x4a54
        0x00000d96:    9600        ..      STR      r6,[sp,#0]
        0x00000d98:    88e0        ..      LDRH     r0,[r4,#6]
        0x00000d9a:    301c        .0      ADDS     r0,r0,#0x1c
        0x00000d9c:    b2c2        ..      UXTB     r2,r0
        0x00000d9e:    88a0        ..      LDRH     r0,[r4,#4]
        0x00000da0:    23c5        .#      MOVS     r3,#0xc5
        0x00000da2:    1d00        ..      ADDS     r0,r0,#4
        0x00000da4:    b2c1        ..      UXTB     r1,r0
        0x00000da6:    7828        (x      LDRB     r0,[r5,#0]
        0x00000da8:    1d40        @.      ADDS     r0,r0,#5
        0x00000daa:    b2c0        ..      UXTB     r0,r0
        0x00000dac:    f003fe52    ..R.    BL       writeOneSprite ; 0x4a54
        0x00000db0:    f04f0a60    O.`.    MOV      r10,#0x60
        0x00000db4:    f8cda000    ....    STR      r10,[sp,#0]
        0x00000db8:    88e0        ..      LDRH     r0,[r4,#6]
        0x00000dba:    1d40        @.      ADDS     r0,r0,#5
        0x00000dbc:    b2c2        ..      UXTB     r2,r0
        0x00000dbe:    88a0        ..      LDRH     r0,[r4,#4]
        0x00000dc0:    23c6        .#      MOVS     r3,#0xc6
        0x00000dc2:    1fc0        ..      SUBS     r0,r0,#7
        0x00000dc4:    b2c1        ..      UXTB     r1,r0
        0x00000dc6:    7828        (x      LDRB     r0,[r5,#0]
        0x00000dc8:    1d80        ..      ADDS     r0,r0,#6
        0x00000dca:    b2c0        ..      UXTB     r0,r0
        0x00000dcc:    f003fe42    ..B.    BL       writeOneSprite ; 0x4a54
        0x00000dd0:    9600        ..      STR      r6,[sp,#0]
        0x00000dd2:    88e0        ..      LDRH     r0,[r4,#6]
        0x00000dd4:    1d40        @.      ADDS     r0,r0,#5
        0x00000dd6:    b2c2        ..      UXTB     r2,r0
        0x00000dd8:    88a0        ..      LDRH     r0,[r4,#4]
        0x00000dda:    23c6        .#      MOVS     r3,#0xc6
        0x00000ddc:    1dc0        ..      ADDS     r0,r0,#7
        0x00000dde:    b2c1        ..      UXTB     r1,r0
        0x00000de0:    7828        (x      LDRB     r0,[r5,#0]
        0x00000de2:    1dc0        ..      ADDS     r0,r0,#7
        0x00000de4:    b2c0        ..      UXTB     r0,r0
        0x00000de6:    f003fe35    ..5.    BL       writeOneSprite ; 0x4a54
        0x00000dea:    9600        ..      STR      r6,[sp,#0]
        0x00000dec:    88e0        ..      LDRH     r0,[r4,#6]
        0x00000dee:    300c        .0      ADDS     r0,r0,#0xc
        0x00000df0:    b2c2        ..      UXTB     r2,r0
        0x00000df2:    88a0        ..      LDRH     r0,[r4,#4]
        0x00000df4:    23c9        .#      MOVS     r3,#0xc9
        0x00000df6:    1fc0        ..      SUBS     r0,r0,#7
        0x00000df8:    b2c1        ..      UXTB     r1,r0
        0x00000dfa:    7828        (x      LDRB     r0,[r5,#0]
        0x00000dfc:    3008        .0      ADDS     r0,r0,#8
        0x00000dfe:    b2c0        ..      UXTB     r0,r0
        0x00000e00:    f003fe28    ..(.    BL       writeOneSprite ; 0x4a54
        0x00000e04:    9600        ..      STR      r6,[sp,#0]
        0x00000e06:    88e0        ..      LDRH     r0,[r4,#6]
        0x00000e08:    300c        .0      ADDS     r0,r0,#0xc
        0x00000e0a:    b2c2        ..      UXTB     r2,r0
        0x00000e0c:    88a0        ..      LDRH     r0,[r4,#4]
        0x00000e0e:    1dc0        ..      ADDS     r0,r0,#7
        0x00000e10:    b2c1        ..      UXTB     r1,r0
        0x00000e12:    7828        (x      LDRB     r0,[r5,#0]
        0x00000e14:    3009        .0      ADDS     r0,r0,#9
        0x00000e16:    e000        ..      B        0xe1a ; b_green_drawPlane + 286
        0x00000e18:    e03c        <.      B        0xe94 ; b_green_drawPlane + 408
        0x00000e1a:    b2c0        ..      UXTB     r0,r0
        0x00000e1c:    23ca        .#      MOVS     r3,#0xca
        0x00000e1e:    f003fe19    ....    BL       writeOneSprite ; 0x4a54
        0x00000e22:    9600        ..      STR      r6,[sp,#0]
        0x00000e24:    88e0        ..      LDRH     r0,[r4,#6]
        0x00000e26:    300a        .0      ADDS     r0,r0,#0xa
        0x00000e28:    b2c2        ..      UXTB     r2,r0
        0x00000e2a:    88a0        ..      LDRH     r0,[r4,#4]
        0x00000e2c:    23c8        .#      MOVS     r3,#0xc8
        0x00000e2e:    380e        .8      SUBS     r0,r0,#0xe
        0x00000e30:    b2c1        ..      UXTB     r1,r0
        0x00000e32:    7828        (x      LDRB     r0,[r5,#0]
        0x00000e34:    300a        .0      ADDS     r0,r0,#0xa
        0x00000e36:    b2c0        ..      UXTB     r0,r0
        0x00000e38:    f003fe0c    ....    BL       writeOneSprite ; 0x4a54
        0x00000e3c:    f8cda000    ....    STR      r10,[sp,#0]
        0x00000e40:    88e0        ..      LDRH     r0,[r4,#6]
        0x00000e42:    300a        .0      ADDS     r0,r0,#0xa
        0x00000e44:    b2c2        ..      UXTB     r2,r0
        0x00000e46:    88a0        ..      LDRH     r0,[r4,#4]
        0x00000e48:    23c8        .#      MOVS     r3,#0xc8
        0x00000e4a:    300e        .0      ADDS     r0,r0,#0xe
        0x00000e4c:    b2c1        ..      UXTB     r1,r0
        0x00000e4e:    7828        (x      LDRB     r0,[r5,#0]
        0x00000e50:    300b        .0      ADDS     r0,r0,#0xb
        0x00000e52:    b2c0        ..      UXTB     r0,r0
        0x00000e54:    f003fdfe    ....    BL       writeOneSprite ; 0x4a54
        0x00000e58:    9600        ..      STR      r6,[sp,#0]
        0x00000e5a:    88e0        ..      LDRH     r0,[r4,#6]
        0x00000e5c:    300a        .0      ADDS     r0,r0,#0xa
        0x00000e5e:    b2c2        ..      UXTB     r2,r0
        0x00000e60:    88a0        ..      LDRH     r0,[r4,#4]
        0x00000e62:    23c7        .#      MOVS     r3,#0xc7
        0x00000e64:    3815        .8      SUBS     r0,r0,#0x15
        0x00000e66:    b2c1        ..      UXTB     r1,r0
        0x00000e68:    7828        (x      LDRB     r0,[r5,#0]
        0x00000e6a:    300c        .0      ADDS     r0,r0,#0xc
        0x00000e6c:    b2c0        ..      UXTB     r0,r0
        0x00000e6e:    f003fdf1    ....    BL       writeOneSprite ; 0x4a54
        0x00000e72:    f8cda000    ....    STR      r10,[sp,#0]
        0x00000e76:    88e0        ..      LDRH     r0,[r4,#6]
        0x00000e78:    300a        .0      ADDS     r0,r0,#0xa
        0x00000e7a:    b2c2        ..      UXTB     r2,r0
        0x00000e7c:    88a0        ..      LDRH     r0,[r4,#4]
        0x00000e7e:    23c7        .#      MOVS     r3,#0xc7
        0x00000e80:    3015        .0      ADDS     r0,r0,#0x15
        0x00000e82:    b2c1        ..      UXTB     r1,r0
        0x00000e84:    7828        (x      LDRB     r0,[r5,#0]
        0x00000e86:    300d        .0      ADDS     r0,r0,#0xd
        0x00000e88:    b2c0        ..      UXTB     r0,r0
        0x00000e8a:    f003fde3    ....    BL       writeOneSprite ; 0x4a54
        0x00000e8e:    7828        (x      LDRB     r0,[r5,#0]
        0x00000e90:    300e        .0      ADDS     r0,r0,#0xe
        0x00000e92:    7028        (p      STRB     r0,[r5,#0]
        0x00000e94:    1c7f        ..      ADDS     r7,r7,#1
        0x00000e96:    f8990000    ....    LDRB     r0,[r9,#0]
        0x00000e9a:    4287        .B      CMP      r7,r0
        0x00000e9c:    f6ffaf36    ..6.    BLT      0xd0c ; b_green_drawPlane + 16
        0x00000ea0:    e8bd8ff8    ....    POP      {r3-r11,pc}
    $d
        0x00000ea4:    00004a7c    |J..    DCD    19068
    $t
    i.b_green_movePlane
    b_green_movePlane
        0x00000ea8:    e92d5ff0    -.._    PUSH     {r4-r12,lr}
        0x00000eac:    4606        .F      MOV      r6,r0
        0x00000eae:    2500        .%      MOVS     r5,#0
        0x00000eb0:    f04f0801    O...    MOV      r8,#1
        0x00000eb4:    2703        .'      MOVS     r7,#3
        0x00000eb6:    f04f0902    O...    MOV      r9,#2
        0x00000eba:    46aa        .F      MOV      r10,r5
        0x00000ebc:    f8dfb1d0    ....    LDR      r11,[pc,#464] ; [0x1090] = 0x4a7c
        0x00000ec0:    e00f        ..      B        0xee2 ; b_green_movePlane + 58
        0x00000ec2:    eb050085    ....    ADD      r0,r5,r5,LSL #2
        0x00000ec6:    eb0000c5    ....    ADD      r0,r0,r5,LSL #3
        0x00000eca:    f8161010    ....    LDRB     r1,[r6,r0,LSL #1]
        0x00000ece:    b139        9.      CBZ      r1,0xee0 ; b_green_movePlane + 56
        0x00000ed0:    eb060440    ..@.    ADD      r4,r6,r0,LSL #1
        0x00000ed4:    78a1        .x      LDRB     r1,[r4,#2]
        0x00000ed6:    2902        .)      CMP      r1,#2
        0x00000ed8:    d009        ..      BEQ      0xeee ; b_green_movePlane + 70
        0x00000eda:    78a0        .x      LDRB     r0,[r4,#2]
        0x00000edc:    1c40        @.      ADDS     r0,r0,#1
        0x00000ede:    70a0        .p      STRB     r0,[r4,#2]
        0x00000ee0:    1c6d        m.      ADDS     r5,r5,#1
        0x00000ee2:    f89b0000    ....    LDRB     r0,[r11,#0]
        0x00000ee6:    4285        .B      CMP      r5,r0
        0x00000ee8:    dbeb        ..      BLT      0xec2 ; b_green_movePlane + 26
        0x00000eea:    e8bd9ff0    ....    POP      {r4-r12,pc}
        0x00000eee:    f884a002    ....    STRB     r10,[r4,#2]
        0x00000ef2:    7a21        !z      LDRB     r1,[r4,#8]
        0x00000ef4:    b179        y.      CBZ      r1,0xf16 ; b_green_movePlane + 110
        0x00000ef6:    7a21        !z      LDRB     r1,[r4,#8]
        0x00000ef8:    2901        .)      CMP      r1,#1
        0x00000efa:    d023        #.      BEQ      0xf44 ; b_green_movePlane + 156
        0x00000efc:    7a21        !z      LDRB     r1,[r4,#8]
        0x00000efe:    2902        .)      CMP      r1,#2
        0x00000f00:    d1ee        ..      BNE      0xee0 ; b_green_movePlane + 56
        0x00000f02:    88e1        ..      LDRH     r1,[r4,#6]
        0x00000f04:    1e89        ..      SUBS     r1,r1,#2
        0x00000f06:    80e1        ..      STRH     r1,[r4,#6]
        0x00000f08:    f9b41006    ....    LDRSH    r1,[r4,#6]
        0x00000f0c:    290a        .)      CMP      r1,#0xa
        0x00000f0e:    dae7        ..      BGE      0xee0 ; b_green_movePlane + 56
        0x00000f10:    f806a010    ....    STRB     r10,[r6,r0,LSL #1]
        0x00000f14:    e7e4        ..      B        0xee0 ; b_green_movePlane + 56
        0x00000f16:    f9b40006    ....    LDRSH    r0,[r4,#6]
        0x00000f1a:    f9b41010    ....    LDRSH    r1,[r4,#0x10]
        0x00000f1e:    4288        .B      CMP      r0,r1
        0x00000f20:    dc0b        ..      BGT      0xf3a ; b_green_movePlane + 146
        0x00000f22:    f884a00a    ....    STRB     r10,[r4,#0xa]
        0x00000f26:    f884a009    ....    STRB     r10,[r4,#9]
        0x00000f2a:    f8848008    ....    STRB     r8,[r4,#8]
        0x00000f2e:    4a59        YJ      LDR      r2,[pc,#356] ; [0x1094] = 0x20002c38
        0x00000f30:    4631        1F      MOV      r1,r6
        0x00000f32:    4859        YH      LDR      r0,[pc,#356] ; [0x1098] = 0x20002ea8
        0x00000f34:    f003f826    ..&.    BL       s_grey_createOneEnmeyBullet ; 0x3f84
        0x00000f38:    e7d2        ..      B        0xee0 ; b_green_movePlane + 56
        0x00000f3a:    88e0        ..      LDRH     r0,[r4,#6]
        0x00000f3c:    89a1        ..      LDRH     r1,[r4,#0xc]
        0x00000f3e:    4408        .D      ADD      r0,r0,r1
        0x00000f40:    80e0        ..      STRH     r0,[r4,#6]
        0x00000f42:    e7cd        ..      B        0xee0 ; b_green_movePlane + 56
        0x00000f44:    7a60        `z      LDRB     r0,[r4,#9]
        0x00000f46:    b1e0        ..      CBZ      r0,0xf82 ; b_green_movePlane + 218
        0x00000f48:    7a60        `z      LDRB     r0,[r4,#9]
        0x00000f4a:    2801        .(      CMP      r0,#1
        0x00000f4c:    d04f        O.      BEQ      0xfee ; b_green_movePlane + 326
        0x00000f4e:    7a60        `z      LDRB     r0,[r4,#9]
        0x00000f50:    2802        .(      CMP      r0,#2
        0x00000f52:    d060        `.      BEQ      0x1016 ; b_green_movePlane + 366
        0x00000f54:    7a60        `z      LDRB     r0,[r4,#9]
        0x00000f56:    2803        .(      CMP      r0,#3
        0x00000f58:    d1c2        ..      BNE      0xee0 ; b_green_movePlane + 56
        0x00000f5a:    88a0        ..      LDRH     r0,[r4,#4]
        0x00000f5c:    1e80        ..      SUBS     r0,r0,#2
        0x00000f5e:    80a0        ..      STRH     r0,[r4,#4]
        0x00000f60:    88e0        ..      LDRH     r0,[r4,#6]
        0x00000f62:    1c80        ..      ADDS     r0,r0,#2
        0x00000f64:    80e0        ..      STRH     r0,[r4,#6]
        0x00000f66:    f9b40004    ....    LDRSH    r0,[r4,#4]
        0x00000f6a:    f9b41016    ....    LDRSH    r1,[r4,#0x16]
        0x00000f6e:    4288        .B      CMP      r0,r1
        0x00000f70:    dab6        ..      BGE      0xee0 ; b_green_movePlane + 56
        0x00000f72:    4a48        HJ      LDR      r2,[pc,#288] ; [0x1094] = 0x20002c38
        0x00000f74:    4631        1F      MOV      r1,r6
        0x00000f76:    4848        HH      LDR      r0,[pc,#288] ; [0x1098] = 0x20002ea8
        0x00000f78:    f003f804    ....    BL       s_grey_createOneEnmeyBullet ; 0x3f84
        0x00000f7c:    f884a009    ....    STRB     r10,[r4,#9]
        0x00000f80:    e7ae        ..      B        0xee0 ; b_green_movePlane + 56
        0x00000f82:    88a0        ..      LDRH     r0,[r4,#4]
        0x00000f84:    1e80        ..      SUBS     r0,r0,#2
        0x00000f86:    80a0        ..      STRH     r0,[r4,#4]
        0x00000f88:    f7fff8e6    ....    BL       rand ; 0x158
        0x00000f8c:    fb90f1f7    ....    SDIV     r1,r0,r7
        0x00000f90:    fb070011    ....    MLS      r0,r7,r1,r0
        0x00000f94:    88e1        ..      LDRH     r1,[r4,#6]
        0x00000f96:    1e40        @.      SUBS     r0,r0,#1
        0x00000f98:    4408        .D      ADD      r0,r0,r1
        0x00000f9a:    80e0        ..      STRH     r0,[r4,#6]
        0x00000f9c:    f9b40004    ....    LDRSH    r0,[r4,#4]
        0x00000fa0:    f9b41012    ....    LDRSH    r1,[r4,#0x12]
        0x00000fa4:    4288        .B      CMP      r0,r1
        0x00000fa6:    da06        ..      BGE      0xfb6 ; b_green_movePlane + 270
        0x00000fa8:    f8848009    ....    STRB     r8,[r4,#9]
        0x00000fac:    4a39        9J      LDR      r2,[pc,#228] ; [0x1094] = 0x20002c38
        0x00000fae:    4631        1F      MOV      r1,r6
        0x00000fb0:    4839        9H      LDR      r0,[pc,#228] ; [0x1098] = 0x20002ea8
        0x00000fb2:    f002ffe7    ....    BL       s_grey_createOneEnmeyBullet ; 0x3f84
        0x00000fb6:    f9b40004    ....    LDRSH    r0,[r4,#4]
        0x00000fba:    2864        d(      CMP      r0,#0x64
        0x00000fbc:    da09        ..      BGE      0xfd2 ; b_green_movePlane + 298
        0x00000fbe:    f9b40004    ....    LDRSH    r0,[r4,#4]
        0x00000fc2:    2861        a(      CMP      r0,#0x61
        0x00000fc4:    dd05        ..      BLE      0xfd2 ; b_green_movePlane + 298
        0x00000fc6:    4a33        3J      LDR      r2,[pc,#204] ; [0x1094] = 0x20002c38
        0x00000fc8:    4631        1F      MOV      r1,r6
        0x00000fca:    4833        3H      LDR      r0,[pc,#204] ; [0x1098] = 0x20002ea8
        0x00000fcc:    f002ffda    ....    BL       s_grey_createOneEnmeyBullet ; 0x3f84
        0x00000fd0:    e786        ..      B        0xee0 ; b_green_movePlane + 56
        0x00000fd2:    f9b40004    ....    LDRSH    r0,[r4,#4]
        0x00000fd6:    2878        x(      CMP      r0,#0x78
        0x00000fd8:    da82        ..      BGE      0xee0 ; b_green_movePlane + 56
        0x00000fda:    f9b40004    ....    LDRSH    r0,[r4,#4]
        0x00000fde:    2875        u(      CMP      r0,#0x75
        0x00000fe0:    dd98        ..      BLE      0xf14 ; b_green_movePlane + 108
        0x00000fe2:    4a2c        ,J      LDR      r2,[pc,#176] ; [0x1094] = 0x20002c38
        0x00000fe4:    4631        1F      MOV      r1,r6
        0x00000fe6:    482c        ,H      LDR      r0,[pc,#176] ; [0x1098] = 0x20002ea8
        0x00000fe8:    f002ffcc    ....    BL       s_grey_createOneEnmeyBullet ; 0x3f84
        0x00000fec:    e778        x.      B        0xee0 ; b_green_movePlane + 56
        0x00000fee:    88a0        ..      LDRH     r0,[r4,#4]
        0x00000ff0:    1c80        ..      ADDS     r0,r0,#2
        0x00000ff2:    80a0        ..      STRH     r0,[r4,#4]
        0x00000ff4:    88e0        ..      LDRH     r0,[r4,#6]
        0x00000ff6:    1e80        ..      SUBS     r0,r0,#2
        0x00000ff8:    80e0        ..      STRH     r0,[r4,#6]
        0x00000ffa:    f9b40004    ....    LDRSH    r0,[r4,#4]
        0x00000ffe:    f9b41014    ....    LDRSH    r1,[r4,#0x14]
        0x00001002:    4288        .B      CMP      r0,r1
        0x00001004:    dd86        ..      BLE      0xf14 ; b_green_movePlane + 108
        0x00001006:    f8849009    ....    STRB     r9,[r4,#9]
        0x0000100a:    4a22        "J      LDR      r2,[pc,#136] ; [0x1094] = 0x20002c38
        0x0000100c:    4631        1F      MOV      r1,r6
        0x0000100e:    4822        "H      LDR      r0,[pc,#136] ; [0x1098] = 0x20002ea8
        0x00001010:    f002ffb8    ....    BL       s_grey_createOneEnmeyBullet ; 0x3f84
        0x00001014:    e764        d.      B        0xee0 ; b_green_movePlane + 56
        0x00001016:    88a0        ..      LDRH     r0,[r4,#4]
        0x00001018:    1c80        ..      ADDS     r0,r0,#2
        0x0000101a:    80a0        ..      STRH     r0,[r4,#4]
        0x0000101c:    f7fff89c    ....    BL       rand ; 0x158
        0x00001020:    fb90f1f7    ....    SDIV     r1,r0,r7
        0x00001024:    fb070011    ....    MLS      r0,r7,r1,r0
        0x00001028:    88e1        ..      LDRH     r1,[r4,#6]
        0x0000102a:    1e40        @.      SUBS     r0,r0,#1
        0x0000102c:    4408        .D      ADD      r0,r0,r1
        0x0000102e:    80e0        ..      STRH     r0,[r4,#6]
        0x00001030:    f9b40004    ....    LDRSH    r0,[r4,#4]
        0x00001034:    f9b41018    ....    LDRSH    r1,[r4,#0x18]
        0x00001038:    4288        .B      CMP      r0,r1
        0x0000103a:    dd05        ..      BLE      0x1048 ; b_green_movePlane + 416
        0x0000103c:    7267        gr      STRB     r7,[r4,#9]
        0x0000103e:    4a15        .J      LDR      r2,[pc,#84] ; [0x1094] = 0x20002c38
        0x00001040:    4631        1F      MOV      r1,r6
        0x00001042:    4815        .H      LDR      r0,[pc,#84] ; [0x1098] = 0x20002ea8
        0x00001044:    f002ff9e    ....    BL       s_grey_createOneEnmeyBullet ; 0x3f84
        0x00001048:    f9b40004    ....    LDRSH    r0,[r4,#4]
        0x0000104c:    286e        n(      CMP      r0,#0x6e
        0x0000104e:    da09        ..      BGE      0x1064 ; b_green_movePlane + 444
        0x00001050:    f9b40004    ....    LDRSH    r0,[r4,#4]
        0x00001054:    286b        k(      CMP      r0,#0x6b
        0x00001056:    dd05        ..      BLE      0x1064 ; b_green_movePlane + 444
        0x00001058:    4a0e        .J      LDR      r2,[pc,#56] ; [0x1094] = 0x20002c38
        0x0000105a:    4631        1F      MOV      r1,r6
        0x0000105c:    480e        .H      LDR      r0,[pc,#56] ; [0x1098] = 0x20002ea8
        0x0000105e:    f002ff91    ....    BL       s_grey_createOneEnmeyBullet ; 0x3f84
        0x00001062:    e73d        =.      B        0xee0 ; b_green_movePlane + 56
        0x00001064:    f9b40004    ....    LDRSH    r0,[r4,#4]
        0x00001068:    2880        .(      CMP      r0,#0x80
        0x0000106a:    da89        ..      BGE      0xf80 ; b_green_movePlane + 216
        0x0000106c:    f9b40004    ....    LDRSH    r0,[r4,#4]
        0x00001070:    287d        }(      CMP      r0,#0x7d
        0x00001072:    dd85        ..      BLE      0xf80 ; b_green_movePlane + 216
        0x00001074:    4a07        .J      LDR      r2,[pc,#28] ; [0x1094] = 0x20002c38
        0x00001076:    4631        1F      MOV      r1,r6
        0x00001078:    4807        .H      LDR      r0,[pc,#28] ; [0x1098] = 0x20002ea8
        0x0000107a:    f002ff83    ....    BL       s_grey_createOneEnmeyBullet ; 0x3f84
        0x0000107e:    7aa0        .z      LDRB     r0,[r4,#0xa]
        0x00001080:    1c40        @.      ADDS     r0,r0,#1
        0x00001082:    72a0        .r      STRB     r0,[r4,#0xa]
        0x00001084:    7aa0        .z      LDRB     r0,[r4,#0xa]
        0x00001086:    2804        .(      CMP      r0,#4
        0x00001088:    d1a2        ..      BNE      0xfd0 ; b_green_movePlane + 296
        0x0000108a:    f8849008    ....    STRB     r9,[r4,#8]
        0x0000108e:    e727        '.      B        0xee0 ; b_green_movePlane + 56
    $d
        0x00001090:    00004a7c    |J..    DCD    19068
        0x00001094:    20002c38    8,.     DCD    536882232
        0x00001098:    20002ea8    ...     DCD    536882856
    $t
    i.b_green_planeInit
    b_green_planeInit
        0x0000109c:    b570        p.      PUSH     {r4-r6,lr}
        0x0000109e:    2200        ."      MOVS     r2,#0
        0x000010a0:    2300        .#      MOVS     r3,#0
        0x000010a2:    2505        .%      MOVS     r5,#5
        0x000010a4:    4e09        .N      LDR      r6,[pc,#36] ; [0x10cc] = 0x4a7c
        0x000010a6:    e00d        ..      B        0x10c4 ; b_green_planeInit + 40
        0x000010a8:    eb020182    ....    ADD      r1,r2,r2,LSL #2
        0x000010ac:    eb0104c2    ....    ADD      r4,r1,r2,LSL #3
        0x000010b0:    eb000144    ..D.    ADD      r1,r0,r4,LSL #1
        0x000010b4:    808b        ..      STRH     r3,[r1,#4]
        0x000010b6:    80cb        ..      STRH     r3,[r1,#6]
        0x000010b8:    f8003014    ...0    STRB     r3,[r0,r4,LSL #1]
        0x000010bc:    704d        Mp      STRB     r5,[r1,#1]
        0x000010be:    708b        .p      STRB     r3,[r1,#2]
        0x000010c0:    720b        .r      STRB     r3,[r1,#8]
        0x000010c2:    1c52        R.      ADDS     r2,r2,#1
        0x000010c4:    7831        1x      LDRB     r1,[r6,#0]
        0x000010c6:    428a        .B      CMP      r2,r1
        0x000010c8:    dbee        ..      BLT      0x10a8 ; b_green_planeInit + 12
        0x000010ca:    bd70        p.      POP      {r4-r6,pc}
    $d
        0x000010cc:    00004a7c    |J..    DCD    19068
    $t
    i.clearNameTableAll
    clearNameTableAll
        0x000010d0:    b510        ..      PUSH     {r4,lr}
        0x000010d2:    2400        .$      MOVS     r4,#0
        0x000010d4:    2300        .#      MOVS     r3,#0
        0x000010d6:    22ff        ."      MOVS     r2,#0xff
        0x000010d8:    4621        !F      MOV      r1,r4
        0x000010da:    4618        .F      MOV      r0,r3
        0x000010dc:    f003fcb2    ....    BL       writeOneNametable ; 0x4a44
        0x000010e0:    1c5b        [.      ADDS     r3,r3,#1
        0x000010e2:    b2db        ..      UXTB     r3,r3
        0x000010e4:    2b20         +      CMP      r3,#0x20
        0x000010e6:    d3f6        ..      BCC      0x10d6 ; clearNameTableAll + 6
        0x000010e8:    1c64        d.      ADDS     r4,r4,#1
        0x000010ea:    b2e4        ..      UXTB     r4,r4
        0x000010ec:    2c1e        .,      CMP      r4,#0x1e
        0x000010ee:    d3f1        ..      BCC      0x10d4 ; clearNameTableAll + 4
        0x000010f0:    bd10        ..      POP      {r4,pc}
        0x000010f2:    0000        ..      MOVS     r0,r0
    i.create_plane_Handler
    create_plane_Handler
        0x000010f4:    b510        ..      PUSH     {r4,lr}
        0x000010f6:    4c34        4L      LDR      r4,[pc,#208] ; [0x11c8] = 0x20000044
        0x000010f8:    a034        4.      ADR      r0,{pc}+0xd4 ; 0x11cc
        0x000010fa:    6821        !h      LDR      r1,[r4,#0]
        0x000010fc:    f7fffc22    ..".    BL       __0printf$5 ; 0x944
        0x00001100:    4839        9H      LDR      r0,[pc,#228] ; [0x11e8] = 0x20000001
        0x00001102:    7800        .x      LDRB     r0,[r0,#0]
        0x00001104:    2801        .(      CMP      r0,#1
        0x00001106:    d002        ..      BEQ      0x110e ; create_plane_Handler + 26
        0x00001108:    2000        .       MOVS     r0,#0
        0x0000110a:    6020         `      STR      r0,[r4,#0]
        0x0000110c:    bd10        ..      POP      {r4,pc}
        0x0000110e:    4837        7H      LDR      r0,[pc,#220] ; [0x11ec] = 0x2000000b
        0x00001110:    7801        .x      LDRB     r1,[r0,#0]
        0x00001112:    4837        7H      LDR      r0,[pc,#220] ; [0x11f0] = 0x20000054
        0x00001114:    b131        1.      CBZ      r1,0x1124 ; create_plane_Handler + 48
        0x00001116:    6822        "h      LDR      r2,[r4,#0]
        0x00001118:    f5007172    ..rq    ADD      r1,r0,#0x3c8
        0x0000111c:    f8511022    Q.".    LDR      r1,[r1,r2,LSL #2]
        0x00001120:    6041        A`      STR      r1,[r0,#4]
        0x00001122:    e005        ..      B        0x1130 ; create_plane_Handler + 60
        0x00001124:    4932        2I      LDR      r1,[pc,#200] ; [0x11f0] = 0x20000054
        0x00001126:    6822        "h      LDR      r2,[r4,#0]
        0x00001128:    3108        .1      ADDS     r1,r1,#8
        0x0000112a:    f8511022    Q.".    LDR      r1,[r1,r2,LSL #2]
        0x0000112e:    6041        A`      STR      r1,[r0,#4]
        0x00001130:    6841        Ah      LDR      r1,[r0,#4]
        0x00001132:    4830        0H      LDR      r0,[pc,#192] ; [0x11f4] = 0x20002c38
        0x00001134:    290d        .)      CMP      r1,#0xd
        0x00001136:    d243        C.      BCS      0x11c0 ; create_plane_Handler + 204
        0x00001138:    e8dff001    ....    TBB      [pc,r1]
    $d
        0x0000113c:    0f0b0742    B...    DCD    252380994
        0x00001140:    1f1b1713    ....    DCD    521869075
        0x00001144:    3b372f27    '/7;    DCD    993472295
        0x00001148:    003f        ?.      DCW    63
    $t
        0x0000114a:    482b        +H      LDR      r0,[pc,#172] ; [0x11f8] = 0x20002cba
        0x0000114c:    f002ffe0    ....    BL       s_grey_createPlane_111 ; 0x4110
        0x00001150:    e036        6.      B        0x11c0 ; create_plane_Handler + 204
        0x00001152:    4829        )H      LDR      r0,[pc,#164] ; [0x11f8] = 0x20002cba
        0x00001154:    f003f807    ....    BL       s_grey_createPlane_122 ; 0x4166
        0x00001158:    e032        2.      B        0x11c0 ; create_plane_Handler + 204
        0x0000115a:    4827        'H      LDR      r0,[pc,#156] ; [0x11f8] = 0x20002cba
        0x0000115c:    f003f820    .. .    BL       s_grey_createPlane_123 ; 0x41a0
        0x00001160:    e02e        ..      B        0x11c0 ; create_plane_Handler + 204
        0x00001162:    4825        %H      LDR      r0,[pc,#148] ; [0x11f8] = 0x20002cba
        0x00001164:    f003f85c    ..\.    BL       s_grey_createPlane_144 ; 0x4220
        0x00001168:    e02a        *.      B        0x11c0 ; create_plane_Handler + 204
        0x0000116a:    4823        #H      LDR      r0,[pc,#140] ; [0x11f8] = 0x20002cba
        0x0000116c:    f003f887    ....    BL       s_grey_createPlane_145 ; 0x427e
        0x00001170:    e026        &.      B        0x11c0 ; create_plane_Handler + 204
        0x00001172:    4821        !H      LDR      r0,[pc,#132] ; [0x11f8] = 0x20002cba
        0x00001174:    f003f8d5    ....    BL       s_grey_createPlane_166 ; 0x4322
        0x00001178:    e022        ".      B        0x11c0 ; create_plane_Handler + 204
        0x0000117a:    f9b02002    ...     LDRSH    r2,[r0,#2]
        0x0000117e:    f9b01000    ....    LDRSH    r1,[r0,#0]
        0x00001182:    481e        .H      LDR      r0,[pc,#120] ; [0x11fc] = 0x20002d7a
        0x00001184:    f002fbd2    ....    BL       s_green_createPlane_221 ; 0x392c
        0x00001188:    e01a        ..      B        0x11c0 ; create_plane_Handler + 204
        0x0000118a:    f9b02002    ...     LDRSH    r2,[r0,#2]
        0x0000118e:    f9b01000    ....    LDRSH    r1,[r0,#0]
        0x00001192:    481a        .H      LDR      r0,[pc,#104] ; [0x11fc] = 0x20002d7a
        0x00001194:    f002fbe6    ....    BL       s_green_createPlane_222 ; 0x3964
        0x00001198:    e012        ..      B        0x11c0 ; create_plane_Handler + 204
        0x0000119a:    f9b02002    ...     LDRSH    r2,[r0,#2]
        0x0000119e:    f9b01000    ....    LDRSH    r1,[r0,#0]
        0x000011a2:    4816        .H      LDR      r0,[pc,#88] ; [0x11fc] = 0x20002d7a
        0x000011a4:    f002fbfd    ....    BL       s_green_createPlane_243 ; 0x39a2
        0x000011a8:    e00a        ..      B        0x11c0 ; create_plane_Handler + 204
        0x000011aa:    4815        .H      LDR      r0,[pc,#84] ; [0x1200] = 0x20002e6a
        0x000011ac:    f002fc22    ..".    BL       s_green_createPlane_411 ; 0x39f4
        0x000011b0:    e006        ..      B        0x11c0 ; create_plane_Handler + 204
        0x000011b2:    4813        .H      LDR      r0,[pc,#76] ; [0x1200] = 0x20002e6a
        0x000011b4:    f002fc31    ..1.    BL       s_green_createPlane_422 ; 0x3a1a
        0x000011b8:    e002        ..      B        0x11c0 ; create_plane_Handler + 204
        0x000011ba:    4812        .H      LDR      r0,[pc,#72] ; [0x1204] = 0x20002e8e
        0x000011bc:    f7fffd9c    ....    BL       b_green_createPlane_511 ; 0xcf8
        0x000011c0:    6820         h      LDR      r0,[r4,#0]
        0x000011c2:    1c40        @.      ADDS     r0,r0,#1
        0x000011c4:    6020         `      STR      r0,[r4,#0]
        0x000011c6:    bd10        ..      POP      {r4,pc}
    $d
        0x000011c8:    20000044    D..     DCD    536870980
        0x000011cc:    61657263    crea    DCD    1634038371
        0x000011d0:    655f6574    te_e    DCD    1700750708
        0x000011d4:    79656d6e    nmey    DCD    2036690286
        0x000011d8:    6e616c50    Plan    DCD    1851878480
        0x000011dc:    756e5f65    e_nu    DCD    1970167653
        0x000011e0:    64253d6d    m=%d    DCD    1680162157
        0x000011e4:    00000000    ....    DCD    0
        0x000011e8:    20000001    ...     DCD    536870913
        0x000011ec:    2000000b    ...     DCD    536870923
        0x000011f0:    20000054    T..     DCD    536870996
        0x000011f4:    20002c38    8,.     DCD    536882232
        0x000011f8:    20002cba    .,.     DCD    536882362
        0x000011fc:    20002d7a    z-.     DCD    536882554
        0x00001200:    20002e6a    j..     DCD    536882794
        0x00001204:    20002e8e    ...     DCD    536882830
    $t
    i.delay
    delay
        0x00001208:    b500        ..      PUSH     {lr}
        0x0000120a:    4602        .F      MOV      r2,r0
        0x0000120c:    2000        .       MOVS     r0,#0
        0x0000120e:    f7fffb5a    ..Z.    BL       Set_SysTick_CTRL ; 0x8c6
        0x00001212:    4610        .F      MOV      r0,r2
        0x00001214:    f7fffb5b    ..[.    BL       Set_SysTick_LOAD ; 0x8ce
        0x00001218:    2000        .       MOVS     r0,#0
        0x0000121a:    f7fffb5c    ..\.    BL       Set_SysTick_VALUE ; 0x8d6
        0x0000121e:    2007        .       MOVS     r0,#7
        0x00001220:    f7fffb51    ..Q.    BL       Set_SysTick_CTRL ; 0x8c6
        0x00001224:    bf30        0.      WFI      
        0x00001226:    bd00        ..      POP      {pc}
    i.delay_ms
    delay_ms
        0x00001228:    b510        ..      PUSH     {r4,lr}
        0x0000122a:    4603        .F      MOV      r3,r0
        0x0000122c:    f24c3450    L.P4    MOV      r4,#0xc350
        0x00001230:    e003        ..      B        0x123a ; delay_ms + 18
        0x00001232:    4620         F      MOV      r0,r4
        0x00001234:    f7ffffe8    ....    BL       delay ; 0x1208
        0x00001238:    1e5b        [.      SUBS     r3,r3,#1
        0x0000123a:    2b00        .+      CMP      r3,#0
        0x0000123c:    d1f9        ..      BNE      0x1232 ; delay_ms + 10
        0x0000123e:    bd10        ..      POP      {r4,pc}
    i.delay_us
    delay_us
        0x00001240:    b500        ..      PUSH     {lr}
        0x00001242:    4603        .F      MOV      r3,r0
        0x00001244:    e003        ..      B        0x124e ; delay_us + 14
        0x00001246:    2032        2       MOVS     r0,#0x32
        0x00001248:    f7ffffde    ....    BL       delay ; 0x1208
        0x0000124c:    1e5b        [.      SUBS     r3,r3,#1
        0x0000124e:    2b00        .+      CMP      r3,#0
        0x00001250:    d1f9        ..      BNE      0x1246 ; delay_us + 6
        0x00001252:    bd00        ..      POP      {pc}
    i.endInterFaceDraw
    endInterFaceDraw
        0x00001254:    e92d4ff8    -..O    PUSH     {r3-r11,lr}
        0x00001258:    4607        .F      MOV      r7,r0
        0x0000125a:    f8dde028    ..(.    LDR      lr,[sp,#0x28]
        0x0000125e:    460e        .F      MOV      r6,r1
        0x00001260:    240a        .$      MOVS     r4,#0xa
        0x00001262:    fbb2f0f4    ....    UDIV     r0,r2,r4
        0x00001266:    fb042010    ...     MLS      r0,r4,r0,r2
        0x0000126a:    fbb2f1f4    ....    UDIV     r1,r2,r4
        0x0000126e:    fbb1f5f4    ....    UDIV     r5,r1,r4
        0x00001272:    fb041115    ....    MLS      r1,r4,r5,r1
        0x00001276:    f04f0a64    O.d.    MOV      r10,#0x64
        0x0000127a:    fbb2f5fa    ....    UDIV     r5,r2,r10
        0x0000127e:    fbb5fcf4    ....    UDIV     r12,r5,r4
        0x00001282:    fb045c1c    ...\    MLS      r12,r4,r12,r5
        0x00001286:    f44f7b7a    O.z{    MOV      r11,#0x3e8
        0x0000128a:    fbb2f5fb    ....    UDIV     r5,r2,r11
        0x0000128e:    fbb5f8f4    ....    UDIV     r8,r5,r4
        0x00001292:    fb045818    ...X    MLS      r8,r4,r8,r5
        0x00001296:    f2427510    B..u    MOV      r5,#0x2710
        0x0000129a:    fbb2f5f5    ....    UDIV     r5,r2,r5
        0x0000129e:    fbb5f9f4    ....    UDIV     r9,r5,r4
        0x000012a2:    fb045919    ...Y    MLS      r9,r4,r9,r5
        0x000012a6:    4d2d        -M      LDR      r5,[pc,#180] ; [0x135c] = 0x186a0
        0x000012a8:    fbb2f2f5    ....    UDIV     r2,r2,r5
        0x000012ac:    fbb2f5f4    ....    UDIV     r5,r2,r4
        0x000012b0:    fb042215    ..."    MLS      r2,r4,r5,r2
        0x000012b4:    4d2a        *M      LDR      r5,[pc,#168] ; [0x1360] = 0x20000aea
        0x000012b6:    722a        *r      STRB     r2,[r5,#8]
        0x000012b8:    f885900b    ....    STRB     r9,[r5,#0xb]
        0x000012bc:    f885800e    ....    STRB     r8,[r5,#0xe]
        0x000012c0:    f885c011    ....    STRB     r12,[r5,#0x11]
        0x000012c4:    7529        )u      STRB     r1,[r5,#0x14]
        0x000012c6:    75e8        .u      STRB     r0,[r5,#0x17]
        0x000012c8:    fbb3f0f4    ....    UDIV     r0,r3,r4
        0x000012cc:    fb043110    ...1    MLS      r1,r4,r0,r3
        0x000012d0:    fbb3f0f4    ....    UDIV     r0,r3,r4
        0x000012d4:    fbb0f2f4    ....    UDIV     r2,r0,r4
        0x000012d8:    fb040212    ....    MLS      r2,r4,r2,r0
        0x000012dc:    fbb3f0fa    ....    UDIV     r0,r3,r10
        0x000012e0:    fbb0fcf4    ....    UDIV     r12,r0,r4
        0x000012e4:    fb040c1c    ....    MLS      r12,r4,r12,r0
        0x000012e8:    fbb3f0fb    ....    UDIV     r0,r3,r11
        0x000012ec:    fbb0f3f4    ....    UDIV     r3,r0,r4
        0x000012f0:    fb040013    ....    MLS      r0,r4,r3,r0
        0x000012f4:    f8850020    .. .    STRB     r0,[r5,#0x20]
        0x000012f8:    f885c023    ..#.    STRB     r12,[r5,#0x23]
        0x000012fc:    f8852026    ..&     STRB     r2,[r5,#0x26]
        0x00001300:    f8851029    ..).    STRB     r1,[r5,#0x29]
        0x00001304:    4917        .I      LDR      r1,[pc,#92] ; [0x1364] = 0x42c80000
        0x00001306:    4670        pF      MOV      r0,lr
        0x00001308:    f7feff90    ....    BL       __aeabi_fmul ; 0x22c
        0x0000130c:    f7fff80c    ....    BL       __aeabi_f2uiz ; 0x328
        0x00001310:    b2c0        ..      UXTB     r0,r0
        0x00001312:    fbb0f1f4    ....    UDIV     r1,r0,r4
        0x00001316:    fb040111    ....    MLS      r1,r4,r1,r0
        0x0000131a:    fbb0f0f4    ....    UDIV     r0,r0,r4
        0x0000131e:    fbb0f2f4    ....    UDIV     r2,r0,r4
        0x00001322:    fb040012    ....    MLS      r0,r4,r2,r0
        0x00001326:    f8850035    ..5.    STRB     r0,[r5,#0x35]
        0x0000132a:    f8851038    ..8.    STRB     r1,[r5,#0x38]
        0x0000132e:    7838        8x      LDRB     r0,[r7,#0]
        0x00001330:    2801        .(      CMP      r0,#1
        0x00001332:    d110        ..      BNE      0x1356 ; endInterFaceDraw + 258
        0x00001334:    7830        0x      LDRB     r0,[r6,#0]
        0x00001336:    2818        .(      CMP      r0,#0x18
        0x00001338:    d20d        ..      BCS      0x1356 ; endInterFaceDraw + 258
        0x0000133a:    2400        .$      MOVS     r4,#0
        0x0000133c:    eb000140    ..@.    ADD      r1,r0,r0,LSL #1
        0x00001340:    194a        J.      ADDS     r2,r1,r5
        0x00001342:    9400        ..      STR      r4,[sp,#0]
        0x00001344:    7893        .x      LDRB     r3,[r2,#2]
        0x00001346:    7852        Rx      LDRB     r2,[r2,#1]
        0x00001348:    5c69        i\      LDRB     r1,[r5,r1]
        0x0000134a:    f003fb83    ....    BL       writeOneSprite ; 0x4a54
        0x0000134e:    7830        0x      LDRB     r0,[r6,#0]
        0x00001350:    1c40        @.      ADDS     r0,r0,#1
        0x00001352:    7030        0p      STRB     r0,[r6,#0]
        0x00001354:    703c        <p      STRB     r4,[r7,#0]
        0x00001356:    e8bd8ff8    ....    POP      {r3-r11,pc}
    $d
        0x0000135a:    0000        ..      DCW    0
        0x0000135c:    000186a0    ....    DCD    100000
        0x00001360:    20000aea    ...     DCD    536873706
        0x00001364:    42c80000    ...B    DCD    1120403456
    $t
    i.enemyAndBulletMapCreate
    enemyAndBulletMapCreate
        0x00001368:    e92d4ff0    -..O    PUSH     {r4-r11,lr}
        0x0000136c:    4682        .F      MOV      r10,r0
        0x0000136e:    f8dd8024    ..$.    LDR      r8,[sp,#0x24]
        0x00001372:    4689        .F      MOV      r9,r1
        0x00001374:    4616        .F      MOV      r6,r2
        0x00001376:    461f        .F      MOV      r7,r3
        0x00001378:    2100        .!      MOVS     r1,#0
        0x0000137a:    2000        .       MOVS     r0,#0
        0x0000137c:    f8480021    H.!.    STR      r0,[r8,r1,LSL #2]
        0x00001380:    1c49        I.      ADDS     r1,r1,#1
        0x00001382:    291e        .)      CMP      r1,#0x1e
        0x00001384:    dbfa        ..      BLT      0x137c ; enemyAndBulletMapCreate + 20
        0x00001386:    2500        .%      MOVS     r5,#0
        0x00001388:    f8dfb140    ..@.    LDR      r11,[pc,#320] ; [0x14cc] = 0x4a79
        0x0000138c:    e01c        ..      B        0x13c8 ; enemyAndBulletMapCreate + 96
        0x0000138e:    eb0a1405    ....    ADD      r4,r10,r5,LSL #4
        0x00001392:    7820         x      LDRB     r0,[r4,#0]
        0x00001394:    b1b8        ..      CBZ      r0,0x13c6 ; enemyAndBulletMapCreate + 94
        0x00001396:    88e0        ..      LDRH     r0,[r4,#6]
        0x00001398:    b2c1        ..      UXTB     r1,r0
        0x0000139a:    88a0        ..      LDRH     r0,[r4,#4]
        0x0000139c:    4642        BF      MOV      r2,r8
        0x0000139e:    b2c0        ..      UXTB     r0,r0
        0x000013a0:    f003faa2    ....    BL       tileMap ; 0x48e8
        0x000013a4:    88e0        ..      LDRH     r0,[r4,#6]
        0x000013a6:    b2c1        ..      UXTB     r1,r0
        0x000013a8:    88a0        ..      LDRH     r0,[r4,#4]
        0x000013aa:    4642        BF      MOV      r2,r8
        0x000013ac:    3008        .0      ADDS     r0,r0,#8
        0x000013ae:    b2c0        ..      UXTB     r0,r0
        0x000013b0:    f003fa9a    ....    BL       tileMap ; 0x48e8
        0x000013b4:    88e0        ..      LDRH     r0,[r4,#6]
        0x000013b6:    3808        .8      SUBS     r0,r0,#8
        0x000013b8:    b2c1        ..      UXTB     r1,r0
        0x000013ba:    88a0        ..      LDRH     r0,[r4,#4]
        0x000013bc:    4642        BF      MOV      r2,r8
        0x000013be:    1d00        ..      ADDS     r0,r0,#4
        0x000013c0:    b2c0        ..      UXTB     r0,r0
        0x000013c2:    f003fa91    ....    BL       tileMap ; 0x48e8
        0x000013c6:    1c6d        m.      ADDS     r5,r5,#1
        0x000013c8:    f89b0000    ....    LDRB     r0,[r11,#0]
        0x000013cc:    4285        .B      CMP      r5,r0
        0x000013ce:    dbde        ..      BLT      0x138e ; enemyAndBulletMapCreate + 38
        0x000013d0:    2500        .%      MOVS     r5,#0
        0x000013d2:    f8dfa0fc    ....    LDR      r10,[pc,#252] ; [0x14d0] = 0x4a7a
        0x000013d6:    e01f        ..      B        0x1418 ; enemyAndBulletMapCreate + 176
        0x000013d8:    ebc51005    ....    RSB      r0,r5,r5,LSL #4
        0x000013dc:    f8191010    ....    LDRB     r1,[r9,r0,LSL #1]
        0x000013e0:    b1c9        ..      CBZ      r1,0x1416 ; enemyAndBulletMapCreate + 174
        0x000013e2:    eb090440    ..@.    ADD      r4,r9,r0,LSL #1
        0x000013e6:    88a0        ..      LDRH     r0,[r4,#4]
        0x000013e8:    b2c1        ..      UXTB     r1,r0
        0x000013ea:    8860        `.      LDRH     r0,[r4,#2]
        0x000013ec:    4642        BF      MOV      r2,r8
        0x000013ee:    b2c0        ..      UXTB     r0,r0
        0x000013f0:    f003fa7a    ..z.    BL       tileMap ; 0x48e8
        0x000013f4:    88a0        ..      LDRH     r0,[r4,#4]
        0x000013f6:    b2c1        ..      UXTB     r1,r0
        0x000013f8:    8860        `.      LDRH     r0,[r4,#2]
        0x000013fa:    4642        BF      MOV      r2,r8
        0x000013fc:    3008        .0      ADDS     r0,r0,#8
        0x000013fe:    b2c0        ..      UXTB     r0,r0
        0x00001400:    f003fa72    ..r.    BL       tileMap ; 0x48e8
        0x00001404:    88a0        ..      LDRH     r0,[r4,#4]
        0x00001406:    3808        .8      SUBS     r0,r0,#8
        0x00001408:    b2c1        ..      UXTB     r1,r0
        0x0000140a:    8860        `.      LDRH     r0,[r4,#2]
        0x0000140c:    4642        BF      MOV      r2,r8
        0x0000140e:    1d00        ..      ADDS     r0,r0,#4
        0x00001410:    b2c0        ..      UXTB     r0,r0
        0x00001412:    f003fa69    ..i.    BL       tileMap ; 0x48e8
        0x00001416:    1c6d        m.      ADDS     r5,r5,#1
        0x00001418:    f89a0000    ....    LDRB     r0,[r10,#0]
        0x0000141c:    4285        .B      CMP      r5,r0
        0x0000141e:    dbdb        ..      BLT      0x13d8 ; enemyAndBulletMapCreate + 112
        0x00001420:    2500        .%      MOVS     r5,#0
        0x00001422:    f8df90b0    ....    LDR      r9,[pc,#176] ; [0x14d4] = 0x4a7c
        0x00001426:    e035        5.      B        0x1494 ; enemyAndBulletMapCreate + 300
        0x00001428:    eb050085    ....    ADD      r0,r5,r5,LSL #2
        0x0000142c:    eb0000c5    ....    ADD      r0,r0,r5,LSL #3
        0x00001430:    f8161010    ....    LDRB     r1,[r6,r0,LSL #1]
        0x00001434:    b369        i.      CBZ      r1,0x1492 ; enemyAndBulletMapCreate + 298
        0x00001436:    eb060440    ..@.    ADD      r4,r6,r0,LSL #1
        0x0000143a:    88e0        ..      LDRH     r0,[r4,#6]
        0x0000143c:    300e        .0      ADDS     r0,r0,#0xe
        0x0000143e:    b2c1        ..      UXTB     r1,r0
        0x00001440:    88a0        ..      LDRH     r0,[r4,#4]
        0x00001442:    4642        BF      MOV      r2,r8
        0x00001444:    b2c0        ..      UXTB     r0,r0
        0x00001446:    f003fa4f    ..O.    BL       tileMap ; 0x48e8
        0x0000144a:    88e0        ..      LDRH     r0,[r4,#6]
        0x0000144c:    300c        .0      ADDS     r0,r0,#0xc
        0x0000144e:    b2c1        ..      UXTB     r1,r0
        0x00001450:    88a0        ..      LDRH     r0,[r4,#4]
        0x00001452:    4642        BF      MOV      r2,r8
        0x00001454:    1fc0        ..      SUBS     r0,r0,#7
        0x00001456:    b2c0        ..      UXTB     r0,r0
        0x00001458:    f003fa46    ..F.    BL       tileMap ; 0x48e8
        0x0000145c:    88e0        ..      LDRH     r0,[r4,#6]
        0x0000145e:    300c        .0      ADDS     r0,r0,#0xc
        0x00001460:    b2c1        ..      UXTB     r1,r0
        0x00001462:    88a0        ..      LDRH     r0,[r4,#4]
        0x00001464:    4642        BF      MOV      r2,r8
        0x00001466:    1dc0        ..      ADDS     r0,r0,#7
        0x00001468:    b2c0        ..      UXTB     r0,r0
        0x0000146a:    f003fa3d    ..=.    BL       tileMap ; 0x48e8
        0x0000146e:    88e0        ..      LDRH     r0,[r4,#6]
        0x00001470:    300a        .0      ADDS     r0,r0,#0xa
        0x00001472:    b2c1        ..      UXTB     r1,r0
        0x00001474:    88a0        ..      LDRH     r0,[r4,#4]
        0x00001476:    4642        BF      MOV      r2,r8
        0x00001478:    380e        .8      SUBS     r0,r0,#0xe
        0x0000147a:    b2c0        ..      UXTB     r0,r0
        0x0000147c:    f003fa34    ..4.    BL       tileMap ; 0x48e8
        0x00001480:    88e0        ..      LDRH     r0,[r4,#6]
        0x00001482:    300a        .0      ADDS     r0,r0,#0xa
        0x00001484:    b2c1        ..      UXTB     r1,r0
        0x00001486:    88a0        ..      LDRH     r0,[r4,#4]
        0x00001488:    4642        BF      MOV      r2,r8
        0x0000148a:    300e        .0      ADDS     r0,r0,#0xe
        0x0000148c:    b2c0        ..      UXTB     r0,r0
        0x0000148e:    f003fa2b    ..+.    BL       tileMap ; 0x48e8
        0x00001492:    1c6d        m.      ADDS     r5,r5,#1
        0x00001494:    f8990000    ....    LDRB     r0,[r9,#0]
        0x00001498:    4285        .B      CMP      r5,r0
        0x0000149a:    dbc5        ..      BLT      0x1428 ; enemyAndBulletMapCreate + 192
        0x0000149c:    2400        .$      MOVS     r4,#0
        0x0000149e:    4d0e        .M      LDR      r5,[pc,#56] ; [0x14d8] = 0x4a7d
        0x000014a0:    e00e        ..      B        0x14c0 ; enemyAndBulletMapCreate + 344
        0x000014a2:    eb040084    ....    ADD      r0,r4,r4,LSL #2
        0x000014a6:    eb070140    ..@.    ADD      r1,r7,r0,LSL #1
        0x000014aa:    790a        .y      LDRB     r2,[r1,#4]
        0x000014ac:    b13a        :.      CBZ      r2,0x14be ; enemyAndBulletMapCreate + 342
        0x000014ae:    8849        I.      LDRH     r1,[r1,#2]
        0x000014b0:    f8370010    7...    LDRH     r0,[r7,r0,LSL #1]
        0x000014b4:    b2c9        ..      UXTB     r1,r1
        0x000014b6:    b2c0        ..      UXTB     r0,r0
        0x000014b8:    4642        BF      MOV      r2,r8
        0x000014ba:    f003fa15    ....    BL       tileMap ; 0x48e8
        0x000014be:    1c64        d.      ADDS     r4,r4,#1
        0x000014c0:    7828        (x      LDRB     r0,[r5,#0]
        0x000014c2:    4284        .B      CMP      r4,r0
        0x000014c4:    dbed        ..      BLT      0x14a2 ; enemyAndBulletMapCreate + 314
        0x000014c6:    e8bd8ff0    ....    POP      {r4-r11,pc}
    $d
        0x000014ca:    0000        ..      DCW    0
        0x000014cc:    00004a79    yJ..    DCD    19065
        0x000014d0:    00004a7a    zJ..    DCD    19066
        0x000014d4:    00004a7c    |J..    DCD    19068
        0x000014d8:    00004a7d    }J..    DCD    19069
    $t
    i.enmeyBulletDraw
    enmeyBulletDraw
        0x000014dc:    b5f8        ..      PUSH     {r3-r7,lr}
        0x000014de:    4606        .F      MOV      r6,r0
        0x000014e0:    460d        .F      MOV      r5,r1
        0x000014e2:    2400        .$      MOVS     r4,#0
        0x000014e4:    4f0d        .O      LDR      r7,[pc,#52] ; [0x151c] = 0x4a7d
        0x000014e6:    e014        ..      B        0x1512 ; enmeyBulletDraw + 54
        0x000014e8:    eb040184    ....    ADD      r1,r4,r4,LSL #2
        0x000014ec:    eb060241    ..A.    ADD      r2,r6,r1,LSL #1
        0x000014f0:    7910        .y      LDRB     r0,[r2,#4]
        0x000014f2:    b168        h.      CBZ      r0,0x1510 ; enmeyBulletDraw + 52
        0x000014f4:    2010        .       MOVS     r0,#0x10
        0x000014f6:    9000        ..      STR      r0,[sp,#0]
        0x000014f8:    8850        P.      LDRH     r0,[r2,#2]
        0x000014fa:    b2c2        ..      UXTB     r2,r0
        0x000014fc:    f8360011    6...    LDRH     r0,[r6,r1,LSL #1]
        0x00001500:    2330        0#      MOVS     r3,#0x30
        0x00001502:    b2c1        ..      UXTB     r1,r0
        0x00001504:    7828        (x      LDRB     r0,[r5,#0]
        0x00001506:    f003faa5    ....    BL       writeOneSprite ; 0x4a54
        0x0000150a:    7828        (x      LDRB     r0,[r5,#0]
        0x0000150c:    1c40        @.      ADDS     r0,r0,#1
        0x0000150e:    7028        (p      STRB     r0,[r5,#0]
        0x00001510:    1c64        d.      ADDS     r4,r4,#1
        0x00001512:    7838        8x      LDRB     r0,[r7,#0]
        0x00001514:    4284        .B      CMP      r4,r0
        0x00001516:    dbe7        ..      BLT      0x14e8 ; enmeyBulletDraw + 12
        0x00001518:    bdf8        ..      POP      {r3-r7,pc}
    $d
        0x0000151a:    0000        ..      DCW    0
        0x0000151c:    00004a7d    }J..    DCD    19069
    $t
    i.enmey_BulletInit
    enmey_BulletInit
        0x00001520:    b510        ..      PUSH     {r4,lr}
        0x00001522:    2100        .!      MOVS     r1,#0
        0x00001524:    2200        ."      MOVS     r2,#0
        0x00001526:    4b06        .K      LDR      r3,[pc,#24] ; [0x1540] = 0x4a7d
        0x00001528:    e005        ..      B        0x1536 ; enmey_BulletInit + 22
        0x0000152a:    eb010481    ....    ADD      r4,r1,r1,LSL #2
        0x0000152e:    eb000444    ..D.    ADD      r4,r0,r4,LSL #1
        0x00001532:    7122        "q      STRB     r2,[r4,#4]
        0x00001534:    1c49        I.      ADDS     r1,r1,#1
        0x00001536:    781c        .x      LDRB     r4,[r3,#0]
        0x00001538:    42a1        .B      CMP      r1,r4
        0x0000153a:    dbf6        ..      BLT      0x152a ; enmey_BulletInit + 10
        0x0000153c:    bd10        ..      POP      {r4,pc}
    $d
        0x0000153e:    0000        ..      DCW    0
        0x00001540:    00004a7d    }J..    DCD    19069
    $t
    i.fputc
    fputc
        0x00001544:    b570        p.      PUSH     {r4-r6,lr}
        0x00001546:    4604        .F      MOV      r4,r0
        0x00001548:    f04f4580    O..E    MOV      r5,#0x40000000
        0x0000154c:    2c0a        .,      CMP      r4,#0xa
        0x0000154e:    d103        ..      BNE      0x1558 ; fputc + 20
        0x00001550:    210d        .!      MOVS     r1,#0xd
        0x00001552:    4628        (F      MOV      r0,r5
        0x00001554:    f003f9d3    ....    BL       uart_SendChar ; 0x48fe
        0x00001558:    b2e1        ..      UXTB     r1,r4
        0x0000155a:    4628        (F      MOV      r0,r5
        0x0000155c:    f003f9cf    ....    BL       uart_SendChar ; 0x48fe
        0x00001560:    4620         F      MOV      r0,r4
        0x00001562:    bd70        p.      POP      {r4-r6,pc}
    i.gameCursorDraw
    gameCursorDraw
        0x00001564:    b538        8.      PUSH     {r3-r5,lr}
        0x00001566:    2150        P!      MOVS     r1,#0x50
        0x00001568:    7800        .x      LDRB     r0,[r0,#0]
        0x0000156a:    2800        .(      CMP      r0,#0
        0x0000156c:    d01b        ..      BEQ      0x15a6 ; gameCursorDraw + 66
        0x0000156e:    2801        .(      CMP      r0,#1
        0x00001570:    d01b        ..      BEQ      0x15aa ; gameCursorDraw + 70
        0x00001572:    2802        .(      CMP      r0,#2
        0x00001574:    d01b        ..      BEQ      0x15ae ; gameCursorDraw + 74
        0x00001576:    2480        .$      MOVS     r4,#0x80
        0x00001578:    2588        .%      MOVS     r5,#0x88
        0x0000157a:    2340        @#      MOVS     r3,#0x40
        0x0000157c:    4622        "F      MOV      r2,r4
        0x0000157e:    2000        .       MOVS     r0,#0
        0x00001580:    9500        ..      STR      r5,[sp,#0]
        0x00001582:    f003fa67    ..g.    BL       writeOneSprite ; 0x4a54
        0x00001586:    2158        X!      MOVS     r1,#0x58
        0x00001588:    2341        A#      MOVS     r3,#0x41
        0x0000158a:    4622        "F      MOV      r2,r4
        0x0000158c:    2001        .       MOVS     r0,#1
        0x0000158e:    9500        ..      STR      r5,[sp,#0]
        0x00001590:    f003fa60    ..`.    BL       writeOneSprite ; 0x4a54
        0x00001594:    3408        .4      ADDS     r4,r4,#8
        0x00001596:    b2e2        ..      UXTB     r2,r4
        0x00001598:    2154        T!      MOVS     r1,#0x54
        0x0000159a:    2342        B#      MOVS     r3,#0x42
        0x0000159c:    2002        .       MOVS     r0,#2
        0x0000159e:    9500        ..      STR      r5,[sp,#0]
        0x000015a0:    f003fa58    ..X.    BL       writeOneSprite ; 0x4a54
        0x000015a4:    bd38        8.      POP      {r3-r5,pc}
        0x000015a6:    2480        .$      MOVS     r4,#0x80
        0x000015a8:    e7e6        ..      B        0x1578 ; gameCursorDraw + 20
        0x000015aa:    2490        .$      MOVS     r4,#0x90
        0x000015ac:    e7e4        ..      B        0x1578 ; gameCursorDraw + 20
        0x000015ae:    24a0        .$      MOVS     r4,#0xa0
        0x000015b0:    e7e2        ..      B        0x1578 ; gameCursorDraw + 20
        0x000015b2:    0000        ..      MOVS     r0,r0
    i.gameScoreDraw
    gameScoreDraw
        0x000015b4:    e92d4fff    -..O    PUSH     {r0-r11,lr}
        0x000015b8:    b081        ..      SUB      sp,sp,#4
        0x000015ba:    4605        .F      MOV      r5,r0
        0x000015bc:    461c        .F      MOV      r4,r3
        0x000015be:    200a        .       MOVS     r0,#0xa
        0x000015c0:    fbb2f1f0    ....    UDIV     r1,r2,r0
        0x000015c4:    fb002611    ...&    MLS      r6,r0,r1,r2
        0x000015c8:    fbb2f1f0    ....    UDIV     r1,r2,r0
        0x000015cc:    fbb1f3f0    ....    UDIV     r3,r1,r0
        0x000015d0:    fb001713    ....    MLS      r7,r0,r3,r1
        0x000015d4:    2164        d!      MOVS     r1,#0x64
        0x000015d6:    fbb2f1f1    ....    UDIV     r1,r2,r1
        0x000015da:    fbb1f3f0    ....    UDIV     r3,r1,r0
        0x000015de:    fb001813    ....    MLS      r8,r0,r3,r1
        0x000015e2:    f44f717a    O.zq    MOV      r1,#0x3e8
        0x000015e6:    fbb2f1f1    ....    UDIV     r1,r2,r1
        0x000015ea:    fbb1f3f0    ....    UDIV     r3,r1,r0
        0x000015ee:    fb001913    ....    MLS      r9,r0,r3,r1
        0x000015f2:    f2427110    B..q    MOV      r1,#0x2710
        0x000015f6:    fbb2f1f1    ....    UDIV     r1,r2,r1
        0x000015fa:    fbb1f3f0    ....    UDIV     r3,r1,r0
        0x000015fe:    fb001a13    ....    MLS      r10,r0,r3,r1
        0x00001602:    4928        (I      LDR      r1,[pc,#160] ; [0x16a4] = 0x186a0
        0x00001604:    fbb2f1f1    ....    UDIV     r1,r2,r1
        0x00001608:    fbb1f2f0    ....    UDIV     r2,r1,r0
        0x0000160c:    fb001312    ....    MLS      r3,r0,r2,r1
        0x00001610:    f04f0b30    O.0.    MOV      r11,#0x30
        0x00001614:    f8cdb000    ....    STR      r11,[sp,#0]
        0x00001618:    7820         x      LDRB     r0,[r4,#0]
        0x0000161a:    4629        )F      MOV      r1,r5
        0x0000161c:    9a02        ..      LDR      r2,[sp,#8]
        0x0000161e:    f003fa19    ....    BL       writeOneSprite ; 0x4a54
        0x00001622:    f1050008    ....    ADD      r0,r5,#8
        0x00001626:    b2c1        ..      UXTB     r1,r0
        0x00001628:    f8cdb000    ....    STR      r11,[sp,#0]
        0x0000162c:    7820         x      LDRB     r0,[r4,#0]
        0x0000162e:    4653        SF      MOV      r3,r10
        0x00001630:    1c40        @.      ADDS     r0,r0,#1
        0x00001632:    b2c0        ..      UXTB     r0,r0
        0x00001634:    9a02        ..      LDR      r2,[sp,#8]
        0x00001636:    f003fa0d    ....    BL       writeOneSprite ; 0x4a54
        0x0000163a:    f1050010    ....    ADD      r0,r5,#0x10
        0x0000163e:    b2c1        ..      UXTB     r1,r0
        0x00001640:    f8cdb000    ....    STR      r11,[sp,#0]
        0x00001644:    7820         x      LDRB     r0,[r4,#0]
        0x00001646:    464b        KF      MOV      r3,r9
        0x00001648:    1c80        ..      ADDS     r0,r0,#2
        0x0000164a:    b2c0        ..      UXTB     r0,r0
        0x0000164c:    9a02        ..      LDR      r2,[sp,#8]
        0x0000164e:    f003fa01    ....    BL       writeOneSprite ; 0x4a54
        0x00001652:    f1050018    ....    ADD      r0,r5,#0x18
        0x00001656:    b2c1        ..      UXTB     r1,r0
        0x00001658:    f8cdb000    ....    STR      r11,[sp,#0]
        0x0000165c:    7820         x      LDRB     r0,[r4,#0]
        0x0000165e:    4643        CF      MOV      r3,r8
        0x00001660:    1cc0        ..      ADDS     r0,r0,#3
        0x00001662:    b2c0        ..      UXTB     r0,r0
        0x00001664:    9a02        ..      LDR      r2,[sp,#8]
        0x00001666:    f003f9f5    ....    BL       writeOneSprite ; 0x4a54
        0x0000166a:    f1050020    .. .    ADD      r0,r5,#0x20
        0x0000166e:    b2c1        ..      UXTB     r1,r0
        0x00001670:    f8cdb000    ....    STR      r11,[sp,#0]
        0x00001674:    7820         x      LDRB     r0,[r4,#0]
        0x00001676:    463b        ;F      MOV      r3,r7
        0x00001678:    1d00        ..      ADDS     r0,r0,#4
        0x0000167a:    b2c0        ..      UXTB     r0,r0
        0x0000167c:    9a02        ..      LDR      r2,[sp,#8]
        0x0000167e:    f003f9e9    ....    BL       writeOneSprite ; 0x4a54
        0x00001682:    f8cdb000    ....    STR      r11,[sp,#0]
        0x00001686:    7820         x      LDRB     r0,[r4,#0]
        0x00001688:    3528        (5      ADDS     r5,r5,#0x28
        0x0000168a:    1d40        @.      ADDS     r0,r0,#5
        0x0000168c:    b2e9        ..      UXTB     r1,r5
        0x0000168e:    b2c0        ..      UXTB     r0,r0
        0x00001690:    4633        3F      MOV      r3,r6
        0x00001692:    9a02        ..      LDR      r2,[sp,#8]
        0x00001694:    f003f9de    ....    BL       writeOneSprite ; 0x4a54
        0x00001698:    7820         x      LDRB     r0,[r4,#0]
        0x0000169a:    1d80        ..      ADDS     r0,r0,#6
        0x0000169c:    7020         p      STRB     r0,[r4,#0]
        0x0000169e:    b005        ..      ADD      sp,sp,#0x14
        0x000016a0:    e8bd8ff0    ....    POP      {r4-r11,pc}
    $d
        0x000016a4:    000186a0    ....    DCD    100000
    $t
    i.gameStartInterfaceShow
    gameStartInterfaceShow
        0x000016a8:    e92d5ff0    -.._    PUSH     {r4-r12,lr}
        0x000016ac:    4606        .F      MOV      r6,r0
        0x000016ae:    460f        .F      MOV      r7,r1
        0x000016b0:    2500        .%      MOVS     r5,#0
        0x000016b2:    2400        .$      MOVS     r4,#0
        0x000016b4:    f8dfb130    ..0.    LDR      r11,[pc,#304] ; [0x17e8] = 0x20000a84
        0x000016b8:    f1060812    ....    ADD      r8,r6,#0x12
        0x000016bc:    f1070905    ....    ADD      r9,r7,#5
        0x000016c0:    eba50a06    ....    SUB      r10,r5,r6
        0x000016c4:    42b5        .B      CMP      r5,r6
        0x000016c6:    d310        ..      BCC      0x16ea ; gameStartInterfaceShow + 66
        0x000016c8:    4545        EE      CMP      r5,r8
        0x000016ca:    d20e        ..      BCS      0x16ea ; gameStartInterfaceShow + 66
        0x000016cc:    42bc        .B      CMP      r4,r7
        0x000016ce:    d30c        ..      BCC      0x16ea ; gameStartInterfaceShow + 66
        0x000016d0:    454c        LE      CMP      r4,r9
        0x000016d2:    d20a        ..      BCS      0x16ea ; gameStartInterfaceShow + 66
        0x000016d4:    1be0        ..      SUBS     r0,r4,r7
        0x000016d6:    eb0000c0    ....    ADD      r0,r0,r0,LSL #3
        0x000016da:    eb0b0040    ..@.    ADD      r0,r11,r0,LSL #1
        0x000016de:    4621        !F      MOV      r1,r4
        0x000016e0:    f810200a    ...     LDRB     r2,[r0,r10]
        0x000016e4:    4628        (F      MOV      r0,r5
        0x000016e6:    f003f9ad    ....    BL       writeOneNametable ; 0x4a44
        0x000016ea:    1c64        d.      ADDS     r4,r4,#1
        0x000016ec:    b2e4        ..      UXTB     r4,r4
        0x000016ee:    2c1e        .,      CMP      r4,#0x1e
        0x000016f0:    d3e8        ..      BCC      0x16c4 ; gameStartInterfaceShow + 28
        0x000016f2:    1c6d        m.      ADDS     r5,r5,#1
        0x000016f4:    b2ed        ..      UXTB     r5,r5
        0x000016f6:    2d20         -      CMP      r5,#0x20
        0x000016f8:    d3db        ..      BCC      0x16b2 ; gameStartInterfaceShow + 10
        0x000016fa:    1db6        ..      ADDS     r6,r6,#6
        0x000016fc:    b2f6        ..      UXTB     r6,r6
        0x000016fe:    3708        .7      ADDS     r7,r7,#8
        0x00001700:    b2ff        ..      UXTB     r7,r7
        0x00001702:    2400        .$      MOVS     r4,#0
        0x00001704:    f8dfa0e0    ....    LDR      r10,[pc,#224] ; [0x17e8] = 0x20000a84
        0x00001708:    f1060908    ....    ADD      r9,r6,#8
        0x0000170c:    f1aa0a10    ....    SUB      r10,r10,#0x10
        0x00001710:    2500        .%      MOVS     r5,#0
        0x00001712:    eba40806    ....    SUB      r8,r4,r6
        0x00001716:    42b4        .B      CMP      r4,r6
        0x00001718:    d309        ..      BCC      0x172e ; gameStartInterfaceShow + 134
        0x0000171a:    454c        LE      CMP      r4,r9
        0x0000171c:    d207        ..      BCS      0x172e ; gameStartInterfaceShow + 134
        0x0000171e:    42bd        .B      CMP      r5,r7
        0x00001720:    d105        ..      BNE      0x172e ; gameStartInterfaceShow + 134
        0x00001722:    f81a2008    ...     LDRB     r2,[r10,r8]
        0x00001726:    4629        )F      MOV      r1,r5
        0x00001728:    4620         F      MOV      r0,r4
        0x0000172a:    f003f98b    ....    BL       writeOneNametable ; 0x4a44
        0x0000172e:    1c6d        m.      ADDS     r5,r5,#1
        0x00001730:    b2ed        ..      UXTB     r5,r5
        0x00001732:    2d1e        .-      CMP      r5,#0x1e
        0x00001734:    d3ef        ..      BCC      0x1716 ; gameStartInterfaceShow + 110
        0x00001736:    1c64        d.      ADDS     r4,r4,#1
        0x00001738:    b2e4        ..      UXTB     r4,r4
        0x0000173a:    2c20         ,      CMP      r4,#0x20
        0x0000173c:    d3e8        ..      BCC      0x1710 ; gameStartInterfaceShow + 104
        0x0000173e:    1cb8        ..      ADDS     r0,r7,#2
        0x00001740:    f0000aff    ....    AND      r10,r0,#0xff
        0x00001744:    2400        .$      MOVS     r4,#0
        0x00001746:    f8dfb0a0    ....    LDR      r11,[pc,#160] ; [0x17e8] = 0x20000a84
        0x0000174a:    f1060908    ....    ADD      r9,r6,#8
        0x0000174e:    f1ab0b08    ....    SUB      r11,r11,#8
        0x00001752:    2500        .%      MOVS     r5,#0
        0x00001754:    eba40806    ....    SUB      r8,r4,r6
        0x00001758:    42b4        .B      CMP      r4,r6
        0x0000175a:    d309        ..      BCC      0x1770 ; gameStartInterfaceShow + 200
        0x0000175c:    454c        LE      CMP      r4,r9
        0x0000175e:    d207        ..      BCS      0x1770 ; gameStartInterfaceShow + 200
        0x00001760:    4555        UE      CMP      r5,r10
        0x00001762:    d105        ..      BNE      0x1770 ; gameStartInterfaceShow + 200
        0x00001764:    f81b2008    ...     LDRB     r2,[r11,r8]
        0x00001768:    4629        )F      MOV      r1,r5
        0x0000176a:    4620         F      MOV      r0,r4
        0x0000176c:    f003f96a    ..j.    BL       writeOneNametable ; 0x4a44
        0x00001770:    1c6d        m.      ADDS     r5,r5,#1
        0x00001772:    b2ed        ..      UXTB     r5,r5
        0x00001774:    2d1e        .-      CMP      r5,#0x1e
        0x00001776:    d3ef        ..      BCC      0x1758 ; gameStartInterfaceShow + 176
        0x00001778:    1c64        d.      ADDS     r4,r4,#1
        0x0000177a:    b2e4        ..      UXTB     r4,r4
        0x0000177c:    2c20         ,      CMP      r4,#0x20
        0x0000177e:    d3e8        ..      BCC      0x1752 ; gameStartInterfaceShow + 170
        0x00001780:    1f36        6.      SUBS     r6,r6,#4
        0x00001782:    b2f6        ..      UXTB     r6,r6
        0x00001784:    3708        .7      ADDS     r7,r7,#8
        0x00001786:    f00709ff    ....    AND      r9,r7,#0xff
        0x0000178a:    2400        .$      MOVS     r4,#0
        0x0000178c:    f8dfa058    ..X.    LDR      r10,[pc,#88] ; [0x17e8] = 0x20000a84
        0x00001790:    f106080c    ....    ADD      r8,r6,#0xc
        0x00001794:    f10a0a5a    ..Z.    ADD      r10,r10,#0x5a
        0x00001798:    2500        .%      MOVS     r5,#0
        0x0000179a:    1ba7        ..      SUBS     r7,r4,r6
        0x0000179c:    42b4        .B      CMP      r4,r6
        0x0000179e:    d309        ..      BCC      0x17b4 ; gameStartInterfaceShow + 268
        0x000017a0:    4544        DE      CMP      r4,r8
        0x000017a2:    d207        ..      BCS      0x17b4 ; gameStartInterfaceShow + 268
        0x000017a4:    454d        ME      CMP      r5,r9
        0x000017a6:    d105        ..      BNE      0x17b4 ; gameStartInterfaceShow + 268
        0x000017a8:    f81a2007    ...     LDRB     r2,[r10,r7]
        0x000017ac:    4629        )F      MOV      r1,r5
        0x000017ae:    4620         F      MOV      r0,r4
        0x000017b0:    f003f948    ..H.    BL       writeOneNametable ; 0x4a44
        0x000017b4:    1c6d        m.      ADDS     r5,r5,#1
        0x000017b6:    b2ed        ..      UXTB     r5,r5
        0x000017b8:    2d1e        .-      CMP      r5,#0x1e
        0x000017ba:    d3ef        ..      BCC      0x179c ; gameStartInterfaceShow + 244
        0x000017bc:    1c64        d.      ADDS     r4,r4,#1
        0x000017be:    b2e4        ..      UXTB     r4,r4
        0x000017c0:    2c20         ,      CMP      r4,#0x20
        0x000017c2:    d3e9        ..      BCC      0x1798 ; gameStartInterfaceShow + 240
        0x000017c4:    2500        .%      MOVS     r5,#0
        0x000017c6:    4e09        .N      LDR      r6,[pc,#36] ; [0x17ec] = 0x20000b32
        0x000017c8:    2400        .$      MOVS     r4,#0
        0x000017ca:    eb041045    ..E.    ADD      r0,r4,r5,LSL #5
        0x000017ce:    b2a9        ..      UXTH     r1,r5
        0x000017d0:    5c32        2\      LDRB     r2,[r6,r0]
        0x000017d2:    b2a0        ..      UXTH     r0,r4
        0x000017d4:    f003f936    ..6.    BL       writeOneNametable ; 0x4a44
        0x000017d8:    1c64        d.      ADDS     r4,r4,#1
        0x000017da:    2c20         ,      CMP      r4,#0x20
        0x000017dc:    dbf5        ..      BLT      0x17ca ; gameStartInterfaceShow + 290
        0x000017de:    1c6d        m.      ADDS     r5,r5,#1
        0x000017e0:    2d20         -      CMP      r5,#0x20
        0x000017e2:    dbf1        ..      BLT      0x17c8 ; gameStartInterfaceShow + 288
        0x000017e4:    e8bd9ff0    ....    POP      {r4-r12,pc}
    $d
        0x000017e8:    20000a84    ...     DCD    536873604
        0x000017ec:    20000b32    2..     DCD    536873778
    $t
    i.isHit_b_EnemyPlane
    isHit_b_EnemyPlane
        0x000017f0:    e92d47f0    -..G    PUSH     {r4-r10,lr}
        0x000017f4:    4606        .F      MOV      r6,r0
        0x000017f6:    4688        .F      MOV      r8,r1
        0x000017f8:    4692        .F      MOV      r10,r2
        0x000017fa:    2500        .%      MOVS     r5,#0
        0x000017fc:    f8df90ac    ....    LDR      r9,[pc,#172] ; [0x18ac] = 0x4a7c
        0x00001800:    e04d        M.      B        0x189e ; isHit_b_EnemyPlane + 174
        0x00001802:    eb050085    ....    ADD      r0,r5,r5,LSL #2
        0x00001806:    eb0007c5    ....    ADD      r7,r0,r5,LSL #3
        0x0000180a:    f8160017    ....    LDRB     r0,[r6,r7,LSL #1]
        0x0000180e:    b3e8        ..      CBZ      r0,0x188c ; isHit_b_EnemyPlane + 156
        0x00001810:    eb060447    ..G.    ADD      r4,r6,r7,LSL #1
        0x00001814:    88a0        ..      LDRH     r0,[r4,#4]
        0x00001816:    08c3        ..      LSRS     r3,r0,#3
        0x00001818:    88e0        ..      LDRH     r0,[r4,#6]
        0x0000181a:    f3c000c7    ....    UBFX     r0,r0,#3,#8
        0x0000181e:    1c80        ..      ADDS     r0,r0,#2
        0x00001820:    2101        .!      MOVS     r1,#1
        0x00001822:    f8580020    X. .    LDR      r0,[r8,r0,LSL #2]
        0x00001826:    f1a30c01    ....    SUB      r12,r3,#1
        0x0000182a:    fa01f203    ....    LSL      r2,r1,r3
        0x0000182e:    fa01fc0c    ....    LSL      r12,r1,r12
        0x00001832:    4002        .@      ANDS     r2,r2,r0
        0x00001834:    ea000c0c    ....    AND      r12,r0,r12
        0x00001838:    ea42020c    B...    ORR      r2,r2,r12
        0x0000183c:    f1030c01    ....    ADD      r12,r3,#1
        0x00001840:    fa01fc0c    ....    LSL      r12,r1,r12
        0x00001844:    ea000c0c    ....    AND      r12,r0,r12
        0x00001848:    ea42020c    B...    ORR      r2,r2,r12
        0x0000184c:    f1a30c02    ....    SUB      r12,r3,#2
        0x00001850:    fa01fc0c    ....    LSL      r12,r1,r12
        0x00001854:    ea000c0c    ....    AND      r12,r0,r12
        0x00001858:    1c9b        ..      ADDS     r3,r3,#2
        0x0000185a:    4099        .@      LSLS     r1,r1,r3
        0x0000185c:    ea42020c    B...    ORR      r2,r2,r12
        0x00001860:    4008        .@      ANDS     r0,r0,r1
        0x00001862:    4302        .C      ORRS     r2,r2,r0
        0x00001864:    b192        ..      CBZ      r2,0x188c ; isHit_b_EnemyPlane + 156
        0x00001866:    7860        `x      LDRB     r0,[r4,#1]
        0x00001868:    1e40        @.      SUBS     r0,r0,#1
        0x0000186a:    7060        `p      STRB     r0,[r4,#1]
        0x0000186c:    88e0        ..      LDRH     r0,[r4,#6]
        0x0000186e:    3014        .0      ADDS     r0,r0,#0x14
        0x00001870:    b201        ..      SXTH     r1,r0
        0x00001872:    88a0        ..      LDRH     r0,[r4,#4]
        0x00001874:    4652        RF      MOV      r2,r10
        0x00001876:    3808        .8      SUBS     r0,r0,#8
        0x00001878:    b200        ..      SXTH     r0,r0
        0x0000187a:    f001fe95    ....    BL       new_createOneBoom ; 0x35a8
        0x0000187e:    7860        `x      LDRB     r0,[r4,#1]
        0x00001880:    b920         .      CBNZ     r0,0x188c ; isHit_b_EnemyPlane + 156
        0x00001882:    2000        .       MOVS     r0,#0
        0x00001884:    f8060017    ....    STRB     r0,[r6,r7,LSL #1]
        0x00001888:    20fd        .       MOVS     r0,#0xfd
        0x0000188a:    e000        ..      B        0x188e ; isHit_b_EnemyPlane + 158
        0x0000188c:    e006        ..      B        0x189c ; isHit_b_EnemyPlane + 172
        0x0000188e:    80a0        ..      STRH     r0,[r4,#4]
        0x00001890:    20ef        .       MOVS     r0,#0xef
        0x00001892:    80e0        ..      STRH     r0,[r4,#6]
        0x00001894:    4906        .I      LDR      r1,[pc,#24] ; [0x18b0] = 0x20000014
        0x00001896:    6808        .h      LDR      r0,[r1,#0]
        0x00001898:    30c8        .0      ADDS     r0,r0,#0xc8
        0x0000189a:    6008        .`      STR      r0,[r1,#0]
        0x0000189c:    1c6d        m.      ADDS     r5,r5,#1
        0x0000189e:    f8990000    ....    LDRB     r0,[r9,#0]
        0x000018a2:    4285        .B      CMP      r5,r0
        0x000018a4:    dbad        ..      BLT      0x1802 ; isHit_b_EnemyPlane + 18
        0x000018a6:    e8bd87f0    ....    POP      {r4-r10,pc}
    $d
        0x000018aa:    0000        ..      DCW    0
        0x000018ac:    00004a7c    |J..    DCD    19068
        0x000018b0:    20000014    ...     DCD    536870932
    $t
    i.isHit_m_straight_EnemyPlane
    isHit_m_straight_EnemyPlane
        0x000018b4:    e92d47f0    -..G    PUSH     {r4-r10,lr}
        0x000018b8:    4606        .F      MOV      r6,r0
        0x000018ba:    4688        .F      MOV      r8,r1
        0x000018bc:    4692        .F      MOV      r10,r2
        0x000018be:    2500        .%      MOVS     r5,#0
        0x000018c0:    f8df9074    ..t.    LDR      r9,[pc,#116] ; [0x1938] = 0x4a7b
        0x000018c4:    e032        2.      B        0x192c ; isHit_m_straight_EnemyPlane + 120
        0x000018c6:    eb050745    ..E.    ADD      r7,r5,r5,LSL #1
        0x000018ca:    f8160027    ..'.    LDRB     r0,[r6,r7,LSL #2]
        0x000018ce:    b360        `.      CBZ      r0,0x192a ; isHit_m_straight_EnemyPlane + 118
        0x000018d0:    eb060487    ....    ADD      r4,r6,r7,LSL #2
        0x000018d4:    88a0        ..      LDRH     r0,[r4,#4]
        0x000018d6:    08c0        ..      LSRS     r0,r0,#3
        0x000018d8:    88e1        ..      LDRH     r1,[r4,#6]
        0x000018da:    f3c101c7    ....    UBFX     r1,r1,#3,#8
        0x000018de:    1c49        I.      ADDS     r1,r1,#1
        0x000018e0:    2301        .#      MOVS     r3,#1
        0x000018e2:    f8581021    X.!.    LDR      r1,[r8,r1,LSL #2]
        0x000018e6:    fa03fc00    ....    LSL      r12,r3,r0
        0x000018ea:    460a        .F      MOV      r2,r1
        0x000018ec:    1c40        @.      ADDS     r0,r0,#1
        0x000018ee:    4083        .@      LSLS     r3,r3,r0
        0x000018f0:    ea01010c    ....    AND      r1,r1,r12
        0x000018f4:    401a        .@      ANDS     r2,r2,r3
        0x000018f6:    4311        .C      ORRS     r1,r1,r2
        0x000018f8:    b1b9        ..      CBZ      r1,0x192a ; isHit_m_straight_EnemyPlane + 118
        0x000018fa:    7860        `x      LDRB     r0,[r4,#1]
        0x000018fc:    1e40        @.      SUBS     r0,r0,#1
        0x000018fe:    7060        `p      STRB     r0,[r4,#1]
        0x00001900:    88e0        ..      LDRH     r0,[r4,#6]
        0x00001902:    3008        .0      ADDS     r0,r0,#8
        0x00001904:    b201        ..      SXTH     r1,r0
        0x00001906:    f9b40004    ....    LDRSH    r0,[r4,#4]
        0x0000190a:    4652        RF      MOV      r2,r10
        0x0000190c:    f001fe4c    ..L.    BL       new_createOneBoom ; 0x35a8
        0x00001910:    7860        `x      LDRB     r0,[r4,#1]
        0x00001912:    b950        P.      CBNZ     r0,0x192a ; isHit_m_straight_EnemyPlane + 118
        0x00001914:    2000        .       MOVS     r0,#0
        0x00001916:    f8060027    ..'.    STRB     r0,[r6,r7,LSL #2]
        0x0000191a:    20fd        .       MOVS     r0,#0xfd
        0x0000191c:    80a0        ..      STRH     r0,[r4,#4]
        0x0000191e:    20ef        .       MOVS     r0,#0xef
        0x00001920:    80e0        ..      STRH     r0,[r4,#6]
        0x00001922:    4806        .H      LDR      r0,[pc,#24] ; [0x193c] = 0x20000014
        0x00001924:    6801        .h      LDR      r1,[r0,#0]
        0x00001926:    3132        21      ADDS     r1,r1,#0x32
        0x00001928:    6001        .`      STR      r1,[r0,#0]
        0x0000192a:    1c6d        m.      ADDS     r5,r5,#1
        0x0000192c:    f8990000    ....    LDRB     r0,[r9,#0]
        0x00001930:    4285        .B      CMP      r5,r0
        0x00001932:    dbc8        ..      BLT      0x18c6 ; isHit_m_straight_EnemyPlane + 18
        0x00001934:    e8bd87f0    ....    POP      {r4-r10,pc}
    $d
        0x00001938:    00004a7b    {J..    DCD    19067
        0x0000193c:    20000014    ...     DCD    536870932
    $t
    i.isHit_myBullets
    isHit_myBullets
        0x00001940:    b5f0        ..      PUSH     {r4-r7,lr}
        0x00001942:    2200        ."      MOVS     r2,#0
        0x00001944:    4f13        .O      LDR      r7,[pc,#76] ; [0x1994] = 0x4a78
        0x00001946:    e020         .      B        0x198a ; isHit_myBullets + 74
        0x00001948:    eb020482    ....    ADD      r4,r2,r2,LSL #2
        0x0000194c:    eb000344    ..D.    ADD      r3,r0,r4,LSL #1
        0x00001950:    791d        .y      LDRB     r5,[r3,#4]
        0x00001952:    b1cd        ..      CBZ      r5,0x1988 ; isHit_myBullets + 72
        0x00001954:    f8305014    0..P    LDRH     r5,[r0,r4,LSL #1]
        0x00001958:    08ed        ..      LSRS     r5,r5,#3
        0x0000195a:    885e        ^.      LDRH     r6,[r3,#2]
        0x0000195c:    f3c606c7    ....    UBFX     r6,r6,#3,#8
        0x00001960:    f04f0c01    O...    MOV      r12,#1
        0x00001964:    f8516026    Q.&`    LDR      r6,[r1,r6,LSL #2]
        0x00001968:    fa0cfc05    ....    LSL      r12,r12,r5
        0x0000196c:    ea06060c    ....    AND      r6,r6,r12
        0x00001970:    b156        V.      CBZ      r6,0x1988 ; isHit_myBullets + 72
        0x00001972:    2500        .%      MOVS     r5,#0
        0x00001974:    711d        .q      STRB     r5,[r3,#4]
        0x00001976:    25fd        .%      MOVS     r5,#0xfd
        0x00001978:    f8205014     ..P    STRH     r5,[r0,r4,LSL #1]
        0x0000197c:    24ef        .$      MOVS     r4,#0xef
        0x0000197e:    805c        \.      STRH     r4,[r3,#2]
        0x00001980:    4b05        .K      LDR      r3,[pc,#20] ; [0x1998] = 0x2000003c
        0x00001982:    681c        .h      LDR      r4,[r3,#0]
        0x00001984:    1c64        d.      ADDS     r4,r4,#1
        0x00001986:    601c        .`      STR      r4,[r3,#0]
        0x00001988:    1c52        R.      ADDS     r2,r2,#1
        0x0000198a:    783b        ;x      LDRB     r3,[r7,#0]
        0x0000198c:    429a        .B      CMP      r2,r3
        0x0000198e:    dbdb        ..      BLT      0x1948 ; isHit_myBullets + 8
        0x00001990:    bdf0        ..      POP      {r4-r7,pc}
    $d
        0x00001992:    0000        ..      DCW    0
        0x00001994:    00004a78    xJ..    DCD    19064
        0x00001998:    2000003c    <..     DCD    536870972
    $t
    i.isHit_s_EnemyPlane
    isHit_s_EnemyPlane
        0x0000199c:    e92d5fff    -.._    PUSH     {r0-r12,lr}
        0x000019a0:    4683        .F      MOV      r11,r0
        0x000019a2:    460f        .F      MOV      r7,r1
        0x000019a4:    4616        .F      MOV      r6,r2
        0x000019a6:    2500        .%      MOVS     r5,#0
        0x000019a8:    f04f0801    O...    MOV      r8,#1
        0x000019ac:    46aa        .F      MOV      r10,r5
        0x000019ae:    f8df9110    ....    LDR      r9,[pc,#272] ; [0x1ac0] = 0x20000014
        0x000019b2:    e03a        :.      B        0x1a2a ; isHit_s_EnemyPlane + 142
        0x000019b4:    eb0b1405    ....    ADD      r4,r11,r5,LSL #4
        0x000019b8:    7820         x      LDRB     r0,[r4,#0]
        0x000019ba:    b3a8        ..      CBZ      r0,0x1a28 ; isHit_s_EnemyPlane + 140
        0x000019bc:    88a0        ..      LDRH     r0,[r4,#4]
        0x000019be:    08c0        ..      LSRS     r0,r0,#3
        0x000019c0:    88e1        ..      LDRH     r1,[r4,#6]
        0x000019c2:    f3c101c7    ....    UBFX     r1,r1,#3,#8
        0x000019c6:    fa08f300    ....    LSL      r3,r8,r0
        0x000019ca:    f8562021    V.!     LDR      r2,[r6,r1,LSL #2]
        0x000019ce:    1c40        @.      ADDS     r0,r0,#1
        0x000019d0:    4694        .F      MOV      r12,r2
        0x000019d2:    401a        .@      ANDS     r2,r2,r3
        0x000019d4:    fa08f300    ....    LSL      r3,r8,r0
        0x000019d8:    1e49        I.      SUBS     r1,r1,#1
        0x000019da:    ea0c0c03    ....    AND      r12,r12,r3
        0x000019de:    f8560021    V.!.    LDR      r0,[r6,r1,LSL #2]
        0x000019e2:    ea42020c    B...    ORR      r2,r2,r12
        0x000019e6:    4018        .@      ANDS     r0,r0,r3
        0x000019e8:    4302        .C      ORRS     r2,r2,r0
        0x000019ea:    b1ea        ..      CBZ      r2,0x1a28 ; isHit_s_EnemyPlane + 140
        0x000019ec:    f9b41006    ....    LDRSH    r1,[r4,#6]
        0x000019f0:    f9b40004    ....    LDRSH    r0,[r4,#4]
        0x000019f4:    9a03        ..      LDR      r2,[sp,#0xc]
        0x000019f6:    f001fdd7    ....    BL       new_createOneBoom ; 0x35a8
        0x000019fa:    f884a000    ....    STRB     r10,[r4,#0]
        0x000019fe:    20fd        .       MOVS     r0,#0xfd
        0x00001a00:    80a0        ..      STRH     r0,[r4,#4]
        0x00001a02:    20ef        .       MOVS     r0,#0xef
        0x00001a04:    80e0        ..      STRH     r0,[r4,#6]
        0x00001a06:    f8d90000    ....    LDR      r0,[r9,#0]
        0x00001a0a:    300a        .0      ADDS     r0,r0,#0xa
        0x00001a0c:    f8c90000    ....    STR      r0,[r9,#0]
        0x00001a10:    208f        .       MOVS     r0,#0x8f
        0x00001a12:    f002ff1b    ....    BL       set_noise_00 ; 0x484c
        0x00001a16:    2000        .       MOVS     r0,#0
        0x00001a18:    f002ff1e    ....    BL       set_noise_01 ; 0x4858
        0x00001a1c:    2095        .       MOVS     r0,#0x95
        0x00001a1e:    f002ff21    ..!.    BL       set_noise_10 ; 0x4864
        0x00001a22:    2098        .       MOVS     r0,#0x98
        0x00001a24:    f002ff24    ..$.    BL       set_noise_11 ; 0x4870
        0x00001a28:    1c6d        m.      ADDS     r5,r5,#1
        0x00001a2a:    4826        &H      LDR      r0,[pc,#152] ; [0x1ac4] = 0x4a79
        0x00001a2c:    7800        .x      LDRB     r0,[r0,#0]
        0x00001a2e:    4285        .B      CMP      r5,r0
        0x00001a30:    dbc0        ..      BLT      0x19b4 ; isHit_s_EnemyPlane + 24
        0x00001a32:    2500        .%      MOVS     r5,#0
        0x00001a34:    e03d        =.      B        0x1ab2 ; isHit_s_EnemyPlane + 278
        0x00001a36:    ebc51b05    ....    RSB      r11,r5,r5,LSL #4
        0x00001a3a:    f817001b    ....    LDRB     r0,[r7,r11,LSL #1]
        0x00001a3e:    b3b8        ..      CBZ      r0,0x1ab0 ; isHit_s_EnemyPlane + 276
        0x00001a40:    eb07044b    ..K.    ADD      r4,r7,r11,LSL #1
        0x00001a44:    8860        `.      LDRH     r0,[r4,#2]
        0x00001a46:    08c0        ..      LSRS     r0,r0,#3
        0x00001a48:    88a1        ..      LDRH     r1,[r4,#4]
        0x00001a4a:    f3c101c7    ....    UBFX     r1,r1,#3,#8
        0x00001a4e:    fa08f300    ....    LSL      r3,r8,r0
        0x00001a52:    f8562021    V.!     LDR      r2,[r6,r1,LSL #2]
        0x00001a56:    1c40        @.      ADDS     r0,r0,#1
        0x00001a58:    4694        .F      MOV      r12,r2
        0x00001a5a:    401a        .@      ANDS     r2,r2,r3
        0x00001a5c:    fa08f300    ....    LSL      r3,r8,r0
        0x00001a60:    1e49        I.      SUBS     r1,r1,#1
        0x00001a62:    ea0c0c03    ....    AND      r12,r12,r3
        0x00001a66:    f8560021    V.!.    LDR      r0,[r6,r1,LSL #2]
        0x00001a6a:    ea42020c    B...    ORR      r2,r2,r12
        0x00001a6e:    4018        .@      ANDS     r0,r0,r3
        0x00001a70:    4302        .C      ORRS     r2,r2,r0
        0x00001a72:    b1ea        ..      CBZ      r2,0x1ab0 ; isHit_s_EnemyPlane + 276
        0x00001a74:    f9b41004    ....    LDRSH    r1,[r4,#4]
        0x00001a78:    f9b40002    ....    LDRSH    r0,[r4,#2]
        0x00001a7c:    9a03        ..      LDR      r2,[sp,#0xc]
        0x00001a7e:    f001fd93    ....    BL       new_createOneBoom ; 0x35a8
        0x00001a82:    f807a01b    ....    STRB     r10,[r7,r11,LSL #1]
        0x00001a86:    20fd        .       MOVS     r0,#0xfd
        0x00001a88:    8060        `.      STRH     r0,[r4,#2]
        0x00001a8a:    20ef        .       MOVS     r0,#0xef
        0x00001a8c:    80a0        ..      STRH     r0,[r4,#4]
        0x00001a8e:    f8d90000    ....    LDR      r0,[r9,#0]
        0x00001a92:    300f        .0      ADDS     r0,r0,#0xf
        0x00001a94:    f8c90000    ....    STR      r0,[r9,#0]
        0x00001a98:    208f        .       MOVS     r0,#0x8f
        0x00001a9a:    f002fed7    ....    BL       set_noise_00 ; 0x484c
        0x00001a9e:    2000        .       MOVS     r0,#0
        0x00001aa0:    f002feda    ....    BL       set_noise_01 ; 0x4858
        0x00001aa4:    2095        .       MOVS     r0,#0x95
        0x00001aa6:    f002fedd    ....    BL       set_noise_10 ; 0x4864
        0x00001aaa:    2098        .       MOVS     r0,#0x98
        0x00001aac:    f002fee0    ....    BL       set_noise_11 ; 0x4870
        0x00001ab0:    1c6d        m.      ADDS     r5,r5,#1
        0x00001ab2:    4805        .H      LDR      r0,[pc,#20] ; [0x1ac8] = 0x4a7a
        0x00001ab4:    7800        .x      LDRB     r0,[r0,#0]
        0x00001ab6:    4285        .B      CMP      r5,r0
        0x00001ab8:    dbbd        ..      BLT      0x1a36 ; isHit_s_EnemyPlane + 154
        0x00001aba:    e8bd9fff    ....    POP      {r0-r12,pc}
    $d
        0x00001abe:    0000        ..      DCW    0
        0x00001ac0:    20000014    ...     DCD    536870932
        0x00001ac4:    00004a79    yJ..    DCD    19065
        0x00001ac8:    00004a7a    zJ..    DCD    19066
    $t
    i.isMyPlaneHit
    isMyPlaneHit
        0x00001acc:    e92d47f0    -..G    PUSH     {r4-r10,lr}
        0x00001ad0:    4604        .F      MOV      r4,r0
        0x00001ad2:    79e0        .y      LDRB     r0,[r4,#7]
        0x00001ad4:    2801        .(      CMP      r0,#1
        0x00001ad6:    d034        4.      BEQ      0x1b42 ; isMyPlaneHit + 118
        0x00001ad8:    8820         .      LDRH     r0,[r4,#0]
        0x00001ada:    08c0        ..      LSRS     r0,r0,#3
        0x00001adc:    8863        c.      LDRH     r3,[r4,#2]
        0x00001ade:    f3c305c7    ....    UBFX     r5,r3,#3,#8
        0x00001ae2:    f04f0c01    O...    MOV      r12,#1
        0x00001ae6:    f1000901    ....    ADD      r9,r0,#1
        0x00001aea:    fa0cf600    ....    LSL      r6,r12,r0
        0x00001aee:    fa0cf709    ....    LSL      r7,r12,r9
        0x00001af2:    f8513025    Q.%0    LDR      r3,[r1,r5,LSL #2]
        0x00001af6:    1c80        ..      ADDS     r0,r0,#2
        0x00001af8:    fa0cfc00    ....    LSL      r12,r12,r0
        0x00001afc:    1c6d        m.      ADDS     r5,r5,#1
        0x00001afe:    ea030806    ....    AND      r8,r3,r6
        0x00001b02:    ea030907    ....    AND      r9,r3,r7
        0x00001b06:    f8510025    Q.%.    LDR      r0,[r1,r5,LSL #2]
        0x00001b0a:    ea480809    H...    ORR      r8,r8,r9
        0x00001b0e:    ea03030c    ....    AND      r3,r3,r12
        0x00001b12:    ea000106    ....    AND      r1,r0,r6
        0x00001b16:    ea480803    H...    ORR      r8,r8,r3
        0x00001b1a:    ea480801    H...    ORR      r8,r8,r1
        0x00001b1e:    4038        8@      ANDS     r0,r0,r7
        0x00001b20:    ea480800    H...    ORR      r8,r8,r0
        0x00001b24:    f1b80f00    ....    CMP      r8,#0
        0x00001b28:    d00d        ..      BEQ      0x1b46 ; isMyPlaneHit + 122
        0x00001b2a:    f9b41002    ....    LDRSH    r1,[r4,#2]
        0x00001b2e:    f9b40000    ....    LDRSH    r0,[r4,#0]
        0x00001b32:    f001fd39    ..9.    BL       new_createOneBoom ; 0x35a8
        0x00001b36:    20ff        .       MOVS     r0,#0xff
        0x00001b38:    8020         .      STRH     r0,[r4,#0]
        0x00001b3a:    20ef        .       MOVS     r0,#0xef
        0x00001b3c:    8060        `.      STRH     r0,[r4,#2]
        0x00001b3e:    2000        .       MOVS     r0,#0
        0x00001b40:    7120         q      STRB     r0,[r4,#4]
        0x00001b42:    e8bd87f0    ....    POP      {r4-r10,pc}
        0x00001b46:    7920         y      LDRB     r0,[r4,#4]
        0x00001b48:    7120         q      STRB     r0,[r4,#4]
        0x00001b4a:    e7fa        ..      B        0x1b42 ; isMyPlaneHit + 118
    i.loadMapJianchuan
    loadMapJianchuan
        0x00001b4c:    b570        p.      PUSH     {r4-r6,lr}
        0x00001b4e:    2500        .%      MOVS     r5,#0
        0x00001b50:    4e07        .N      LDR      r6,[pc,#28] ; [0x1b70] = 0x20001332
        0x00001b52:    2400        .$      MOVS     r4,#0
        0x00001b54:    eb041045    ..E.    ADD      r0,r4,r5,LSL #5
        0x00001b58:    b2a9        ..      UXTH     r1,r5
        0x00001b5a:    5c32        2\      LDRB     r2,[r6,r0]
        0x00001b5c:    b2a0        ..      UXTH     r0,r4
        0x00001b5e:    f002ff71    ..q.    BL       writeOneNametable ; 0x4a44
        0x00001b62:    1c64        d.      ADDS     r4,r4,#1
        0x00001b64:    2c20         ,      CMP      r4,#0x20
        0x00001b66:    dbf5        ..      BLT      0x1b54 ; loadMapJianchuan + 8
        0x00001b68:    1c6d        m.      ADDS     r5,r5,#1
        0x00001b6a:    2d20         -      CMP      r5,#0x20
        0x00001b6c:    dbf1        ..      BLT      0x1b52 ; loadMapJianchuan + 6
        0x00001b6e:    bd70        p.      POP      {r4-r6,pc}
    $d
        0x00001b70:    20001332    2..     DCD    536875826
    $t
    i.m_straight_createOnePlane
    m_straight_createOnePlane
        0x00001b74:    b570        p.      PUSH     {r4-r6,lr}
        0x00001b76:    2200        ."      MOVS     r2,#0
        0x00001b78:    4b1b        .K      LDR      r3,[pc,#108] ; [0x1be8] = 0x4a7b
        0x00001b7a:    781b        .x      LDRB     r3,[r3,#0]
        0x00001b7c:    e005        ..      B        0x1b8a ; m_straight_createOnePlane + 22
        0x00001b7e:    eb020442    ..B.    ADD      r4,r2,r2,LSL #1
        0x00001b82:    f8104024    ..$@    LDRB     r4,[r0,r4,LSL #2]
        0x00001b86:    b11c        ..      CBZ      r4,0x1b90 ; m_straight_createOnePlane + 28
        0x00001b88:    1c52        R.      ADDS     r2,r2,#1
        0x00001b8a:    429a        .B      CMP      r2,r3
        0x00001b8c:    dbf7        ..      BLT      0x1b7e ; m_straight_createOnePlane + 10
        0x00001b8e:    bd70        p.      POP      {r4-r6,pc}
        0x00001b90:    eb020242    ..B.    ADD      r2,r2,r2,LSL #1
        0x00001b94:    2501        .%      MOVS     r5,#1
        0x00001b96:    f8005022    .."P    STRB     r5,[r0,r2,LSL #2]
        0x00001b9a:    eb000482    ....    ADD      r4,r0,r2,LSL #2
        0x00001b9e:    2314        .#      MOVS     r3,#0x14
        0x00001ba0:    7063        cp      STRB     r3,[r4,#1]
        0x00001ba2:    2000        .       MOVS     r0,#0
        0x00001ba4:    70a0        .p      STRB     r0,[r4,#2]
        0x00001ba6:    80a1        ..      STRH     r1,[r4,#4]
        0x00001ba8:    f7fefad6    ....    BL       rand ; 0x158
        0x00001bac:    eb000080    ....    ADD      r0,r0,r0,LSL #2
        0x00001bb0:    0080        ..      LSLS     r0,r0,#2
        0x00001bb2:    eb0071d0    ...q    ADD      r1,r0,r0,LSR #31
        0x00001bb6:    f0210101    !...    BIC      r1,r1,#1
        0x00001bba:    1a40        @.      SUBS     r0,r0,r1
        0x00001bbc:    f1c000e1    ....    RSB      r0,r0,#0xe1
        0x00001bc0:    80e0        ..      STRH     r0,[r4,#6]
        0x00001bc2:    7225        %r      STRB     r5,[r4,#8]
        0x00001bc4:    f7fefac8    ....    BL       rand ; 0x158
        0x00001bc8:    eb0071d0    ...q    ADD      r1,r0,r0,LSR #31
        0x00001bcc:    f0210101    !...    BIC      r1,r1,#1
        0x00001bd0:    1a40        @.      SUBS     r0,r0,r1
        0x00001bd2:    7260        `r      STRB     r0,[r4,#9]
        0x00001bd4:    f7fefac0    ....    BL       rand ; 0x158
        0x00001bd8:    eb0071d0    ...q    ADD      r1,r0,r0,LSR #31
        0x00001bdc:    f0210101    !...    BIC      r1,r1,#1
        0x00001be0:    1a40        @.      SUBS     r0,r0,r1
        0x00001be2:    72a0        .r      STRB     r0,[r4,#0xa]
        0x00001be4:    bd70        p.      POP      {r4-r6,pc}
    $d
        0x00001be6:    0000        ..      DCW    0
        0x00001be8:    00004a7b    {J..    DCD    19067
    $t
    i.m_straight_drawPlane
    m_straight_drawPlane
        0x00001bec:    e92d43f8    -..C    PUSH     {r3-r9,lr}
        0x00001bf0:    4680        .F      MOV      r8,r0
        0x00001bf2:    460d        .F      MOV      r5,r1
        0x00001bf4:    2700        .'      MOVS     r7,#0
        0x00001bf6:    f8df9184    ....    LDR      r9,[pc,#388] ; [0x1d7c] = 0x4a7b
        0x00001bfa:    e0b7        ..      B        0x1d6c ; m_straight_drawPlane + 384
        0x00001bfc:    eb070147    ..G.    ADD      r1,r7,r7,LSL #1
        0x00001c00:    f8180021    ..!.    LDRB     r0,[r8,r1,LSL #2]
        0x00001c04:    2800        .(      CMP      r0,#0
        0x00001c06:    d071        q.      BEQ      0x1cec ; m_straight_drawPlane + 256
        0x00001c08:    eb080481    ....    ADD      r4,r8,r1,LSL #2
        0x00001c0c:    7aa0        .z      LDRB     r0,[r4,#0xa]
        0x00001c0e:    b128        (.      CBZ      r0,0x1c1c ; m_straight_drawPlane + 48
        0x00001c10:    2620         &      MOVS     r6,#0x20
        0x00001c12:    7a60        `z      LDRB     r0,[r4,#9]
        0x00001c14:    b120         .      CBZ      r0,0x1c20 ; m_straight_drawPlane + 52
        0x00001c16:    2801        .(      CMP      r0,#1
        0x00001c18:    d168        h.      BNE      0x1cec ; m_straight_drawPlane + 256
        0x00001c1a:    e068        h.      B        0x1cee ; m_straight_drawPlane + 258
        0x00001c1c:    2600        .&      MOVS     r6,#0
        0x00001c1e:    e7f8        ..      B        0x1c12 ; m_straight_drawPlane + 38
        0x00001c20:    9600        ..      STR      r6,[sp,#0]
        0x00001c22:    88e0        ..      LDRH     r0,[r4,#6]
        0x00001c24:    b2c2        ..      UXTB     r2,r0
        0x00001c26:    88a0        ..      LDRH     r0,[r4,#4]
        0x00001c28:    2390        .#      MOVS     r3,#0x90
        0x00001c2a:    b2c1        ..      UXTB     r1,r0
        0x00001c2c:    7828        (x      LDRB     r0,[r5,#0]
        0x00001c2e:    f002ff11    ....    BL       writeOneSprite ; 0x4a54
        0x00001c32:    9600        ..      STR      r6,[sp,#0]
        0x00001c34:    88e0        ..      LDRH     r0,[r4,#6]
        0x00001c36:    b2c2        ..      UXTB     r2,r0
        0x00001c38:    88a0        ..      LDRH     r0,[r4,#4]
        0x00001c3a:    2391        .#      MOVS     r3,#0x91
        0x00001c3c:    3008        .0      ADDS     r0,r0,#8
        0x00001c3e:    b2c1        ..      UXTB     r1,r0
        0x00001c40:    7828        (x      LDRB     r0,[r5,#0]
        0x00001c42:    1c40        @.      ADDS     r0,r0,#1
        0x00001c44:    b2c0        ..      UXTB     r0,r0
        0x00001c46:    f002ff05    ....    BL       writeOneSprite ; 0x4a54
        0x00001c4a:    9600        ..      STR      r6,[sp,#0]
        0x00001c4c:    88e0        ..      LDRH     r0,[r4,#6]
        0x00001c4e:    1dc0        ..      ADDS     r0,r0,#7
        0x00001c50:    b2c2        ..      UXTB     r2,r0
        0x00001c52:    88a0        ..      LDRH     r0,[r4,#4]
        0x00001c54:    2392        .#      MOVS     r3,#0x92
        0x00001c56:    b2c1        ..      UXTB     r1,r0
        0x00001c58:    7828        (x      LDRB     r0,[r5,#0]
        0x00001c5a:    1c80        ..      ADDS     r0,r0,#2
        0x00001c5c:    b2c0        ..      UXTB     r0,r0
        0x00001c5e:    f002fef9    ....    BL       writeOneSprite ; 0x4a54
        0x00001c62:    9600        ..      STR      r6,[sp,#0]
        0x00001c64:    88e0        ..      LDRH     r0,[r4,#6]
        0x00001c66:    1dc0        ..      ADDS     r0,r0,#7
        0x00001c68:    b2c2        ..      UXTB     r2,r0
        0x00001c6a:    88a0        ..      LDRH     r0,[r4,#4]
        0x00001c6c:    2393        .#      MOVS     r3,#0x93
        0x00001c6e:    3008        .0      ADDS     r0,r0,#8
        0x00001c70:    b2c1        ..      UXTB     r1,r0
        0x00001c72:    7828        (x      LDRB     r0,[r5,#0]
        0x00001c74:    1cc0        ..      ADDS     r0,r0,#3
        0x00001c76:    b2c0        ..      UXTB     r0,r0
        0x00001c78:    f002feec    ....    BL       writeOneSprite ; 0x4a54
        0x00001c7c:    9600        ..      STR      r6,[sp,#0]
        0x00001c7e:    88e0        ..      LDRH     r0,[r4,#6]
        0x00001c80:    300e        .0      ADDS     r0,r0,#0xe
        0x00001c82:    b2c2        ..      UXTB     r2,r0
        0x00001c84:    88a0        ..      LDRH     r0,[r4,#4]
        0x00001c86:    2394        .#      MOVS     r3,#0x94
        0x00001c88:    b2c1        ..      UXTB     r1,r0
        0x00001c8a:    7828        (x      LDRB     r0,[r5,#0]
        0x00001c8c:    1d00        ..      ADDS     r0,r0,#4
        0x00001c8e:    b2c0        ..      UXTB     r0,r0
        0x00001c90:    f002fee0    ....    BL       writeOneSprite ; 0x4a54
        0x00001c94:    9600        ..      STR      r6,[sp,#0]
        0x00001c96:    88e0        ..      LDRH     r0,[r4,#6]
        0x00001c98:    300e        .0      ADDS     r0,r0,#0xe
        0x00001c9a:    b2c2        ..      UXTB     r2,r0
        0x00001c9c:    88a0        ..      LDRH     r0,[r4,#4]
        0x00001c9e:    2395        .#      MOVS     r3,#0x95
        0x00001ca0:    3008        .0      ADDS     r0,r0,#8
        0x00001ca2:    b2c1        ..      UXTB     r1,r0
        0x00001ca4:    7828        (x      LDRB     r0,[r5,#0]
        0x00001ca6:    1d40        @.      ADDS     r0,r0,#5
        0x00001ca8:    b2c0        ..      UXTB     r0,r0
        0x00001caa:    f002fed3    ....    BL       writeOneSprite ; 0x4a54
        0x00001cae:    9600        ..      STR      r6,[sp,#0]
        0x00001cb0:    88e0        ..      LDRH     r0,[r4,#6]
        0x00001cb2:    1d00        ..      ADDS     r0,r0,#4
        0x00001cb4:    b2c2        ..      UXTB     r2,r0
        0x00001cb6:    88a0        ..      LDRH     r0,[r4,#4]
        0x00001cb8:    2396        .#      MOVS     r3,#0x96
        0x00001cba:    3808        .8      SUBS     r0,r0,#8
        0x00001cbc:    b2c1        ..      UXTB     r1,r0
        0x00001cbe:    7828        (x      LDRB     r0,[r5,#0]
        0x00001cc0:    1d80        ..      ADDS     r0,r0,#6
        0x00001cc2:    b2c0        ..      UXTB     r0,r0
        0x00001cc4:    f002fec6    ....    BL       writeOneSprite ; 0x4a54
        0x00001cc8:    f0460040    F.@.    ORR      r0,r6,#0x40
        0x00001ccc:    9000        ..      STR      r0,[sp,#0]
        0x00001cce:    88e0        ..      LDRH     r0,[r4,#6]
        0x00001cd0:    1d00        ..      ADDS     r0,r0,#4
        0x00001cd2:    b2c2        ..      UXTB     r2,r0
        0x00001cd4:    88a0        ..      LDRH     r0,[r4,#4]
        0x00001cd6:    2396        .#      MOVS     r3,#0x96
        0x00001cd8:    3010        .0      ADDS     r0,r0,#0x10
        0x00001cda:    b2c1        ..      UXTB     r1,r0
        0x00001cdc:    7828        (x      LDRB     r0,[r5,#0]
        0x00001cde:    1dc0        ..      ADDS     r0,r0,#7
        0x00001ce0:    b2c0        ..      UXTB     r0,r0
        0x00001ce2:    f002feb7    ....    BL       writeOneSprite ; 0x4a54
        0x00001ce6:    7828        (x      LDRB     r0,[r5,#0]
        0x00001ce8:    3008        .0      ADDS     r0,r0,#8
        0x00001cea:    7028        (p      STRB     r0,[r5,#0]
        0x00001cec:    e03d        =.      B        0x1d6a ; m_straight_drawPlane + 382
        0x00001cee:    9600        ..      STR      r6,[sp,#0]
        0x00001cf0:    88e0        ..      LDRH     r0,[r4,#6]
        0x00001cf2:    b2c2        ..      UXTB     r2,r0
        0x00001cf4:    88a0        ..      LDRH     r0,[r4,#4]
        0x00001cf6:    23b3        .#      MOVS     r3,#0xb3
        0x00001cf8:    b2c1        ..      UXTB     r1,r0
        0x00001cfa:    7828        (x      LDRB     r0,[r5,#0]
        0x00001cfc:    f002feaa    ....    BL       writeOneSprite ; 0x4a54
        0x00001d00:    9600        ..      STR      r6,[sp,#0]
        0x00001d02:    88e0        ..      LDRH     r0,[r4,#6]
        0x00001d04:    1fc0        ..      SUBS     r0,r0,#7
        0x00001d06:    b2c2        ..      UXTB     r2,r0
        0x00001d08:    88a0        ..      LDRH     r0,[r4,#4]
        0x00001d0a:    23b1        .#      MOVS     r3,#0xb1
        0x00001d0c:    b2c1        ..      UXTB     r1,r0
        0x00001d0e:    7828        (x      LDRB     r0,[r5,#0]
        0x00001d10:    1c40        @.      ADDS     r0,r0,#1
        0x00001d12:    b2c0        ..      UXTB     r0,r0
        0x00001d14:    f002fe9e    ....    BL       writeOneSprite ; 0x4a54
        0x00001d18:    9600        ..      STR      r6,[sp,#0]
        0x00001d1a:    88e0        ..      LDRH     r0,[r4,#6]
        0x00001d1c:    1dc0        ..      ADDS     r0,r0,#7
        0x00001d1e:    b2c2        ..      UXTB     r2,r0
        0x00001d20:    88a0        ..      LDRH     r0,[r4,#4]
        0x00001d22:    23b5        .#      MOVS     r3,#0xb5
        0x00001d24:    b2c1        ..      UXTB     r1,r0
        0x00001d26:    7828        (x      LDRB     r0,[r5,#0]
        0x00001d28:    1c80        ..      ADDS     r0,r0,#2
        0x00001d2a:    b2c0        ..      UXTB     r0,r0
        0x00001d2c:    f002fe92    ....    BL       writeOneSprite ; 0x4a54
        0x00001d30:    9600        ..      STR      r6,[sp,#0]
        0x00001d32:    88e0        ..      LDRH     r0,[r4,#6]
        0x00001d34:    b2c2        ..      UXTB     r2,r0
        0x00001d36:    88a0        ..      LDRH     r0,[r4,#4]
        0x00001d38:    23b2        .#      MOVS     r3,#0xb2
        0x00001d3a:    3808        .8      SUBS     r0,r0,#8
        0x00001d3c:    b2c1        ..      UXTB     r1,r0
        0x00001d3e:    7828        (x      LDRB     r0,[r5,#0]
        0x00001d40:    1cc0        ..      ADDS     r0,r0,#3
        0x00001d42:    b2c0        ..      UXTB     r0,r0
        0x00001d44:    f002fe86    ....    BL       writeOneSprite ; 0x4a54
        0x00001d48:    f0460040    F.@.    ORR      r0,r6,#0x40
        0x00001d4c:    9000        ..      STR      r0,[sp,#0]
        0x00001d4e:    88e0        ..      LDRH     r0,[r4,#6]
        0x00001d50:    b2c2        ..      UXTB     r2,r0
        0x00001d52:    88a0        ..      LDRH     r0,[r4,#4]
        0x00001d54:    23b2        .#      MOVS     r3,#0xb2
        0x00001d56:    3008        .0      ADDS     r0,r0,#8
        0x00001d58:    b2c1        ..      UXTB     r1,r0
        0x00001d5a:    7828        (x      LDRB     r0,[r5,#0]
        0x00001d5c:    1d00        ..      ADDS     r0,r0,#4
        0x00001d5e:    b2c0        ..      UXTB     r0,r0
        0x00001d60:    f002fe78    ..x.    BL       writeOneSprite ; 0x4a54
        0x00001d64:    7828        (x      LDRB     r0,[r5,#0]
        0x00001d66:    1d40        @.      ADDS     r0,r0,#5
        0x00001d68:    7028        (p      STRB     r0,[r5,#0]
        0x00001d6a:    1c7f        ..      ADDS     r7,r7,#1
        0x00001d6c:    f8990000    ....    LDRB     r0,[r9,#0]
        0x00001d70:    4287        .B      CMP      r7,r0
        0x00001d72:    f6ffaf43    ..C.    BLT      0x1bfc ; m_straight_drawPlane + 16
        0x00001d76:    e8bd83f8    ....    POP      {r3-r9,pc}
    $d
        0x00001d7a:    0000        ..      DCW    0
        0x00001d7c:    00004a7b    {J..    DCD    19067
    $t
    i.m_straight_movePlane
    m_straight_movePlane
        0x00001d80:    b570        p.      PUSH     {r4-r6,lr}
        0x00001d82:    2200        ."      MOVS     r2,#0
        0x00001d84:    2400        .$      MOVS     r4,#0
        0x00001d86:    4e17        .N      LDR      r6,[pc,#92] ; [0x1de4] = 0x4a7b
        0x00001d88:    e00d        ..      B        0x1da6 ; m_straight_movePlane + 38
        0x00001d8a:    eb020342    ..B.    ADD      r3,r2,r2,LSL #1
        0x00001d8e:    f8101023    ..#.    LDRB     r1,[r0,r3,LSL #2]
        0x00001d92:    b139        9.      CBZ      r1,0x1da4 ; m_straight_movePlane + 36
        0x00001d94:    eb000183    ....    ADD      r1,r0,r3,LSL #2
        0x00001d98:    788d        .x      LDRB     r5,[r1,#2]
        0x00001d9a:    2d02        .-      CMP      r5,#2
        0x00001d9c:    d007        ..      BEQ      0x1dae ; m_straight_movePlane + 46
        0x00001d9e:    788b        .x      LDRB     r3,[r1,#2]
        0x00001da0:    1c5b        [.      ADDS     r3,r3,#1
        0x00001da2:    708b        .p      STRB     r3,[r1,#2]
        0x00001da4:    1c52        R.      ADDS     r2,r2,#1
        0x00001da6:    7831        1x      LDRB     r1,[r6,#0]
        0x00001da8:    428a        .B      CMP      r2,r1
        0x00001daa:    dbee        ..      BLT      0x1d8a ; m_straight_movePlane + 10
        0x00001dac:    bd70        p.      POP      {r4-r6,pc}
        0x00001dae:    708c        .p      STRB     r4,[r1,#2]
        0x00001db0:    f9b15004    ...P    LDRSH    r5,[r1,#4]
        0x00001db4:    2d05        .-      CMP      r5,#5
        0x00001db6:    db0c        ..      BLT      0x1dd2 ; m_straight_movePlane + 82
        0x00001db8:    f9b15004    ...P    LDRSH    r5,[r1,#4]
        0x00001dbc:    2dfb        .-      CMP      r5,#0xfb
        0x00001dbe:    dc08        ..      BGT      0x1dd2 ; m_straight_movePlane + 82
        0x00001dc0:    f9b15006    ...P    LDRSH    r5,[r1,#6]
        0x00001dc4:    3508        .5      ADDS     r5,r5,#8
        0x00001dc6:    2d0a        .-      CMP      r5,#0xa
        0x00001dc8:    db03        ..      BLT      0x1dd2 ; m_straight_movePlane + 82
        0x00001dca:    f9b15006    ...P    LDRSH    r5,[r1,#6]
        0x00001dce:    2de6        .-      CMP      r5,#0xe6
        0x00001dd0:    dd02        ..      BLE      0x1dd8 ; m_straight_movePlane + 88
        0x00001dd2:    f8004023    ..#@    STRB     r4,[r0,r3,LSL #2]
        0x00001dd6:    e7e5        ..      B        0x1da4 ; m_straight_movePlane + 36
        0x00001dd8:    88cb        ..      LDRH     r3,[r1,#6]
        0x00001dda:    f9915008    ...P    LDRSB    r5,[r1,#8]
        0x00001dde:    1b5b        [.      SUBS     r3,r3,r5
        0x00001de0:    80cb        ..      STRH     r3,[r1,#6]
        0x00001de2:    e7df        ..      B        0x1da4 ; m_straight_movePlane + 36
    $d
        0x00001de4:    00004a7b    {J..    DCD    19067
    $t
    i.m_straight_planeInit
    m_straight_planeInit
        0x00001de8:    b530        0.      PUSH     {r4,r5,lr}
        0x00001dea:    2200        ."      MOVS     r2,#0
        0x00001dec:    4d0a        .M      LDR      r5,[pc,#40] ; [0x1e18] = 0x4a7b
        0x00001dee:    e00f        ..      B        0x1e10 ; m_straight_planeInit + 40
        0x00001df0:    eb020442    ..B.    ADD      r4,r2,r2,LSL #1
        0x00001df4:    eb000184    ....    ADD      r1,r0,r4,LSL #2
        0x00001df8:    2300        .#      MOVS     r3,#0
        0x00001dfa:    808b        ..      STRH     r3,[r1,#4]
        0x00001dfc:    80cb        ..      STRH     r3,[r1,#6]
        0x00001dfe:    720b        .r      STRB     r3,[r1,#8]
        0x00001e00:    f8003024    ..$0    STRB     r3,[r0,r4,LSL #2]
        0x00001e04:    2405        .$      MOVS     r4,#5
        0x00001e06:    704c        Lp      STRB     r4,[r1,#1]
        0x00001e08:    708b        .p      STRB     r3,[r1,#2]
        0x00001e0a:    724b        Kr      STRB     r3,[r1,#9]
        0x00001e0c:    728b        .r      STRB     r3,[r1,#0xa]
        0x00001e0e:    1c52        R.      ADDS     r2,r2,#1
        0x00001e10:    7829        )x      LDRB     r1,[r5,#0]
        0x00001e12:    428a        .B      CMP      r2,r1
        0x00001e14:    dbec        ..      BLT      0x1df0 ; m_straight_planeInit + 8
        0x00001e16:    bd30        0.      POP      {r4,r5,pc}
    $d
        0x00001e18:    00004a7b    {J..    DCD    19067
    $t
    i.main
    main
        0x00001e1c:    b51f        ..      PUSH     {r0-r4,lr}
        0x00001e1e:    f04f0800    O...    MOV      r8,#0
        0x00001e22:    2301        .#      MOVS     r3,#1
        0x00001e24:    f44f71d9    O..q    MOV      r1,#0x1b2
        0x00001e28:    f8cd8000    ....    STR      r8,[sp,#0]
        0x00001e2c:    f8cd8004    ....    STR      r8,[sp,#4]
        0x00001e30:    f8cd8008    ....    STR      r8,[sp,#8]
        0x00001e34:    461a        .F      MOV      r2,r3
        0x00001e36:    0748        H.      LSLS     r0,r1,#29
        0x00001e38:    f8cd800c    ....    STR      r8,[sp,#0xc]
        0x00001e3c:    f002fd64    ..d.    BL       uart_init ; 0x4908
        0x00001e40:    4afe        .J      LDR      r2,[pc,#1016] ; [0x223c] = 0x8c878c73
        0x00001e42:    2170        p!      MOVS     r1,#0x70
        0x00001e44:    2000        .       MOVS     r0,#0
        0x00001e46:    f002fe11    ....    BL       write_ov5640_config ; 0x4a6c
        0x00001e4a:    f04f40c0    O..@    MOV      r0,#0x60000000
        0x00001e4e:    68c3        .h      LDR      r3,[r0,#0xc]
        0x00001e50:    6882        .h      LDR      r2,[r0,#8]
        0x00001e52:    6841        Ah      LDR      r1,[r0,#4]
        0x00001e54:    a0fa        ..      ADR      r0,{pc}+0x3ec ; 0x2240
        0x00001e56:    f7fefd75    ..u.    BL       __0printf$5 ; 0x944
        0x00001e5a:    f7fefc0b    ....    BL       PS2_Init ; 0x674
        0x00001e5e:    2064        d       MOVS     r0,#0x64
        0x00001e60:    f7fefd00    ....    BL       SPI_Init ; 0x864
        0x00001e64:    2000        .       MOVS     r0,#0
        0x00001e66:    f002fceb    ....    BL       set_frame ; 0x4840
        0x00001e6a:    200f        .       MOVS     r0,#0xf
        0x00001e6c:    f002fd36    ..6.    BL       set_state ; 0x48dc
        0x00001e70:    2000        .       MOVS     r0,#0
        0x00001e72:    f7fefc7b    ..{.    BL       SPI_Flash_Erase_Sector ; 0x76c
        0x00001e76:    f44f5080    O..P    MOV      r0,#0x1000
        0x00001e7a:    f7fefc77    ..w.    BL       SPI_Flash_Erase_Sector ; 0x76c
        0x00001e7e:    f44f5000    O..P    MOV      r0,#0x2000
        0x00001e82:    f7fefc73    ..s.    BL       SPI_Flash_Erase_Sector ; 0x76c
        0x00001e86:    f44f5040    O.@P    MOV      r0,#0x3000
        0x00001e8a:    f7fefc6f    ..o.    BL       SPI_Flash_Erase_Sector ; 0x76c
        0x00001e8e:    f44f4080    O..@    MOV      r0,#0x4000
        0x00001e92:    f7fefc6b    ..k.    BL       SPI_Flash_Erase_Sector ; 0x76c
        0x00001e96:    f44f40a0    O..@    MOV      r0,#0x5000
        0x00001e9a:    f7fefc67    ..g.    BL       SPI_Flash_Erase_Sector ; 0x76c
        0x00001e9e:    f44f40c0    O..@    MOV      r0,#0x6000
        0x00001ea2:    f7fefc63    ..c.    BL       SPI_Flash_Erase_Sector ; 0x76c
        0x00001ea6:    f44f40e0    O..@    MOV      r0,#0x7000
        0x00001eaa:    f7fefc5f    .._.    BL       SPI_Flash_Erase_Sector ; 0x76c
        0x00001eae:    f8df93a4    ....    LDR      r9,[pc,#932] ; [0x2254] = 0x20000000
        0x00001eb2:    f8d90020    .. .    LDR      r0,[r9,#0x20]
        0x00001eb6:    f000fd81    ....    BL       makeMapFirst ; 0x29bc
        0x00001eba:    f8d9001c    ....    LDR      r0,[r9,#0x1c]
        0x00001ebe:    f000fe79    ..y.    BL       makeMapSecond ; 0x2bb4
        0x00001ec2:    f8dfb394    ....    LDR      r11,[pc,#916] ; [0x2258] = 0x5002081c
        0x00001ec6:    f8dfa390    ....    LDR      r10,[pc,#912] ; [0x2258] = 0x5002081c
        0x00001eca:    4ee4        .N      LDR      r6,[pc,#912] ; [0x225c] = 0x20002c38
        0x00001ecc:    f1ab0b1c    ....    SUB      r11,r11,#0x1c
        0x00001ed0:    2501        .%      MOVS     r5,#1
        0x00001ed2:    f8990005    ....    LDRB     r0,[r9,#5]
        0x00001ed6:    2800        .(      CMP      r0,#0
        0x00001ed8:    d00c        ..      BEQ      0x1ef4 ; main + 216
        0x00001eda:    f8898005    ....    STRB     r8,[r9,#5]
        0x00001ede:    f889800a    ....    STRB     r8,[r9,#0xa]
        0x00001ee2:    f8990001    ....    LDRB     r0,[r9,#1]
        0x00001ee6:    b130        0.      CBZ      r0,0x1ef6 ; main + 218
        0x00001ee8:    2801        .(      CMP      r0,#1
        0x00001eea:    d07c        |.      BEQ      0x1fe6 ; main + 458
        0x00001eec:    2802        .(      CMP      r0,#2
        0x00001eee:    d07b        {.      BEQ      0x1fe8 ; main + 460
        0x00001ef0:    2803        .(      CMP      r0,#3
        0x00001ef2:    d07a        z.      BEQ      0x1fea ; main + 462
        0x00001ef4:    e1e6        ..      B        0x22c4 ; main + 1192
        0x00001ef6:    f8d91034    ..4.    LDR      r1,[r9,#0x34]
        0x00001efa:    f8d90014    ....    LDR      r0,[r9,#0x14]
        0x00001efe:    4281        .B      CMP      r1,r0
        0x00001f00:    d23c        <.      BCS      0x1f7c ; main + 352
        0x00001f02:    210a        .!      MOVS     r1,#0xa
        0x00001f04:    fbb0f2f1    ....    UDIV     r2,r0,r1
        0x00001f08:    fb010c12    ....    MLS      r12,r1,r2,r0
        0x00001f0c:    fbb0f2f1    ....    UDIV     r2,r0,r1
        0x00001f10:    fbb2f3f1    ....    UDIV     r3,r2,r1
        0x00001f14:    fb012313    ...#    MLS      r3,r1,r3,r2
        0x00001f18:    2264        d"      MOVS     r2,#0x64
        0x00001f1a:    fbb0f2f2    ....    UDIV     r2,r0,r2
        0x00001f1e:    fbb2f4f1    ....    UDIV     r4,r2,r1
        0x00001f22:    fb012e14    ....    MLS      lr,r1,r4,r2
        0x00001f26:    f44f727a    O.zr    MOV      r2,#0x3e8
        0x00001f2a:    fbb0f2f2    ....    UDIV     r2,r0,r2
        0x00001f2e:    fbb2f4f1    ....    UDIV     r4,r2,r1
        0x00001f32:    fb012414    ...$    MLS      r4,r1,r4,r2
        0x00001f36:    f2427210    B..r    MOV      r2,#0x2710
        0x00001f3a:    fbb0f2f2    ....    UDIV     r2,r0,r2
        0x00001f3e:    fbb2f7f1    ....    UDIV     r7,r2,r1
        0x00001f42:    fb012217    ..."    MLS      r2,r1,r7,r2
        0x00001f46:    4fc6        .O      LDR      r7,[pc,#792] ; [0x2260] = 0x186a0
        0x00001f48:    fbb0f0f7    ....    UDIV     r0,r0,r7
        0x00001f4c:    fbb0f7f1    ....    UDIV     r7,r0,r1
        0x00001f50:    fb010117    ....    MLS      r1,r1,r7,r0
        0x00001f54:    48c3        .H      LDR      r0,[pc,#780] ; [0x2264] = 0x20002b38
        0x00001f56:    7141        Aq      STRB     r1,[r0,#5]
        0x00001f58:    7102        .q      STRB     r2,[r0,#4]
        0x00001f5a:    70c4        .p      STRB     r4,[r0,#3]
        0x00001f5c:    f880e002    ....    STRB     lr,[r0,#2]
        0x00001f60:    7043        Cp      STRB     r3,[r0,#1]
        0x00001f62:    f880c000    ....    STRB     r12,[r0,#0]
        0x00001f66:    f8d90018    ....    LDR      r0,[r9,#0x18]
        0x00001f6a:    f7fefbe1    ....    BL       SPI_Flash_Erase_Block ; 0x730
        0x00001f6e:    f44f7280    O..r    MOV      r2,#0x100
        0x00001f72:    48bc        .H      LDR      r0,[pc,#752] ; [0x2264] = 0x20002b38
        0x00001f74:    f8d91018    ....    LDR      r1,[r9,#0x18]
        0x00001f78:    f7fefc4d    ..M.    BL       SPI_Flash_Write_Page ; 0x816
        0x00001f7c:    48b6        .H      LDR      r0,[pc,#728] ; [0x2258] = 0x5002081c
        0x00001f7e:    3008        .0      ADDS     r0,r0,#8
        0x00001f80:    6005        .`      STR      r5,[r0,#0]
        0x00001f82:    2400        .$      MOVS     r4,#0
        0x00001f84:    23ff        .#      MOVS     r3,#0xff
        0x00001f86:    22e6        ."      MOVS     r2,#0xe6
        0x00001f88:    21fb        .!      MOVS     r1,#0xfb
        0x00001f8a:    4620         F      MOV      r0,r4
        0x00001f8c:    f8cd8000    ....    STR      r8,[sp,#0]
        0x00001f90:    f002fd60    ..`.    BL       writeOneSprite ; 0x4a54
        0x00001f94:    1c64        d.      ADDS     r4,r4,#1
        0x00001f96:    b2e4        ..      UXTB     r4,r4
        0x00001f98:    2c40        @,      CMP      r4,#0x40
        0x00001f9a:    d3f3        ..      BCC      0x1f84 ; main + 360
        0x00001f9c:    f7fff898    ....    BL       clearNameTableAll ; 0x10d0
        0x00001fa0:    2108        .!      MOVS     r1,#8
        0x00001fa2:    2007        .       MOVS     r0,#7
        0x00001fa4:    f7fffb80    ....    BL       gameStartInterfaceShow ; 0x16a8
        0x00001fa8:    48aa        .H      LDR      r0,[pc,#680] ; [0x2254] = 0x20000000
        0x00001faa:    2206        ."      MOVS     r2,#6
        0x00001fac:    304c        L0      ADDS     r0,r0,#0x4c
        0x00001fae:    f8d91018    ....    LDR      r1,[r9,#0x18]
        0x00001fb2:    f7fefbf9    ....    BL       SPI_Flash_Read ; 0x7a8
        0x00001fb6:    4ca7        .L      LDR      r4,[pc,#668] ; [0x2254] = 0x20000000
        0x00001fb8:    49a9        .I      LDR      r1,[pc,#676] ; [0x2260] = 0x186a0
        0x00001fba:    344c        L4      ADDS     r4,r4,#0x4c
        0x00001fbc:    f2402271    @.q"    MOV      r2,#0x271
        0x00001fc0:    7960        `y      LDRB     r0,[r4,#5]
        0x00001fc2:    4348        HC      MULS     r0,r1,r0
        0x00001fc4:    7921        !y      LDRB     r1,[r4,#4]
        0x00001fc6:    4351        QC      MULS     r1,r2,r1
        0x00001fc8:    eb001101    ....    ADD      r1,r0,r1,LSL #4
        0x00001fcc:    78e0        .x      LDRB     r0,[r4,#3]
        0x00001fce:    eb000240    ..@.    ADD      r2,r0,r0,LSL #1
        0x00001fd2:    ebc210c0    ....    RSB      r0,r2,r0,LSL #7
        0x00001fd6:    eb0101c0    ....    ADD      r1,r1,r0,LSL #3
        0x00001fda:    78a0        .x      LDRB     r0,[r4,#2]
        0x00001fdc:    eb0002c0    ....    ADD      r2,r0,r0,LSL #3
        0x00001fe0:    eb021000    ....    ADD      r0,r2,r0,LSL #4
        0x00001fe4:    e002        ..      B        0x1fec ; main + 464
        0x00001fe6:    e051        Q.      B        0x208c ; main + 624
        0x00001fe8:    e09e        ..      B        0x2128 ; main + 780
        0x00001fea:    e0ba        ..      B        0x2162 ; main + 838
        0x00001fec:    eb010180    ....    ADD      r1,r1,r0,LSL #2
        0x00001ff0:    7860        `x      LDRB     r0,[r4,#1]
        0x00001ff2:    eb000080    ....    ADD      r0,r0,r0,LSL #2
        0x00001ff6:    eb010040    ..@.    ADD      r0,r1,r0,LSL #1
        0x00001ffa:    7821        !x      LDRB     r1,[r4,#0]
        0x00001ffc:    4401        .D      ADD      r1,r1,r0
        0x00001ffe:    f8c91034    ..4.    STR      r1,[r9,#0x34]
        0x00002002:    a099        ..      ADR      r0,{pc}+0x266 ; 0x2268
        0x00002004:    f7fefc9e    ....    BL       __0printf$5 ; 0x944
        0x00002008:    2730        0'      MOVS     r7,#0x30
        0x0000200a:    9700        ..      STR      r7,[sp,#0]
        0x0000200c:    7963        cy      LDRB     r3,[r4,#5]
        0x0000200e:    2218        ."      MOVS     r2,#0x18
        0x00002010:    2198        .!      MOVS     r1,#0x98
        0x00002012:    2032        2       MOVS     r0,#0x32
        0x00002014:    f002fd1e    ....    BL       writeOneSprite ; 0x4a54
        0x00002018:    9700        ..      STR      r7,[sp,#0]
        0x0000201a:    7923        #y      LDRB     r3,[r4,#4]
        0x0000201c:    2218        ."      MOVS     r2,#0x18
        0x0000201e:    21a0        .!      MOVS     r1,#0xa0
        0x00002020:    2033        3       MOVS     r0,#0x33
        0x00002022:    f002fd17    ....    BL       writeOneSprite ; 0x4a54
        0x00002026:    9700        ..      STR      r7,[sp,#0]
        0x00002028:    78e3        .x      LDRB     r3,[r4,#3]
        0x0000202a:    2218        ."      MOVS     r2,#0x18
        0x0000202c:    21a8        .!      MOVS     r1,#0xa8
        0x0000202e:    2034        4       MOVS     r0,#0x34
        0x00002030:    f002fd10    ....    BL       writeOneSprite ; 0x4a54
        0x00002034:    9700        ..      STR      r7,[sp,#0]
        0x00002036:    78a3        .x      LDRB     r3,[r4,#2]
        0x00002038:    2218        ."      MOVS     r2,#0x18
        0x0000203a:    21b0        .!      MOVS     r1,#0xb0
        0x0000203c:    2035        5       MOVS     r0,#0x35
        0x0000203e:    f002fd09    ....    BL       writeOneSprite ; 0x4a54
        0x00002042:    9700        ..      STR      r7,[sp,#0]
        0x00002044:    7863        cx      LDRB     r3,[r4,#1]
        0x00002046:    2218        ."      MOVS     r2,#0x18
        0x00002048:    21b8        .!      MOVS     r1,#0xb8
        0x0000204a:    2036        6       MOVS     r0,#0x36
        0x0000204c:    f002fd02    ....    BL       writeOneSprite ; 0x4a54
        0x00002050:    9700        ..      STR      r7,[sp,#0]
        0x00002052:    7823        #x      LDRB     r3,[r4,#0]
        0x00002054:    2218        ."      MOVS     r2,#0x18
        0x00002056:    21c0        .!      MOVS     r1,#0xc0
        0x00002058:    2037        7       MOVS     r0,#0x37
        0x0000205a:    f002fcfb    ....    BL       writeOneSprite ; 0x4a54
        0x0000205e:    f899000b    ....    LDRB     r0,[r9,#0xb]
        0x00002062:    b120         .      CBZ      r0,0x206e ; main + 594
        0x00002064:    2212        ."      MOVS     r2,#0x12
        0x00002066:    2114        .!      MOVS     r1,#0x14
        0x00002068:    4610        .F      MOV      r0,r2
        0x0000206a:    f002fceb    ....    BL       writeOneNametable ; 0x4a44
        0x0000206e:    f8c98044    ..D.    STR      r8,[r9,#0x44]
        0x00002072:    4878        xH      LDR      r0,[pc,#480] ; [0x2254] = 0x20000000
        0x00002074:    300f        .0      ADDS     r0,r0,#0xf
        0x00002076:    f7fffa75    ..u.    BL       gameCursorDraw ; 0x1564
        0x0000207a:    f8898007    ....    STRB     r8,[r9,#7]
        0x0000207e:    f8c98014    ....    STR      r8,[r9,#0x14]
        0x00002082:    f8c98038    ..8.    STR      r8,[r9,#0x38]
        0x00002086:    f8c9803c    ..<.    STR      r8,[r9,#0x3c]
        0x0000208a:    e11b        ..      B        0x22c4 ; main + 1192
        0x0000208c:    f889800c    ....    STRB     r8,[r9,#0xc]
        0x00002090:    f889800d    ....    STRB     r8,[r9,#0xd]
        0x00002094:    f889800e    ....    STRB     r8,[r9,#0xe]
        0x00002098:    f8898006    ....    STRB     r8,[r9,#6]
        0x0000209c:    f8898010    ....    STRB     r8,[r9,#0x10]
        0x000020a0:    f8c98040    ..@.    STR      r8,[r9,#0x40]
        0x000020a4:    486d        mH      LDR      r0,[pc,#436] ; [0x225c] = 0x20002c38
        0x000020a6:    f001f8d3    ....    BL       myPlane_Init ; 0x3250
        0x000020aa:    486c        lH      LDR      r0,[pc,#432] ; [0x225c] = 0x20002c38
        0x000020ac:    300a        .0      ADDS     r0,r0,#0xa
        0x000020ae:    f001f8ff    ....    BL       myPlane_bulletInit ; 0x32b0
        0x000020b2:    486a        jH      LDR      r0,[pc,#424] ; [0x225c] = 0x20002c38
        0x000020b4:    3082        .0      ADDS     r0,r0,#0x82
        0x000020b6:    f002fbad    ....    BL       s_grey_planeInit ; 0x4814
        0x000020ba:    4871        qH      LDR      r0,[pc,#452] ; [0x2280] = 0x20002d7a
        0x000020bc:    f001ff4c    ..L.    BL       s_green_planeInit ; 0x3f58
        0x000020c0:    486f        oH      LDR      r0,[pc,#444] ; [0x2280] = 0x20002d7a
        0x000020c2:    30f0        .0      ADDS     r0,r0,#0xf0
        0x000020c4:    f7fffe90    ....    BL       m_straight_planeInit ; 0x1de8
        0x000020c8:    486e        nH      LDR      r0,[pc,#440] ; [0x2284] = 0x20002e8e
        0x000020ca:    f7feffe7    ....    BL       b_green_planeInit ; 0x109c
        0x000020ce:    486d        mH      LDR      r0,[pc,#436] ; [0x2284] = 0x20002e8e
        0x000020d0:    301a        .0      ADDS     r0,r0,#0x1a
        0x000020d2:    f7fffa25    ..%.    BL       enmey_BulletInit ; 0x1520
        0x000020d6:    486c        lH      LDR      r0,[pc,#432] ; [0x2288] = 0x20002ffc
        0x000020d8:    f001fa56    ..V.    BL       new_boomInit ; 0x3588
        0x000020dc:    2400        .$      MOVS     r4,#0
        0x000020de:    23ff        .#      MOVS     r3,#0xff
        0x000020e0:    22e6        ."      MOVS     r2,#0xe6
        0x000020e2:    21fb        .!      MOVS     r1,#0xfb
        0x000020e4:    4620         F      MOV      r0,r4
        0x000020e6:    f8cd8000    ....    STR      r8,[sp,#0]
        0x000020ea:    f002fcb3    ....    BL       writeOneSprite ; 0x4a54
        0x000020ee:    1c64        d.      ADDS     r4,r4,#1
        0x000020f0:    b2e4        ..      UXTB     r4,r4
        0x000020f2:    2c40        @,      CMP      r4,#0x40
        0x000020f4:    d3f3        ..      BCC      0x20de ; main + 706
        0x000020f6:    f7feffeb    ....    BL       clearNameTableAll ; 0x10d0
        0x000020fa:    f7fffd27    ..'.    BL       loadMapJianchuan ; 0x1b4c
        0x000020fe:    4956        VI      LDR      r1,[pc,#344] ; [0x2258] = 0x5002081c
        0x00002100:    2003        .       MOVS     r0,#3
        0x00002102:    3918        .9      SUBS     r1,r1,#0x18
        0x00002104:    6008        .`      STR      r0,[r1,#0]
        0x00002106:    f8990007    ....    LDRB     r0,[r9,#7]
        0x0000210a:    0380        ..      LSLS     r0,r0,#14
        0x0000210c:    1d09        ..      ADDS     r1,r1,#4
        0x0000210e:    6008        .`      STR      r0,[r1,#0]
        0x00002110:    2008        .       MOVS     r0,#8
        0x00002112:    1d09        ..      ADDS     r1,r1,#4
        0x00002114:    6008        .`      STR      r0,[r1,#0]
        0x00002116:    f8cb5000    ...P    STR      r5,[r11,#0]
        0x0000211a:    484f        OH      LDR      r0,[pc,#316] ; [0x2258] = 0x5002081c
        0x0000211c:    1d00        ..      ADDS     r0,r0,#4
        0x0000211e:    6005        .`      STR      r5,[r0,#0]
        0x00002120:    1d00        ..      ADDS     r0,r0,#4
        0x00002122:    f8c08000    ....    STR      r8,[r0,#0]
        0x00002126:    e0cd        ..      B        0x22c4 ; main + 1192
        0x00002128:    f8cb8000    ....    STR      r8,[r11,#0]
        0x0000212c:    2400        .$      MOVS     r4,#0
        0x0000212e:    23ff        .#      MOVS     r3,#0xff
        0x00002130:    22e6        ."      MOVS     r2,#0xe6
        0x00002132:    21fb        .!      MOVS     r1,#0xfb
        0x00002134:    4620         F      MOV      r0,r4
        0x00002136:    f8cd8000    ....    STR      r8,[sp,#0]
        0x0000213a:    f002fc8b    ....    BL       writeOneSprite ; 0x4a54
        0x0000213e:    1c64        d.      ADDS     r4,r4,#1
        0x00002140:    b2e4        ..      UXTB     r4,r4
        0x00002142:    2c40        @,      CMP      r4,#0x40
        0x00002144:    d3f3        ..      BCC      0x212e ; main + 786
        0x00002146:    f7feffc3    ....    BL       clearNameTableAll ; 0x10d0
        0x0000214a:    4843        CH      LDR      r0,[pc,#268] ; [0x2258] = 0x5002081c
        0x0000214c:    3008        .0      ADDS     r0,r0,#8
        0x0000214e:    6005        .`      STR      r5,[r0,#0]
        0x00002150:    f8898004    ....    STRB     r8,[r9,#4]
        0x00002154:    f8898000    ....    STRB     r8,[r9,#0]
        0x00002158:    f8898002    ....    STRB     r8,[r9,#2]
        0x0000215c:    f8898003    ....    STRB     r8,[r9,#3]
        0x00002160:    e0b0        ..      B        0x22c4 ; main + 1192
        0x00002162:    f8cb8000    ....    STR      r8,[r11,#0]
        0x00002166:    2400        .$      MOVS     r4,#0
        0x00002168:    23ff        .#      MOVS     r3,#0xff
        0x0000216a:    22e6        ."      MOVS     r2,#0xe6
        0x0000216c:    21fb        .!      MOVS     r1,#0xfb
        0x0000216e:    4620         F      MOV      r0,r4
        0x00002170:    f8cd8000    ....    STR      r8,[sp,#0]
        0x00002174:    f002fc6e    ..n.    BL       writeOneSprite ; 0x4a54
        0x00002178:    1c64        d.      ADDS     r4,r4,#1
        0x0000217a:    b2e4        ..      UXTB     r4,r4
        0x0000217c:    2c40        @,      CMP      r4,#0x40
        0x0000217e:    d3f3        ..      BCC      0x2168 ; main + 844
        0x00002180:    f7feffa6    ....    BL       clearNameTableAll ; 0x10d0
        0x00002184:    f8990008    ....    LDRB     r0,[r9,#8]
        0x00002188:    f8890009    ....    STRB     r0,[r9,#9]
        0x0000218c:    2778        x'      MOVS     r7,#0x78
        0x0000218e:    2020                MOVS     r0,#0x20
        0x00002190:    9003        ..      STR      r0,[sp,#0xc]
        0x00002192:    2408        .$      MOVS     r4,#8
        0x00002194:    2333        3#      MOVS     r3,#0x33
        0x00002196:    9400        ..      STR      r4,[sp,#0]
        0x00002198:    4639        9F      MOV      r1,r7
        0x0000219a:    2000        .       MOVS     r0,#0
        0x0000219c:    9a03        ..      LDR      r2,[sp,#0xc]
        0x0000219e:    f002fc59    ..Y.    BL       writeOneSprite ; 0x4a54
        0x000021a2:    2334        4#      MOVS     r3,#0x34
        0x000021a4:    9400        ..      STR      r4,[sp,#0]
        0x000021a6:    2180        .!      MOVS     r1,#0x80
        0x000021a8:    2001        .       MOVS     r0,#1
        0x000021aa:    9a03        ..      LDR      r2,[sp,#0xc]
        0x000021ac:    f002fc52    ..R.    BL       writeOneSprite ; 0x4a54
        0x000021b0:    2048        H       MOVS     r0,#0x48
        0x000021b2:    9000        ..      STR      r0,[sp,#0]
        0x000021b4:    2333        3#      MOVS     r3,#0x33
        0x000021b6:    2188        .!      MOVS     r1,#0x88
        0x000021b8:    2002        .       MOVS     r0,#2
        0x000021ba:    9a03        ..      LDR      r2,[sp,#0xc]
        0x000021bc:    f002fc4a    ..J.    BL       writeOneSprite ; 0x4a54
        0x000021c0:    2335        5#      MOVS     r3,#0x35
        0x000021c2:    2227        '"      MOVS     r2,#0x27
        0x000021c4:    217c        |!      MOVS     r1,#0x7c
        0x000021c6:    2003        .       MOVS     r0,#3
        0x000021c8:    9400        ..      STR      r4,[sp,#0]
        0x000021ca:    f002fc43    ..C.    BL       writeOneSprite ; 0x4a54
        0x000021ce:    2336        6#      MOVS     r3,#0x36
        0x000021d0:    2227        '"      MOVS     r2,#0x27
        0x000021d2:    2184        .!      MOVS     r1,#0x84
        0x000021d4:    2004        .       MOVS     r0,#4
        0x000021d6:    9400        ..      STR      r4,[sp,#0]
        0x000021d8:    f002fc3c    ..<.    BL       writeOneSprite ; 0x4a54
        0x000021dc:    2428        ($      MOVS     r4,#0x28
        0x000021de:    2333        3#      MOVS     r3,#0x33
        0x000021e0:    225e        ^"      MOVS     r2,#0x5e
        0x000021e2:    4639        9F      MOV      r1,r7
        0x000021e4:    2005        .       MOVS     r0,#5
        0x000021e6:    9400        ..      STR      r4,[sp,#0]
        0x000021e8:    f002fc34    ..4.    BL       writeOneSprite ; 0x4a54
        0x000021ec:    2334        4#      MOVS     r3,#0x34
        0x000021ee:    225e        ^"      MOVS     r2,#0x5e
        0x000021f0:    2180        .!      MOVS     r1,#0x80
        0x000021f2:    2006        .       MOVS     r0,#6
        0x000021f4:    9400        ..      STR      r4,[sp,#0]
        0x000021f6:    f002fc2d    ..-.    BL       writeOneSprite ; 0x4a54
        0x000021fa:    2068        h       MOVS     r0,#0x68
        0x000021fc:    9000        ..      STR      r0,[sp,#0]
        0x000021fe:    2333        3#      MOVS     r3,#0x33
        0x00002200:    225e        ^"      MOVS     r2,#0x5e
        0x00002202:    2188        .!      MOVS     r1,#0x88
        0x00002204:    2007        .       MOVS     r0,#7
        0x00002206:    f002fc25    ..%.    BL       writeOneSprite ; 0x4a54
        0x0000220a:    2335        5#      MOVS     r3,#0x35
        0x0000220c:    2265        e"      MOVS     r2,#0x65
        0x0000220e:    217c        |!      MOVS     r1,#0x7c
        0x00002210:    2008        .       MOVS     r0,#8
        0x00002212:    9400        ..      STR      r4,[sp,#0]
        0x00002214:    f002fc1e    ....    BL       writeOneSprite ; 0x4a54
        0x00002218:    2336        6#      MOVS     r3,#0x36
        0x0000221a:    2265        e"      MOVS     r2,#0x65
        0x0000221c:    2184        .!      MOVS     r1,#0x84
        0x0000221e:    2009        .       MOVS     r0,#9
        0x00002220:    9400        ..      STR      r4,[sp,#0]
        0x00002222:    f002fc17    ....    BL       writeOneSprite ; 0x4a54
        0x00002226:    2430        0$      MOVS     r4,#0x30
        0x00002228:    2333        3#      MOVS     r3,#0x33
        0x0000222a:    229c        ."      MOVS     r2,#0x9c
        0x0000222c:    4639        9F      MOV      r1,r7
        0x0000222e:    2032        2       MOVS     r0,#0x32
        0x00002230:    9400        ..      STR      r4,[sp,#0]
        0x00002232:    f002fc0f    ....    BL       writeOneSprite ; 0x4a54
        0x00002236:    2334        4#      MOVS     r3,#0x34
        0x00002238:    229c        ."      MOVS     r2,#0x9c
        0x0000223a:    e027        '.      B        0x228c ; main + 1136
    $d
        0x0000223c:    8c878c73    s...    DCD    2357693555
        0x00002240:    3635564f    OV56    DCD    909465167
        0x00002244:    203a3034    40:     DCD    540684340
        0x00002248:    252c7825    %x,%    DCD    623671333
        0x0000224c:    78252c78    x,%x    DCD    2015702136
        0x00002250:    0000000a    ....    DCD    10
        0x00002254:    20000000    ...     DCD    536870912
        0x00002258:    5002081c    ...P    DCD    1342310428
        0x0000225c:    20002c38    8,.     DCD    536882232
        0x00002260:    000186a0    ....    DCD    100000
        0x00002264:    20002b38    8+.     DCD    536881976
        0x00002268:    46776f6e    nowF    DCD    1182232430
        0x0000226c:    6873616c    lash    DCD    1752392044
        0x00002270:    656d6147    Game    DCD    1701667143
        0x00002274:    726f6353    Scor    DCD    1919902547
        0x00002278:    75253d65    e=%u    DCD    1965374821
        0x0000227c:    0000000a    ....    DCD    10
        0x00002280:    20002d7a    z-.     DCD    536882554
        0x00002284:    20002e8e    ...     DCD    536882830
        0x00002288:    20002ffc    ./.     DCD    536883196
    $t
        0x0000228c:    2180        .!      MOVS     r1,#0x80
        0x0000228e:    2033        3       MOVS     r0,#0x33
        0x00002290:    9400        ..      STR      r4,[sp,#0]
        0x00002292:    f002fbdf    ....    BL       writeOneSprite ; 0x4a54
        0x00002296:    2070        p       MOVS     r0,#0x70
        0x00002298:    9000        ..      STR      r0,[sp,#0]
        0x0000229a:    2333        3#      MOVS     r3,#0x33
        0x0000229c:    229c        ."      MOVS     r2,#0x9c
        0x0000229e:    2188        .!      MOVS     r1,#0x88
        0x000022a0:    2034        4       MOVS     r0,#0x34
        0x000022a2:    f002fbd7    ....    BL       writeOneSprite ; 0x4a54
        0x000022a6:    27a3        .'      MOVS     r7,#0xa3
        0x000022a8:    2335        5#      MOVS     r3,#0x35
        0x000022aa:    463a        :F      MOV      r2,r7
        0x000022ac:    217c        |!      MOVS     r1,#0x7c
        0x000022ae:    4618        .F      MOV      r0,r3
        0x000022b0:    9400        ..      STR      r4,[sp,#0]
        0x000022b2:    f002fbcf    ....    BL       writeOneSprite ; 0x4a54
        0x000022b6:    2336        6#      MOVS     r3,#0x36
        0x000022b8:    463a        :F      MOV      r2,r7
        0x000022ba:    2184        .!      MOVS     r1,#0x84
        0x000022bc:    4618        .F      MOV      r0,r3
        0x000022be:    9400        ..      STR      r4,[sp,#0]
        0x000022c0:    f002fbc8    ....    BL       writeOneSprite ; 0x4a54
        0x000022c4:    f8990001    ....    LDRB     r0,[r9,#1]
        0x000022c8:    f8991005    ....    LDRB     r1,[r9,#5]
        0x000022cc:    ea500201    P...    ORRS     r2,r0,r1
        0x000022d0:    d002        ..      BEQ      0x22d8 ; main + 1212
        0x000022d2:    2801        .(      CMP      r0,#1
        0x000022d4:    d055        U.      BEQ      0x2382 ; main + 1382
        0x000022d6:    e055        U.      B        0x2384 ; main + 1384
        0x000022d8:    f7fef9a8    ....    BL       PS2_DataKey ; 0x62c
        0x000022dc:    f8c90024    ..$.    STR      r0,[r9,#0x24]
        0x000022e0:    2805        .(      CMP      r0,#5
        0x000022e2:    d004        ..      BEQ      0x22ee ; main + 1234
        0x000022e4:    2807        .(      CMP      r0,#7
        0x000022e6:    d00d        ..      BEQ      0x2304 ; main + 1256
        0x000022e8:    280d        .(      CMP      r0,#0xd
        0x000022ea:    d017        ..      BEQ      0x231c ; main + 1280
        0x000022ec:    e03f        ?.      B        0x236e ; main + 1362
        0x000022ee:    f7fefca9    ....    BL       apu_Button ; 0xc44
        0x000022f2:    48fe        .H      LDR      r0,[pc,#1016] ; [0x26ec] = 0x2000000f
        0x000022f4:    7801        .x      LDRB     r1,[r0,#0]
        0x000022f6:    b319        ..      CBZ      r1,0x2340 ; main + 1316
        0x000022f8:    7801        .x      LDRB     r1,[r0,#0]
        0x000022fa:    1e49        I.      SUBS     r1,r1,#1
        0x000022fc:    7001        .p      STRB     r1,[r0,#0]
        0x000022fe:    f7fff931    ..1.    BL       gameCursorDraw ; 0x1564
        0x00002302:    e034        4.      B        0x236e ; main + 1362
        0x00002304:    f7fefc9e    ....    BL       apu_Button ; 0xc44
        0x00002308:    48f8        .H      LDR      r0,[pc,#992] ; [0x26ec] = 0x2000000f
        0x0000230a:    7801        .x      LDRB     r1,[r0,#0]
        0x0000230c:    2902        .)      CMP      r1,#2
        0x0000230e:    d22e        ..      BCS      0x236e ; main + 1362
        0x00002310:    7801        .x      LDRB     r1,[r0,#0]
        0x00002312:    1c49        I.      ADDS     r1,r1,#1
        0x00002314:    7001        .p      STRB     r1,[r0,#0]
        0x00002316:    f7fff925    ..%.    BL       gameCursorDraw ; 0x1564
        0x0000231a:    e028        (.      B        0x236e ; main + 1362
        0x0000231c:    f7fefc92    ....    BL       apu_Button ; 0xc44
        0x00002320:    48f2        .H      LDR      r0,[pc,#968] ; [0x26ec] = 0x2000000f
        0x00002322:    7801        .x      LDRB     r1,[r0,#0]
        0x00002324:    b131        1.      CBZ      r1,0x2334 ; main + 1304
        0x00002326:    7801        .x      LDRB     r1,[r0,#0]
        0x00002328:    2901        .)      CMP      r1,#1
        0x0000232a:    d00a        ..      BEQ      0x2342 ; main + 1318
        0x0000232c:    7800        .x      LDRB     r0,[r0,#0]
        0x0000232e:    2802        .(      CMP      r0,#2
        0x00002330:    d00f        ..      BEQ      0x2352 ; main + 1334
        0x00002332:    e01c        ..      B        0x236e ; main + 1362
        0x00002334:    f8895005    ...P    STRB     r5,[r9,#5]
        0x00002338:    f8895001    ...P    STRB     r5,[r9,#1]
        0x0000233c:    f7fefc91    ....    BL       apu_Intr_Trigger ; 0xc62
        0x00002340:    e015        ..      B        0x236e ; main + 1362
        0x00002342:    f7fefc7f    ....    BL       apu_Button ; 0xc44
        0x00002346:    f8895005    ...P    STRB     r5,[r9,#5]
        0x0000234a:    2003        .       MOVS     r0,#3
        0x0000234c:    f8890001    ....    STRB     r0,[r9,#1]
        0x00002350:    e00d        ..      B        0x236e ; main + 1362
        0x00002352:    f7fefc77    ..w.    BL       apu_Button ; 0xc44
        0x00002356:    f899000b    ....    LDRB     r0,[r9,#0xb]
        0x0000235a:    f0800001    ....    EOR      r0,r0,#1
        0x0000235e:    f889000b    ....    STRB     r0,[r9,#0xb]
        0x00002362:    b140        @.      CBZ      r0,0x2376 ; main + 1370
        0x00002364:    2212        ."      MOVS     r2,#0x12
        0x00002366:    2114        .!      MOVS     r1,#0x14
        0x00002368:    4610        .F      MOV      r0,r2
        0x0000236a:    f002fb6b    ..k.    BL       writeOneNametable ; 0x4a44
        0x0000236e:    20c8        .       MOVS     r0,#0xc8
        0x00002370:    f7feff5a    ..Z.    BL       delay_ms ; 0x1228
        0x00002374:    e5ad        ..      B        0x1ed2 ; main + 182
        0x00002376:    2211        ."      MOVS     r2,#0x11
        0x00002378:    2114        .!      MOVS     r1,#0x14
        0x0000237a:    2012        .       MOVS     r0,#0x12
        0x0000237c:    f002fb62    ..b.    BL       writeOneNametable ; 0x4a44
        0x00002380:    e7f5        ..      B        0x236e ; main + 1362
        0x00002382:    b111        ..      CBZ      r1,0x238a ; main + 1390
        0x00002384:    2802        .(      CMP      r0,#2
        0x00002386:    d06e        n.      BEQ      0x2466 ; main + 1610
        0x00002388:    e2a1        ..      B        0x28ce ; main + 2738
        0x0000238a:    f8990006    ....    LDRB     r0,[r9,#6]
        0x0000238e:    b320         .      CBZ      r0,0x23da ; main + 1470
        0x00002390:    2802        .(      CMP      r0,#2
        0x00002392:    d069        i.      BEQ      0x2468 ; main + 1612
        0x00002394:    2803        .(      CMP      r0,#3
        0x00002396:    d1ed        ..      BNE      0x2374 ; main + 1368
        0x00002398:    f8990007    ....    LDRB     r0,[r9,#7]
        0x0000239c:    1c40        @.      ADDS     r0,r0,#1
        0x0000239e:    b2c0        ..      UXTB     r0,r0
        0x000023a0:    f8890007    ....    STRB     r0,[r9,#7]
        0x000023a4:    2802        .(      CMP      r0,#2
        0x000023a6:    d06f        o.      BEQ      0x2488 ; main + 1644
        0x000023a8:    2700        .'      MOVS     r7,#0
        0x000023aa:    f8898000    ....    STRB     r8,[r9,#0]
        0x000023ae:    4bcf        .K      LDR      r3,[pc,#828] ; [0x26ec] = 0x2000000f
        0x000023b0:    210a        .!      MOVS     r1,#0xa
        0x000023b2:    3b0f        .;      SUBS     r3,r3,#0xf
        0x000023b4:    2003        .       MOVS     r0,#3
        0x000023b6:    f8d92014    ...     LDR      r2,[r9,#0x14]
        0x000023ba:    f7fff8fb    ....    BL       gameScoreDraw ; 0x15b4
        0x000023be:    49cb        .I      LDR      r1,[pc,#812] ; [0x26ec] = 0x2000000f
        0x000023c0:    f8990007    ....    LDRB     r0,[r9,#7]
        0x000023c4:    390f        .9      SUBS     r1,r1,#0xf
        0x000023c6:    f001f829    ..).    BL       newGuanqiaInterFaceDraw ; 0x341c
        0x000023ca:    49c8        .I      LDR      r1,[pc,#800] ; [0x26ec] = 0x2000000f
        0x000023cc:    48c8        .H      LDR      r0,[pc,#800] ; [0x26f0] = 0x20002c38
        0x000023ce:    390f        .9      SUBS     r1,r1,#0xf
        0x000023d0:    f000fd5a    ..Z.    BL       myPlane_Draw ; 0x2e88
        0x000023d4:    f8994000    ...@    LDRB     r4,[r9,#0]
        0x000023d8:    e240        @.      B        0x285c ; main + 2624
        0x000023da:    4cc6        .L      LDR      r4,[pc,#792] ; [0x26f4] = 0x50020810
        0x000023dc:    6821        !h      LDR      r1,[r4,#0]
        0x000023de:    1f20         .      SUBS     r0,r4,#4
        0x000023e0:    6800        .h      LDR      r0,[r0,#0]
        0x000023e2:    4281        .B      CMP      r1,r0
        0x000023e4:    d301        ..      BCC      0x23ea ; main + 1486
        0x000023e6:    1d20         .      ADDS     r0,r4,#4
        0x000023e8:    6800        .h      LDR      r0,[r0,#0]
        0x000023ea:    f7fef91f    ....    BL       PS2_DataKey ; 0x62c
        0x000023ee:    f8c90028    ..(.    STR      r0,[r9,#0x28]
        0x000023f2:    f001f9cf    ....    BL       read_JY61P_flag ; 0x3794
        0x000023f6:    f8890011    ....    STRB     r0,[r9,#0x11]
        0x000023fa:    f001f9e9    ....    BL       read_cnn_result ; 0x37d0
        0x000023fe:    f8c90048    ..H.    STR      r0,[r9,#0x48]
        0x00002402:    4601        .F      MOV      r1,r0
        0x00002404:    a0bc        ..      ADR      r0,{pc}+0x2f4 ; 0x26f8
        0x00002406:    f7fefa9d    ....    BL       __0printf$5 ; 0x944
        0x0000240a:    f899000c    ....    LDRB     r0,[r9,#0xc]
        0x0000240e:    1c40        @.      ADDS     r0,r0,#1
        0x00002410:    b2c0        ..      UXTB     r0,r0
        0x00002412:    f889000c    ....    STRB     r0,[r9,#0xc]
        0x00002416:    2818        .(      CMP      r0,#0x18
        0x00002418:    d34b        K.      BCC      0x24b2 ; main + 1686
        0x0000241a:    f889800c    ....    STRB     r8,[r9,#0xc]
        0x0000241e:    f899000b    ....    LDRB     r0,[r9,#0xb]
        0x00002422:    b150        P.      CBZ      r0,0x243a ; main + 1566
        0x00002424:    f8d90048    ..H.    LDR      r0,[r9,#0x48]
        0x00002428:    2801        .(      CMP      r0,#1
        0x0000242a:    d02e        ..      BEQ      0x248a ; main + 1646
        0x0000242c:    2802        .(      CMP      r0,#2
        0x0000242e:    d034        4.      BEQ      0x249a ; main + 1662
        0x00002430:    f8d90028    ..(.    LDR      r0,[r9,#0x28]
        0x00002434:    2808        .(      CMP      r0,#8
        0x00002436:    d033        3.      BEQ      0x24a0 ; main + 1668
        0x00002438:    e03b        ;.      B        0x24b2 ; main + 1686
        0x0000243a:    48b3        .H      LDR      r0,[pc,#716] ; [0x2708] = 0x20003024
        0x0000243c:    7900        .y      LDRB     r0,[r0,#4]
        0x0000243e:    06c0        ..      LSLS     r0,r0,#27
        0x00002440:    d407        ..      BMI      0x2452 ; main + 1590
        0x00002442:    79f0        .y      LDRB     r0,[r6,#7]
        0x00002444:    b9f8        ..      CBNZ     r0,0x2486 ; main + 1642
        0x00002446:    49aa        .I      LDR      r1,[pc,#680] ; [0x26f0] = 0x20002c38
        0x00002448:    48a9        .H      LDR      r0,[pc,#676] ; [0x26f0] = 0x20002c38
        0x0000244a:    310a        .1      ADDS     r1,r1,#0xa
        0x0000244c:    f000ff42    ..B.    BL       myPlane_createOneBullet ; 0x32d4
        0x00002450:    e02f        /.      B        0x24b2 ; main + 1686
        0x00002452:    f8d90028    ..(.    LDR      r0,[r9,#0x28]
        0x00002456:    280e        .(      CMP      r0,#0xe
        0x00002458:    d002        ..      BEQ      0x2460 ; main + 1604
        0x0000245a:    2810        .(      CMP      r0,#0x10
        0x0000245c:    d005        ..      BEQ      0x246a ; main + 1614
        0x0000245e:    e028        (.      B        0x24b2 ; main + 1686
        0x00002460:    f889500d    ...P    STRB     r5,[r9,#0xd]
        0x00002464:    e025        %.      B        0x24b2 ; main + 1686
        0x00002466:    e231        1.      B        0x28cc ; main + 2736
        0x00002468:    e10a        ..      B        0x2680 ; main + 2148
        0x0000246a:    f899000e    ....    LDRB     r0,[r9,#0xe]
        0x0000246e:    b130        0.      CBZ      r0,0x247e ; main + 1634
        0x00002470:    f8ca8000    ....    STR      r8,[r10,#0]
        0x00002474:    f889800e    ....    STRB     r8,[r9,#0xe]
        0x00002478:    f7fefbf3    ....    BL       apu_Intr_Trigger ; 0xc62
        0x0000247c:    e019        ..      B        0x24b2 ; main + 1686
        0x0000247e:    f8ca5000    ...P    STR      r5,[r10,#0]
        0x00002482:    f889500e    ...P    STRB     r5,[r9,#0xe]
        0x00002486:    e014        ..      B        0x24b2 ; main + 1686
        0x00002488:    e175        u.      B        0x2776 ; main + 2394
        0x0000248a:    79f0        .y      LDRB     r0,[r6,#7]
        0x0000248c:    b988        ..      CBNZ     r0,0x24b2 ; main + 1686
        0x0000248e:    4998        .I      LDR      r1,[pc,#608] ; [0x26f0] = 0x20002c38
        0x00002490:    4897        .H      LDR      r0,[pc,#604] ; [0x26f0] = 0x20002c38
        0x00002492:    310a        .1      ADDS     r1,r1,#0xa
        0x00002494:    f000ff1e    ....    BL       myPlane_createOneBullet ; 0x32d4
        0x00002498:    e00b        ..      B        0x24b2 ; main + 1686
        0x0000249a:    f889500d    ...P    STRB     r5,[r9,#0xd]
        0x0000249e:    e008        ..      B        0x24b2 ; main + 1686
        0x000024a0:    f899000e    ....    LDRB     r0,[r9,#0xe]
        0x000024a4:    b178        x.      CBZ      r0,0x24c6 ; main + 1706
        0x000024a6:    f8ca8000    ....    STR      r8,[r10,#0]
        0x000024aa:    f889800e    ....    STRB     r8,[r9,#0xe]
        0x000024ae:    f7fefbd8    ....    BL       apu_Intr_Trigger ; 0xc62
        0x000024b2:    f899100c    ....    LDRB     r1,[r9,#0xc]
        0x000024b6:    2003        .       MOVS     r0,#3
        0x000024b8:    fbb1f2f0    ....    UDIV     r2,r1,r0
        0x000024bc:    fb001012    ....    MLS      r0,r0,r2,r1
        0x000024c0:    2801        .(      CMP      r0,#1
        0x000024c2:    d005        ..      BEQ      0x24d0 ; main + 1716
        0x000024c4:    e05d        ].      B        0x2582 ; main + 1894
        0x000024c6:    f8ca5000    ...P    STR      r5,[r10,#0]
        0x000024ca:    f889500e    ...P    STRB     r5,[r9,#0xe]
        0x000024ce:    e7f0        ..      B        0x24b2 ; main + 1686
        0x000024d0:    f899000b    ....    LDRB     r0,[r9,#0xb]
        0x000024d4:    b130        0.      CBZ      r0,0x24e4 ; main + 1736
        0x000024d6:    f8990011    ....    LDRB     r0,[r9,#0x11]
        0x000024da:    2801        .(      CMP      r0,#1
        0x000024dc:    d02c        ,.      BEQ      0x2538 ; main + 1820
        0x000024de:    2802        .(      CMP      r0,#2
        0x000024e0:    d139        9.      BNE      0x2556 ; main + 1850
        0x000024e2:    e031        1.      B        0x2548 ; main + 1836
        0x000024e4:    f8d90028    ..(.    LDR      r0,[r9,#0x28]
        0x000024e8:    2805        .(      CMP      r0,#5
        0x000024ea:    d015        ..      BEQ      0x2518 ; main + 1788
        0x000024ec:    2806        .(      CMP      r0,#6
        0x000024ee:    d00b        ..      BEQ      0x2508 ; main + 1772
        0x000024f0:    2807        .(      CMP      r0,#7
        0x000024f2:    d019        ..      BEQ      0x2528 ; main + 1804
        0x000024f4:    2808        .(      CMP      r0,#8
        0x000024f6:    d144        D.      BNE      0x2582 ; main + 1894
        0x000024f8:    f9b60000    ....    LDRSH    r0,[r6,#0]
        0x000024fc:    2819        .(      CMP      r0,#0x19
        0x000024fe:    dd40        @.      BLE      0x2582 ; main + 1894
        0x00002500:    8830        0.      LDRH     r0,[r6,#0]
        0x00002502:    1f40        @.      SUBS     r0,r0,#5
        0x00002504:    8030        0.      STRH     r0,[r6,#0]
        0x00002506:    e03c        <.      B        0x2582 ; main + 1894
        0x00002508:    f9b60000    ....    LDRSH    r0,[r6,#0]
        0x0000250c:    28e7        .(      CMP      r0,#0xe7
        0x0000250e:    da38        8.      BGE      0x2582 ; main + 1894
        0x00002510:    8830        0.      LDRH     r0,[r6,#0]
        0x00002512:    1d40        @.      ADDS     r0,r0,#5
        0x00002514:    8030        0.      STRH     r0,[r6,#0]
        0x00002516:    e034        4.      B        0x2582 ; main + 1894
        0x00002518:    f9b60002    ....    LDRSH    r0,[r6,#2]
        0x0000251c:    281e        .(      CMP      r0,#0x1e
        0x0000251e:    dd30        0.      BLE      0x2582 ; main + 1894
        0x00002520:    8870        p.      LDRH     r0,[r6,#2]
        0x00002522:    1f40        @.      SUBS     r0,r0,#5
        0x00002524:    8070        p.      STRH     r0,[r6,#2]
        0x00002526:    e02c        ,.      B        0x2582 ; main + 1894
        0x00002528:    f9b60002    ....    LDRSH    r0,[r6,#2]
        0x0000252c:    28d2        .(      CMP      r0,#0xd2
        0x0000252e:    da28        (.      BGE      0x2582 ; main + 1894
        0x00002530:    8870        p.      LDRH     r0,[r6,#2]
        0x00002532:    1d40        @.      ADDS     r0,r0,#5
        0x00002534:    8070        p.      STRH     r0,[r6,#2]
        0x00002536:    e024        $.      B        0x2582 ; main + 1894
        0x00002538:    f9b61002    ....    LDRSH    r1,[r6,#2]
        0x0000253c:    291e        .)      CMP      r1,#0x1e
        0x0000253e:    dd0a        ..      BLE      0x2556 ; main + 1850
        0x00002540:    8871        q.      LDRH     r1,[r6,#2]
        0x00002542:    1f49        I.      SUBS     r1,r1,#5
        0x00002544:    8071        q.      STRH     r1,[r6,#2]
        0x00002546:    e006        ..      B        0x2556 ; main + 1850
        0x00002548:    f9b61002    ....    LDRSH    r1,[r6,#2]
        0x0000254c:    29d2        .)      CMP      r1,#0xd2
        0x0000254e:    da02        ..      BGE      0x2556 ; main + 1850
        0x00002550:    8871        q.      LDRH     r1,[r6,#2]
        0x00002552:    1d49        I.      ADDS     r1,r1,#5
        0x00002554:    8071        q.      STRH     r1,[r6,#2]
        0x00002556:    f00000f0    ....    AND      r0,r0,#0xf0
        0x0000255a:    2830        0(      CMP      r0,#0x30
        0x0000255c:    d002        ..      BEQ      0x2564 ; main + 1864
        0x0000255e:    2840        @(      CMP      r0,#0x40
        0x00002560:    d10f        ..      BNE      0x2582 ; main + 1894
        0x00002562:    e007        ..      B        0x2574 ; main + 1880
        0x00002564:    f9b60000    ....    LDRSH    r0,[r6,#0]
        0x00002568:    2819        .(      CMP      r0,#0x19
        0x0000256a:    dd0a        ..      BLE      0x2582 ; main + 1894
        0x0000256c:    8830        0.      LDRH     r0,[r6,#0]
        0x0000256e:    1f40        @.      SUBS     r0,r0,#5
        0x00002570:    8030        0.      STRH     r0,[r6,#0]
        0x00002572:    e006        ..      B        0x2582 ; main + 1894
        0x00002574:    f9b60000    ....    LDRSH    r0,[r6,#0]
        0x00002578:    28e7        .(      CMP      r0,#0xe7
        0x0000257a:    da02        ..      BGE      0x2582 ; main + 1894
        0x0000257c:    8830        0.      LDRH     r0,[r6,#0]
        0x0000257e:    1d40        @.      ADDS     r0,r0,#5
        0x00002580:    8030        0.      STRH     r0,[r6,#0]
        0x00002582:    f899000e    ....    LDRB     r0,[r9,#0xe]
        0x00002586:    bb10        ..      CBNZ     r0,0x25ce ; main + 1970
        0x00002588:    4958        XI      LDR      r1,[pc,#352] ; [0x26ec] = 0x2000000f
        0x0000258a:    4859        YH      LDR      r0,[pc,#356] ; [0x26f0] = 0x20002c38
        0x0000258c:    1e89        ..      SUBS     r1,r1,#2
        0x0000258e:    f000fc49    ..I.    BL       myPlane_Act ; 0x2e24
        0x00002592:    4857        WH      LDR      r0,[pc,#348] ; [0x26f0] = 0x20002c38
        0x00002594:    300a        .0      ADDS     r0,r0,#0xa
        0x00002596:    f000ff27    ..'.    BL       myPlane_updateBulletData ; 0x33e8
        0x0000259a:    4955        UI      LDR      r1,[pc,#340] ; [0x26f0] = 0x20002c38
        0x0000259c:    4a5b        [J      LDR      r2,[pc,#364] ; [0x270c] = 0x20002ea8
        0x0000259e:    f1010082    ....    ADD      r0,r1,#0x82
        0x000025a2:    f002f815    ....    BL       s_grey_movePlane ; 0x45d0
        0x000025a6:    4952        RI      LDR      r1,[pc,#328] ; [0x26f0] = 0x20002c38
        0x000025a8:    4a58        XJ      LDR      r2,[pc,#352] ; [0x270c] = 0x20002ea8
        0x000025aa:    f50170a1    ...p    ADD      r0,r1,#0x142
        0x000025ae:    f001fb63    ..c.    BL       s_green_movePlane ; 0x3c78
        0x000025b2:    4856        VH      LDR      r0,[pc,#344] ; [0x270c] = 0x20002ea8
        0x000025b4:    383e        >8      SUBS     r0,r0,#0x3e
        0x000025b6:    f7fffbe3    ....    BL       m_straight_movePlane ; 0x1d80
        0x000025ba:    4854        TH      LDR      r0,[pc,#336] ; [0x270c] = 0x20002ea8
        0x000025bc:    381a        .8      SUBS     r0,r0,#0x1a
        0x000025be:    f7fefc73    ..s.    BL       b_green_movePlane ; 0xea8
        0x000025c2:    4852        RH      LDR      r0,[pc,#328] ; [0x270c] = 0x20002ea8
        0x000025c4:    f002f9c6    ....    BL       updateEnemyBulletData ; 0x4954
        0x000025c8:    4851        QH      LDR      r0,[pc,#324] ; [0x2710] = 0x20002ffc
        0x000025ca:    f001f807    ....    BL       new_updateBoomData ; 0x35dc
        0x000025ce:    6820         h      LDR      r0,[r4,#0]
        0x000025d0:    2808        .(      CMP      r0,#8
        0x000025d2:    d10e        ..      BNE      0x25f2 ; main + 2006
        0x000025d4:    4847        GH      LDR      r0,[pc,#284] ; [0x26f4] = 0x50020810
        0x000025d6:    1d00        ..      ADDS     r0,r0,#4
        0x000025d8:    6800        .h      LDR      r0,[r0,#0]
        0x000025da:    2878        x(      CMP      r0,#0x78
        0x000025dc:    d809        ..      BHI      0x25f2 ; main + 2006
        0x000025de:    2000        .       MOVS     r0,#0
        0x000025e0:    4a4a        JJ      LDR      r2,[pc,#296] ; [0x270c] = 0x20002ea8
        0x000025e2:    1e41        A.      SUBS     r1,r0,#1
        0x000025e4:    3264        d2      ADDS     r2,r2,#0x64
        0x000025e6:    f8421020    B. .    STR      r1,[r2,r0,LSL #2]
        0x000025ea:    1c40        @.      ADDS     r0,r0,#1
        0x000025ec:    281e        .(      CMP      r0,#0x1e
        0x000025ee:    dbfa        ..      BLT      0x25e6 ; main + 1994
        0x000025f0:    e005        ..      B        0x25fe ; main + 2018
        0x000025f2:    4946        FI      LDR      r1,[pc,#280] ; [0x270c] = 0x20002ea8
        0x000025f4:    3164        d1      ADDS     r1,r1,#0x64
        0x000025f6:    f2a120ca    ...     SUB      r0,r1,#0x2ca
        0x000025fa:    f000fbef    ....    BL       myBulletsMapCreate ; 0x2ddc
        0x000025fe:    4844        DH      LDR      r0,[pc,#272] ; [0x2710] = 0x20002ffc
        0x00002600:    4b42        BK      LDR      r3,[pc,#264] ; [0x270c] = 0x20002ea8
        0x00002602:    3878        x8      SUBS     r0,r0,#0x78
        0x00002604:    f1a002f6    ....    SUB      r2,r0,#0xf6
        0x00002608:    f2a0210a    ...!    SUB      r1,r0,#0x20a
        0x0000260c:    9000        ..      STR      r0,[sp,#0]
        0x0000260e:    f2a020ca    ...     SUB      r0,r0,#0x2ca
        0x00002612:    f7fefea9    ....    BL       enemyAndBulletMapCreate ; 0x1368
        0x00002616:    4a3e        >J      LDR      r2,[pc,#248] ; [0x2710] = 0x20002ffc
        0x00002618:    4835        5H      LDR      r0,[pc,#212] ; [0x26f0] = 0x20002c38
        0x0000261a:    f1a20178    ..x.    SUB      r1,r2,#0x78
        0x0000261e:    f7fffa55    ..U.    BL       isMyPlaneHit ; 0x1acc
        0x00002622:    4b3b        ;K      LDR      r3,[pc,#236] ; [0x2710] = 0x20002ffc
        0x00002624:    f1a302f0    ....    SUB      r2,r3,#0xf0
        0x00002628:    f5a271c9    ...q    SUB      r1,r2,#0x192
        0x0000262c:    f1a100c0    ....    SUB      r0,r1,#0xc0
        0x00002630:    f7fff9b4    ....    BL       isHit_s_EnemyPlane ; 0x199c
        0x00002634:    4a36        6J      LDR      r2,[pc,#216] ; [0x2710] = 0x20002ffc
        0x00002636:    f1a201f0    ....    SUB      r1,r2,#0xf0
        0x0000263a:    f1a100a2    ....    SUB      r0,r1,#0xa2
        0x0000263e:    f7fff939    ..9.    BL       isHit_m_straight_EnemyPlane ; 0x18b4
        0x00002642:    4a33        3J      LDR      r2,[pc,#204] ; [0x2710] = 0x20002ffc
        0x00002644:    f1a201f0    ....    SUB      r1,r2,#0xf0
        0x00002648:    f1a1007e    ..~.    SUB      r0,r1,#0x7e
        0x0000264c:    f7fff8d0    ....    BL       isHit_b_EnemyPlane ; 0x17f0
        0x00002650:    492f        /I      LDR      r1,[pc,#188] ; [0x2710] = 0x20002ffc
        0x00002652:    3978        x9      SUBS     r1,r1,#0x78
        0x00002654:    f2a13042    ..B0    SUB      r0,r1,#0x342
        0x00002658:    f7fff972    ..r.    BL       isHit_myBullets ; 0x1940
        0x0000265c:    7930        0y      LDRB     r0,[r6,#4]
        0x0000265e:    b960        `.      CBNZ     r0,0x267a ; main + 2142
        0x00002660:    f8990010    ....    LDRB     r0,[r9,#0x10]
        0x00002664:    28f0        .(      CMP      r0,#0xf0
        0x00002666:    d308        ..      BCC      0x267a ; main + 2142
        0x00002668:    f8895005    ...P    STRB     r5,[r9,#5]
        0x0000266c:    2002        .       MOVS     r0,#2
        0x0000266e:    f8890001    ....    STRB     r0,[r9,#1]
        0x00002672:    f889800a    ....    STRB     r8,[r9,#0xa]
        0x00002676:    f7fefaf4    ....    BL       apu_Intr_Trigger ; 0xc62
        0x0000267a:    f8895006    ...P    STRB     r5,[r9,#6]
        0x0000267e:    e428        (.      B        0x1ed2 ; main + 182
        0x00002680:    f8898000    ....    STRB     r8,[r9,#0]
        0x00002684:    f899000e    ....    LDRB     r0,[r9,#0xe]
        0x00002688:    b1c0        ..      CBZ      r0,0x26bc ; main + 2208
        0x0000268a:    2420         $      MOVS     r4,#0x20
        0x0000268c:    226e        n"      MOVS     r2,#0x6e
        0x0000268e:    4623        #F      MOV      r3,r4
        0x00002690:    4611        .F      MOV      r1,r2
        0x00002692:    4640        @F      MOV      r0,r8
        0x00002694:    9400        ..      STR      r4,[sp,#0]
        0x00002696:    f002f9dd    ....    BL       writeOneSprite ; 0x4a54
        0x0000269a:    f8990000    ....    LDRB     r0,[r9,#0]
        0x0000269e:    1c40        @.      ADDS     r0,r0,#1
        0x000026a0:    b2c0        ..      UXTB     r0,r0
        0x000026a2:    f8890000    ....    STRB     r0,[r9,#0]
        0x000026a6:    2321        !#      MOVS     r3,#0x21
        0x000026a8:    226e        n"      MOVS     r2,#0x6e
        0x000026aa:    217e        ~!      MOVS     r1,#0x7e
        0x000026ac:    9400        ..      STR      r4,[sp,#0]
        0x000026ae:    f002f9d1    ....    BL       writeOneSprite ; 0x4a54
        0x000026b2:    f8990000    ....    LDRB     r0,[r9,#0]
        0x000026b6:    1c40        @.      ADDS     r0,r0,#1
        0x000026b8:    f8890000    ....    STRB     r0,[r9,#0]
        0x000026bc:    4b0b        .K      LDR      r3,[pc,#44] ; [0x26ec] = 0x2000000f
        0x000026be:    210a        .!      MOVS     r1,#0xa
        0x000026c0:    3b0f        .;      SUBS     r3,r3,#0xf
        0x000026c2:    2003        .       MOVS     r0,#3
        0x000026c4:    f8d92014    ...     LDR      r2,[r9,#0x14]
        0x000026c8:    f7feff74    ..t.    BL       gameScoreDraw ; 0x15b4
        0x000026cc:    4907        .I      LDR      r1,[pc,#28] ; [0x26ec] = 0x2000000f
        0x000026ce:    4808        .H      LDR      r0,[pc,#32] ; [0x26f0] = 0x20002c38
        0x000026d0:    390f        .9      SUBS     r1,r1,#0xf
        0x000026d2:    f000fbd9    ....    BL       myPlane_Draw ; 0x2e88
        0x000026d6:    4905        .I      LDR      r1,[pc,#20] ; [0x26ec] = 0x2000000f
        0x000026d8:    4805        .H      LDR      r0,[pc,#20] ; [0x26f0] = 0x20002c38
        0x000026da:    390f        .9      SUBS     r1,r1,#0xf
        0x000026dc:    300a        .0      ADDS     r0,r0,#0xa
        0x000026de:    f000fdc5    ....    BL       myPlane_bulletDraw ; 0x326c
        0x000026e2:    4902        .I      LDR      r1,[pc,#8] ; [0x26ec] = 0x2000000f
        0x000026e4:    480a        .H      LDR      r0,[pc,#40] ; [0x2710] = 0x20002ffc
        0x000026e6:    390f        .9      SUBS     r1,r1,#0xf
        0x000026e8:    e014        ..      B        0x2714 ; main + 2296
    $d
        0x000026ea:    0000        ..      DCW    0
        0x000026ec:    2000000f    ...     DCD    536870927
        0x000026f0:    20002c38    8,.     DCD    536882232
        0x000026f4:    50020810    ...P    DCD    1342310416
        0x000026f8:    5f4e4e43    CNN_    DCD    1598967363
        0x000026fc:    55534552    RESU    DCD    1431520594
        0x00002700:    253d544c    LT=%    DCD    624776268
        0x00002704:    00000a75    u...    DCD    2677
        0x00002708:    20003024    $0.     DCD    536883236
        0x0000270c:    20002ea8    ...     DCD    536882856
        0x00002710:    20002ffc    ./.     DCD    536883196
    $t
        0x00002714:    f000fed8    ....    BL       new_boomDraw ; 0x34c8
        0x00002718:    49a5        .I      LDR      r1,[pc,#660] ; [0x29b0] = 0x20000000
        0x0000271a:    48a6        .H      LDR      r0,[pc,#664] ; [0x29b4] = 0x20002cba
        0x0000271c:    f001fe0c    ....    BL       s_grey_drawPlane ; 0x4338
        0x00002720:    48a4        .H      LDR      r0,[pc,#656] ; [0x29b4] = 0x20002cba
        0x00002722:    49a3        .I      LDR      r1,[pc,#652] ; [0x29b0] = 0x20000000
        0x00002724:    30c0        .0      ADDS     r0,r0,#0xc0
        0x00002726:    f001f993    ....    BL       s_green_drawPlane ; 0x3a50
        0x0000272a:    49a1        .I      LDR      r1,[pc,#644] ; [0x29b0] = 0x20000000
        0x0000272c:    48a2        .H      LDR      r0,[pc,#648] ; [0x29b8] = 0x20002e6a
        0x0000272e:    f7fffa5d    ..].    BL       m_straight_drawPlane ; 0x1bec
        0x00002732:    48a1        .H      LDR      r0,[pc,#644] ; [0x29b8] = 0x20002e6a
        0x00002734:    499e        .I      LDR      r1,[pc,#632] ; [0x29b0] = 0x20000000
        0x00002736:    3024        $0      ADDS     r0,r0,#0x24
        0x00002738:    f7fefae0    ....    BL       b_green_drawPlane ; 0xcfc
        0x0000273c:    489e        .H      LDR      r0,[pc,#632] ; [0x29b8] = 0x20002e6a
        0x0000273e:    499c        .I      LDR      r1,[pc,#624] ; [0x29b0] = 0x20000000
        0x00002740:    303e        >0      ADDS     r0,r0,#0x3e
        0x00002742:    f7fefecb    ....    BL       enmeyBulletDraw ; 0x14dc
        0x00002746:    f8994000    ...@    LDRB     r4,[r9,#0]
        0x0000274a:    e00f        ..      B        0x276c ; main + 2384
        0x0000274c:    f8cd8000    ....    STR      r8,[sp,#0]
        0x00002750:    23ff        .#      MOVS     r3,#0xff
        0x00002752:    22e6        ."      MOVS     r2,#0xe6
        0x00002754:    21fb        .!      MOVS     r1,#0xfb
        0x00002756:    f8990000    ....    LDRB     r0,[r9,#0]
        0x0000275a:    f002f97b    ..{.    BL       writeOneSprite ; 0x4a54
        0x0000275e:    f8990000    ....    LDRB     r0,[r9,#0]
        0x00002762:    1c40        @.      ADDS     r0,r0,#1
        0x00002764:    f8890000    ....    STRB     r0,[r9,#0]
        0x00002768:    1c64        d.      ADDS     r4,r4,#1
        0x0000276a:    b2e4        ..      UXTB     r4,r4
        0x0000276c:    2c40        @,      CMP      r4,#0x40
        0x0000276e:    d3ed        ..      BCC      0x274c ; main + 2352
        0x00002770:    f8898006    ....    STRB     r8,[r9,#6]
        0x00002774:    e5fe        ..      B        0x2374 ; main + 1368
        0x00002776:    2700        .'      MOVS     r7,#0
        0x00002778:    f8898000    ....    STRB     r8,[r9,#0]
        0x0000277c:    4b8c        .K      LDR      r3,[pc,#560] ; [0x29b0] = 0x20000000
        0x0000277e:    210a        .!      MOVS     r1,#0xa
        0x00002780:    2003        .       MOVS     r0,#3
        0x00002782:    f8d92014    ...     LDR      r2,[r9,#0x14]
        0x00002786:    f7feff15    ....    BL       gameScoreDraw ; 0x15b4
        0x0000278a:    4989        .I      LDR      r1,[pc,#548] ; [0x29b0] = 0x20000000
        0x0000278c:    f8990007    ....    LDRB     r0,[r9,#7]
        0x00002790:    f000fe44    ..D.    BL       newGuanqiaInterFaceDraw ; 0x341c
        0x00002794:    4887        .H      LDR      r0,[pc,#540] ; [0x29b4] = 0x20002cba
        0x00002796:    4986        .I      LDR      r1,[pc,#536] ; [0x29b0] = 0x20000000
        0x00002798:    3882        .8      SUBS     r0,r0,#0x82
        0x0000279a:    f000fb75    ..u.    BL       myPlane_Draw ; 0x2e88
        0x0000279e:    f8994000    ...@    LDRB     r4,[r9,#0]
        0x000027a2:    e00f        ..      B        0x27c4 ; main + 2472
        0x000027a4:    f8cd8000    ....    STR      r8,[sp,#0]
        0x000027a8:    23ff        .#      MOVS     r3,#0xff
        0x000027aa:    22e6        ."      MOVS     r2,#0xe6
        0x000027ac:    21fb        .!      MOVS     r1,#0xfb
        0x000027ae:    f8990000    ....    LDRB     r0,[r9,#0]
        0x000027b2:    f002f94f    ..O.    BL       writeOneSprite ; 0x4a54
        0x000027b6:    f8990000    ....    LDRB     r0,[r9,#0]
        0x000027ba:    1c40        @.      ADDS     r0,r0,#1
        0x000027bc:    f8890000    ....    STRB     r0,[r9,#0]
        0x000027c0:    1c64        d.      ADDS     r4,r4,#1
        0x000027c2:    b2e4        ..      UXTB     r4,r4
        0x000027c4:    2c40        @,      CMP      r4,#0x40
        0x000027c6:    d3ed        ..      BCC      0x27a4 ; main + 2440
        0x000027c8:    f44f7096    O..p    MOV      r0,#0x12c
        0x000027cc:    f7fefd2c    ..,.    BL       delay_ms ; 0x1228
        0x000027d0:    f8898000    ....    STRB     r8,[r9,#0]
        0x000027d4:    4b76        vK      LDR      r3,[pc,#472] ; [0x29b0] = 0x20000000
        0x000027d6:    210a        .!      MOVS     r1,#0xa
        0x000027d8:    2003        .       MOVS     r0,#3
        0x000027da:    f8d92014    ...     LDR      r2,[r9,#0x14]
        0x000027de:    f7fefee9    ....    BL       gameScoreDraw ; 0x15b4
        0x000027e2:    4874        tH      LDR      r0,[pc,#464] ; [0x29b4] = 0x20002cba
        0x000027e4:    4972        rI      LDR      r1,[pc,#456] ; [0x29b0] = 0x20000000
        0x000027e6:    3882        .8      SUBS     r0,r0,#0x82
        0x000027e8:    f000fb4e    ..N.    BL       myPlane_Draw ; 0x2e88
        0x000027ec:    f8994000    ...@    LDRB     r4,[r9,#0]
        0x000027f0:    e00f        ..      B        0x2812 ; main + 2550
        0x000027f2:    f8cd8000    ....    STR      r8,[sp,#0]
        0x000027f6:    23ff        .#      MOVS     r3,#0xff
        0x000027f8:    22e6        ."      MOVS     r2,#0xe6
        0x000027fa:    21fb        .!      MOVS     r1,#0xfb
        0x000027fc:    f8990000    ....    LDRB     r0,[r9,#0]
        0x00002800:    f002f928    ..(.    BL       writeOneSprite ; 0x4a54
        0x00002804:    f8990000    ....    LDRB     r0,[r9,#0]
        0x00002808:    1c40        @.      ADDS     r0,r0,#1
        0x0000280a:    f8890000    ....    STRB     r0,[r9,#0]
        0x0000280e:    1c64        d.      ADDS     r4,r4,#1
        0x00002810:    b2e4        ..      UXTB     r4,r4
        0x00002812:    2c40        @,      CMP      r4,#0x40
        0x00002814:    d3ed        ..      BCC      0x27f2 ; main + 2518
        0x00002816:    f44f7096    O..p    MOV      r0,#0x12c
        0x0000281a:    f7fefd05    ....    BL       delay_ms ; 0x1228
        0x0000281e:    1c7f        ..      ADDS     r7,r7,#1
        0x00002820:    2f06        ./      CMP      r7,#6
        0x00002822:    dba9        ..      BLT      0x2778 ; main + 2396
        0x00002824:    f8cb8000    ....    STR      r8,[r11,#0]
        0x00002828:    f8898006    ....    STRB     r8,[r9,#6]
        0x0000282c:    f8895005    ...P    STRB     r5,[r9,#5]
        0x00002830:    2002        .       MOVS     r0,#2
        0x00002832:    f8890001    ....    STRB     r0,[r9,#1]
        0x00002836:    f8868004    ....    STRB     r8,[r6,#4]
        0x0000283a:    e59b        ..      B        0x2374 ; main + 1368
        0x0000283c:    f8cd8000    ....    STR      r8,[sp,#0]
        0x00002840:    23ff        .#      MOVS     r3,#0xff
        0x00002842:    22e6        ."      MOVS     r2,#0xe6
        0x00002844:    21fb        .!      MOVS     r1,#0xfb
        0x00002846:    f8990000    ....    LDRB     r0,[r9,#0]
        0x0000284a:    f002f903    ....    BL       writeOneSprite ; 0x4a54
        0x0000284e:    f8990000    ....    LDRB     r0,[r9,#0]
        0x00002852:    1c40        @.      ADDS     r0,r0,#1
        0x00002854:    f8890000    ....    STRB     r0,[r9,#0]
        0x00002858:    1c64        d.      ADDS     r4,r4,#1
        0x0000285a:    b2e4        ..      UXTB     r4,r4
        0x0000285c:    2c40        @,      CMP      r4,#0x40
        0x0000285e:    d3ed        ..      BCC      0x283c ; main + 2592
        0x00002860:    f44f70fa    O..p    MOV      r0,#0x1f4
        0x00002864:    f7fefce0    ....    BL       delay_ms ; 0x1228
        0x00002868:    f8898000    ....    STRB     r8,[r9,#0]
        0x0000286c:    4b50        PK      LDR      r3,[pc,#320] ; [0x29b0] = 0x20000000
        0x0000286e:    210a        .!      MOVS     r1,#0xa
        0x00002870:    2003        .       MOVS     r0,#3
        0x00002872:    f8d92014    ...     LDR      r2,[r9,#0x14]
        0x00002876:    f7fefe9d    ....    BL       gameScoreDraw ; 0x15b4
        0x0000287a:    484e        NH      LDR      r0,[pc,#312] ; [0x29b4] = 0x20002cba
        0x0000287c:    494c        LI      LDR      r1,[pc,#304] ; [0x29b0] = 0x20000000
        0x0000287e:    3882        .8      SUBS     r0,r0,#0x82
        0x00002880:    f000fb02    ....    BL       myPlane_Draw ; 0x2e88
        0x00002884:    f8994000    ...@    LDRB     r4,[r9,#0]
        0x00002888:    e00f        ..      B        0x28aa ; main + 2702
        0x0000288a:    f8cd8000    ....    STR      r8,[sp,#0]
        0x0000288e:    23ff        .#      MOVS     r3,#0xff
        0x00002890:    22e6        ."      MOVS     r2,#0xe6
        0x00002892:    21fb        .!      MOVS     r1,#0xfb
        0x00002894:    f8990000    ....    LDRB     r0,[r9,#0]
        0x00002898:    f002f8dc    ....    BL       writeOneSprite ; 0x4a54
        0x0000289c:    f8990000    ....    LDRB     r0,[r9,#0]
        0x000028a0:    1c40        @.      ADDS     r0,r0,#1
        0x000028a2:    f8890000    ....    STRB     r0,[r9,#0]
        0x000028a6:    1c64        d.      ADDS     r4,r4,#1
        0x000028a8:    b2e4        ..      UXTB     r4,r4
        0x000028aa:    2c40        @,      CMP      r4,#0x40
        0x000028ac:    d3ed        ..      BCC      0x288a ; main + 2670
        0x000028ae:    f44f7096    O..p    MOV      r0,#0x12c
        0x000028b2:    f7fefcb9    ....    BL       delay_ms ; 0x1228
        0x000028b6:    1c7f        ..      ADDS     r7,r7,#1
        0x000028b8:    2f06        ./      CMP      r7,#6
        0x000028ba:    f6ffad76    ..v.    BLT      0x23aa ; main + 1422
        0x000028be:    f8898006    ....    STRB     r8,[r9,#6]
        0x000028c2:    f8895005    ...P    STRB     r5,[r9,#5]
        0x000028c6:    f8895001    ...P    STRB     r5,[r9,#1]
        0x000028ca:    e553        S.      B        0x2374 ; main + 1368
        0x000028cc:    b1e1        ..      CBZ      r1,0x2908 ; main + 2796
        0x000028ce:    2803        .(      CMP      r0,#3
        0x000028d0:    d1b3        ..      BNE      0x283a ; main + 2590
        0x000028d2:    2900        .)      CMP      r1,#0
        0x000028d4:    d1b1        ..      BNE      0x283a ; main + 2590
        0x000028d6:    2120         !      MOVS     r1,#0x20
        0x000028d8:    203e        >       MOVS     r0,#0x3e
        0x000028da:    f8cd8000    ....    STR      r8,[sp,#0]
        0x000028de:    f8992009    ...     LDRB     r2,[r9,#9]
        0x000028e2:    2325        %#      MOVS     r3,#0x25
        0x000028e4:    fb021000    ....    MLA      r0,r2,r0,r1
        0x000028e8:    b2c2        ..      UXTB     r2,r0
        0x000028ea:    2170        p!      MOVS     r1,#0x70
        0x000028ec:    200f        .       MOVS     r0,#0xf
        0x000028ee:    f002f8b1    ....    BL       writeOneSprite ; 0x4a54
        0x000028f2:    f7fdfe9b    ....    BL       PS2_DataKey ; 0x62c
        0x000028f6:    f8c90030    ..0.    STR      r0,[r9,#0x30]
        0x000028fa:    2805        .(      CMP      r0,#5
        0x000028fc:    d034        4.      BEQ      0x2968 ; main + 2892
        0x000028fe:    2807        .(      CMP      r0,#7
        0x00002900:    d03b        ;.      BEQ      0x297a ; main + 2910
        0x00002902:    2810        .(      CMP      r0,#0x10
        0x00002904:    d043        C.      BEQ      0x298e ; main + 2930
        0x00002906:    e04e        N.      B        0x29a6 ; main + 2954
        0x00002908:    f8d90038    ..8.    LDR      r0,[r9,#0x38]
        0x0000290c:    f7fdfd07    ....    BL       __aeabi_ui2f ; 0x31e
        0x00002910:    4604        .F      MOV      r4,r0
        0x00002912:    f8d9003c    ..<.    LDR      r0,[r9,#0x3c]
        0x00002916:    4607        .F      MOV      r7,r0
        0x00002918:    f7fdfd01    ....    BL       __aeabi_ui2f ; 0x31e
        0x0000291c:    4621        !F      MOV      r1,r4
        0x0000291e:    f7fdfcb7    ....    BL       __aeabi_fdiv ; 0x290
        0x00002922:    f8c90040    ..@.    STR      r0,[r9,#0x40]
        0x00002926:    4922        "I      LDR      r1,[pc,#136] ; [0x29b0] = 0x20000000
        0x00002928:    9000        ..      STR      r0,[sp,#0]
        0x0000292a:    1cc9        ..      ADDS     r1,r1,#3
        0x0000292c:    463b        ;F      MOV      r3,r7
        0x0000292e:    1c48        H.      ADDS     r0,r1,#1
        0x00002930:    f8d92014    ...     LDR      r2,[r9,#0x14]
        0x00002934:    f7fefc8e    ....    BL       endInterFaceDraw ; 0x1254
        0x00002938:    f8990003    ....    LDRB     r0,[r9,#3]
        0x0000293c:    2818        .(      CMP      r0,#0x18
        0x0000293e:    d3c4        ..      BCC      0x28ca ; main + 2734
        0x00002940:    f7fdfe74    ..t.    BL       PS2_DataKey ; 0x62c
        0x00002944:    f8c9002c    ..,.    STR      r0,[r9,#0x2c]
        0x00002948:    2810        .(      CMP      r0,#0x10
        0x0000294a:    d109        ..      BNE      0x2960 ; main + 2884
        0x0000294c:    f7fef97a    ..z.    BL       apu_Button ; 0xc44
        0x00002950:    f8898001    ....    STRB     r8,[r9,#1]
        0x00002954:    f7fef985    ....    BL       apu_Intr_Trigger ; 0xc62
        0x00002958:    f8895005    ...P    STRB     r5,[r9,#5]
        0x0000295c:    f8898003    ....    STRB     r8,[r9,#3]
        0x00002960:    2064        d       MOVS     r0,#0x64
        0x00002962:    f7fefc61    ..a.    BL       delay_ms ; 0x1228
        0x00002966:    e505        ..      B        0x2374 ; main + 1368
        0x00002968:    f7fef96c    ..l.    BL       apu_Button ; 0xc44
        0x0000296c:    f8990009    ....    LDRB     r0,[r9,#9]
        0x00002970:    b1c8        ..      CBZ      r0,0x29a6 ; main + 2954
        0x00002972:    1e40        @.      SUBS     r0,r0,#1
        0x00002974:    f8890009    ....    STRB     r0,[r9,#9]
        0x00002978:    e015        ..      B        0x29a6 ; main + 2954
        0x0000297a:    f7fef963    ..c.    BL       apu_Button ; 0xc44
        0x0000297e:    f8990009    ....    LDRB     r0,[r9,#9]
        0x00002982:    2802        .(      CMP      r0,#2
        0x00002984:    d20f        ..      BCS      0x29a6 ; main + 2954
        0x00002986:    1c40        @.      ADDS     r0,r0,#1
        0x00002988:    f8890009    ....    STRB     r0,[r9,#9]
        0x0000298c:    e00b        ..      B        0x29a6 ; main + 2954
        0x0000298e:    f7fef959    ..Y.    BL       apu_Button ; 0xc44
        0x00002992:    f8990009    ....    LDRB     r0,[r9,#9]
        0x00002996:    f8890008    ....    STRB     r0,[r9,#8]
        0x0000299a:    f8895005    ...P    STRB     r5,[r9,#5]
        0x0000299e:    f8898001    ....    STRB     r8,[r9,#1]
        0x000029a2:    f7fef95e    ..^.    BL       apu_Intr_Trigger ; 0xc62
        0x000029a6:    f44f7096    O..p    MOV      r0,#0x12c
        0x000029aa:    f7fefc3d    ..=.    BL       delay_ms ; 0x1228
        0x000029ae:    e4e1        ..      B        0x2374 ; main + 1368
    $d
        0x000029b0:    20000000    ...     DCD    536870912
        0x000029b4:    20002cba    .,.     DCD    536882362
        0x000029b8:    20002e6a    j..     DCD    536882794
    $t
    i.makeMapFirst
    makeMapFirst
        0x000029bc:    e92d5ff0    -.._    PUSH     {r4-r12,lr}
        0x000029c0:    4604        .F      MOV      r4,r0
        0x000029c2:    f44f7580    O..u    MOV      r5,#0x100
        0x000029c6:    462a        *F      MOV      r2,r5
        0x000029c8:    4621        !F      MOV      r1,r4
        0x000029ca:    486e        nH      LDR      r0,[pc,#440] ; [0x2b84] = 0x20000f32
        0x000029cc:    f7fdff23    ..#.    BL       SPI_Flash_Write_Page ; 0x816
        0x000029d0:    486d        mH      LDR      r0,[pc,#436] ; [0x2b88] = 0x20001032
        0x000029d2:    462a        *F      MOV      r2,r5
        0x000029d4:    f5047180    ...q    ADD      r1,r4,#0x100
        0x000029d8:    4606        .F      MOV      r6,r0
        0x000029da:    f7fdff1c    ....    BL       SPI_Flash_Write_Page ; 0x816
        0x000029de:    486b        kH      LDR      r0,[pc,#428] ; [0x2b8c] = 0x20001132
        0x000029e0:    462a        *F      MOV      r2,r5
        0x000029e2:    f5047100    ...q    ADD      r1,r4,#0x200
        0x000029e6:    4607        .F      MOV      r7,r0
        0x000029e8:    f7fdff15    ....    BL       SPI_Flash_Write_Page ; 0x816
        0x000029ec:    4868        hH      LDR      r0,[pc,#416] ; [0x2b90] = 0x20001232
        0x000029ee:    462a        *F      MOV      r2,r5
        0x000029f0:    f5047140    ..@q    ADD      r1,r4,#0x300
        0x000029f4:    4680        .F      MOV      r8,r0
        0x000029f6:    f7fdff0e    ....    BL       SPI_Flash_Write_Page ; 0x816
        0x000029fa:    462a        *F      MOV      r2,r5
        0x000029fc:    f5046180    ...a    ADD      r1,r4,#0x400
        0x00002a00:    4860        `H      LDR      r0,[pc,#384] ; [0x2b84] = 0x20000f32
        0x00002a02:    f7fdff08    ....    BL       SPI_Flash_Write_Page ; 0x816
        0x00002a06:    462a        *F      MOV      r2,r5
        0x00002a08:    f50461a0    ...a    ADD      r1,r4,#0x500
        0x00002a0c:    4630        0F      MOV      r0,r6
        0x00002a0e:    f7fdff02    ....    BL       SPI_Flash_Write_Page ; 0x816
        0x00002a12:    462a        *F      MOV      r2,r5
        0x00002a14:    f50461c0    ...a    ADD      r1,r4,#0x600
        0x00002a18:    4638        8F      MOV      r0,r7
        0x00002a1a:    f7fdfefc    ....    BL       SPI_Flash_Write_Page ; 0x816
        0x00002a1e:    462a        *F      MOV      r2,r5
        0x00002a20:    f50461e0    ...a    ADD      r1,r4,#0x700
        0x00002a24:    4640        @F      MOV      r0,r8
        0x00002a26:    f7fdfef6    ....    BL       SPI_Flash_Write_Page ; 0x816
        0x00002a2a:    462a        *F      MOV      r2,r5
        0x00002a2c:    f5046100    ...a    ADD      r1,r4,#0x800
        0x00002a30:    4854        TH      LDR      r0,[pc,#336] ; [0x2b84] = 0x20000f32
        0x00002a32:    f7fdfef0    ....    BL       SPI_Flash_Write_Page ; 0x816
        0x00002a36:    462a        *F      MOV      r2,r5
        0x00002a38:    f5046110    ...a    ADD      r1,r4,#0x900
        0x00002a3c:    4630        0F      MOV      r0,r6
        0x00002a3e:    f7fdfeea    ....    BL       SPI_Flash_Write_Page ; 0x816
        0x00002a42:    462a        *F      MOV      r2,r5
        0x00002a44:    f5046120    .. a    ADD      r1,r4,#0xa00
        0x00002a48:    4638        8F      MOV      r0,r7
        0x00002a4a:    f7fdfee4    ....    BL       SPI_Flash_Write_Page ; 0x816
        0x00002a4e:    462a        *F      MOV      r2,r5
        0x00002a50:    f5046130    ..0a    ADD      r1,r4,#0xb00
        0x00002a54:    4640        @F      MOV      r0,r8
        0x00002a56:    f7fdfede    ....    BL       SPI_Flash_Write_Page ; 0x816
        0x00002a5a:    462a        *F      MOV      r2,r5
        0x00002a5c:    f5046140    ..@a    ADD      r1,r4,#0xc00
        0x00002a60:    4848        HH      LDR      r0,[pc,#288] ; [0x2b84] = 0x20000f32
        0x00002a62:    f7fdfed8    ....    BL       SPI_Flash_Write_Page ; 0x816
        0x00002a66:    462a        *F      MOV      r2,r5
        0x00002a68:    f5046150    ..Pa    ADD      r1,r4,#0xd00
        0x00002a6c:    4630        0F      MOV      r0,r6
        0x00002a6e:    f7fdfed2    ....    BL       SPI_Flash_Write_Page ; 0x816
        0x00002a72:    462a        *F      MOV      r2,r5
        0x00002a74:    f5046160    ..`a    ADD      r1,r4,#0xe00
        0x00002a78:    4638        8F      MOV      r0,r7
        0x00002a7a:    f7fdfecc    ....    BL       SPI_Flash_Write_Page ; 0x816
        0x00002a7e:    462a        *F      MOV      r2,r5
        0x00002a80:    f5046170    ..pa    ADD      r1,r4,#0xf00
        0x00002a84:    4640        @F      MOV      r0,r8
        0x00002a86:    f7fdfec6    ....    BL       SPI_Flash_Write_Page ; 0x816
        0x00002a8a:    462a        *F      MOV      r2,r5
        0x00002a8c:    f5045180    ...Q    ADD      r1,r4,#0x1000
        0x00002a90:    4840        @H      LDR      r0,[pc,#256] ; [0x2b94] = 0x20001732
        0x00002a92:    f7fdfec0    ....    BL       SPI_Flash_Write_Page ; 0x816
        0x00002a96:    4840        @H      LDR      r0,[pc,#256] ; [0x2b98] = 0x20001832
        0x00002a98:    462a        *F      MOV      r2,r5
        0x00002a9a:    f5045188    ...Q    ADD      r1,r4,#0x1100
        0x00002a9e:    4681        .F      MOV      r9,r0
        0x00002aa0:    f7fdfeb9    ....    BL       SPI_Flash_Write_Page ; 0x816
        0x00002aa4:    483d        =H      LDR      r0,[pc,#244] ; [0x2b9c] = 0x20001932
        0x00002aa6:    462a        *F      MOV      r2,r5
        0x00002aa8:    f5045190    ...Q    ADD      r1,r4,#0x1200
        0x00002aac:    4682        .F      MOV      r10,r0
        0x00002aae:    f7fdfeb2    ....    BL       SPI_Flash_Write_Page ; 0x816
        0x00002ab2:    483b        ;H      LDR      r0,[pc,#236] ; [0x2ba0] = 0x20001a32
        0x00002ab4:    462a        *F      MOV      r2,r5
        0x00002ab6:    f5045198    ...Q    ADD      r1,r4,#0x1300
        0x00002aba:    4683        .F      MOV      r11,r0
        0x00002abc:    f7fdfeab    ....    BL       SPI_Flash_Write_Page ; 0x816
        0x00002ac0:    462a        *F      MOV      r2,r5
        0x00002ac2:    f50451a0    ...Q    ADD      r1,r4,#0x1400
        0x00002ac6:    482f        /H      LDR      r0,[pc,#188] ; [0x2b84] = 0x20000f32
        0x00002ac8:    f7fdfea5    ....    BL       SPI_Flash_Write_Page ; 0x816
        0x00002acc:    462a        *F      MOV      r2,r5
        0x00002ace:    f50451a8    ...Q    ADD      r1,r4,#0x1500
        0x00002ad2:    4630        0F      MOV      r0,r6
        0x00002ad4:    f7fdfe9f    ....    BL       SPI_Flash_Write_Page ; 0x816
        0x00002ad8:    462a        *F      MOV      r2,r5
        0x00002ada:    f50451b0    ...Q    ADD      r1,r4,#0x1600
        0x00002ade:    4638        8F      MOV      r0,r7
        0x00002ae0:    f7fdfe99    ....    BL       SPI_Flash_Write_Page ; 0x816
        0x00002ae4:    462a        *F      MOV      r2,r5
        0x00002ae6:    f50451b8    ...Q    ADD      r1,r4,#0x1700
        0x00002aea:    4640        @F      MOV      r0,r8
        0x00002aec:    f7fdfe93    ....    BL       SPI_Flash_Write_Page ; 0x816
        0x00002af0:    462a        *F      MOV      r2,r5
        0x00002af2:    f50451c0    ...Q    ADD      r1,r4,#0x1800
        0x00002af6:    4827        'H      LDR      r0,[pc,#156] ; [0x2b94] = 0x20001732
        0x00002af8:    f7fdfe8d    ....    BL       SPI_Flash_Write_Page ; 0x816
        0x00002afc:    462a        *F      MOV      r2,r5
        0x00002afe:    f50451c8    ...Q    ADD      r1,r4,#0x1900
        0x00002b02:    4648        HF      MOV      r0,r9
        0x00002b04:    f7fdfe87    ....    BL       SPI_Flash_Write_Page ; 0x816
        0x00002b08:    462a        *F      MOV      r2,r5
        0x00002b0a:    f50451d0    ...Q    ADD      r1,r4,#0x1a00
        0x00002b0e:    4650        PF      MOV      r0,r10
        0x00002b10:    f7fdfe81    ....    BL       SPI_Flash_Write_Page ; 0x816
        0x00002b14:    462a        *F      MOV      r2,r5
        0x00002b16:    f50451d8    ...Q    ADD      r1,r4,#0x1b00
        0x00002b1a:    4658        XF      MOV      r0,r11
        0x00002b1c:    f7fdfe7b    ..{.    BL       SPI_Flash_Write_Page ; 0x816
        0x00002b20:    462a        *F      MOV      r2,r5
        0x00002b22:    f50451e0    ...Q    ADD      r1,r4,#0x1c00
        0x00002b26:    4817        .H      LDR      r0,[pc,#92] ; [0x2b84] = 0x20000f32
        0x00002b28:    f7fdfe75    ..u.    BL       SPI_Flash_Write_Page ; 0x816
        0x00002b2c:    462a        *F      MOV      r2,r5
        0x00002b2e:    f50451e8    ...Q    ADD      r1,r4,#0x1d00
        0x00002b32:    4630        0F      MOV      r0,r6
        0x00002b34:    f7fdfe6f    ..o.    BL       SPI_Flash_Write_Page ; 0x816
        0x00002b38:    462a        *F      MOV      r2,r5
        0x00002b3a:    f50451f0    ...Q    ADD      r1,r4,#0x1e00
        0x00002b3e:    4638        8F      MOV      r0,r7
        0x00002b40:    f7fdfe69    ..i.    BL       SPI_Flash_Write_Page ; 0x816
        0x00002b44:    462a        *F      MOV      r2,r5
        0x00002b46:    f50451f8    ...Q    ADD      r1,r4,#0x1f00
        0x00002b4a:    4640        @F      MOV      r0,r8
        0x00002b4c:    f7fdfe63    ..c.    BL       SPI_Flash_Write_Page ; 0x816
        0x00002b50:    462a        *F      MOV      r2,r5
        0x00002b52:    f5045100    ...Q    ADD      r1,r4,#0x2000
        0x00002b56:    4813        .H      LDR      r0,[pc,#76] ; [0x2ba4] = 0x20001332
        0x00002b58:    f7fdfe5d    ..].    BL       SPI_Flash_Write_Page ; 0x816
        0x00002b5c:    462a        *F      MOV      r2,r5
        0x00002b5e:    f5045104    ...Q    ADD      r1,r4,#0x2100
        0x00002b62:    4811        .H      LDR      r0,[pc,#68] ; [0x2ba8] = 0x20001432
        0x00002b64:    f7fdfe57    ..W.    BL       SPI_Flash_Write_Page ; 0x816
        0x00002b68:    462a        *F      MOV      r2,r5
        0x00002b6a:    f5045108    ...Q    ADD      r1,r4,#0x2200
        0x00002b6e:    480f        .H      LDR      r0,[pc,#60] ; [0x2bac] = 0x20001532
        0x00002b70:    f7fdfe51    ..Q.    BL       SPI_Flash_Write_Page ; 0x816
        0x00002b74:    462a        *F      MOV      r2,r5
        0x00002b76:    f504510c    ...Q    ADD      r1,r4,#0x2300
        0x00002b7a:    e8bd5ff0    ..._    POP      {r4-r12,lr}
        0x00002b7e:    480c        .H      LDR      r0,[pc,#48] ; [0x2bb0] = 0x20001632
        0x00002b80:    f7fdbe49    ..I.    B        SPI_Flash_Write_Page ; 0x816
    $d
        0x00002b84:    20000f32    2..     DCD    536874802
        0x00002b88:    20001032    2..     DCD    536875058
        0x00002b8c:    20001132    2..     DCD    536875314
        0x00002b90:    20001232    2..     DCD    536875570
        0x00002b94:    20001732    2..     DCD    536876850
        0x00002b98:    20001832    2..     DCD    536877106
        0x00002b9c:    20001932    2..     DCD    536877362
        0x00002ba0:    20001a32    2..     DCD    536877618
        0x00002ba4:    20001332    2..     DCD    536875826
        0x00002ba8:    20001432    2..     DCD    536876082
        0x00002bac:    20001532    2..     DCD    536876338
        0x00002bb0:    20001632    2..     DCD    536876594
    $t
    i.makeMapSecond
    makeMapSecond
        0x00002bb4:    e92d5ff0    -.._    PUSH     {r4-r12,lr}
        0x00002bb8:    4604        .F      MOV      r4,r0
        0x00002bba:    f44f7580    O..u    MOV      r5,#0x100
        0x00002bbe:    462a        *F      MOV      r2,r5
        0x00002bc0:    4621        !F      MOV      r1,r4
        0x00002bc2:    486e        nH      LDR      r0,[pc,#440] ; [0x2d7c] = 0x20000f32
        0x00002bc4:    f7fdfe27    ..'.    BL       SPI_Flash_Write_Page ; 0x816
        0x00002bc8:    486d        mH      LDR      r0,[pc,#436] ; [0x2d80] = 0x20001032
        0x00002bca:    462a        *F      MOV      r2,r5
        0x00002bcc:    f5047180    ...q    ADD      r1,r4,#0x100
        0x00002bd0:    4606        .F      MOV      r6,r0
        0x00002bd2:    f7fdfe20    .. .    BL       SPI_Flash_Write_Page ; 0x816
        0x00002bd6:    486b        kH      LDR      r0,[pc,#428] ; [0x2d84] = 0x20001132
        0x00002bd8:    462a        *F      MOV      r2,r5
        0x00002bda:    f5047100    ...q    ADD      r1,r4,#0x200
        0x00002bde:    4607        .F      MOV      r7,r0
        0x00002be0:    f7fdfe19    ....    BL       SPI_Flash_Write_Page ; 0x816
        0x00002be4:    4868        hH      LDR      r0,[pc,#416] ; [0x2d88] = 0x20001232
        0x00002be6:    462a        *F      MOV      r2,r5
        0x00002be8:    f5047140    ..@q    ADD      r1,r4,#0x300
        0x00002bec:    4680        .F      MOV      r8,r0
        0x00002bee:    f7fdfe12    ....    BL       SPI_Flash_Write_Page ; 0x816
        0x00002bf2:    462a        *F      MOV      r2,r5
        0x00002bf4:    f5046180    ...a    ADD      r1,r4,#0x400
        0x00002bf8:    4860        `H      LDR      r0,[pc,#384] ; [0x2d7c] = 0x20000f32
        0x00002bfa:    f7fdfe0c    ....    BL       SPI_Flash_Write_Page ; 0x816
        0x00002bfe:    462a        *F      MOV      r2,r5
        0x00002c00:    f50461a0    ...a    ADD      r1,r4,#0x500
        0x00002c04:    4630        0F      MOV      r0,r6
        0x00002c06:    f7fdfe06    ....    BL       SPI_Flash_Write_Page ; 0x816
        0x00002c0a:    462a        *F      MOV      r2,r5
        0x00002c0c:    f50461c0    ...a    ADD      r1,r4,#0x600
        0x00002c10:    4638        8F      MOV      r0,r7
        0x00002c12:    f7fdfe00    ....    BL       SPI_Flash_Write_Page ; 0x816
        0x00002c16:    462a        *F      MOV      r2,r5
        0x00002c18:    f50461e0    ...a    ADD      r1,r4,#0x700
        0x00002c1c:    4640        @F      MOV      r0,r8
        0x00002c1e:    f7fdfdfa    ....    BL       SPI_Flash_Write_Page ; 0x816
        0x00002c22:    462a        *F      MOV      r2,r5
        0x00002c24:    f5046100    ...a    ADD      r1,r4,#0x800
        0x00002c28:    4858        XH      LDR      r0,[pc,#352] ; [0x2d8c] = 0x20001b32
        0x00002c2a:    f7fdfdf4    ....    BL       SPI_Flash_Write_Page ; 0x816
        0x00002c2e:    462a        *F      MOV      r2,r5
        0x00002c30:    f5046110    ...a    ADD      r1,r4,#0x900
        0x00002c34:    4856        VH      LDR      r0,[pc,#344] ; [0x2d90] = 0x20001c32
        0x00002c36:    f7fdfdee    ....    BL       SPI_Flash_Write_Page ; 0x816
        0x00002c3a:    462a        *F      MOV      r2,r5
        0x00002c3c:    f5046120    .. a    ADD      r1,r4,#0xa00
        0x00002c40:    4854        TH      LDR      r0,[pc,#336] ; [0x2d94] = 0x20001d32
        0x00002c42:    f7fdfde8    ....    BL       SPI_Flash_Write_Page ; 0x816
        0x00002c46:    462a        *F      MOV      r2,r5
        0x00002c48:    f5046130    ..0a    ADD      r1,r4,#0xb00
        0x00002c4c:    4852        RH      LDR      r0,[pc,#328] ; [0x2d98] = 0x20001e32
        0x00002c4e:    f7fdfde2    ....    BL       SPI_Flash_Write_Page ; 0x816
        0x00002c52:    462a        *F      MOV      r2,r5
        0x00002c54:    f5046140    ..@a    ADD      r1,r4,#0xc00
        0x00002c58:    4850        PH      LDR      r0,[pc,#320] ; [0x2d9c] = 0x20001f32
        0x00002c5a:    f7fdfddc    ....    BL       SPI_Flash_Write_Page ; 0x816
        0x00002c5e:    462a        *F      MOV      r2,r5
        0x00002c60:    f5046150    ..Pa    ADD      r1,r4,#0xd00
        0x00002c64:    484e        NH      LDR      r0,[pc,#312] ; [0x2da0] = 0x20002032
        0x00002c66:    f7fdfdd6    ....    BL       SPI_Flash_Write_Page ; 0x816
        0x00002c6a:    462a        *F      MOV      r2,r5
        0x00002c6c:    f5046160    ..`a    ADD      r1,r4,#0xe00
        0x00002c70:    484c        LH      LDR      r0,[pc,#304] ; [0x2da4] = 0x20002132
        0x00002c72:    f7fdfdd0    ....    BL       SPI_Flash_Write_Page ; 0x816
        0x00002c76:    462a        *F      MOV      r2,r5
        0x00002c78:    f5046170    ..pa    ADD      r1,r4,#0xf00
        0x00002c7c:    484a        JH      LDR      r0,[pc,#296] ; [0x2da8] = 0x20002232
        0x00002c7e:    f7fdfdca    ....    BL       SPI_Flash_Write_Page ; 0x816
        0x00002c82:    462a        *F      MOV      r2,r5
        0x00002c84:    f5045180    ...Q    ADD      r1,r4,#0x1000
        0x00002c88:    4848        HH      LDR      r0,[pc,#288] ; [0x2dac] = 0x20002332
        0x00002c8a:    f7fdfdc4    ....    BL       SPI_Flash_Write_Page ; 0x816
        0x00002c8e:    4848        HH      LDR      r0,[pc,#288] ; [0x2db0] = 0x20002432
        0x00002c90:    462a        *F      MOV      r2,r5
        0x00002c92:    f5045188    ...Q    ADD      r1,r4,#0x1100
        0x00002c96:    4681        .F      MOV      r9,r0
        0x00002c98:    f7fdfdbd    ....    BL       SPI_Flash_Write_Page ; 0x816
        0x00002c9c:    4845        EH      LDR      r0,[pc,#276] ; [0x2db4] = 0x20002532
        0x00002c9e:    462a        *F      MOV      r2,r5
        0x00002ca0:    f5045190    ...Q    ADD      r1,r4,#0x1200
        0x00002ca4:    4682        .F      MOV      r10,r0
        0x00002ca6:    f7fdfdb6    ....    BL       SPI_Flash_Write_Page ; 0x816
        0x00002caa:    4843        CH      LDR      r0,[pc,#268] ; [0x2db8] = 0x20002632
        0x00002cac:    462a        *F      MOV      r2,r5
        0x00002cae:    f5045198    ...Q    ADD      r1,r4,#0x1300
        0x00002cb2:    4683        .F      MOV      r11,r0
        0x00002cb4:    f7fdfdaf    ....    BL       SPI_Flash_Write_Page ; 0x816
        0x00002cb8:    462a        *F      MOV      r2,r5
        0x00002cba:    f50451a0    ...Q    ADD      r1,r4,#0x1400
        0x00002cbe:    483b        ;H      LDR      r0,[pc,#236] ; [0x2dac] = 0x20002332
        0x00002cc0:    f7fdfda9    ....    BL       SPI_Flash_Write_Page ; 0x816
        0x00002cc4:    462a        *F      MOV      r2,r5
        0x00002cc6:    f50451a8    ...Q    ADD      r1,r4,#0x1500
        0x00002cca:    4648        HF      MOV      r0,r9
        0x00002ccc:    f7fdfda3    ....    BL       SPI_Flash_Write_Page ; 0x816
        0x00002cd0:    462a        *F      MOV      r2,r5
        0x00002cd2:    f50451b0    ...Q    ADD      r1,r4,#0x1600
        0x00002cd6:    4650        PF      MOV      r0,r10
        0x00002cd8:    f7fdfd9d    ....    BL       SPI_Flash_Write_Page ; 0x816
        0x00002cdc:    462a        *F      MOV      r2,r5
        0x00002cde:    f50451b8    ...Q    ADD      r1,r4,#0x1700
        0x00002ce2:    4658        XF      MOV      r0,r11
        0x00002ce4:    f7fdfd97    ....    BL       SPI_Flash_Write_Page ; 0x816
        0x00002ce8:    462a        *F      MOV      r2,r5
        0x00002cea:    f50451c0    ...Q    ADD      r1,r4,#0x1800
        0x00002cee:    4833        3H      LDR      r0,[pc,#204] ; [0x2dbc] = 0x20002732
        0x00002cf0:    f7fdfd91    ....    BL       SPI_Flash_Write_Page ; 0x816
        0x00002cf4:    462a        *F      MOV      r2,r5
        0x00002cf6:    f50451c8    ...Q    ADD      r1,r4,#0x1900
        0x00002cfa:    4831        1H      LDR      r0,[pc,#196] ; [0x2dc0] = 0x20002832
        0x00002cfc:    f7fdfd8b    ....    BL       SPI_Flash_Write_Page ; 0x816
        0x00002d00:    462a        *F      MOV      r2,r5
        0x00002d02:    f50451d0    ...Q    ADD      r1,r4,#0x1a00
        0x00002d06:    482f        /H      LDR      r0,[pc,#188] ; [0x2dc4] = 0x20002932
        0x00002d08:    f7fdfd85    ....    BL       SPI_Flash_Write_Page ; 0x816
        0x00002d0c:    462a        *F      MOV      r2,r5
        0x00002d0e:    f50451d8    ...Q    ADD      r1,r4,#0x1b00
        0x00002d12:    482d        -H      LDR      r0,[pc,#180] ; [0x2dc8] = 0x20002a32
        0x00002d14:    f7fdfd7f    ....    BL       SPI_Flash_Write_Page ; 0x816
        0x00002d18:    462a        *F      MOV      r2,r5
        0x00002d1a:    f50451e0    ...Q    ADD      r1,r4,#0x1c00
        0x00002d1e:    4817        .H      LDR      r0,[pc,#92] ; [0x2d7c] = 0x20000f32
        0x00002d20:    f7fdfd79    ..y.    BL       SPI_Flash_Write_Page ; 0x816
        0x00002d24:    462a        *F      MOV      r2,r5
        0x00002d26:    f50451e8    ...Q    ADD      r1,r4,#0x1d00
        0x00002d2a:    4630        0F      MOV      r0,r6
        0x00002d2c:    f7fdfd73    ..s.    BL       SPI_Flash_Write_Page ; 0x816
        0x00002d30:    462a        *F      MOV      r2,r5
        0x00002d32:    f50451f0    ...Q    ADD      r1,r4,#0x1e00
        0x00002d36:    4638        8F      MOV      r0,r7
        0x00002d38:    f7fdfd6d    ..m.    BL       SPI_Flash_Write_Page ; 0x816
        0x00002d3c:    462a        *F      MOV      r2,r5
        0x00002d3e:    f50451f8    ...Q    ADD      r1,r4,#0x1f00
        0x00002d42:    4640        @F      MOV      r0,r8
        0x00002d44:    f7fdfd67    ..g.    BL       SPI_Flash_Write_Page ; 0x816
        0x00002d48:    462a        *F      MOV      r2,r5
        0x00002d4a:    f5045100    ...Q    ADD      r1,r4,#0x2000
        0x00002d4e:    481f        .H      LDR      r0,[pc,#124] ; [0x2dcc] = 0x20001332
        0x00002d50:    f7fdfd61    ..a.    BL       SPI_Flash_Write_Page ; 0x816
        0x00002d54:    462a        *F      MOV      r2,r5
        0x00002d56:    f5045104    ...Q    ADD      r1,r4,#0x2100
        0x00002d5a:    481d        .H      LDR      r0,[pc,#116] ; [0x2dd0] = 0x20001432
        0x00002d5c:    f7fdfd5b    ..[.    BL       SPI_Flash_Write_Page ; 0x816
        0x00002d60:    462a        *F      MOV      r2,r5
        0x00002d62:    f5045108    ...Q    ADD      r1,r4,#0x2200
        0x00002d66:    481b        .H      LDR      r0,[pc,#108] ; [0x2dd4] = 0x20001532
        0x00002d68:    f7fdfd55    ..U.    BL       SPI_Flash_Write_Page ; 0x816
        0x00002d6c:    462a        *F      MOV      r2,r5
        0x00002d6e:    f504510c    ...Q    ADD      r1,r4,#0x2300
        0x00002d72:    e8bd5ff0    ..._    POP      {r4-r12,lr}
        0x00002d76:    4818        .H      LDR      r0,[pc,#96] ; [0x2dd8] = 0x20001632
        0x00002d78:    f7fdbd4d    ..M.    B        SPI_Flash_Write_Page ; 0x816
    $d
        0x00002d7c:    20000f32    2..     DCD    536874802
        0x00002d80:    20001032    2..     DCD    536875058
        0x00002d84:    20001132    2..     DCD    536875314
        0x00002d88:    20001232    2..     DCD    536875570
        0x00002d8c:    20001b32    2..     DCD    536877874
        0x00002d90:    20001c32    2..     DCD    536878130
        0x00002d94:    20001d32    2..     DCD    536878386
        0x00002d98:    20001e32    2..     DCD    536878642
        0x00002d9c:    20001f32    2..     DCD    536878898
        0x00002da0:    20002032    2 .     DCD    536879154
        0x00002da4:    20002132    2!.     DCD    536879410
        0x00002da8:    20002232    2".     DCD    536879666
        0x00002dac:    20002332    2#.     DCD    536879922
        0x00002db0:    20002432    2$.     DCD    536880178
        0x00002db4:    20002532    2%.     DCD    536880434
        0x00002db8:    20002632    2&.     DCD    536880690
        0x00002dbc:    20002732    2'.     DCD    536880946
        0x00002dc0:    20002832    2(.     DCD    536881202
        0x00002dc4:    20002932    2).     DCD    536881458
        0x00002dc8:    20002a32    2*.     DCD    536881714
        0x00002dcc:    20001332    2..     DCD    536875826
        0x00002dd0:    20001432    2..     DCD    536876082
        0x00002dd4:    20001532    2..     DCD    536876338
        0x00002dd8:    20001632    2..     DCD    536876594
    $t
    i.myBulletsMapCreate
    myBulletsMapCreate
        0x00002ddc:    b5f0        ..      PUSH     {r4-r7,lr}
        0x00002dde:    4605        .F      MOV      r5,r0
        0x00002de0:    460e        .F      MOV      r6,r1
        0x00002de2:    2100        .!      MOVS     r1,#0
        0x00002de4:    2000        .       MOVS     r0,#0
        0x00002de6:    f8460021    F.!.    STR      r0,[r6,r1,LSL #2]
        0x00002dea:    1c49        I.      ADDS     r1,r1,#1
        0x00002dec:    291e        .)      CMP      r1,#0x1e
        0x00002dee:    dbfa        ..      BLT      0x2de6 ; myBulletsMapCreate + 10
        0x00002df0:    2400        .$      MOVS     r4,#0
        0x00002df2:    4f0b        .O      LDR      r7,[pc,#44] ; [0x2e20] = 0x4a78
        0x00002df4:    e010        ..      B        0x2e18 ; myBulletsMapCreate + 60
        0x00002df6:    eb040184    ....    ADD      r1,r4,r4,LSL #2
        0x00002dfa:    eb050341    ..A.    ADD      r3,r5,r1,LSL #1
        0x00002dfe:    7918        .y      LDRB     r0,[r3,#4]
        0x00002e00:    b148        H.      CBZ      r0,0x2e16 ; myBulletsMapCreate + 58
        0x00002e02:    8858        X.      LDRH     r0,[r3,#2]
        0x00002e04:    f8351011    5...    LDRH     r1,[r5,r1,LSL #1]
        0x00002e08:    b2c0        ..      UXTB     r0,r0
        0x00002e0a:    b2cb        ..      UXTB     r3,r1
        0x00002e0c:    4601        .F      MOV      r1,r0
        0x00002e0e:    4632        2F      MOV      r2,r6
        0x00002e10:    4618        .F      MOV      r0,r3
        0x00002e12:    f001fd69    ..i.    BL       tileMap ; 0x48e8
        0x00002e16:    1c64        d.      ADDS     r4,r4,#1
        0x00002e18:    7838        8x      LDRB     r0,[r7,#0]
        0x00002e1a:    4284        .B      CMP      r4,r0
        0x00002e1c:    dbeb        ..      BLT      0x2df6 ; myBulletsMapCreate + 26
        0x00002e1e:    bdf0        ..      POP      {r4-r7,pc}
    $d
        0x00002e20:    00004a78    xJ..    DCD    19064
    $t
    i.myPlane_Act
    myPlane_Act
        0x00002e24:    79c3        .y      LDRB     r3,[r0,#7]
        0x00002e26:    2200        ."      MOVS     r2,#0
        0x00002e28:    2b00        .+      CMP      r3,#0
        0x00002e2a:    d006        ..      BEQ      0x2e3a ; myPlane_Act + 22
        0x00002e2c:    7a01        .z      LDRB     r1,[r0,#8]
        0x00002e2e:    2905        .)      CMP      r1,#5
        0x00002e30:    d00d        ..      BEQ      0x2e4e ; myPlane_Act + 42
        0x00002e32:    7a01        .z      LDRB     r1,[r0,#8]
        0x00002e34:    290a        .)      CMP      r1,#0xa
        0x00002e36:    d00a        ..      BEQ      0x2e4e ; myPlane_Act + 42
        0x00002e38:    e013        ..      B        0x2e62 ; myPlane_Act + 62
        0x00002e3a:    780b        .x      LDRB     r3,[r1,#0]
        0x00002e3c:    2b01        .+      CMP      r3,#1
        0x00002e3e:    d119        ..      BNE      0x2e74 ; myPlane_Act + 80
        0x00002e40:    71c3        .q      STRB     r3,[r0,#7]
        0x00002e42:    7202        .r      STRB     r2,[r0,#8]
        0x00002e44:    7243        Cr      STRB     r3,[r0,#9]
        0x00002e46:    700a        .p      STRB     r2,[r1,#0]
        0x00002e48:    2003        .       MOVS     r0,#3
        0x00002e4a:    f7fdbb8d    ....    B        LED_toggle ; 0x568
        0x00002e4e:    7a41        Az      LDRB     r1,[r0,#9]
        0x00002e50:    2904        .)      CMP      r1,#4
        0x00002e52:    d803        ..      BHI      0x2e5c ; myPlane_Act + 56
        0x00002e54:    8841        A.      LDRH     r1,[r0,#2]
        0x00002e56:    1ec9        ..      SUBS     r1,r1,#3
        0x00002e58:    8041        A.      STRH     r1,[r0,#2]
        0x00002e5a:    e002        ..      B        0x2e62 ; myPlane_Act + 62
        0x00002e5c:    8841        A.      LDRH     r1,[r0,#2]
        0x00002e5e:    1cc9        ..      ADDS     r1,r1,#3
        0x00002e60:    8041        A.      STRH     r1,[r0,#2]
        0x00002e62:    7a01        .z      LDRB     r1,[r0,#8]
        0x00002e64:    290a        .)      CMP      r1,#0xa
        0x00002e66:    d30a        ..      BCC      0x2e7e ; myPlane_Act + 90
        0x00002e68:    7202        .r      STRB     r2,[r0,#8]
        0x00002e6a:    7a41        Az      LDRB     r1,[r0,#9]
        0x00002e6c:    2907        .)      CMP      r1,#7
        0x00002e6e:    d302        ..      BCC      0x2e76 ; myPlane_Act + 82
        0x00002e70:    71c2        .q      STRB     r2,[r0,#7]
        0x00002e72:    7242        Br      STRB     r2,[r0,#9]
        0x00002e74:    4770        pG      BX       lr
        0x00002e76:    7a41        Az      LDRB     r1,[r0,#9]
        0x00002e78:    1c49        I.      ADDS     r1,r1,#1
        0x00002e7a:    7241        Ar      STRB     r1,[r0,#9]
        0x00002e7c:    4770        pG      BX       lr
        0x00002e7e:    7a01        .z      LDRB     r1,[r0,#8]
        0x00002e80:    1c49        I.      ADDS     r1,r1,#1
        0x00002e82:    7201        .r      STRB     r1,[r0,#8]
        0x00002e84:    4770        pG      BX       lr
        0x00002e86:    0000        ..      MOVS     r0,r0
    i.myPlane_Draw
    myPlane_Draw
        0x00002e88:    e92d43f8    -..C    PUSH     {r3-r9,lr}
        0x00002e8c:    4604        .F      MOV      r4,r0
        0x00002e8e:    4688        .F      MOV      r8,r1
        0x00002e90:    f8986000    ...`    LDRB     r6,[r8,#0]
        0x00002e94:    2500        .%      MOVS     r5,#0
        0x00002e96:    48ed        .H      LDR      r0,[pc,#948] ; [0x324c] = 0x20000008
        0x00002e98:    7800        .x      LDRB     r0,[r0,#0]
        0x00002e9a:    2800        .(      CMP      r0,#0
        0x00002e9c:    d004        ..      BEQ      0x2ea8 ; myPlane_Draw + 32
        0x00002e9e:    2801        .(      CMP      r0,#1
        0x00002ea0:    d004        ..      BEQ      0x2eac ; myPlane_Draw + 36
        0x00002ea2:    2802        .(      CMP      r0,#2
        0x00002ea4:    d004        ..      BEQ      0x2eb0 ; myPlane_Draw + 40
        0x00002ea6:    e004        ..      B        0x2eb2 ; myPlane_Draw + 42
        0x00002ea8:    2508        .%      MOVS     r5,#8
        0x00002eaa:    e002        ..      B        0x2eb2 ; myPlane_Draw + 42
        0x00002eac:    2528        (%      MOVS     r5,#0x28
        0x00002eae:    e000        ..      B        0x2eb2 ; myPlane_Draw + 42
        0x00002eb0:    2530        0%      MOVS     r5,#0x30
        0x00002eb2:    7920         y      LDRB     r0,[r4,#4]
        0x00002eb4:    2800        .(      CMP      r0,#0
        0x00002eb6:    d07c        |.      BEQ      0x2fb2 ; myPlane_Draw + 298
        0x00002eb8:    7a60        `z      LDRB     r0,[r4,#9]
        0x00002eba:    2808        .(      CMP      r0,#8
        0x00002ebc:    d23f        ?.      BCS      0x2f3e ; myPlane_Draw + 182
        0x00002ebe:    e8dff000    ....    TBB      [pc,r0]
    $d
        0x00002ec2:    3f04        .?      DCW    16132
        0x00002ec4:    fdce9f7c    |...    DCD    4258176892
        0x00002ec8:    fbfc        ..      DCW    64508
    $t
        0x00002eca:    2705        .'      MOVS     r7,#5
        0x00002ecc:    9500        ..      STR      r5,[sp,#0]
        0x00002ece:    8860        `.      LDRH     r0,[r4,#2]
        0x00002ed0:    b2c2        ..      UXTB     r2,r0
        0x00002ed2:    8820         .      LDRH     r0,[r4,#0]
        0x00002ed4:    2333        3#      MOVS     r3,#0x33
        0x00002ed6:    b2c1        ..      UXTB     r1,r0
        0x00002ed8:    4630        0F      MOV      r0,r6
        0x00002eda:    f001fdbb    ....    BL       writeOneSprite ; 0x4a54
        0x00002ede:    9500        ..      STR      r5,[sp,#0]
        0x00002ee0:    8860        `.      LDRH     r0,[r4,#2]
        0x00002ee2:    b2c2        ..      UXTB     r2,r0
        0x00002ee4:    8820         .      LDRH     r0,[r4,#0]
        0x00002ee6:    2334        4#      MOVS     r3,#0x34
        0x00002ee8:    3008        .0      ADDS     r0,r0,#8
        0x00002eea:    b2c1        ..      UXTB     r1,r0
        0x00002eec:    1c70        p.      ADDS     r0,r6,#1
        0x00002eee:    b2c0        ..      UXTB     r0,r0
        0x00002ef0:    f001fdb0    ....    BL       writeOneSprite ; 0x4a54
        0x00002ef4:    f0450040    E.@.    ORR      r0,r5,#0x40
        0x00002ef8:    9000        ..      STR      r0,[sp,#0]
        0x00002efa:    8860        `.      LDRH     r0,[r4,#2]
        0x00002efc:    b2c2        ..      UXTB     r2,r0
        0x00002efe:    8820         .      LDRH     r0,[r4,#0]
        0x00002f00:    2333        3#      MOVS     r3,#0x33
        0x00002f02:    3010        .0      ADDS     r0,r0,#0x10
        0x00002f04:    b2c1        ..      UXTB     r1,r0
        0x00002f06:    1cb0        ..      ADDS     r0,r6,#2
        0x00002f08:    b2c0        ..      UXTB     r0,r0
        0x00002f0a:    f001fda3    ....    BL       writeOneSprite ; 0x4a54
        0x00002f0e:    9500        ..      STR      r5,[sp,#0]
        0x00002f10:    8860        `.      LDRH     r0,[r4,#2]
        0x00002f12:    1dc0        ..      ADDS     r0,r0,#7
        0x00002f14:    b2c2        ..      UXTB     r2,r0
        0x00002f16:    8820         .      LDRH     r0,[r4,#0]
        0x00002f18:    2335        5#      MOVS     r3,#0x35
        0x00002f1a:    1d00        ..      ADDS     r0,r0,#4
        0x00002f1c:    b2c1        ..      UXTB     r1,r0
        0x00002f1e:    1cf0        ..      ADDS     r0,r6,#3
        0x00002f20:    b2c0        ..      UXTB     r0,r0
        0x00002f22:    f001fd97    ....    BL       writeOneSprite ; 0x4a54
        0x00002f26:    9500        ..      STR      r5,[sp,#0]
        0x00002f28:    8860        `.      LDRH     r0,[r4,#2]
        0x00002f2a:    1dc0        ..      ADDS     r0,r0,#7
        0x00002f2c:    b2c2        ..      UXTB     r2,r0
        0x00002f2e:    8820         .      LDRH     r0,[r4,#0]
        0x00002f30:    1d36        6.      ADDS     r6,r6,#4
        0x00002f32:    300c        .0      ADDS     r0,r0,#0xc
        0x00002f34:    b2c1        ..      UXTB     r1,r0
        0x00002f36:    b2f0        ..      UXTB     r0,r6
        0x00002f38:    2336        6#      MOVS     r3,#0x36
        0x00002f3a:    f001fd8b    ....    BL       writeOneSprite ; 0x4a54
        0x00002f3e:    e17d        }.      B        0x323c ; myPlane_Draw + 948
        0x00002f40:    2705        .'      MOVS     r7,#5
        0x00002f42:    9500        ..      STR      r5,[sp,#0]
        0x00002f44:    8860        `.      LDRH     r0,[r4,#2]
        0x00002f46:    b2c2        ..      UXTB     r2,r0
        0x00002f48:    8820         .      LDRH     r0,[r4,#0]
        0x00002f4a:    2337        7#      MOVS     r3,#0x37
        0x00002f4c:    b2c1        ..      UXTB     r1,r0
        0x00002f4e:    4630        0F      MOV      r0,r6
        0x00002f50:    f001fd80    ....    BL       writeOneSprite ; 0x4a54
        0x00002f54:    9500        ..      STR      r5,[sp,#0]
        0x00002f56:    8860        `.      LDRH     r0,[r4,#2]
        0x00002f58:    b2c2        ..      UXTB     r2,r0
        0x00002f5a:    8820         .      LDRH     r0,[r4,#0]
        0x00002f5c:    2338        8#      MOVS     r3,#0x38
        0x00002f5e:    3008        .0      ADDS     r0,r0,#8
        0x00002f60:    b2c1        ..      UXTB     r1,r0
        0x00002f62:    1c70        p.      ADDS     r0,r6,#1
        0x00002f64:    b2c0        ..      UXTB     r0,r0
        0x00002f66:    f001fd75    ..u.    BL       writeOneSprite ; 0x4a54
        0x00002f6a:    f0450040    E.@.    ORR      r0,r5,#0x40
        0x00002f6e:    9000        ..      STR      r0,[sp,#0]
        0x00002f70:    8860        `.      LDRH     r0,[r4,#2]
        0x00002f72:    b2c2        ..      UXTB     r2,r0
        0x00002f74:    8820         .      LDRH     r0,[r4,#0]
        0x00002f76:    2337        7#      MOVS     r3,#0x37
        0x00002f78:    3010        .0      ADDS     r0,r0,#0x10
        0x00002f7a:    b2c1        ..      UXTB     r1,r0
        0x00002f7c:    1cb0        ..      ADDS     r0,r6,#2
        0x00002f7e:    b2c0        ..      UXTB     r0,r0
        0x00002f80:    f001fd68    ..h.    BL       writeOneSprite ; 0x4a54
        0x00002f84:    9500        ..      STR      r5,[sp,#0]
        0x00002f86:    8860        `.      LDRH     r0,[r4,#2]
        0x00002f88:    1dc0        ..      ADDS     r0,r0,#7
        0x00002f8a:    b2c2        ..      UXTB     r2,r0
        0x00002f8c:    8820         .      LDRH     r0,[r4,#0]
        0x00002f8e:    2339        9#      MOVS     r3,#0x39
        0x00002f90:    1d00        ..      ADDS     r0,r0,#4
        0x00002f92:    b2c1        ..      UXTB     r1,r0
        0x00002f94:    1cf0        ..      ADDS     r0,r6,#3
        0x00002f96:    b2c0        ..      UXTB     r0,r0
        0x00002f98:    f001fd5c    ..\.    BL       writeOneSprite ; 0x4a54
        0x00002f9c:    9500        ..      STR      r5,[sp,#0]
        0x00002f9e:    8860        `.      LDRH     r0,[r4,#2]
        0x00002fa0:    1dc0        ..      ADDS     r0,r0,#7
        0x00002fa2:    b2c2        ..      UXTB     r2,r0
        0x00002fa4:    8820         .      LDRH     r0,[r4,#0]
        0x00002fa6:    300c        .0      ADDS     r0,r0,#0xc
        0x00002fa8:    1d36        6.      ADDS     r6,r6,#4
        0x00002faa:    b2c1        ..      UXTB     r1,r0
        0x00002fac:    b2f0        ..      UXTB     r0,r6
        0x00002fae:    2339        9#      MOVS     r3,#0x39
        0x00002fb0:    e000        ..      B        0x2fb4 ; myPlane_Draw + 300
        0x00002fb2:    e148        H.      B        0x3246 ; myPlane_Draw + 958
        0x00002fb4:    f001fd4e    ..N.    BL       writeOneSprite ; 0x4a54
        0x00002fb8:    e140        @.      B        0x323c ; myPlane_Draw + 948
        0x00002fba:    2703        .'      MOVS     r7,#3
        0x00002fbc:    9500        ..      STR      r5,[sp,#0]
        0x00002fbe:    8860        `.      LDRH     r0,[r4,#2]
        0x00002fc0:    b2c2        ..      UXTB     r2,r0
        0x00002fc2:    8820         .      LDRH     r0,[r4,#0]
        0x00002fc4:    233a        :#      MOVS     r3,#0x3a
        0x00002fc6:    b2c1        ..      UXTB     r1,r0
        0x00002fc8:    4630        0F      MOV      r0,r6
        0x00002fca:    f001fd43    ..C.    BL       writeOneSprite ; 0x4a54
        0x00002fce:    9500        ..      STR      r5,[sp,#0]
        0x00002fd0:    8860        `.      LDRH     r0,[r4,#2]
        0x00002fd2:    b2c2        ..      UXTB     r2,r0
        0x00002fd4:    8820         .      LDRH     r0,[r4,#0]
        0x00002fd6:    233b        ;#      MOVS     r3,#0x3b
        0x00002fd8:    3008        .0      ADDS     r0,r0,#8
        0x00002fda:    b2c1        ..      UXTB     r1,r0
        0x00002fdc:    1c70        p.      ADDS     r0,r6,#1
        0x00002fde:    b2c0        ..      UXTB     r0,r0
        0x00002fe0:    f001fd38    ..8.    BL       writeOneSprite ; 0x4a54
        0x00002fe4:    f0450040    E.@.    ORR      r0,r5,#0x40
        0x00002fe8:    9000        ..      STR      r0,[sp,#0]
        0x00002fea:    8860        `.      LDRH     r0,[r4,#2]
        0x00002fec:    b2c2        ..      UXTB     r2,r0
        0x00002fee:    8820         .      LDRH     r0,[r4,#0]
        0x00002ff0:    1cb6        ..      ADDS     r6,r6,#2
        0x00002ff2:    3010        .0      ADDS     r0,r0,#0x10
        0x00002ff4:    b2c1        ..      UXTB     r1,r0
        0x00002ff6:    b2f0        ..      UXTB     r0,r6
        0x00002ff8:    233a        :#      MOVS     r3,#0x3a
        0x00002ffa:    f001fd2b    ..+.    BL       writeOneSprite ; 0x4a54
        0x00002ffe:    e11d        ..      B        0x323c ; myPlane_Draw + 948
        0x00003000:    2704        .'      MOVS     r7,#4
        0x00003002:    9500        ..      STR      r5,[sp,#0]
        0x00003004:    8860        `.      LDRH     r0,[r4,#2]
        0x00003006:    b2c2        ..      UXTB     r2,r0
        0x00003008:    8820         .      LDRH     r0,[r4,#0]
        0x0000300a:    233d        =#      MOVS     r3,#0x3d
        0x0000300c:    b2c1        ..      UXTB     r1,r0
        0x0000300e:    4630        0F      MOV      r0,r6
        0x00003010:    f001fd20    .. .    BL       writeOneSprite ; 0x4a54
        0x00003014:    9500        ..      STR      r5,[sp,#0]
        0x00003016:    8860        `.      LDRH     r0,[r4,#2]
        0x00003018:    b2c2        ..      UXTB     r2,r0
        0x0000301a:    8820         .      LDRH     r0,[r4,#0]
        0x0000301c:    233e        >#      MOVS     r3,#0x3e
        0x0000301e:    3008        .0      ADDS     r0,r0,#8
        0x00003020:    b2c1        ..      UXTB     r1,r0
        0x00003022:    1c70        p.      ADDS     r0,r6,#1
        0x00003024:    b2c0        ..      UXTB     r0,r0
        0x00003026:    f001fd15    ....    BL       writeOneSprite ; 0x4a54
        0x0000302a:    f0450540    E.@.    ORR      r5,r5,#0x40
        0x0000302e:    9500        ..      STR      r5,[sp,#0]
        0x00003030:    8860        `.      LDRH     r0,[r4,#2]
        0x00003032:    b2c2        ..      UXTB     r2,r0
        0x00003034:    8820         .      LDRH     r0,[r4,#0]
        0x00003036:    233d        =#      MOVS     r3,#0x3d
        0x00003038:    3010        .0      ADDS     r0,r0,#0x10
        0x0000303a:    b2c1        ..      UXTB     r1,r0
        0x0000303c:    1cb0        ..      ADDS     r0,r6,#2
        0x0000303e:    b2c0        ..      UXTB     r0,r0
        0x00003040:    f001fd08    ....    BL       writeOneSprite ; 0x4a54
        0x00003044:    9500        ..      STR      r5,[sp,#0]
        0x00003046:    8860        `.      LDRH     r0,[r4,#2]
        0x00003048:    1fc0        ..      SUBS     r0,r0,#7
        0x0000304a:    b2c2        ..      UXTB     r2,r0
        0x0000304c:    8820         .      LDRH     r0,[r4,#0]
        0x0000304e:    1cf6        ..      ADDS     r6,r6,#3
        0x00003050:    3008        .0      ADDS     r0,r0,#8
        0x00003052:    b2c1        ..      UXTB     r1,r0
        0x00003054:    b2f0        ..      UXTB     r0,r6
        0x00003056:    233c        <#      MOVS     r3,#0x3c
        0x00003058:    f001fcfc    ....    BL       writeOneSprite ; 0x4a54
        0x0000305c:    e0ee        ..      B        0x323c ; myPlane_Draw + 948
        0x0000305e:    2707        .'      MOVS     r7,#7
        0x00003060:    9500        ..      STR      r5,[sp,#0]
        0x00003062:    8860        `.      LDRH     r0,[r4,#2]
        0x00003064:    380f        .8      SUBS     r0,r0,#0xf
        0x00003066:    b2c2        ..      UXTB     r2,r0
        0x00003068:    8820         .      LDRH     r0,[r4,#0]
        0x0000306a:    233f        ?#      MOVS     r3,#0x3f
        0x0000306c:    1d00        ..      ADDS     r0,r0,#4
        0x0000306e:    b2c1        ..      UXTB     r1,r0
        0x00003070:    4630        0F      MOV      r0,r6
        0x00003072:    f001fcef    ....    BL       writeOneSprite ; 0x4a54
        0x00003076:    9500        ..      STR      r5,[sp,#0]
        0x00003078:    8860        `.      LDRH     r0,[r4,#2]
        0x0000307a:    380f        .8      SUBS     r0,r0,#0xf
        0x0000307c:    b2c2        ..      UXTB     r2,r0
        0x0000307e:    8820         .      LDRH     r0,[r4,#0]
        0x00003080:    23f0        .#      MOVS     r3,#0xf0
        0x00003082:    300c        .0      ADDS     r0,r0,#0xc
        0x00003084:    b2c1        ..      UXTB     r1,r0
        0x00003086:    1c70        p.      ADDS     r0,r6,#1
        0x00003088:    b2c0        ..      UXTB     r0,r0
        0x0000308a:    f001fce3    ....    BL       writeOneSprite ; 0x4a54
        0x0000308e:    9500        ..      STR      r5,[sp,#0]
        0x00003090:    8860        `.      LDRH     r0,[r4,#2]
        0x00003092:    1fc0        ..      SUBS     r0,r0,#7
        0x00003094:    b2c2        ..      UXTB     r2,r0
        0x00003096:    8820         .      LDRH     r0,[r4,#0]
        0x00003098:    23f1        .#      MOVS     r3,#0xf1
        0x0000309a:    1d00        ..      ADDS     r0,r0,#4
        0x0000309c:    b2c1        ..      UXTB     r1,r0
        0x0000309e:    1cb0        ..      ADDS     r0,r6,#2
        0x000030a0:    b2c0        ..      UXTB     r0,r0
        0x000030a2:    f001fcd7    ....    BL       writeOneSprite ; 0x4a54
        0x000030a6:    9500        ..      STR      r5,[sp,#0]
        0x000030a8:    8860        `.      LDRH     r0,[r4,#2]
        0x000030aa:    1fc0        ..      SUBS     r0,r0,#7
        0x000030ac:    b2c2        ..      UXTB     r2,r0
        0x000030ae:    8820         .      LDRH     r0,[r4,#0]
        0x000030b0:    300c        .0      ADDS     r0,r0,#0xc
        0x000030b2:    b2c1        ..      UXTB     r1,r0
        0x000030b4:    1cf0        ..      ADDS     r0,r6,#3
        0x000030b6:    e002        ..      B        0x30be ; myPlane_Draw + 566
        0x000030b8:    e086        ..      B        0x31c8 ; myPlane_Draw + 832
        0x000030ba:    e062        b.      B        0x3182 ; myPlane_Draw + 762
        0x000030bc:    e024        $.      B        0x3108 ; myPlane_Draw + 640
        0x000030be:    b2c0        ..      UXTB     r0,r0
        0x000030c0:    23f2        .#      MOVS     r3,#0xf2
        0x000030c2:    f001fcc7    ....    BL       writeOneSprite ; 0x4a54
        0x000030c6:    9500        ..      STR      r5,[sp,#0]
        0x000030c8:    8860        `.      LDRH     r0,[r4,#2]
        0x000030ca:    b2c2        ..      UXTB     r2,r0
        0x000030cc:    8820         .      LDRH     r0,[r4,#0]
        0x000030ce:    23f3        .#      MOVS     r3,#0xf3
        0x000030d0:    b2c1        ..      UXTB     r1,r0
        0x000030d2:    1d30        0.      ADDS     r0,r6,#4
        0x000030d4:    b2c0        ..      UXTB     r0,r0
        0x000030d6:    f001fcbd    ....    BL       writeOneSprite ; 0x4a54
        0x000030da:    9500        ..      STR      r5,[sp,#0]
        0x000030dc:    8860        `.      LDRH     r0,[r4,#2]
        0x000030de:    b2c2        ..      UXTB     r2,r0
        0x000030e0:    8820         .      LDRH     r0,[r4,#0]
        0x000030e2:    23f4        .#      MOVS     r3,#0xf4
        0x000030e4:    3008        .0      ADDS     r0,r0,#8
        0x000030e6:    b2c1        ..      UXTB     r1,r0
        0x000030e8:    1d70        p.      ADDS     r0,r6,#5
        0x000030ea:    b2c0        ..      UXTB     r0,r0
        0x000030ec:    f001fcb2    ....    BL       writeOneSprite ; 0x4a54
        0x000030f0:    9500        ..      STR      r5,[sp,#0]
        0x000030f2:    8860        `.      LDRH     r0,[r4,#2]
        0x000030f4:    b2c2        ..      UXTB     r2,r0
        0x000030f6:    8820         .      LDRH     r0,[r4,#0]
        0x000030f8:    1db6        ..      ADDS     r6,r6,#6
        0x000030fa:    3010        .0      ADDS     r0,r0,#0x10
        0x000030fc:    b2c1        ..      UXTB     r1,r0
        0x000030fe:    b2f0        ..      UXTB     r0,r6
        0x00003100:    23f5        .#      MOVS     r3,#0xf5
        0x00003102:    f001fca7    ....    BL       writeOneSprite ; 0x4a54
        0x00003106:    e099        ..      B        0x323c ; myPlane_Draw + 948
        0x00003108:    2706        .'      MOVS     r7,#6
        0x0000310a:    9500        ..      STR      r5,[sp,#0]
        0x0000310c:    8860        `.      LDRH     r0,[r4,#2]
        0x0000310e:    1fc0        ..      SUBS     r0,r0,#7
        0x00003110:    b2c2        ..      UXTB     r2,r0
        0x00003112:    8820         .      LDRH     r0,[r4,#0]
        0x00003114:    23f6        .#      MOVS     r3,#0xf6
        0x00003116:    1d00        ..      ADDS     r0,r0,#4
        0x00003118:    b2c1        ..      UXTB     r1,r0
        0x0000311a:    4630        0F      MOV      r0,r6
        0x0000311c:    f001fc9a    ....    BL       writeOneSprite ; 0x4a54
        0x00003120:    f0450940    E.@.    ORR      r9,r5,#0x40
        0x00003124:    f8cd9000    ....    STR      r9,[sp,#0]
        0x00003128:    8860        `.      LDRH     r0,[r4,#2]
        0x0000312a:    1fc0        ..      SUBS     r0,r0,#7
        0x0000312c:    b2c2        ..      UXTB     r2,r0
        0x0000312e:    8820         .      LDRH     r0,[r4,#0]
        0x00003130:    23f6        .#      MOVS     r3,#0xf6
        0x00003132:    300c        .0      ADDS     r0,r0,#0xc
        0x00003134:    b2c1        ..      UXTB     r1,r0
        0x00003136:    1c70        p.      ADDS     r0,r6,#1
        0x00003138:    b2c0        ..      UXTB     r0,r0
        0x0000313a:    f001fc8b    ....    BL       writeOneSprite ; 0x4a54
        0x0000313e:    9500        ..      STR      r5,[sp,#0]
        0x00003140:    8860        `.      LDRH     r0,[r4,#2]
        0x00003142:    b2c2        ..      UXTB     r2,r0
        0x00003144:    8820         .      LDRH     r0,[r4,#0]
        0x00003146:    23f7        .#      MOVS     r3,#0xf7
        0x00003148:    b2c1        ..      UXTB     r1,r0
        0x0000314a:    1cb0        ..      ADDS     r0,r6,#2
        0x0000314c:    b2c0        ..      UXTB     r0,r0
        0x0000314e:    f001fc81    ....    BL       writeOneSprite ; 0x4a54
        0x00003152:    9500        ..      STR      r5,[sp,#0]
        0x00003154:    8860        `.      LDRH     r0,[r4,#2]
        0x00003156:    b2c2        ..      UXTB     r2,r0
        0x00003158:    8820         .      LDRH     r0,[r4,#0]
        0x0000315a:    23f8        .#      MOVS     r3,#0xf8
        0x0000315c:    3008        .0      ADDS     r0,r0,#8
        0x0000315e:    b2c1        ..      UXTB     r1,r0
        0x00003160:    1cf0        ..      ADDS     r0,r6,#3
        0x00003162:    b2c0        ..      UXTB     r0,r0
        0x00003164:    f001fc76    ..v.    BL       writeOneSprite ; 0x4a54
        0x00003168:    f8cd9000    ....    STR      r9,[sp,#0]
        0x0000316c:    8860        `.      LDRH     r0,[r4,#2]
        0x0000316e:    b2c2        ..      UXTB     r2,r0
        0x00003170:    8820         .      LDRH     r0,[r4,#0]
        0x00003172:    1d36        6.      ADDS     r6,r6,#4
        0x00003174:    3010        .0      ADDS     r0,r0,#0x10
        0x00003176:    b2c1        ..      UXTB     r1,r0
        0x00003178:    b2f0        ..      UXTB     r0,r6
        0x0000317a:    23f7        .#      MOVS     r3,#0xf7
        0x0000317c:    f001fc6a    ..j.    BL       writeOneSprite ; 0x4a54
        0x00003180:    e05c        \.      B        0x323c ; myPlane_Draw + 948
        0x00003182:    2703        .'      MOVS     r7,#3
        0x00003184:    9500        ..      STR      r5,[sp,#0]
        0x00003186:    8860        `.      LDRH     r0,[r4,#2]
        0x00003188:    b2c2        ..      UXTB     r2,r0
        0x0000318a:    8820         .      LDRH     r0,[r4,#0]
        0x0000318c:    233a        :#      MOVS     r3,#0x3a
        0x0000318e:    b2c1        ..      UXTB     r1,r0
        0x00003190:    4630        0F      MOV      r0,r6
        0x00003192:    f001fc5f    .._.    BL       writeOneSprite ; 0x4a54
        0x00003196:    9500        ..      STR      r5,[sp,#0]
        0x00003198:    8860        `.      LDRH     r0,[r4,#2]
        0x0000319a:    b2c2        ..      UXTB     r2,r0
        0x0000319c:    8820         .      LDRH     r0,[r4,#0]
        0x0000319e:    233b        ;#      MOVS     r3,#0x3b
        0x000031a0:    3008        .0      ADDS     r0,r0,#8
        0x000031a2:    b2c1        ..      UXTB     r1,r0
        0x000031a4:    1c70        p.      ADDS     r0,r6,#1
        0x000031a6:    b2c0        ..      UXTB     r0,r0
        0x000031a8:    f001fc54    ..T.    BL       writeOneSprite ; 0x4a54
        0x000031ac:    f0450040    E.@.    ORR      r0,r5,#0x40
        0x000031b0:    9000        ..      STR      r0,[sp,#0]
        0x000031b2:    8860        `.      LDRH     r0,[r4,#2]
        0x000031b4:    b2c2        ..      UXTB     r2,r0
        0x000031b6:    8820         .      LDRH     r0,[r4,#0]
        0x000031b8:    1cb6        ..      ADDS     r6,r6,#2
        0x000031ba:    3010        .0      ADDS     r0,r0,#0x10
        0x000031bc:    b2c1        ..      UXTB     r1,r0
        0x000031be:    b2f0        ..      UXTB     r0,r6
        0x000031c0:    233a        :#      MOVS     r3,#0x3a
        0x000031c2:    f001fc47    ..G.    BL       writeOneSprite ; 0x4a54
        0x000031c6:    e039        9.      B        0x323c ; myPlane_Draw + 948
        0x000031c8:    2705        .'      MOVS     r7,#5
        0x000031ca:    9500        ..      STR      r5,[sp,#0]
        0x000031cc:    8860        `.      LDRH     r0,[r4,#2]
        0x000031ce:    b2c2        ..      UXTB     r2,r0
        0x000031d0:    8820         .      LDRH     r0,[r4,#0]
        0x000031d2:    2333        3#      MOVS     r3,#0x33
        0x000031d4:    b2c1        ..      UXTB     r1,r0
        0x000031d6:    4630        0F      MOV      r0,r6
        0x000031d8:    f001fc3c    ..<.    BL       writeOneSprite ; 0x4a54
        0x000031dc:    9500        ..      STR      r5,[sp,#0]
        0x000031de:    8860        `.      LDRH     r0,[r4,#2]
        0x000031e0:    b2c2        ..      UXTB     r2,r0
        0x000031e2:    8820         .      LDRH     r0,[r4,#0]
        0x000031e4:    2334        4#      MOVS     r3,#0x34
        0x000031e6:    3008        .0      ADDS     r0,r0,#8
        0x000031e8:    b2c1        ..      UXTB     r1,r0
        0x000031ea:    1c70        p.      ADDS     r0,r6,#1
        0x000031ec:    b2c0        ..      UXTB     r0,r0
        0x000031ee:    f001fc31    ..1.    BL       writeOneSprite ; 0x4a54
        0x000031f2:    f0450040    E.@.    ORR      r0,r5,#0x40
        0x000031f6:    9000        ..      STR      r0,[sp,#0]
        0x000031f8:    8860        `.      LDRH     r0,[r4,#2]
        0x000031fa:    b2c2        ..      UXTB     r2,r0
        0x000031fc:    8820         .      LDRH     r0,[r4,#0]
        0x000031fe:    2333        3#      MOVS     r3,#0x33
        0x00003200:    3010        .0      ADDS     r0,r0,#0x10
        0x00003202:    b2c1        ..      UXTB     r1,r0
        0x00003204:    1cb0        ..      ADDS     r0,r6,#2
        0x00003206:    b2c0        ..      UXTB     r0,r0
        0x00003208:    f001fc24    ..$.    BL       writeOneSprite ; 0x4a54
        0x0000320c:    9500        ..      STR      r5,[sp,#0]
        0x0000320e:    8860        `.      LDRH     r0,[r4,#2]
        0x00003210:    1dc0        ..      ADDS     r0,r0,#7
        0x00003212:    b2c2        ..      UXTB     r2,r0
        0x00003214:    8820         .      LDRH     r0,[r4,#0]
        0x00003216:    2335        5#      MOVS     r3,#0x35
        0x00003218:    1d00        ..      ADDS     r0,r0,#4
        0x0000321a:    b2c1        ..      UXTB     r1,r0
        0x0000321c:    1cf0        ..      ADDS     r0,r6,#3
        0x0000321e:    b2c0        ..      UXTB     r0,r0
        0x00003220:    f001fc18    ....    BL       writeOneSprite ; 0x4a54
        0x00003224:    9500        ..      STR      r5,[sp,#0]
        0x00003226:    8860        `.      LDRH     r0,[r4,#2]
        0x00003228:    1dc0        ..      ADDS     r0,r0,#7
        0x0000322a:    b2c2        ..      UXTB     r2,r0
        0x0000322c:    8820         .      LDRH     r0,[r4,#0]
        0x0000322e:    1d36        6.      ADDS     r6,r6,#4
        0x00003230:    300c        .0      ADDS     r0,r0,#0xc
        0x00003232:    b2c1        ..      UXTB     r1,r0
        0x00003234:    b2f0        ..      UXTB     r0,r6
        0x00003236:    2336        6#      MOVS     r3,#0x36
        0x00003238:    f001fc0c    ....    BL       writeOneSprite ; 0x4a54
        0x0000323c:    f8980000    ....    LDRB     r0,[r8,#0]
        0x00003240:    4438        8D      ADD      r0,r0,r7
        0x00003242:    f8880000    ....    STRB     r0,[r8,#0]
        0x00003246:    e8bd83f8    ....    POP      {r3-r9,pc}
    $d
        0x0000324a:    0000        ..      DCW    0
        0x0000324c:    20000008    ...     DCD    536870920
    $t
    i.myPlane_Init
    myPlane_Init
        0x00003250:    2178        x!      MOVS     r1,#0x78
        0x00003252:    8001        ..      STRH     r1,[r0,#0]
        0x00003254:    21b4        .!      MOVS     r1,#0xb4
        0x00003256:    8041        A.      STRH     r1,[r0,#2]
        0x00003258:    2101        .!      MOVS     r1,#1
        0x0000325a:    7101        .q      STRB     r1,[r0,#4]
        0x0000325c:    2200        ."      MOVS     r2,#0
        0x0000325e:    71c2        .q      STRB     r2,[r0,#7]
        0x00003260:    7202        .r      STRB     r2,[r0,#8]
        0x00003262:    7242        Br      STRB     r2,[r0,#9]
        0x00003264:    7181        .q      STRB     r1,[r0,#6]
        0x00003266:    7141        Aq      STRB     r1,[r0,#5]
        0x00003268:    4770        pG      BX       lr
        0x0000326a:    0000        ..      MOVS     r0,r0
    i.myPlane_bulletDraw
    myPlane_bulletDraw
        0x0000326c:    b5f8        ..      PUSH     {r3-r7,lr}
        0x0000326e:    4606        .F      MOV      r6,r0
        0x00003270:    460d        .F      MOV      r5,r1
        0x00003272:    2400        .$      MOVS     r4,#0
        0x00003274:    4f0d        .O      LDR      r7,[pc,#52] ; [0x32ac] = 0x4a78
        0x00003276:    e014        ..      B        0x32a2 ; myPlane_bulletDraw + 54
        0x00003278:    eb040184    ....    ADD      r1,r4,r4,LSL #2
        0x0000327c:    eb060241    ..A.    ADD      r2,r6,r1,LSL #1
        0x00003280:    7910        .y      LDRB     r0,[r2,#4]
        0x00003282:    b168        h.      CBZ      r0,0x32a0 ; myPlane_bulletDraw + 52
        0x00003284:    2010        .       MOVS     r0,#0x10
        0x00003286:    9000        ..      STR      r0,[sp,#0]
        0x00003288:    8850        P.      LDRH     r0,[r2,#2]
        0x0000328a:    b2c2        ..      UXTB     r2,r0
        0x0000328c:    f8360011    6...    LDRH     r0,[r6,r1,LSL #1]
        0x00003290:    2331        1#      MOVS     r3,#0x31
        0x00003292:    b2c1        ..      UXTB     r1,r0
        0x00003294:    7828        (x      LDRB     r0,[r5,#0]
        0x00003296:    f001fbdd    ....    BL       writeOneSprite ; 0x4a54
        0x0000329a:    7828        (x      LDRB     r0,[r5,#0]
        0x0000329c:    1c40        @.      ADDS     r0,r0,#1
        0x0000329e:    7028        (p      STRB     r0,[r5,#0]
        0x000032a0:    1c64        d.      ADDS     r4,r4,#1
        0x000032a2:    7838        8x      LDRB     r0,[r7,#0]
        0x000032a4:    4284        .B      CMP      r4,r0
        0x000032a6:    dbe7        ..      BLT      0x3278 ; myPlane_bulletDraw + 12
        0x000032a8:    bdf8        ..      POP      {r3-r7,pc}
    $d
        0x000032aa:    0000        ..      DCW    0
        0x000032ac:    00004a78    xJ..    DCD    19064
    $t
    i.myPlane_bulletInit
    myPlane_bulletInit
        0x000032b0:    b510        ..      PUSH     {r4,lr}
        0x000032b2:    2100        .!      MOVS     r1,#0
        0x000032b4:    2200        ."      MOVS     r2,#0
        0x000032b6:    4b06        .K      LDR      r3,[pc,#24] ; [0x32d0] = 0x4a78
        0x000032b8:    e005        ..      B        0x32c6 ; myPlane_bulletInit + 22
        0x000032ba:    eb010481    ....    ADD      r4,r1,r1,LSL #2
        0x000032be:    eb000444    ..D.    ADD      r4,r0,r4,LSL #1
        0x000032c2:    7122        "q      STRB     r2,[r4,#4]
        0x000032c4:    1c49        I.      ADDS     r1,r1,#1
        0x000032c6:    781c        .x      LDRB     r4,[r3,#0]
        0x000032c8:    42a1        .B      CMP      r1,r4
        0x000032ca:    dbf6        ..      BLT      0x32ba ; myPlane_bulletInit + 10
        0x000032cc:    bd10        ..      POP      {r4,pc}
    $d
        0x000032ce:    0000        ..      DCW    0
        0x000032d0:    00004a78    xJ..    DCD    19064
    $t
    i.myPlane_createOneBullet
    myPlane_createOneBullet
        0x000032d4:    b5f0        ..      PUSH     {r4-r7,lr}
        0x000032d6:    7902        .y      LDRB     r2,[r0,#4]
        0x000032d8:    2a00        .*      CMP      r2,#0
        0x000032da:    d017        ..      BEQ      0x330c ; myPlane_createOneBullet + 56
        0x000032dc:    7982        .y      LDRB     r2,[r0,#6]
        0x000032de:    4e41        AN      LDR      r6,[pc,#260] ; [0x33e4] = 0x20000038
        0x000032e0:    2501        .%      MOVS     r5,#1
        0x000032e2:    b14a        J.      CBZ      r2,0x32f8 ; myPlane_createOneBullet + 36
        0x000032e4:    7982        .y      LDRB     r2,[r0,#6]
        0x000032e6:    2a01        .*      CMP      r2,#1
        0x000032e8:    d021        !.      BEQ      0x332e ; myPlane_createOneBullet + 90
        0x000032ea:    7982        .y      LDRB     r2,[r0,#6]
        0x000032ec:    2a02        .*      CMP      r2,#2
        0x000032ee:    d10d        ..      BNE      0x330c ; myPlane_createOneBullet + 56
        0x000032f0:    2300        .#      MOVS     r3,#0
        0x000032f2:    790a        .y      LDRB     r2,[r1,#4]
        0x000032f4:    b3f2        ..      CBZ      r2,0x3374 ; myPlane_createOneBullet + 160
        0x000032f6:    e04b        K.      B        0x3390 ; myPlane_createOneBullet + 188
        0x000032f8:    2200        ."      MOVS     r2,#0
        0x000032fa:    eb020382    ....    ADD      r3,r2,r2,LSL #2
        0x000032fe:    eb010343    ..C.    ADD      r3,r1,r3,LSL #1
        0x00003302:    791b        .y      LDRB     r3,[r3,#4]
        0x00003304:    b11b        ..      CBZ      r3,0x330e ; myPlane_createOneBullet + 58
        0x00003306:    1c52        R.      ADDS     r2,r2,#1
        0x00003308:    2a04        .*      CMP      r2,#4
        0x0000330a:    dbf6        ..      BLT      0x32fa ; myPlane_createOneBullet + 38
        0x0000330c:    bdf0        ..      POP      {r4-r7,pc}
        0x0000330e:    8803        ..      LDRH     r3,[r0,#0]
        0x00003310:    eb020282    ....    ADD      r2,r2,r2,LSL #2
        0x00003314:    3308        .3      ADDS     r3,r3,#8
        0x00003316:    f8213012    !..0    STRH     r3,[r1,r2,LSL #1]
        0x0000331a:    8843        C.      LDRH     r3,[r0,#2]
        0x0000331c:    eb010042    ..B.    ADD      r0,r1,r2,LSL #1
        0x00003320:    3b08        .;      SUBS     r3,r3,#8
        0x00003322:    8043        C.      STRH     r3,[r0,#2]
        0x00003324:    7105        .q      STRB     r5,[r0,#4]
        0x00003326:    6830        0h      LDR      r0,[r6,#0]
        0x00003328:    1c40        @.      ADDS     r0,r0,#1
        0x0000332a:    6030        0`      STR      r0,[r6,#0]
        0x0000332c:    bdf0        ..      POP      {r4-r7,pc}
        0x0000332e:    2200        ."      MOVS     r2,#0
        0x00003330:    eb020482    ....    ADD      r4,r2,r2,LSL #2
        0x00003334:    eb010344    ..D.    ADD      r3,r1,r4,LSL #1
        0x00003338:    791f        .y      LDRB     r7,[r3,#4]
        0x0000333a:    b90f        ..      CBNZ     r7,0x3340 ; myPlane_createOneBullet + 108
        0x0000333c:    7b9f        .{      LDRB     r7,[r3,#0xe]
        0x0000333e:    b11f        ..      CBZ      r7,0x3348 ; myPlane_createOneBullet + 116
        0x00003340:    1c52        R.      ADDS     r2,r2,#1
        0x00003342:    2a08        .*      CMP      r2,#8
        0x00003344:    dbf4        ..      BLT      0x3330 ; myPlane_createOneBullet + 92
        0x00003346:    bdf0        ..      POP      {r4-r7,pc}
        0x00003348:    8807        ..      LDRH     r7,[r0,#0]
        0x0000334a:    eb020282    ....    ADD      r2,r2,r2,LSL #2
        0x0000334e:    1d3f        ?.      ADDS     r7,r7,#4
        0x00003350:    f8217012    !..p    STRH     r7,[r1,r2,LSL #1]
        0x00003354:    8842        B.      LDRH     r2,[r0,#2]
        0x00003356:    eb010144    ..D.    ADD      r1,r1,r4,LSL #1
        0x0000335a:    3a08        .:      SUBS     r2,r2,#8
        0x0000335c:    804a        J.      STRH     r2,[r1,#2]
        0x0000335e:    711d        .q      STRB     r5,[r3,#4]
        0x00003360:    8801        ..      LDRH     r1,[r0,#0]
        0x00003362:    310c        .1      ADDS     r1,r1,#0xc
        0x00003364:    8159        Y.      STRH     r1,[r3,#0xa]
        0x00003366:    8840        @.      LDRH     r0,[r0,#2]
        0x00003368:    3808        .8      SUBS     r0,r0,#8
        0x0000336a:    8198        ..      STRH     r0,[r3,#0xc]
        0x0000336c:    739d        .s      STRB     r5,[r3,#0xe]
        0x0000336e:    6830        0h      LDR      r0,[r6,#0]
        0x00003370:    1c80        ..      ADDS     r0,r0,#2
        0x00003372:    e000        ..      B        0x3376 ; myPlane_createOneBullet + 162
        0x00003374:    e001        ..      B        0x337a ; myPlane_createOneBullet + 166
        0x00003376:    6030        0`      STR      r0,[r6,#0]
        0x00003378:    bdf0        ..      POP      {r4-r7,pc}
        0x0000337a:    eb030283    ....    ADD      r2,r3,r3,LSL #2
        0x0000337e:    eb010242    ..B.    ADD      r2,r1,r2,LSL #1
        0x00003382:    7b94        .{      LDRB     r4,[r2,#0xe]
        0x00003384:    b924        $.      CBNZ     r4,0x3390 ; myPlane_createOneBullet + 188
        0x00003386:    7e14        .~      LDRB     r4,[r2,#0x18]
        0x00003388:    b914        ..      CBNZ     r4,0x3390 ; myPlane_createOneBullet + 188
        0x0000338a:    f8924022    .."@    LDRB     r4,[r2,#0x22]
        0x0000338e:    b11c        ..      CBZ      r4,0x3398 ; myPlane_createOneBullet + 196
        0x00003390:    1c5b        [.      ADDS     r3,r3,#1
        0x00003392:    2b10        .+      CMP      r3,#0x10
        0x00003394:    dbad        ..      BLT      0x32f2 ; myPlane_createOneBullet + 30
        0x00003396:    bdf0        ..      POP      {r4-r7,pc}
        0x00003398:    8804        ..      LDRH     r4,[r0,#0]
        0x0000339a:    1f24        $.      SUBS     r4,r4,#4
        0x0000339c:    800c        ..      STRH     r4,[r1,#0]
        0x0000339e:    8844        D.      LDRH     r4,[r0,#2]
        0x000033a0:    3c08        .<      SUBS     r4,r4,#8
        0x000033a2:    804c        L.      STRH     r4,[r1,#2]
        0x000033a4:    710d        .q      STRB     r5,[r1,#4]
        0x000033a6:    8804        ..      LDRH     r4,[r0,#0]
        0x000033a8:    eb030383    ....    ADD      r3,r3,r3,LSL #2
        0x000033ac:    eb010143    ..C.    ADD      r1,r1,r3,LSL #1
        0x000033b0:    1d24        $.      ADDS     r4,r4,#4
        0x000033b2:    814c        L.      STRH     r4,[r1,#0xa]
        0x000033b4:    8841        A.      LDRH     r1,[r0,#2]
        0x000033b6:    3908        .9      SUBS     r1,r1,#8
        0x000033b8:    8191        ..      STRH     r1,[r2,#0xc]
        0x000033ba:    7395        .s      STRB     r5,[r2,#0xe]
        0x000033bc:    8801        ..      LDRH     r1,[r0,#0]
        0x000033be:    310c        .1      ADDS     r1,r1,#0xc
        0x000033c0:    8291        ..      STRH     r1,[r2,#0x14]
        0x000033c2:    8841        A.      LDRH     r1,[r0,#2]
        0x000033c4:    3908        .9      SUBS     r1,r1,#8
        0x000033c6:    82d1        ..      STRH     r1,[r2,#0x16]
        0x000033c8:    7615        .v      STRB     r5,[r2,#0x18]
        0x000033ca:    8801        ..      LDRH     r1,[r0,#0]
        0x000033cc:    3114        .1      ADDS     r1,r1,#0x14
        0x000033ce:    83d1        ..      STRH     r1,[r2,#0x1e]
        0x000033d0:    8840        @.      LDRH     r0,[r0,#2]
        0x000033d2:    3808        .8      SUBS     r0,r0,#8
        0x000033d4:    8410        ..      STRH     r0,[r2,#0x20]
        0x000033d6:    f8825022    .."P    STRB     r5,[r2,#0x22]
        0x000033da:    6830        0h      LDR      r0,[r6,#0]
        0x000033dc:    1d00        ..      ADDS     r0,r0,#4
        0x000033de:    6030        0`      STR      r0,[r6,#0]
        0x000033e0:    bdf0        ..      POP      {r4-r7,pc}
    $d
        0x000033e2:    0000        ..      DCW    0
        0x000033e4:    20000038    8..     DCD    536870968
    $t
    i.myPlane_updateBulletData
    myPlane_updateBulletData
        0x000033e8:    b530        0.      PUSH     {r4,r5,lr}
        0x000033ea:    2200        ."      MOVS     r2,#0
        0x000033ec:    2400        .$      MOVS     r4,#0
        0x000033ee:    4d0a        .M      LDR      r5,[pc,#40] ; [0x3418] = 0x4a78
        0x000033f0:    e00e        ..      B        0x3410 ; myPlane_updateBulletData + 40
        0x000033f2:    eb020182    ....    ADD      r1,r2,r2,LSL #2
        0x000033f6:    eb000141    ..A.    ADD      r1,r0,r1,LSL #1
        0x000033fa:    790b        .y      LDRB     r3,[r1,#4]
        0x000033fc:    b13b        ;.      CBZ      r3,0x340e ; myPlane_updateBulletData + 38
        0x000033fe:    884b        K.      LDRH     r3,[r1,#2]
        0x00003400:    1f5b        [.      SUBS     r3,r3,#5
        0x00003402:    804b        K.      STRH     r3,[r1,#2]
        0x00003404:    f9b13002    ...0    LDRSH    r3,[r1,#2]
        0x00003408:    2b05        .+      CMP      r3,#5
        0x0000340a:    da00        ..      BGE      0x340e ; myPlane_updateBulletData + 38
        0x0000340c:    710c        .q      STRB     r4,[r1,#4]
        0x0000340e:    1c52        R.      ADDS     r2,r2,#1
        0x00003410:    7829        )x      LDRB     r1,[r5,#0]
        0x00003412:    428a        .B      CMP      r2,r1
        0x00003414:    dbed        ..      BLT      0x33f2 ; myPlane_updateBulletData + 10
        0x00003416:    bd30        0.      POP      {r4,r5,pc}
    $d
        0x00003418:    00004a78    xJ..    DCD    19064
    $t
    i.newGuanqiaInterFaceDraw
    newGuanqiaInterFaceDraw
        0x0000341c:    e92d43f8    -..C    PUSH     {r3-r9,lr}
        0x00003420:    4681        .F      MOV      r9,r0
        0x00003422:    460c        .F      MOV      r4,r1
        0x00003424:    2678        x&      MOVS     r6,#0x78
        0x00003426:    f04f0864    O.d.    MOV      r8,#0x64
        0x0000342a:    2520         %      MOVS     r5,#0x20
        0x0000342c:    9500        ..      STR      r5,[sp,#0]
        0x0000342e:    7820         x      LDRB     r0,[r4,#0]
        0x00003430:    230c        .#      MOVS     r3,#0xc
        0x00003432:    4642        BF      MOV      r2,r8
        0x00003434:    4631        1F      MOV      r1,r6
        0x00003436:    f001fb0d    ....    BL       writeOneSprite ; 0x4a54
        0x0000343a:    7820         x      LDRB     r0,[r4,#0]
        0x0000343c:    1c40        @.      ADDS     r0,r0,#1
        0x0000343e:    b2c0        ..      UXTB     r0,r0
        0x00003440:    7020         p      STRB     r0,[r4,#0]
        0x00003442:    2788        .'      MOVS     r7,#0x88
        0x00003444:    230d        .#      MOVS     r3,#0xd
        0x00003446:    4642        BF      MOV      r2,r8
        0x00003448:    4639        9F      MOV      r1,r7
        0x0000344a:    9500        ..      STR      r5,[sp,#0]
        0x0000344c:    f001fb02    ....    BL       writeOneSprite ; 0x4a54
        0x00003450:    7820         x      LDRB     r0,[r4,#0]
        0x00003452:    1c40        @.      ADDS     r0,r0,#1
        0x00003454:    b2c0        ..      UXTB     r0,r0
        0x00003456:    7020         p      STRB     r0,[r4,#0]
        0x00003458:    f04f0874    O.t.    MOV      r8,#0x74
        0x0000345c:    2170        p!      MOVS     r1,#0x70
        0x0000345e:    464b        KF      MOV      r3,r9
        0x00003460:    4642        BF      MOV      r2,r8
        0x00003462:    9500        ..      STR      r5,[sp,#0]
        0x00003464:    f001faf6    ....    BL       writeOneSprite ; 0x4a54
        0x00003468:    7820         x      LDRB     r0,[r4,#0]
        0x0000346a:    1c40        @.      ADDS     r0,r0,#1
        0x0000346c:    b2c0        ..      UXTB     r0,r0
        0x0000346e:    7020         p      STRB     r0,[r4,#0]
        0x00003470:    2180        .!      MOVS     r1,#0x80
        0x00003472:    230e        .#      MOVS     r3,#0xe
        0x00003474:    4642        BF      MOV      r2,r8
        0x00003476:    9500        ..      STR      r5,[sp,#0]
        0x00003478:    f001faec    ....    BL       writeOneSprite ; 0x4a54
        0x0000347c:    7820         x      LDRB     r0,[r4,#0]
        0x0000347e:    1c40        @.      ADDS     r0,r0,#1
        0x00003480:    b2c0        ..      UXTB     r0,r0
        0x00003482:    7020         p      STRB     r0,[r4,#0]
        0x00003484:    2190        .!      MOVS     r1,#0x90
        0x00003486:    230f        .#      MOVS     r3,#0xf
        0x00003488:    4642        BF      MOV      r2,r8
        0x0000348a:    9500        ..      STR      r5,[sp,#0]
        0x0000348c:    f001fae2    ....    BL       writeOneSprite ; 0x4a54
        0x00003490:    7820         x      LDRB     r0,[r4,#0]
        0x00003492:    1c40        @.      ADDS     r0,r0,#1
        0x00003494:    b2c0        ..      UXTB     r0,r0
        0x00003496:    7020         p      STRB     r0,[r4,#0]
        0x00003498:    f04f0884    O...    MOV      r8,#0x84
        0x0000349c:    2310        .#      MOVS     r3,#0x10
        0x0000349e:    4642        BF      MOV      r2,r8
        0x000034a0:    4631        1F      MOV      r1,r6
        0x000034a2:    9500        ..      STR      r5,[sp,#0]
        0x000034a4:    f001fad6    ....    BL       writeOneSprite ; 0x4a54
        0x000034a8:    7820         x      LDRB     r0,[r4,#0]
        0x000034aa:    1c40        @.      ADDS     r0,r0,#1
        0x000034ac:    b2c0        ..      UXTB     r0,r0
        0x000034ae:    7020         p      STRB     r0,[r4,#0]
        0x000034b0:    2311        .#      MOVS     r3,#0x11
        0x000034b2:    4642        BF      MOV      r2,r8
        0x000034b4:    4639        9F      MOV      r1,r7
        0x000034b6:    9500        ..      STR      r5,[sp,#0]
        0x000034b8:    f001facc    ....    BL       writeOneSprite ; 0x4a54
        0x000034bc:    7820         x      LDRB     r0,[r4,#0]
        0x000034be:    1c40        @.      ADDS     r0,r0,#1
        0x000034c0:    7020         p      STRB     r0,[r4,#0]
        0x000034c2:    e8bd83f8    ....    POP      {r3-r9,pc}
        0x000034c6:    0000        ..      MOVS     r0,r0
    i.new_boomDraw
    new_boomDraw
        0x000034c8:    e92d4ff8    -..O    PUSH     {r3-r11,lr}
        0x000034cc:    4607        .F      MOV      r7,r0
        0x000034ce:    460d        .F      MOV      r5,r1
        0x000034d0:    2400        .$      MOVS     r4,#0
        0x000034d2:    f8dfb0b0    ....    LDR      r11,[pc,#176] ; [0x3584] = 0x4a7e
        0x000034d6:    e04e        N.      B        0x3576 ; new_boomDraw + 174
        0x000034d8:    eb0706c4    ....    ADD      r6,r7,r4,LSL #3
        0x000034dc:    7930        0y      LDRB     r0,[r6,#4]
        0x000034de:    b3e0        ..      CBZ      r0,0x355a ; new_boomDraw + 146
        0x000034e0:    7970        py      LDRB     r0,[r6,#5]
        0x000034e2:    ea4f0840    O.@.    LSL      r8,r0,#1
        0x000034e6:    f04f0a10    O...    MOV      r10,#0x10
        0x000034ea:    f8cda000    ....    STR      r10,[sp,#0]
        0x000034ee:    f10809e0    ....    ADD      r9,r8,#0xe0
        0x000034f2:    8870        p.      LDRH     r0,[r6,#2]
        0x000034f4:    f00903ff    ....    AND      r3,r9,#0xff
        0x000034f8:    b2c2        ..      UXTB     r2,r0
        0x000034fa:    f8370034    7.4.    LDRH     r0,[r7,r4,LSL #3]
        0x000034fe:    b2c1        ..      UXTB     r1,r0
        0x00003500:    7828        (x      LDRB     r0,[r5,#0]
        0x00003502:    f001faa7    ....    BL       writeOneSprite ; 0x4a54
        0x00003506:    f8cda000    ....    STR      r10,[sp,#0]
        0x0000350a:    f10808e1    ....    ADD      r8,r8,#0xe1
        0x0000350e:    8870        p.      LDRH     r0,[r6,#2]
        0x00003510:    f00803ff    ....    AND      r3,r8,#0xff
        0x00003514:    b2c2        ..      UXTB     r2,r0
        0x00003516:    f8370034    7.4.    LDRH     r0,[r7,r4,LSL #3]
        0x0000351a:    3008        .0      ADDS     r0,r0,#8
        0x0000351c:    b2c1        ..      UXTB     r1,r0
        0x0000351e:    7828        (x      LDRB     r0,[r5,#0]
        0x00003520:    1c40        @.      ADDS     r0,r0,#1
        0x00003522:    b2c0        ..      UXTB     r0,r0
        0x00003524:    f001fa96    ....    BL       writeOneSprite ; 0x4a54
        0x00003528:    f04f0ad0    O...    MOV      r10,#0xd0
        0x0000352c:    f8cda000    ....    STR      r10,[sp,#0]
        0x00003530:    8870        p.      LDRH     r0,[r6,#2]
        0x00003532:    f00803ff    ....    AND      r3,r8,#0xff
        0x00003536:    1dc0        ..      ADDS     r0,r0,#7
        0x00003538:    b2c2        ..      UXTB     r2,r0
        0x0000353a:    f8370034    7.4.    LDRH     r0,[r7,r4,LSL #3]
        0x0000353e:    b2c1        ..      UXTB     r1,r0
        0x00003540:    7828        (x      LDRB     r0,[r5,#0]
        0x00003542:    1c80        ..      ADDS     r0,r0,#2
        0x00003544:    b2c0        ..      UXTB     r0,r0
        0x00003546:    f001fa85    ....    BL       writeOneSprite ; 0x4a54
        0x0000354a:    f8cda000    ....    STR      r10,[sp,#0]
        0x0000354e:    8870        p.      LDRH     r0,[r6,#2]
        0x00003550:    f00903ff    ....    AND      r3,r9,#0xff
        0x00003554:    1dc0        ..      ADDS     r0,r0,#7
        0x00003556:    b2c2        ..      UXTB     r2,r0
        0x00003558:    e000        ..      B        0x355c ; new_boomDraw + 148
        0x0000355a:    e00b        ..      B        0x3574 ; new_boomDraw + 172
        0x0000355c:    f8370034    7.4.    LDRH     r0,[r7,r4,LSL #3]
        0x00003560:    3008        .0      ADDS     r0,r0,#8
        0x00003562:    b2c1        ..      UXTB     r1,r0
        0x00003564:    7828        (x      LDRB     r0,[r5,#0]
        0x00003566:    1cc0        ..      ADDS     r0,r0,#3
        0x00003568:    b2c0        ..      UXTB     r0,r0
        0x0000356a:    f001fa73    ..s.    BL       writeOneSprite ; 0x4a54
        0x0000356e:    7828        (x      LDRB     r0,[r5,#0]
        0x00003570:    1d00        ..      ADDS     r0,r0,#4
        0x00003572:    7028        (p      STRB     r0,[r5,#0]
        0x00003574:    1c64        d.      ADDS     r4,r4,#1
        0x00003576:    f89b0000    ....    LDRB     r0,[r11,#0]
        0x0000357a:    4284        .B      CMP      r4,r0
        0x0000357c:    dbac        ..      BLT      0x34d8 ; new_boomDraw + 16
        0x0000357e:    e8bd8ff8    ....    POP      {r3-r11,pc}
    $d
        0x00003582:    0000        ..      DCW    0
        0x00003584:    00004a7e    ~J..    DCD    19070
    $t
    i.new_boomInit
    new_boomInit
        0x00003588:    b510        ..      PUSH     {r4,lr}
        0x0000358a:    2100        .!      MOVS     r1,#0
        0x0000358c:    2200        ."      MOVS     r2,#0
        0x0000358e:    4b05        .K      LDR      r3,[pc,#20] ; [0x35a4] = 0x4a7e
        0x00003590:    e003        ..      B        0x359a ; new_boomInit + 18
        0x00003592:    eb0004c1    ....    ADD      r4,r0,r1,LSL #3
        0x00003596:    7122        "q      STRB     r2,[r4,#4]
        0x00003598:    1c49        I.      ADDS     r1,r1,#1
        0x0000359a:    781c        .x      LDRB     r4,[r3,#0]
        0x0000359c:    42a1        .B      CMP      r1,r4
        0x0000359e:    dbf8        ..      BLT      0x3592 ; new_boomInit + 10
        0x000035a0:    bd10        ..      POP      {r4,pc}
    $d
        0x000035a2:    0000        ..      DCW    0
        0x000035a4:    00004a7e    ~J..    DCD    19070
    $t
    i.new_createOneBoom
    new_createOneBoom
        0x000035a8:    b530        0.      PUSH     {r4,r5,lr}
        0x000035aa:    2300        .#      MOVS     r3,#0
        0x000035ac:    4c0a        .L      LDR      r4,[pc,#40] ; [0x35d8] = 0x4a7e
        0x000035ae:    7824        $x      LDRB     r4,[r4,#0]
        0x000035b0:    e004        ..      B        0x35bc ; new_createOneBoom + 20
        0x000035b2:    eb0205c3    ....    ADD      r5,r2,r3,LSL #3
        0x000035b6:    792d        -y      LDRB     r5,[r5,#4]
        0x000035b8:    b11d        ..      CBZ      r5,0x35c2 ; new_createOneBoom + 26
        0x000035ba:    1c5b        [.      ADDS     r3,r3,#1
        0x000035bc:    42a3        .B      CMP      r3,r4
        0x000035be:    dbf8        ..      BLT      0x35b2 ; new_createOneBoom + 10
        0x000035c0:    bd30        0.      POP      {r4,r5,pc}
        0x000035c2:    eb0204c3    ....    ADD      r4,r2,r3,LSL #3
        0x000035c6:    2500        .%      MOVS     r5,#0
        0x000035c8:    7165        eq      STRB     r5,[r4,#5]
        0x000035ca:    f8220033    ".3.    STRH     r0,[r2,r3,LSL #3]
        0x000035ce:    8061        a.      STRH     r1,[r4,#2]
        0x000035d0:    2001        .       MOVS     r0,#1
        0x000035d2:    7120         q      STRB     r0,[r4,#4]
        0x000035d4:    71a5        .q      STRB     r5,[r4,#6]
        0x000035d6:    bd30        0.      POP      {r4,r5,pc}
    $d
        0x000035d8:    00004a7e    ~J..    DCD    19070
    $t
    i.new_updateBoomData
    new_updateBoomData
        0x000035dc:    b530        0.      PUSH     {r4,r5,lr}
        0x000035de:    2200        ."      MOVS     r2,#0
        0x000035e0:    2300        .#      MOVS     r3,#0
        0x000035e2:    4d0d        .M      LDR      r5,[pc,#52] ; [0x3618] = 0x4a7e
        0x000035e4:    e013        ..      B        0x360e ; new_updateBoomData + 50
        0x000035e6:    eb0001c2    ....    ADD      r1,r0,r2,LSL #3
        0x000035ea:    790c        .y      LDRB     r4,[r1,#4]
        0x000035ec:    b174        t.      CBZ      r4,0x360c ; new_updateBoomData + 48
        0x000035ee:    798c        .y      LDRB     r4,[r1,#6]
        0x000035f0:    2c05        .,      CMP      r4,#5
        0x000035f2:    d203        ..      BCS      0x35fc ; new_updateBoomData + 32
        0x000035f4:    798c        .y      LDRB     r4,[r1,#6]
        0x000035f6:    1c64        d.      ADDS     r4,r4,#1
        0x000035f8:    718c        .q      STRB     r4,[r1,#6]
        0x000035fa:    e007        ..      B        0x360c ; new_updateBoomData + 48
        0x000035fc:    718b        .q      STRB     r3,[r1,#6]
        0x000035fe:    794c        Ly      LDRB     r4,[r1,#5]
        0x00003600:    1c64        d.      ADDS     r4,r4,#1
        0x00003602:    714c        Lq      STRB     r4,[r1,#5]
        0x00003604:    794c        Ly      LDRB     r4,[r1,#5]
        0x00003606:    2c04        .,      CMP      r4,#4
        0x00003608:    d300        ..      BCC      0x360c ; new_updateBoomData + 48
        0x0000360a:    710b        .q      STRB     r3,[r1,#4]
        0x0000360c:    1c52        R.      ADDS     r2,r2,#1
        0x0000360e:    7829        )x      LDRB     r1,[r5,#0]
        0x00003610:    428a        .B      CMP      r2,r1
        0x00003612:    dbe8        ..      BLT      0x35e6 ; new_updateBoomData + 10
        0x00003614:    bd30        0.      POP      {r4,r5,pc}
    $d
        0x00003616:    0000        ..      DCW    0
        0x00003618:    00004a7e    ~J..    DCD    19070
    $t
    i.noise_Handler
    noise_Handler
        0x0000361c:    4770        pG      BX       lr
        0x0000361e:    0000        ..      MOVS     r0,r0
    i.pulse0_Handler
    pulse0_Handler
        0x00003620:    b570        p.      PUSH     {r4-r6,lr}
        0x00003622:    4c53        SL      LDR      r4,[pc,#332] ; [0x3770] = 0x2000000a
        0x00003624:    4851        QH      LDR      r0,[pc,#324] ; [0x376c] = 0x20000001
        0x00003626:    2600        .&      MOVS     r6,#0
        0x00003628:    7821        !x      LDRB     r1,[r4,#0]
        0x0000362a:    7802        .x      LDRB     r2,[r0,#0]
        0x0000362c:    1c48        H.      ADDS     r0,r1,#1
        0x0000362e:    b2c0        ..      UXTB     r0,r0
        0x00003630:    2a00        .*      CMP      r2,#0
        0x00003632:    d022        ".      BEQ      0x367a ; pulse0_Handler + 90
        0x00003634:    2a01        .*      CMP      r2,#1
        0x00003636:    d03d        =.      BEQ      0x36b4 ; pulse0_Handler + 148
        0x00003638:    2a02        .*      CMP      r2,#2
        0x0000363a:    d11d        ..      BNE      0x3678 ; pulse0_Handler + 88
        0x0000363c:    4d4d        MM      LDR      r5,[pc,#308] ; [0x3774] = 0x20000900
        0x0000363e:    f8150021    ..!.    LDRB     r0,[r5,r1,LSL #2]
        0x00003642:    f001f91b    ....    BL       set_pulse0_00 ; 0x487c
        0x00003646:    7820         x      LDRB     r0,[r4,#0]
        0x00003648:    eb050080    ....    ADD      r0,r5,r0,LSL #2
        0x0000364c:    7840        @x      LDRB     r0,[r0,#1]
        0x0000364e:    f001f91b    ....    BL       set_pulse0_01 ; 0x4888
        0x00003652:    7820         x      LDRB     r0,[r4,#0]
        0x00003654:    eb050080    ....    ADD      r0,r5,r0,LSL #2
        0x00003658:    7880        .x      LDRB     r0,[r0,#2]
        0x0000365a:    f001f91b    ....    BL       set_pulse0_10 ; 0x4894
        0x0000365e:    7820         x      LDRB     r0,[r4,#0]
        0x00003660:    eb050080    ....    ADD      r0,r5,r0,LSL #2
        0x00003664:    78c0        .x      LDRB     r0,[r0,#3]
        0x00003666:    f001f91b    ....    BL       set_pulse0_11 ; 0x48a0
        0x0000366a:    7820         x      LDRB     r0,[r4,#0]
        0x0000366c:    1c40        @.      ADDS     r0,r0,#1
        0x0000366e:    b2c0        ..      UXTB     r0,r0
        0x00003670:    7020         p      STRB     r0,[r4,#0]
        0x00003672:    2812        .(      CMP      r0,#0x12
        0x00003674:    d300        ..      BCC      0x3678 ; pulse0_Handler + 88
        0x00003676:    7026        &p      STRB     r6,[r4,#0]
        0x00003678:    bd70        p.      POP      {r4-r6,pc}
        0x0000367a:    7020         p      STRB     r0,[r4,#0]
        0x0000367c:    4d3e        >M      LDR      r5,[pc,#248] ; [0x3778] = 0x200007dc
        0x0000367e:    f8150020    .. .    LDRB     r0,[r5,r0,LSL #2]
        0x00003682:    f001f8fb    ....    BL       set_pulse0_00 ; 0x487c
        0x00003686:    7820         x      LDRB     r0,[r4,#0]
        0x00003688:    eb050080    ....    ADD      r0,r5,r0,LSL #2
        0x0000368c:    7840        @x      LDRB     r0,[r0,#1]
        0x0000368e:    f001f8fb    ....    BL       set_pulse0_01 ; 0x4888
        0x00003692:    7820         x      LDRB     r0,[r4,#0]
        0x00003694:    eb050080    ....    ADD      r0,r5,r0,LSL #2
        0x00003698:    7880        .x      LDRB     r0,[r0,#2]
        0x0000369a:    f001f8fb    ....    BL       set_pulse0_10 ; 0x4894
        0x0000369e:    7820         x      LDRB     r0,[r4,#0]
        0x000036a0:    eb050080    ....    ADD      r0,r5,r0,LSL #2
        0x000036a4:    78c0        .x      LDRB     r0,[r0,#3]
        0x000036a6:    f001f8fb    ....    BL       set_pulse0_11 ; 0x48a0
        0x000036aa:    7820         x      LDRB     r0,[r4,#0]
        0x000036ac:    282c        ,(      CMP      r0,#0x2c
        0x000036ae:    d9e3        ..      BLS      0x3678 ; pulse0_Handler + 88
        0x000036b0:    7026        &p      STRB     r6,[r4,#0]
        0x000036b2:    bd70        p.      POP      {r4-r6,pc}
        0x000036b4:    4931        1I      LDR      r1,[pc,#196] ; [0x377c] = 0x20002c38
        0x000036b6:    7909        .y      LDRB     r1,[r1,#4]
        0x000036b8:    b309        ..      CBZ      r1,0x36fe ; pulse0_Handler + 222
        0x000036ba:    4931        1I      LDR      r1,[pc,#196] ; [0x3780] = 0x2000000e
        0x000036bc:    7809        .x      LDRB     r1,[r1,#0]
        0x000036be:    2900        .)      CMP      r1,#0
        0x000036c0:    d1f7        ..      BNE      0x36b2 ; pulse0_Handler + 146
        0x000036c2:    7020         p      STRB     r0,[r4,#0]
        0x000036c4:    4d2b        +M      LDR      r5,[pc,#172] ; [0x3774] = 0x20000900
        0x000036c6:    354c        L5      ADDS     r5,r5,#0x4c
        0x000036c8:    f8150020    .. .    LDRB     r0,[r5,r0,LSL #2]
        0x000036cc:    f001f8d6    ....    BL       set_pulse0_00 ; 0x487c
        0x000036d0:    7820         x      LDRB     r0,[r4,#0]
        0x000036d2:    eb050080    ....    ADD      r0,r5,r0,LSL #2
        0x000036d6:    7840        @x      LDRB     r0,[r0,#1]
        0x000036d8:    f001f8d6    ....    BL       set_pulse0_01 ; 0x4888
        0x000036dc:    7820         x      LDRB     r0,[r4,#0]
        0x000036de:    eb050080    ....    ADD      r0,r5,r0,LSL #2
        0x000036e2:    7880        .x      LDRB     r0,[r0,#2]
        0x000036e4:    f001f8d6    ....    BL       set_pulse0_10 ; 0x4894
        0x000036e8:    7820         x      LDRB     r0,[r4,#0]
        0x000036ea:    eb050080    ....    ADD      r0,r5,r0,LSL #2
        0x000036ee:    78c0        .x      LDRB     r0,[r0,#3]
        0x000036f0:    f001f8d6    ....    BL       set_pulse0_11 ; 0x48a0
        0x000036f4:    7820         x      LDRB     r0,[r4,#0]
        0x000036f6:    283e        >(      CMP      r0,#0x3e
        0x000036f8:    d3db        ..      BCC      0x36b2 ; pulse0_Handler + 146
        0x000036fa:    7026        &p      STRB     r6,[r4,#0]
        0x000036fc:    bd70        p.      POP      {r4-r6,pc}
        0x000036fe:    7020         p      STRB     r0,[r4,#0]
        0x00003700:    4d1c        .M      LDR      r5,[pc,#112] ; [0x3774] = 0x20000900
        0x00003702:    3d70        p=      SUBS     r5,r5,#0x70
        0x00003704:    f8150030    ..0.    LDRB     r0,[r5,r0,LSL #3]
        0x00003708:    f001f8b8    ....    BL       set_pulse0_00 ; 0x487c
        0x0000370c:    7820         x      LDRB     r0,[r4,#0]
        0x0000370e:    eb0500c0    ....    ADD      r0,r5,r0,LSL #3
        0x00003712:    7840        @x      LDRB     r0,[r0,#1]
        0x00003714:    f001f8b8    ....    BL       set_pulse0_01 ; 0x4888
        0x00003718:    7820         x      LDRB     r0,[r4,#0]
        0x0000371a:    eb0500c0    ....    ADD      r0,r5,r0,LSL #3
        0x0000371e:    7880        .x      LDRB     r0,[r0,#2]
        0x00003720:    f001f8b8    ....    BL       set_pulse0_10 ; 0x4894
        0x00003724:    7820         x      LDRB     r0,[r4,#0]
        0x00003726:    eb0500c0    ....    ADD      r0,r5,r0,LSL #3
        0x0000372a:    78c0        .x      LDRB     r0,[r0,#3]
        0x0000372c:    f001f8b8    ....    BL       set_pulse0_11 ; 0x48a0
        0x00003730:    7820         x      LDRB     r0,[r4,#0]
        0x00003732:    eb0500c0    ....    ADD      r0,r5,r0,LSL #3
        0x00003736:    7900        .y      LDRB     r0,[r0,#4]
        0x00003738:    f001f8b8    ....    BL       set_pulse1_00 ; 0x48ac
        0x0000373c:    7820         x      LDRB     r0,[r4,#0]
        0x0000373e:    eb0500c0    ....    ADD      r0,r5,r0,LSL #3
        0x00003742:    7940        @y      LDRB     r0,[r0,#5]
        0x00003744:    f001f8b8    ....    BL       set_pulse1_01 ; 0x48b8
        0x00003748:    7820         x      LDRB     r0,[r4,#0]
        0x0000374a:    eb0500c0    ....    ADD      r0,r5,r0,LSL #3
        0x0000374e:    7980        .y      LDRB     r0,[r0,#6]
        0x00003750:    f001f8b8    ....    BL       set_pulse1_10 ; 0x48c4
        0x00003754:    7820         x      LDRB     r0,[r4,#0]
        0x00003756:    eb0500c0    ....    ADD      r0,r5,r0,LSL #3
        0x0000375a:    79c0        .y      LDRB     r0,[r0,#7]
        0x0000375c:    f001f8b8    ....    BL       set_pulse1_11 ; 0x48d0
        0x00003760:    7820         x      LDRB     r0,[r4,#0]
        0x00003762:    280d        .(      CMP      r0,#0xd
        0x00003764:    d9ca        ..      BLS      0x36fc ; pulse0_Handler + 220
        0x00003766:    7026        &p      STRB     r6,[r4,#0]
        0x00003768:    bd70        p.      POP      {r4-r6,pc}
    $d
        0x0000376a:    0000        ..      DCW    0
        0x0000376c:    20000001    ...     DCD    536870913
        0x00003770:    2000000a    ...     DCD    536870922
        0x00003774:    20000900    ...     DCD    536873216
        0x00003778:    200007dc    ...     DCD    536872924
        0x0000377c:    20002c38    8,.     DCD    536882232
        0x00003780:    2000000e    ...     DCD    536870926
    $t
    i.pulse1_Handler
    pulse1_Handler
        0x00003784:    4770        pG      BX       lr
        0x00003786:    0000        ..      MOVS     r0,r0
    i.readPs2DI
    readPs2DI
        0x00003788:    4801        .H      LDR      r0,[pc,#4] ; [0x3790] = 0x40005000
        0x0000378a:    68c0        .h      LDR      r0,[r0,#0xc]
        0x0000378c:    4770        pG      BX       lr
    $d
        0x0000378e:    0000        ..      DCW    0
        0x00003790:    40005000    .P.@    DCD    1073762304
    $t
    i.read_JY61P_flag
    read_JY61P_flag
        0x00003794:    b510        ..      PUSH     {r4,lr}
        0x00003796:    4c0c        .L      LDR      r4,[pc,#48] ; [0x37c8] = 0xfffff060
        0x00003798:    4263        cB      RSBS     r3,r4,#0
        0x0000379a:    480c        .H      LDR      r0,[pc,#48] ; [0x37cc] = 0x40002000
        0x0000379c:    6801        .h      LDR      r1,[r0,#0]
        0x0000379e:    b20a        ..      SXTH     r2,r1
        0x000037a0:    6840        @h      LDR      r0,[r0,#4]
        0x000037a2:    b201        ..      SXTH     r1,r0
        0x000037a4:    2000        .       MOVS     r0,#0
        0x000037a6:    42a2        .B      CMP      r2,r4
        0x000037a8:    da01        ..      BGE      0x37ae ; read_JY61P_flag + 26
        0x000037aa:    2001        .       MOVS     r0,#1
        0x000037ac:    bd10        ..      POP      {r4,pc}
        0x000037ae:    429a        .B      CMP      r2,r3
        0x000037b0:    dd01        ..      BLE      0x37b6 ; read_JY61P_flag + 34
        0x000037b2:    2002        .       MOVS     r0,#2
        0x000037b4:    bd10        ..      POP      {r4,pc}
        0x000037b6:    42a1        .B      CMP      r1,r4
        0x000037b8:    da01        ..      BGE      0x37be ; read_JY61P_flag + 42
        0x000037ba:    2030        0       MOVS     r0,#0x30
        0x000037bc:    bd10        ..      POP      {r4,pc}
        0x000037be:    4299        .B      CMP      r1,r3
        0x000037c0:    ddfc        ..      BLE      0x37bc ; read_JY61P_flag + 40
        0x000037c2:    2040        @       MOVS     r0,#0x40
        0x000037c4:    bd10        ..      POP      {r4,pc}
    $d
        0x000037c6:    0000        ..      DCW    0
        0x000037c8:    fffff060    `...    DCD    4294963296
        0x000037cc:    40002000    . .@    DCD    1073750016
    $t
    i.read_cnn_result
    read_cnn_result
        0x000037d0:    f04f40c0    O..@    MOV      r0,#0x60000000
        0x000037d4:    6800        .h      LDR      r0,[r0,#0]
        0x000037d6:    4770        pG      BX       lr
    i.s_green_createOnePlane
    s_green_createOnePlane
        0x000037d8:    e92d41f0    -..A    PUSH     {r4-r8,lr}
        0x000037dc:    460f        .F      MOV      r7,r1
        0x000037de:    4616        .F      MOV      r6,r2
        0x000037e0:    461d        .F      MOV      r5,r3
        0x000037e2:    2400        .$      MOVS     r4,#0
        0x000037e4:    4950        PI      LDR      r1,[pc,#320] ; [0x3928] = 0x4a7a
        0x000037e6:    7809        .x      LDRB     r1,[r1,#0]
        0x000037e8:    e005        ..      B        0x37f6 ; s_green_createOnePlane + 30
        0x000037ea:    ebc41204    ....    RSB      r2,r4,r4,LSL #4
        0x000037ee:    f8102012    ...     LDRB     r2,[r0,r2,LSL #1]
        0x000037f2:    b122        ".      CBZ      r2,0x37fe ; s_green_createOnePlane + 38
        0x000037f4:    1c64        d.      ADDS     r4,r4,#1
        0x000037f6:    428c        .B      CMP      r4,r1
        0x000037f8:    dbf7        ..      BLT      0x37ea ; s_green_createOnePlane + 18
        0x000037fa:    e8bd81f0    ....    POP      {r4-r8,pc}
        0x000037fe:    ebc41104    ....    RSB      r1,r4,r4,LSL #4
        0x00003802:    2201        ."      MOVS     r2,#1
        0x00003804:    f8002011    ...     STRB     r2,[r0,r1,LSL #1]
        0x00003808:    eb000441    ..A.    ADD      r4,r0,r1,LSL #1
        0x0000380c:    f04f0800    O...    MOV      r8,#0
        0x00003810:    f8848001    ....    STRB     r8,[r4,#1]
        0x00003814:    f7fcfca0    ....    BL       rand ; 0x158
        0x00003818:    2103        .!      MOVS     r1,#3
        0x0000381a:    fb90f2f1    ....    SDIV     r2,r0,r1
        0x0000381e:    fb010012    ....    MLS      r0,r1,r2,r0
        0x00003822:    4240        @B      RSBS     r0,r0,#0
        0x00003824:    eb000080    ....    ADD      r0,r0,r0,LSL #2
        0x00003828:    eb050080    ....    ADD      r0,r5,r0,LSL #2
        0x0000382c:    383c        <8      SUBS     r0,r0,#0x3c
        0x0000382e:    80a0        ..      STRH     r0,[r4,#4]
        0x00003830:    f8848007    ....    STRB     r8,[r4,#7]
        0x00003834:    f7fcfc90    ....    BL       rand ; 0x158
        0x00003838:    eb0071d0    ...q    ADD      r1,r0,r0,LSR #31
        0x0000383c:    f0210101    !...    BIC      r1,r1,#1
        0x00003840:    1a40        @.      SUBS     r0,r0,r1
        0x00003842:    7260        `r      STRB     r0,[r4,#9]
        0x00003844:    71a7        .q      STRB     r7,[r4,#6]
        0x00003846:    79a0        .y      LDRB     r0,[r4,#6]
        0x00003848:    271e        .'      MOVS     r7,#0x1e
        0x0000384a:    b350        P.      CBZ      r0,0x38a2 ; s_green_createOnePlane + 202
        0x0000384c:    20f1        .       MOVS     r0,#0xf1
        0x0000384e:    8060        `.      STRH     r0,[r4,#2]
        0x00003850:    2004        .       MOVS     r0,#4
        0x00003852:    7720         w      STRB     r0,[r4,#0x1c]
        0x00003854:    f7fcfc80    ....    BL       rand ; 0x158
        0x00003858:    4240        @B      RSBS     r0,r0,#0
        0x0000385a:    eb0071d0    ...q    ADD      r1,r0,r0,LSR #31
        0x0000385e:    f0210101    !...    BIC      r1,r1,#1
        0x00003862:    1a40        @.      SUBS     r0,r0,r1
        0x00003864:    1e80        ..      SUBS     r0,r0,#2
        0x00003866:    7220         r      STRB     r0,[r4,#8]
        0x00003868:    f7fcfc76    ..v.    BL       rand ; 0x158
        0x0000386c:    2114        .!      MOVS     r1,#0x14
        0x0000386e:    fb90f2f1    ....    SDIV     r2,r0,r1
        0x00003872:    fb010012    ....    MLS      r0,r1,r2,r0
        0x00003876:    4430        0D      ADD      r0,r0,r6
        0x00003878:    3032        20      ADDS     r0,r0,#0x32
        0x0000387a:    81a0        ..      STRH     r0,[r4,#0xc]
        0x0000387c:    89a0        ..      LDRH     r0,[r4,#0xc]
        0x0000387e:    383c        <8      SUBS     r0,r0,#0x3c
        0x00003880:    81e0        ..      STRH     r0,[r4,#0xe]
        0x00003882:    3d14        .=      SUBS     r5,r5,#0x14
        0x00003884:    8225        %.      STRH     r5,[r4,#0x10]
        0x00003886:    f7fcfc67    ..g.    BL       rand ; 0x158
        0x0000388a:    fb90f1f7    ....    SDIV     r1,r0,r7
        0x0000388e:    fb070011    ....    MLS      r0,r7,r1,r0
        0x00003892:    8a21        !.      LDRH     r1,[r4,#0x10]
        0x00003894:    3014        .0      ADDS     r0,r0,#0x14
        0x00003896:    4408        .D      ADD      r0,r0,r1
        0x00003898:    8260        `.      STRH     r0,[r4,#0x12]
        0x0000389a:    89e0        ..      LDRH     r0,[r4,#0xe]
        0x0000389c:    301e        .0      ADDS     r0,r0,#0x1e
        0x0000389e:    82a0        ..      STRH     r0,[r4,#0x14]
        0x000038a0:    e7ab        ..      B        0x37fa ; s_green_createOnePlane + 34
        0x000038a2:    200f        .       MOVS     r0,#0xf
        0x000038a4:    8060        `.      STRH     r0,[r4,#2]
        0x000038a6:    f884801c    ....    STRB     r8,[r4,#0x1c]
        0x000038aa:    f7fcfc55    ..U.    BL       rand ; 0x158
        0x000038ae:    eb0071d0    ...q    ADD      r1,r0,r0,LSR #31
        0x000038b2:    f0210101    !...    BIC      r1,r1,#1
        0x000038b6:    1a40        @.      SUBS     r0,r0,r1
        0x000038b8:    1c80        ..      ADDS     r0,r0,#2
        0x000038ba:    7220         r      STRB     r0,[r4,#8]
        0x000038bc:    f7fcfc4c    ..L.    BL       rand ; 0x158
        0x000038c0:    eb000080    ....    ADD      r0,r0,r0,LSL #2
        0x000038c4:    0040        @.      LSLS     r0,r0,#1
        0x000038c6:    eb0071d0    ...q    ADD      r1,r0,r0,LSR #31
        0x000038ca:    f0210101    !...    BIC      r1,r1,#1
        0x000038ce:    1a40        @.      SUBS     r0,r0,r1
        0x000038d0:    4430        0D      ADD      r0,r0,r6
        0x000038d2:    3832        28      SUBS     r0,r0,#0x32
        0x000038d4:    81a0        ..      STRH     r0,[r4,#0xc]
        0x000038d6:    f7fcfc3f    ..?.    BL       rand ; 0x158
        0x000038da:    eb000080    ....    ADD      r0,r0,r0,LSL #2
        0x000038de:    0080        ..      LSLS     r0,r0,#2
        0x000038e0:    eb0071d0    ...q    ADD      r1,r0,r0,LSR #31
        0x000038e4:    f0210101    !...    BIC      r1,r1,#1
        0x000038e8:    1a40        @.      SUBS     r0,r0,r1
        0x000038ea:    89a1        ..      LDRH     r1,[r4,#0xc]
        0x000038ec:    301e        .0      ADDS     r0,r0,#0x1e
        0x000038ee:    4408        .D      ADD      r0,r0,r1
        0x000038f0:    81e0        ..      STRH     r0,[r4,#0xe]
        0x000038f2:    f7fcfc31    ..1.    BL       rand ; 0x158
        0x000038f6:    eb000080    ....    ADD      r0,r0,r0,LSL #2
        0x000038fa:    0080        ..      LSLS     r0,r0,#2
        0x000038fc:    eb0071d0    ...q    ADD      r1,r0,r0,LSR #31
        0x00003900:    f0210101    !...    BIC      r1,r1,#1
        0x00003904:    1a40        @.      SUBS     r0,r0,r1
        0x00003906:    1a28        (.      SUBS     r0,r5,r0
        0x00003908:    3814        .8      SUBS     r0,r0,#0x14
        0x0000390a:    8220         .      STRH     r0,[r4,#0x10]
        0x0000390c:    f7fcfc24    ..$.    BL       rand ; 0x158
        0x00003910:    fb90f1f7    ....    SDIV     r1,r0,r7
        0x00003914:    fb070011    ....    MLS      r0,r7,r1,r0
        0x00003918:    8a21        !.      LDRH     r1,[r4,#0x10]
        0x0000391a:    3014        .0      ADDS     r0,r0,#0x14
        0x0000391c:    4408        .D      ADD      r0,r0,r1
        0x0000391e:    8260        `.      STRH     r0,[r4,#0x12]
        0x00003920:    89e0        ..      LDRH     r0,[r4,#0xe]
        0x00003922:    381e        .8      SUBS     r0,r0,#0x1e
        0x00003924:    82a0        ..      STRH     r0,[r4,#0x14]
        0x00003926:    e768        h.      B        0x37fa ; s_green_createOnePlane + 34
    $d
        0x00003928:    00004a7a    zJ..    DCD    19066
    $t
    i.s_green_createPlane_221
    s_green_createPlane_221
        0x0000392c:    e92d41f0    -..A    PUSH     {r4-r8,lr}
        0x00003930:    4606        .F      MOV      r6,r0
        0x00003932:    460f        .F      MOV      r7,r1
        0x00003934:    4615        .F      MOV      r5,r2
        0x00003936:    f7fcfc0f    ....    BL       rand ; 0x158
        0x0000393a:    eb0071d0    ...q    ADD      r1,r0,r0,LSR #31
        0x0000393e:    f0210101    !...    BIC      r1,r1,#1
        0x00003942:    1a40        @.      SUBS     r0,r0,r1
        0x00003944:    b2c4        ..      UXTB     r4,r0
        0x00003946:    462b        +F      MOV      r3,r5
        0x00003948:    463a        :F      MOV      r2,r7
        0x0000394a:    4621        !F      MOV      r1,r4
        0x0000394c:    4630        0F      MOV      r0,r6
        0x0000394e:    f7ffff43    ..C.    BL       s_green_createOnePlane ; 0x37d8
        0x00003952:    3514        .5      ADDS     r5,r5,#0x14
        0x00003954:    b22b        +.      SXTH     r3,r5
        0x00003956:    463a        :F      MOV      r2,r7
        0x00003958:    4621        !F      MOV      r1,r4
        0x0000395a:    4630        0F      MOV      r0,r6
        0x0000395c:    e8bd41f0    ...A    POP      {r4-r8,lr}
        0x00003960:    f7ffbf3a    ..:.    B.W      s_green_createOnePlane ; 0x37d8
    i.s_green_createPlane_222
    s_green_createPlane_222
        0x00003964:    e92d41f0    -..A    PUSH     {r4-r8,lr}
        0x00003968:    4607        .F      MOV      r7,r0
        0x0000396a:    460d        .F      MOV      r5,r1
        0x0000396c:    4616        .F      MOV      r6,r2
        0x0000396e:    f7fcfbf3    ....    BL       rand ; 0x158
        0x00003972:    eb0071d0    ...q    ADD      r1,r0,r0,LSR #31
        0x00003976:    f0210101    !...    BIC      r1,r1,#1
        0x0000397a:    1a40        @.      SUBS     r0,r0,r1
        0x0000397c:    b2c1        ..      UXTB     r1,r0
        0x0000397e:    2901        .)      CMP      r1,#1
        0x00003980:    d001        ..      BEQ      0x3986 ; s_green_createPlane_222 + 34
        0x00003982:    2401        .$      MOVS     r4,#1
        0x00003984:    e000        ..      B        0x3988 ; s_green_createPlane_222 + 36
        0x00003986:    2400        .$      MOVS     r4,#0
        0x00003988:    4633        3F      MOV      r3,r6
        0x0000398a:    462a        *F      MOV      r2,r5
        0x0000398c:    4638        8F      MOV      r0,r7
        0x0000398e:    f7ffff23    ..#.    BL       s_green_createOnePlane ; 0x37d8
        0x00003992:    4633        3F      MOV      r3,r6
        0x00003994:    462a        *F      MOV      r2,r5
        0x00003996:    4621        !F      MOV      r1,r4
        0x00003998:    4638        8F      MOV      r0,r7
        0x0000399a:    e8bd41f0    ...A    POP      {r4-r8,lr}
        0x0000399e:    f7ffbf1b    ....    B.W      s_green_createOnePlane ; 0x37d8
    i.s_green_createPlane_243
    s_green_createPlane_243
        0x000039a2:    e92d41f0    -..A    PUSH     {r4-r8,lr}
        0x000039a6:    4606        .F      MOV      r6,r0
        0x000039a8:    460f        .F      MOV      r7,r1
        0x000039aa:    4615        .F      MOV      r5,r2
        0x000039ac:    462a        *F      MOV      r2,r5
        0x000039ae:    4639        9F      MOV      r1,r7
        0x000039b0:    4630        0F      MOV      r0,r6
        0x000039b2:    f7ffffd7    ....    BL       s_green_createPlane_222 ; 0x3964
        0x000039b6:    f7fcfbcf    ....    BL       rand ; 0x158
        0x000039ba:    eb0071d0    ...q    ADD      r1,r0,r0,LSR #31
        0x000039be:    f0210101    !...    BIC      r1,r1,#1
        0x000039c2:    1a40        @.      SUBS     r0,r0,r1
        0x000039c4:    b2c4        ..      UXTB     r4,r0
        0x000039c6:    f7fcfbc7    ....    BL       rand ; 0x158
        0x000039ca:    eb0071d0    ...q    ADD      r1,r0,r0,LSR #31
        0x000039ce:    f0210101    !...    BIC      r1,r1,#1
        0x000039d2:    1a40        @.      SUBS     r0,r0,r1
        0x000039d4:    f00008ff    ....    AND      r8,r0,#0xff
        0x000039d8:    462b        +F      MOV      r3,r5
        0x000039da:    463a        :F      MOV      r2,r7
        0x000039dc:    4621        !F      MOV      r1,r4
        0x000039de:    4630        0F      MOV      r0,r6
        0x000039e0:    f7fffefa    ....    BL       s_green_createOnePlane ; 0x37d8
        0x000039e4:    462b        +F      MOV      r3,r5
        0x000039e6:    463a        :F      MOV      r2,r7
        0x000039e8:    4641        AF      MOV      r1,r8
        0x000039ea:    4630        0F      MOV      r0,r6
        0x000039ec:    e8bd41f0    ...A    POP      {r4-r8,lr}
        0x000039f0:    f7ffbef2    ....    B.W      s_green_createOnePlane ; 0x37d8
    i.s_green_createPlane_411
    s_green_createPlane_411
        0x000039f4:    b510        ..      PUSH     {r4,lr}
        0x000039f6:    4604        .F      MOV      r4,r0
        0x000039f8:    f7fcfbae    ....    BL       rand ; 0x158
        0x000039fc:    eb0071d0    ...q    ADD      r1,r0,r0,LSR #31
        0x00003a00:    f0210101    !...    BIC      r1,r1,#1
        0x00003a04:    1a40        @.      SUBS     r0,r0,r1
        0x00003a06:    b2c0        ..      UXTB     r0,r0
        0x00003a08:    b128        (.      CBZ      r0,0x3a16 ; s_green_createPlane_411 + 34
        0x00003a0a:    21d0        .!      MOVS     r1,#0xd0
        0x00003a0c:    4620         F      MOV      r0,r4
        0x00003a0e:    e8bd4010    ...@    POP      {r4,lr}
        0x00003a12:    f7feb8af    ....    B        m_straight_createOnePlane ; 0x1b74
        0x00003a16:    2130        0!      MOVS     r1,#0x30
        0x00003a18:    e7f8        ..      B        0x3a0c ; s_green_createPlane_411 + 24
    i.s_green_createPlane_422
    s_green_createPlane_422
        0x00003a1a:    b570        p.      PUSH     {r4-r6,lr}
        0x00003a1c:    4605        .F      MOV      r5,r0
        0x00003a1e:    f7fcfb9b    ....    BL       rand ; 0x158
        0x00003a22:    eb0071d0    ...q    ADD      r1,r0,r0,LSR #31
        0x00003a26:    f0210101    !...    BIC      r1,r1,#1
        0x00003a2a:    1a40        @.      SUBS     r0,r0,r1
        0x00003a2c:    b2c4        ..      UXTB     r4,r0
        0x00003a2e:    b15c        \.      CBZ      r4,0x3a48 ; s_green_createPlane_422 + 46
        0x00003a30:    21d0        .!      MOVS     r1,#0xd0
        0x00003a32:    4628        (F      MOV      r0,r5
        0x00003a34:    f7fef89e    ....    BL       m_straight_createOnePlane ; 0x1b74
        0x00003a38:    2c01        .,      CMP      r4,#1
        0x00003a3a:    d007        ..      BEQ      0x3a4c ; s_green_createPlane_422 + 50
        0x00003a3c:    21d0        .!      MOVS     r1,#0xd0
        0x00003a3e:    4628        (F      MOV      r0,r5
        0x00003a40:    e8bd4070    ..p@    POP      {r4-r6,lr}
        0x00003a44:    f7feb896    ....    B        m_straight_createOnePlane ; 0x1b74
        0x00003a48:    2130        0!      MOVS     r1,#0x30
        0x00003a4a:    e7f2        ..      B        0x3a32 ; s_green_createPlane_422 + 24
        0x00003a4c:    2130        0!      MOVS     r1,#0x30
        0x00003a4e:    e7f6        ..      B        0x3a3e ; s_green_createPlane_422 + 36
    i.s_green_drawPlane
    s_green_drawPlane
        0x00003a50:    e92d4ff8    -..O    PUSH     {r3-r11,lr}
        0x00003a54:    4607        .F      MOV      r7,r0
        0x00003a56:    460d        .F      MOV      r5,r1
        0x00003a58:    2600        .&      MOVS     r6,#0
        0x00003a5a:    f04f0820    O. .    MOV      r8,#0x20
        0x00003a5e:    f8df9214    ....    LDR      r9,[pc,#532] ; [0x3c74] = 0x4a7a
        0x00003a62:    e0ff        ..      B        0x3c64 ; s_green_drawPlane + 532
        0x00003a64:    ebc61106    ....    RSB      r1,r6,r6,LSL #4
        0x00003a68:    f8170011    ....    LDRB     r0,[r7,r1,LSL #1]
        0x00003a6c:    2800        .(      CMP      r0,#0
        0x00003a6e:    d033        3.      BEQ      0x3ad8 ; s_green_drawPlane + 136
        0x00003a70:    eb070441    ..A.    ADD      r4,r7,r1,LSL #1
        0x00003a74:    7f20         .      LDRB     r0,[r4,#0x1c]
        0x00003a76:    2805        .(      CMP      r0,#5
        0x00003a78:    d22e        ..      BCS      0x3ad8 ; s_green_drawPlane + 136
        0x00003a7a:    e8dff000    ....    TBB      [pc,r0]
    $d
        0x00003a7e:    2e03        ..      DCW    11779
        0x00003a80:    00ca9269    i...    DCD    13275753
    $t
        0x00003a84:    f04f0a60    O.`.    MOV      r10,#0x60
        0x00003a88:    f8cda000    ....    STR      r10,[sp,#0]
        0x00003a8c:    88a0        ..      LDRH     r0,[r4,#4]
        0x00003a8e:    b2c2        ..      UXTB     r2,r0
        0x00003a90:    8860        `.      LDRH     r0,[r4,#2]
        0x00003a92:    2359        Y#      MOVS     r3,#0x59
        0x00003a94:    b2c1        ..      UXTB     r1,r0
        0x00003a96:    7828        (x      LDRB     r0,[r5,#0]
        0x00003a98:    f000ffdc    ....    BL       writeOneSprite ; 0x4a54
        0x00003a9c:    f8cda000    ....    STR      r10,[sp,#0]
        0x00003aa0:    88a0        ..      LDRH     r0,[r4,#4]
        0x00003aa2:    1dc0        ..      ADDS     r0,r0,#7
        0x00003aa4:    b2c2        ..      UXTB     r2,r0
        0x00003aa6:    8860        `.      LDRH     r0,[r4,#2]
        0x00003aa8:    235a        Z#      MOVS     r3,#0x5a
        0x00003aaa:    b2c1        ..      UXTB     r1,r0
        0x00003aac:    7828        (x      LDRB     r0,[r5,#0]
        0x00003aae:    1c40        @.      ADDS     r0,r0,#1
        0x00003ab0:    b2c0        ..      UXTB     r0,r0
        0x00003ab2:    f000ffcf    ....    BL       writeOneSprite ; 0x4a54
        0x00003ab6:    f8cda000    ....    STR      r10,[sp,#0]
        0x00003aba:    88a0        ..      LDRH     r0,[r4,#4]
        0x00003abc:    1cc0        ..      ADDS     r0,r0,#3
        0x00003abe:    b2c2        ..      UXTB     r2,r0
        0x00003ac0:    8860        `.      LDRH     r0,[r4,#2]
        0x00003ac2:    235b        [#      MOVS     r3,#0x5b
        0x00003ac4:    3808        .8      SUBS     r0,r0,#8
        0x00003ac6:    b2c1        ..      UXTB     r1,r0
        0x00003ac8:    7828        (x      LDRB     r0,[r5,#0]
        0x00003aca:    1c80        ..      ADDS     r0,r0,#2
        0x00003acc:    b2c0        ..      UXTB     r0,r0
        0x00003ace:    f000ffc1    ....    BL       writeOneSprite ; 0x4a54
        0x00003ad2:    7828        (x      LDRB     r0,[r5,#0]
        0x00003ad4:    1cc0        ..      ADDS     r0,r0,#3
        0x00003ad6:    7028        (p      STRB     r0,[r5,#0]
        0x00003ad8:    e0c3        ..      B        0x3c62 ; s_green_drawPlane + 530
        0x00003ada:    f04f0aa0    O...    MOV      r10,#0xa0
        0x00003ade:    f8cda000    ....    STR      r10,[sp,#0]
        0x00003ae2:    88a0        ..      LDRH     r0,[r4,#4]
        0x00003ae4:    1c40        @.      ADDS     r0,r0,#1
        0x00003ae6:    b2c2        ..      UXTB     r2,r0
        0x00003ae8:    8860        `.      LDRH     r0,[r4,#2]
        0x00003aea:    235e        ^#      MOVS     r3,#0x5e
        0x00003aec:    1c40        @.      ADDS     r0,r0,#1
        0x00003aee:    b2c1        ..      UXTB     r1,r0
        0x00003af0:    7828        (x      LDRB     r0,[r5,#0]
        0x00003af2:    f000ffaf    ....    BL       writeOneSprite ; 0x4a54
        0x00003af6:    f8cda000    ....    STR      r10,[sp,#0]
        0x00003afa:    88a0        ..      LDRH     r0,[r4,#4]
        0x00003afc:    1c40        @.      ADDS     r0,r0,#1
        0x00003afe:    b2c2        ..      UXTB     r2,r0
        0x00003b00:    8860        `.      LDRH     r0,[r4,#2]
        0x00003b02:    235f        _#      MOVS     r3,#0x5f
        0x00003b04:    3008        .0      ADDS     r0,r0,#8
        0x00003b06:    b2c1        ..      UXTB     r1,r0
        0x00003b08:    7828        (x      LDRB     r0,[r5,#0]
        0x00003b0a:    1c40        @.      ADDS     r0,r0,#1
        0x00003b0c:    b2c0        ..      UXTB     r0,r0
        0x00003b0e:    f000ffa1    ....    BL       writeOneSprite ; 0x4a54
        0x00003b12:    f8cda000    ....    STR      r10,[sp,#0]
        0x00003b16:    88a0        ..      LDRH     r0,[r4,#4]
        0x00003b18:    3008        .0      ADDS     r0,r0,#8
        0x00003b1a:    b2c2        ..      UXTB     r2,r0
        0x00003b1c:    8860        `.      LDRH     r0,[r4,#2]
        0x00003b1e:    235c        \#      MOVS     r3,#0x5c
        0x00003b20:    b2c1        ..      UXTB     r1,r0
        0x00003b22:    7828        (x      LDRB     r0,[r5,#0]
        0x00003b24:    1c80        ..      ADDS     r0,r0,#2
        0x00003b26:    b2c0        ..      UXTB     r0,r0
        0x00003b28:    f000ff94    ....    BL       writeOneSprite ; 0x4a54
        0x00003b2c:    f8cda000    ....    STR      r10,[sp,#0]
        0x00003b30:    88a0        ..      LDRH     r0,[r4,#4]
        0x00003b32:    3008        .0      ADDS     r0,r0,#8
        0x00003b34:    b2c2        ..      UXTB     r2,r0
        0x00003b36:    8860        `.      LDRH     r0,[r4,#2]
        0x00003b38:    235d        ]#      MOVS     r3,#0x5d
        0x00003b3a:    3008        .0      ADDS     r0,r0,#8
        0x00003b3c:    b2c1        ..      UXTB     r1,r0
        0x00003b3e:    7828        (x      LDRB     r0,[r5,#0]
        0x00003b40:    1cc0        ..      ADDS     r0,r0,#3
        0x00003b42:    b2c0        ..      UXTB     r0,r0
        0x00003b44:    f000ff86    ....    BL       writeOneSprite ; 0x4a54
        0x00003b48:    7828        (x      LDRB     r0,[r5,#0]
        0x00003b4a:    1d00        ..      ADDS     r0,r0,#4
        0x00003b4c:    7028        (p      STRB     r0,[r5,#0]
        0x00003b4e:    e088        ..      B        0x3c62 ; s_green_drawPlane + 530
        0x00003b50:    f8cd8000    ....    STR      r8,[sp,#0]
        0x00003b54:    88a0        ..      LDRH     r0,[r4,#4]
        0x00003b56:    b2c2        ..      UXTB     r2,r0
        0x00003b58:    8860        `.      LDRH     r0,[r4,#2]
        0x00003b5a:    2340        @#      MOVS     r3,#0x40
        0x00003b5c:    b2c1        ..      UXTB     r1,r0
        0x00003b5e:    7828        (x      LDRB     r0,[r5,#0]
        0x00003b60:    f000ff78    ..x.    BL       writeOneSprite ; 0x4a54
        0x00003b64:    f8cd8000    ....    STR      r8,[sp,#0]
        0x00003b68:    88a0        ..      LDRH     r0,[r4,#4]
        0x00003b6a:    b2c2        ..      UXTB     r2,r0
        0x00003b6c:    8860        `.      LDRH     r0,[r4,#2]
        0x00003b6e:    2341        A#      MOVS     r3,#0x41
        0x00003b70:    3008        .0      ADDS     r0,r0,#8
        0x00003b72:    b2c1        ..      UXTB     r1,r0
        0x00003b74:    7828        (x      LDRB     r0,[r5,#0]
        0x00003b76:    1c40        @.      ADDS     r0,r0,#1
        0x00003b78:    b2c0        ..      UXTB     r0,r0
        0x00003b7a:    f000ff6b    ..k.    BL       writeOneSprite ; 0x4a54
        0x00003b7e:    f8cd8000    ....    STR      r8,[sp,#0]
        0x00003b82:    88a0        ..      LDRH     r0,[r4,#4]
        0x00003b84:    3808        .8      SUBS     r0,r0,#8
        0x00003b86:    b2c2        ..      UXTB     r2,r0
        0x00003b88:    8860        `.      LDRH     r0,[r4,#2]
        0x00003b8a:    2342        B#      MOVS     r3,#0x42
        0x00003b8c:    1d00        ..      ADDS     r0,r0,#4
        0x00003b8e:    b2c1        ..      UXTB     r1,r0
        0x00003b90:    7828        (x      LDRB     r0,[r5,#0]
        0x00003b92:    1c80        ..      ADDS     r0,r0,#2
        0x00003b94:    b2c0        ..      UXTB     r0,r0
        0x00003b96:    f000ff5d    ..].    BL       writeOneSprite ; 0x4a54
        0x00003b9a:    7828        (x      LDRB     r0,[r5,#0]
        0x00003b9c:    1cc0        ..      ADDS     r0,r0,#3
        0x00003b9e:    7028        (p      STRB     r0,[r5,#0]
        0x00003ba0:    e05f        _.      B        0x3c62 ; s_green_drawPlane + 530
        0x00003ba2:    f04f0ae0    O...    MOV      r10,#0xe0
        0x00003ba6:    f8cda000    ....    STR      r10,[sp,#0]
        0x00003baa:    88a0        ..      LDRH     r0,[r4,#4]
        0x00003bac:    b2c2        ..      UXTB     r2,r0
        0x00003bae:    8860        `.      LDRH     r0,[r4,#2]
        0x00003bb0:    235f        _#      MOVS     r3,#0x5f
        0x00003bb2:    b2c1        ..      UXTB     r1,r0
        0x00003bb4:    7828        (x      LDRB     r0,[r5,#0]
        0x00003bb6:    f000ff4d    ..M.    BL       writeOneSprite ; 0x4a54
        0x00003bba:    f8cda000    ....    STR      r10,[sp,#0]
        0x00003bbe:    88a0        ..      LDRH     r0,[r4,#4]
        0x00003bc0:    b2c2        ..      UXTB     r2,r0
        0x00003bc2:    8860        `.      LDRH     r0,[r4,#2]
        0x00003bc4:    235e        ^#      MOVS     r3,#0x5e
        0x00003bc6:    3008        .0      ADDS     r0,r0,#8
        0x00003bc8:    b2c1        ..      UXTB     r1,r0
        0x00003bca:    7828        (x      LDRB     r0,[r5,#0]
        0x00003bcc:    1c40        @.      ADDS     r0,r0,#1
        0x00003bce:    b2c0        ..      UXTB     r0,r0
        0x00003bd0:    f000ff40    ..@.    BL       writeOneSprite ; 0x4a54
        0x00003bd4:    f8cda000    ....    STR      r10,[sp,#0]
        0x00003bd8:    88a0        ..      LDRH     r0,[r4,#4]
        0x00003bda:    3008        .0      ADDS     r0,r0,#8
        0x00003bdc:    b2c2        ..      UXTB     r2,r0
        0x00003bde:    8860        `.      LDRH     r0,[r4,#2]
        0x00003be0:    235d        ]#      MOVS     r3,#0x5d
        0x00003be2:    b2c1        ..      UXTB     r1,r0
        0x00003be4:    7828        (x      LDRB     r0,[r5,#0]
        0x00003be6:    1c80        ..      ADDS     r0,r0,#2
        0x00003be8:    b2c0        ..      UXTB     r0,r0
        0x00003bea:    f000ff33    ..3.    BL       writeOneSprite ; 0x4a54
        0x00003bee:    f8cda000    ....    STR      r10,[sp,#0]
        0x00003bf2:    88a0        ..      LDRH     r0,[r4,#4]
        0x00003bf4:    3008        .0      ADDS     r0,r0,#8
        0x00003bf6:    b2c2        ..      UXTB     r2,r0
        0x00003bf8:    8860        `.      LDRH     r0,[r4,#2]
        0x00003bfa:    235c        \#      MOVS     r3,#0x5c
        0x00003bfc:    3008        .0      ADDS     r0,r0,#8
        0x00003bfe:    b2c1        ..      UXTB     r1,r0
        0x00003c00:    7828        (x      LDRB     r0,[r5,#0]
        0x00003c02:    1cc0        ..      ADDS     r0,r0,#3
        0x00003c04:    b2c0        ..      UXTB     r0,r0
        0x00003c06:    f000ff25    ..%.    BL       writeOneSprite ; 0x4a54
        0x00003c0a:    7828        (x      LDRB     r0,[r5,#0]
        0x00003c0c:    1d00        ..      ADDS     r0,r0,#4
        0x00003c0e:    7028        (p      STRB     r0,[r5,#0]
        0x00003c10:    e027        '.      B        0x3c62 ; s_green_drawPlane + 530
        0x00003c12:    f8cd8000    ....    STR      r8,[sp,#0]
        0x00003c16:    88a0        ..      LDRH     r0,[r4,#4]
        0x00003c18:    b2c2        ..      UXTB     r2,r0
        0x00003c1a:    8860        `.      LDRH     r0,[r4,#2]
        0x00003c1c:    2359        Y#      MOVS     r3,#0x59
        0x00003c1e:    b2c1        ..      UXTB     r1,r0
        0x00003c20:    7828        (x      LDRB     r0,[r5,#0]
        0x00003c22:    f000ff17    ....    BL       writeOneSprite ; 0x4a54
        0x00003c26:    f8cd8000    ....    STR      r8,[sp,#0]
        0x00003c2a:    88a0        ..      LDRH     r0,[r4,#4]
        0x00003c2c:    1dc0        ..      ADDS     r0,r0,#7
        0x00003c2e:    b2c2        ..      UXTB     r2,r0
        0x00003c30:    8860        `.      LDRH     r0,[r4,#2]
        0x00003c32:    235a        Z#      MOVS     r3,#0x5a
        0x00003c34:    b2c1        ..      UXTB     r1,r0
        0x00003c36:    7828        (x      LDRB     r0,[r5,#0]
        0x00003c38:    1c40        @.      ADDS     r0,r0,#1
        0x00003c3a:    b2c0        ..      UXTB     r0,r0
        0x00003c3c:    f000ff0a    ....    BL       writeOneSprite ; 0x4a54
        0x00003c40:    f8cd8000    ....    STR      r8,[sp,#0]
        0x00003c44:    88a0        ..      LDRH     r0,[r4,#4]
        0x00003c46:    1cc0        ..      ADDS     r0,r0,#3
        0x00003c48:    b2c2        ..      UXTB     r2,r0
        0x00003c4a:    8860        `.      LDRH     r0,[r4,#2]
        0x00003c4c:    235b        [#      MOVS     r3,#0x5b
        0x00003c4e:    3008        .0      ADDS     r0,r0,#8
        0x00003c50:    b2c1        ..      UXTB     r1,r0
        0x00003c52:    7828        (x      LDRB     r0,[r5,#0]
        0x00003c54:    1c80        ..      ADDS     r0,r0,#2
        0x00003c56:    b2c0        ..      UXTB     r0,r0
        0x00003c58:    f000fefc    ....    BL       writeOneSprite ; 0x4a54
        0x00003c5c:    7828        (x      LDRB     r0,[r5,#0]
        0x00003c5e:    1cc0        ..      ADDS     r0,r0,#3
        0x00003c60:    7028        (p      STRB     r0,[r5,#0]
        0x00003c62:    1c76        v.      ADDS     r6,r6,#1
        0x00003c64:    f8990000    ....    LDRB     r0,[r9,#0]
        0x00003c68:    4286        .B      CMP      r6,r0
        0x00003c6a:    f6ffaefb    ....    BLT      0x3a64 ; s_green_drawPlane + 20
        0x00003c6e:    e8bd8ff8    ....    POP      {r3-r11,pc}
    $d
        0x00003c72:    0000        ..      DCW    0
        0x00003c74:    00004a7a    zJ..    DCD    19066
    $t
    i.s_green_movePlane
    s_green_movePlane
        0x00003c78:    e92d5ff0    -.._    PUSH     {r4-r12,lr}
        0x00003c7c:    4681        .F      MOV      r9,r0
        0x00003c7e:    2500        .%      MOVS     r5,#0
        0x00003c80:    2703        .'      MOVS     r7,#3
        0x00003c82:    f04f0b02    O...    MOV      r11,#2
        0x00003c86:    f04f0801    O...    MOV      r8,#1
        0x00003c8a:    2600        .&      MOVS     r6,#0
        0x00003c8c:    f04f0a04    O...    MOV      r10,#4
        0x00003c90:    e00d        ..      B        0x3cae ; s_green_movePlane + 54
        0x00003c92:    ebc51005    ....    RSB      r0,r5,r5,LSL #4
        0x00003c96:    f8191010    ....    LDRB     r1,[r9,r0,LSL #1]
        0x00003c9a:    b139        9.      CBZ      r1,0x3cac ; s_green_movePlane + 52
        0x00003c9c:    eb090440    ..@.    ADD      r4,r9,r0,LSL #1
        0x00003ca0:    7861        ax      LDRB     r1,[r4,#1]
        0x00003ca2:    2902        .)      CMP      r1,#2
        0x00003ca4:    d009        ..      BEQ      0x3cba ; s_green_movePlane + 66
        0x00003ca6:    7860        `x      LDRB     r0,[r4,#1]
        0x00003ca8:    1c40        @.      ADDS     r0,r0,#1
        0x00003caa:    7060        `p      STRB     r0,[r4,#1]
        0x00003cac:    1c6d        m.      ADDS     r5,r5,#1
        0x00003cae:    48a9        .H      LDR      r0,[pc,#676] ; [0x3f54] = 0x4a7a
        0x00003cb0:    7800        .x      LDRB     r0,[r0,#0]
        0x00003cb2:    4285        .B      CMP      r5,r0
        0x00003cb4:    dbed        ..      BLT      0x3c92 ; s_green_movePlane + 26
        0x00003cb6:    e8bd9ff0    ....    POP      {r4-r12,pc}
        0x00003cba:    7066        fp      STRB     r6,[r4,#1]
        0x00003cbc:    f9b41002    ....    LDRSH    r1,[r4,#2]
        0x00003cc0:    2905        .)      CMP      r1,#5
        0x00003cc2:    db0b        ..      BLT      0x3cdc ; s_green_movePlane + 100
        0x00003cc4:    f9b41002    ....    LDRSH    r1,[r4,#2]
        0x00003cc8:    29fb        .)      CMP      r1,#0xfb
        0x00003cca:    dc07        ..      BGT      0x3cdc ; s_green_movePlane + 100
        0x00003ccc:    f9b41004    ....    LDRSH    r1,[r4,#4]
        0x00003cd0:    290a        .)      CMP      r1,#0xa
        0x00003cd2:    db03        ..      BLT      0x3cdc ; s_green_movePlane + 100
        0x00003cd4:    f9b41004    ....    LDRSH    r1,[r4,#4]
        0x00003cd8:    29e6        .)      CMP      r1,#0xe6
        0x00003cda:    dd02        ..      BLE      0x3ce2 ; s_green_movePlane + 106
        0x00003cdc:    f8096010    ...`    STRB     r6,[r9,r0,LSL #1]
        0x00003ce0:    e7e4        ..      B        0x3cac ; s_green_movePlane + 52
        0x00003ce2:    79e0        .y      LDRB     r0,[r4,#7]
        0x00003ce4:    b160        `.      CBZ      r0,0x3d00 ; s_green_movePlane + 136
        0x00003ce6:    79e0        .y      LDRB     r0,[r4,#7]
        0x00003ce8:    2801        .(      CMP      r0,#1
        0x00003cea:    d1df        ..      BNE      0x3cac ; s_green_movePlane + 52
        0x00003cec:    79a0        .y      LDRB     r0,[r4,#6]
        0x00003cee:    b358        X.      CBZ      r0,0x3d48 ; s_green_movePlane + 208
        0x00003cf0:    7aa0        .z      LDRB     r0,[r4,#0xa]
        0x00003cf2:    2805        .(      CMP      r0,#5
        0x00003cf4:    d2da        ..      BCS      0x3cac ; s_green_movePlane + 52
        0x00003cf6:    e8dff000    ....    TBB      [pc,r0]
    $d
        0x00003cfa:    c5ae        ..      DCW    50606
        0x00003cfc:    00f4f6e5    ....    DCD    16053989
    $t
        0x00003d00:    79a0        .y      LDRB     r0,[r4,#6]
        0x00003d02:    b948        H.      CBNZ     r0,0x3d18 ; s_green_movePlane + 160
        0x00003d04:    f9b40002    ....    LDRSH    r0,[r4,#2]
        0x00003d08:    f9b4100c    ....    LDRSH    r1,[r4,#0xc]
        0x00003d0c:    4288        .B      CMP      r0,r1
        0x00003d0e:    db03        ..      BLT      0x3d18 ; s_green_movePlane + 160
        0x00003d10:    f8848007    ....    STRB     r8,[r4,#7]
        0x00003d14:    72a6        .r      STRB     r6,[r4,#0xa]
        0x00003d16:    e7c9        ..      B        0x3cac ; s_green_movePlane + 52
        0x00003d18:    79a0        .y      LDRB     r0,[r4,#6]
        0x00003d1a:    2801        .(      CMP      r0,#1
        0x00003d1c:    d109        ..      BNE      0x3d32 ; s_green_movePlane + 186
        0x00003d1e:    f9b40002    ....    LDRSH    r0,[r4,#2]
        0x00003d22:    f9b4100c    ....    LDRSH    r1,[r4,#0xc]
        0x00003d26:    4288        .B      CMP      r0,r1
        0x00003d28:    dc03        ..      BGT      0x3d32 ; s_green_movePlane + 186
        0x00003d2a:    f8848007    ....    STRB     r8,[r4,#7]
        0x00003d2e:    72a6        .r      STRB     r6,[r4,#0xa]
        0x00003d30:    e7bc        ..      B        0x3cac ; s_green_movePlane + 52
        0x00003d32:    8860        `.      LDRH     r0,[r4,#2]
        0x00003d34:    f9941008    ....    LDRSB    r1,[r4,#8]
        0x00003d38:    4408        .D      ADD      r0,r0,r1
        0x00003d3a:    8060        `.      STRH     r0,[r4,#2]
        0x00003d3c:    88a0        ..      LDRH     r0,[r4,#4]
        0x00003d3e:    f9941009    ....    LDRSB    r1,[r4,#9]
        0x00003d42:    4408        .D      ADD      r0,r0,r1
        0x00003d44:    80a0        ..      STRH     r0,[r4,#4]
        0x00003d46:    e7b1        ..      B        0x3cac ; s_green_movePlane + 52
        0x00003d48:    7aa0        .z      LDRB     r0,[r4,#0xa]
        0x00003d4a:    2805        .(      CMP      r0,#5
        0x00003d4c:    d2ae        ..      BCS      0x3cac ; s_green_movePlane + 52
        0x00003d4e:    e8dff000    ....    TBB      [pc,r0]
    $d
        0x00003d52:    1903        ..      DCW    6403
        0x00003d54:    006c4c3a    :Ll.    DCD    7097402
    $t
        0x00003d58:    7726        &w      STRB     r6,[r4,#0x1c]
        0x00003d5a:    8860        `.      LDRH     r0,[r4,#2]
        0x00003d5c:    1cc0        ..      ADDS     r0,r0,#3
        0x00003d5e:    8060        `.      STRH     r0,[r4,#2]
        0x00003d60:    f7fcf9fa    ....    BL       rand ; 0x158
        0x00003d64:    fb90f1f7    ....    SDIV     r1,r0,r7
        0x00003d68:    fb070011    ....    MLS      r0,r7,r1,r0
        0x00003d6c:    88a1        ..      LDRH     r1,[r4,#4]
        0x00003d6e:    4408        .D      ADD      r0,r0,r1
        0x00003d70:    80a0        ..      STRH     r0,[r4,#4]
        0x00003d72:    f9b40002    ....    LDRSH    r0,[r4,#2]
        0x00003d76:    f9b4100e    ....    LDRSH    r1,[r4,#0xe]
        0x00003d7a:    4288        .B      CMP      r0,r1
        0x00003d7c:    db96        ..      BLT      0x3cac ; s_green_movePlane + 52
        0x00003d7e:    f884800a    ....    STRB     r8,[r4,#0xa]
        0x00003d82:    e793        ..      B        0x3cac ; s_green_movePlane + 52
        0x00003d84:    f884801c    ....    STRB     r8,[r4,#0x1c]
        0x00003d88:    f7fcf9e6    ....    BL       rand ; 0x158
        0x00003d8c:    eb0071d0    ...q    ADD      r1,r0,r0,LSR #31
        0x00003d90:    f0210101    !...    BIC      r1,r1,#1
        0x00003d94:    1a40        @.      SUBS     r0,r0,r1
        0x00003d96:    8861        a.      LDRH     r1,[r4,#2]
        0x00003d98:    1c80        ..      ADDS     r0,r0,#2
        0x00003d9a:    4408        .D      ADD      r0,r0,r1
        0x00003d9c:    8060        `.      STRH     r0,[r4,#2]
        0x00003d9e:    f7fcf9db    ....    BL       rand ; 0x158
        0x00003da2:    eb0071d0    ...q    ADD      r1,r0,r0,LSR #31
        0x00003da6:    f0210101    !...    BIC      r1,r1,#1
        0x00003daa:    1a40        @.      SUBS     r0,r0,r1
        0x00003dac:    88a1        ..      LDRH     r1,[r4,#4]
        0x00003dae:    1c80        ..      ADDS     r0,r0,#2
        0x00003db0:    4408        .D      ADD      r0,r0,r1
        0x00003db2:    80a0        ..      STRH     r0,[r4,#4]
        0x00003db4:    f9b40004    ....    LDRSH    r0,[r4,#4]
        0x00003db8:    f9b41010    ....    LDRSH    r1,[r4,#0x10]
        0x00003dbc:    4288        .B      CMP      r0,r1
        0x00003dbe:    db8f        ..      BLT      0x3ce0 ; s_green_movePlane + 104
        0x00003dc0:    f884b00a    ....    STRB     r11,[r4,#0xa]
        0x00003dc4:    e772        r.      B        0x3cac ; s_green_movePlane + 52
        0x00003dc6:    f884b01c    ....    STRB     r11,[r4,#0x1c]
        0x00003dca:    8860        `.      LDRH     r0,[r4,#2]
        0x00003dcc:    8060        `.      STRH     r0,[r4,#2]
        0x00003dce:    88a0        ..      LDRH     r0,[r4,#4]
        0x00003dd0:    1cc0        ..      ADDS     r0,r0,#3
        0x00003dd2:    80a0        ..      STRH     r0,[r4,#4]
        0x00003dd4:    f9b40004    ....    LDRSH    r0,[r4,#4]
        0x00003dd8:    f9b41012    ....    LDRSH    r1,[r4,#0x12]
        0x00003ddc:    4288        .B      CMP      r0,r1
        0x00003dde:    db9a        ..      BLT      0x3d16 ; s_green_movePlane + 158
        0x00003de0:    72a7        .r      STRB     r7,[r4,#0xa]
        0x00003de2:    2000        .       MOVS     r0,#0
        0x00003de4:    f7fcfbc0    ....    BL       LED_toggle ; 0x568
        0x00003de8:    e760        `.      B        0x3cac ; s_green_movePlane + 52
        0x00003dea:    7727        'w      STRB     r7,[r4,#0x1c]
        0x00003dec:    f7fcf9b4    ....    BL       rand ; 0x158
        0x00003df0:    eb0071d0    ...q    ADD      r1,r0,r0,LSR #31
        0x00003df4:    f0210101    !...    BIC      r1,r1,#1
        0x00003df8:    1a40        @.      SUBS     r0,r0,r1
        0x00003dfa:    8861        a.      LDRH     r1,[r4,#2]
        0x00003dfc:    1a08        ..      SUBS     r0,r1,r0
        0x00003dfe:    1e80        ..      SUBS     r0,r0,#2
        0x00003e00:    8060        `.      STRH     r0,[r4,#2]
        0x00003e02:    f7fcf9a9    ....    BL       rand ; 0x158
        0x00003e06:    eb0071d0    ...q    ADD      r1,r0,r0,LSR #31
        0x00003e0a:    f0210101    !...    BIC      r1,r1,#1
        0x00003e0e:    1a40        @.      SUBS     r0,r0,r1
        0x00003e10:    88a1        ..      LDRH     r1,[r4,#4]
        0x00003e12:    1c80        ..      ADDS     r0,r0,#2
        0x00003e14:    4408        .D      ADD      r0,r0,r1
        0x00003e16:    80a0        ..      STRH     r0,[r4,#4]
        0x00003e18:    f9b40002    ....    LDRSH    r0,[r4,#2]
        0x00003e1c:    f9b41014    ....    LDRSH    r1,[r4,#0x14]
        0x00003e20:    4288        .B      CMP      r0,r1
        0x00003e22:    dc85        ..      BGT      0x3d30 ; s_green_movePlane + 184
        0x00003e24:    f884a00a    ....    STRB     r10,[r4,#0xa]
        0x00003e28:    e740        @.      B        0x3cac ; s_green_movePlane + 52
        0x00003e2a:    f884a01c    ....    STRB     r10,[r4,#0x1c]
        0x00003e2e:    f7fcf993    ....    BL       rand ; 0x158
        0x00003e32:    eb0071d0    ...q    ADD      r1,r0,r0,LSR #31
        0x00003e36:    f0210101    !...    BIC      r1,r1,#1
        0x00003e3a:    1a40        @.      SUBS     r0,r0,r1
        0x00003e3c:    8861        a.      LDRH     r1,[r4,#2]
        0x00003e3e:    1a08        ..      SUBS     r0,r1,r0
        0x00003e40:    1e80        ..      SUBS     r0,r0,#2
        0x00003e42:    8060        `.      STRH     r0,[r4,#2]
        0x00003e44:    f9b40002    ....    LDRSH    r0,[r4,#2]
        0x00003e48:    f9b41016    ....    LDRSH    r1,[r4,#0x16]
        0x00003e4c:    4288        .B      CMP      r0,r1
        0x00003e4e:    dc98        ..      BGT      0x3d82 ; s_green_movePlane + 266
        0x00003e50:    f884a00a    ....    STRB     r10,[r4,#0xa]
        0x00003e54:    e72a        *.      B        0x3cac ; s_green_movePlane + 52
        0x00003e56:    f884a01c    ....    STRB     r10,[r4,#0x1c]
        0x00003e5a:    8860        `.      LDRH     r0,[r4,#2]
        0x00003e5c:    1ec0        ..      SUBS     r0,r0,#3
        0x00003e5e:    8060        `.      STRH     r0,[r4,#2]
        0x00003e60:    f7fcf97a    ..z.    BL       rand ; 0x158
        0x00003e64:    fb90f1f7    ....    SDIV     r1,r0,r7
        0x00003e68:    fb070011    ....    MLS      r0,r7,r1,r0
        0x00003e6c:    88a1        ..      LDRH     r1,[r4,#4]
        0x00003e6e:    4408        .D      ADD      r0,r0,r1
        0x00003e70:    80a0        ..      STRH     r0,[r4,#4]
        0x00003e72:    f9b40002    ....    LDRSH    r0,[r4,#2]
        0x00003e76:    f9b4100e    ....    LDRSH    r1,[r4,#0xe]
        0x00003e7a:    4288        .B      CMP      r0,r1
        0x00003e7c:    dca2        ..      BGT      0x3dc4 ; s_green_movePlane + 332
        0x00003e7e:    f884800a    ....    STRB     r8,[r4,#0xa]
        0x00003e82:    e713        ..      B        0x3cac ; s_green_movePlane + 52
        0x00003e84:    7727        'w      STRB     r7,[r4,#0x1c]
        0x00003e86:    f7fcf967    ..g.    BL       rand ; 0x158
        0x00003e8a:    eb0071d0    ...q    ADD      r1,r0,r0,LSR #31
        0x00003e8e:    f0210101    !...    BIC      r1,r1,#1
        0x00003e92:    1a40        @.      SUBS     r0,r0,r1
        0x00003e94:    8861        a.      LDRH     r1,[r4,#2]
        0x00003e96:    1a08        ..      SUBS     r0,r1,r0
        0x00003e98:    1e80        ..      SUBS     r0,r0,#2
        0x00003e9a:    8060        `.      STRH     r0,[r4,#2]
        0x00003e9c:    f7fcf95c    ..\.    BL       rand ; 0x158
        0x00003ea0:    eb0071d0    ...q    ADD      r1,r0,r0,LSR #31
        0x00003ea4:    f0210101    !...    BIC      r1,r1,#1
        0x00003ea8:    1a40        @.      SUBS     r0,r0,r1
        0x00003eaa:    88a1        ..      LDRH     r1,[r4,#4]
        0x00003eac:    1c80        ..      ADDS     r0,r0,#2
        0x00003eae:    4408        .D      ADD      r0,r0,r1
        0x00003eb0:    80a0        ..      STRH     r0,[r4,#4]
        0x00003eb2:    f9b40004    ....    LDRSH    r0,[r4,#4]
        0x00003eb6:    f9b41010    ....    LDRSH    r1,[r4,#0x10]
        0x00003eba:    4288        .B      CMP      r0,r1
        0x00003ebc:    dc94        ..      BGT      0x3de8 ; s_green_movePlane + 368
        0x00003ebe:    f884b00a    ....    STRB     r11,[r4,#0xa]
        0x00003ec2:    e6f3        ..      B        0x3cac ; s_green_movePlane + 52
        0x00003ec4:    f884b01c    ....    STRB     r11,[r4,#0x1c]
        0x00003ec8:    8860        `.      LDRH     r0,[r4,#2]
        0x00003eca:    8060        `.      STRH     r0,[r4,#2]
        0x00003ecc:    88a0        ..      LDRH     r0,[r4,#4]
        0x00003ece:    1cc0        ..      ADDS     r0,r0,#3
        0x00003ed0:    80a0        ..      STRH     r0,[r4,#4]
        0x00003ed2:    f9b40004    ....    LDRSH    r0,[r4,#4]
        0x00003ed6:    f9b41012    ....    LDRSH    r1,[r4,#0x12]
        0x00003eda:    4288        .B      CMP      r0,r1
        0x00003edc:    db84        ..      BLT      0x3de8 ; s_green_movePlane + 368
        0x00003ede:    72a7        .r      STRB     r7,[r4,#0xa]
        0x00003ee0:    e6e4        ..      B        0x3cac ; s_green_movePlane + 52
        0x00003ee2:    e021        !.      B        0x3f28 ; s_green_movePlane + 688
        0x00003ee4:    e7ff        ..      B        0x3ee6 ; s_green_movePlane + 622
        0x00003ee6:    f884801c    ....    STRB     r8,[r4,#0x1c]
        0x00003eea:    f7fcf935    ..5.    BL       rand ; 0x158
        0x00003eee:    eb0071d0    ...q    ADD      r1,r0,r0,LSR #31
        0x00003ef2:    f0210101    !...    BIC      r1,r1,#1
        0x00003ef6:    1a40        @.      SUBS     r0,r0,r1
        0x00003ef8:    8861        a.      LDRH     r1,[r4,#2]
        0x00003efa:    1c80        ..      ADDS     r0,r0,#2
        0x00003efc:    4408        .D      ADD      r0,r0,r1
        0x00003efe:    8060        `.      STRH     r0,[r4,#2]
        0x00003f00:    f7fcf92a    ..*.    BL       rand ; 0x158
        0x00003f04:    eb0071d0    ...q    ADD      r1,r0,r0,LSR #31
        0x00003f08:    f0210101    !...    BIC      r1,r1,#1
        0x00003f0c:    1a40        @.      SUBS     r0,r0,r1
        0x00003f0e:    88a1        ..      LDRH     r1,[r4,#4]
        0x00003f10:    1c80        ..      ADDS     r0,r0,#2
        0x00003f12:    4408        .D      ADD      r0,r0,r1
        0x00003f14:    80a0        ..      STRH     r0,[r4,#4]
        0x00003f16:    f9b40002    ....    LDRSH    r0,[r4,#2]
        0x00003f1a:    f9b41014    ....    LDRSH    r1,[r4,#0x14]
        0x00003f1e:    4288        .B      CMP      r0,r1
        0x00003f20:    db98        ..      BLT      0x3e54 ; s_green_movePlane + 476
        0x00003f22:    f884a00a    ....    STRB     r10,[r4,#0xa]
        0x00003f26:    e6c1        ..      B        0x3cac ; s_green_movePlane + 52
        0x00003f28:    7726        &w      STRB     r6,[r4,#0x1c]
        0x00003f2a:    f7fcf915    ....    BL       rand ; 0x158
        0x00003f2e:    eb0071d0    ...q    ADD      r1,r0,r0,LSR #31
        0x00003f32:    f0210101    !...    BIC      r1,r1,#1
        0x00003f36:    1a40        @.      SUBS     r0,r0,r1
        0x00003f38:    8861        a.      LDRH     r1,[r4,#2]
        0x00003f3a:    1c80        ..      ADDS     r0,r0,#2
        0x00003f3c:    4408        .D      ADD      r0,r0,r1
        0x00003f3e:    8060        `.      STRH     r0,[r4,#2]
        0x00003f40:    f9b40002    ....    LDRSH    r0,[r4,#2]
        0x00003f44:    f9b41016    ....    LDRSH    r1,[r4,#0x16]
        0x00003f48:    4288        .B      CMP      r0,r1
        0x00003f4a:    db9a        ..      BLT      0x3e82 ; s_green_movePlane + 522
        0x00003f4c:    f884a00a    ....    STRB     r10,[r4,#0xa]
        0x00003f50:    e6ac        ..      B        0x3cac ; s_green_movePlane + 52
    $d
        0x00003f52:    0000        ..      DCW    0
        0x00003f54:    00004a7a    zJ..    DCD    19066
    $t
    i.s_green_planeInit
    s_green_planeInit
        0x00003f58:    b530        0.      PUSH     {r4,r5,lr}
        0x00003f5a:    2100        .!      MOVS     r1,#0
        0x00003f5c:    2400        .$      MOVS     r4,#0
        0x00003f5e:    4d08        .M      LDR      r5,[pc,#32] ; [0x3f80] = 0x4a7a
        0x00003f60:    e009        ..      B        0x3f76 ; s_green_planeInit + 30
        0x00003f62:    ebc11301    ....    RSB      r3,r1,r1,LSL #4
        0x00003f66:    eb000243    ..C.    ADD      r2,r0,r3,LSL #1
        0x00003f6a:    8054        T.      STRH     r4,[r2,#2]
        0x00003f6c:    8094        ..      STRH     r4,[r2,#4]
        0x00003f6e:    f8004013    ...@    STRB     r4,[r0,r3,LSL #1]
        0x00003f72:    7054        Tp      STRB     r4,[r2,#1]
        0x00003f74:    1c49        I.      ADDS     r1,r1,#1
        0x00003f76:    782a        *x      LDRB     r2,[r5,#0]
        0x00003f78:    4291        .B      CMP      r1,r2
        0x00003f7a:    dbf2        ..      BLT      0x3f62 ; s_green_planeInit + 10
        0x00003f7c:    bd30        0.      POP      {r4,r5,pc}
    $d
        0x00003f7e:    0000        ..      DCW    0
        0x00003f80:    00004a7a    zJ..    DCD    19066
    $t
    i.s_grey_createOneEnmeyBullet
    s_grey_createOneEnmeyBullet
        0x00003f84:    e92d47f0    -..G    PUSH     {r4-r10,lr}
        0x00003f88:    4603        .F      MOV      r3,r0
        0x00003f8a:    2000        .       MOVS     r0,#0
        0x00003f8c:    4c31        1L      LDR      r4,[pc,#196] ; [0x4054] = 0x4a7d
        0x00003f8e:    7824        $x      LDRB     r4,[r4,#0]
        0x00003f90:    e006        ..      B        0x3fa0 ; s_grey_createOneEnmeyBullet + 28
        0x00003f92:    eb000580    ....    ADD      r5,r0,r0,LSL #2
        0x00003f96:    eb030545    ..E.    ADD      r5,r3,r5,LSL #1
        0x00003f9a:    792d        -y      LDRB     r5,[r5,#4]
        0x00003f9c:    b125        %.      CBZ      r5,0x3fa8 ; s_grey_createOneEnmeyBullet + 36
        0x00003f9e:    1c40        @.      ADDS     r0,r0,#1
        0x00003fa0:    42a0        .B      CMP      r0,r4
        0x00003fa2:    dbf6        ..      BLT      0x3f92 ; s_grey_createOneEnmeyBullet + 14
        0x00003fa4:    e8bd87f0    ....    POP      {r4-r10,pc}
        0x00003fa8:    888c        ..      LDRH     r4,[r1,#4]
        0x00003faa:    eb000080    ....    ADD      r0,r0,r0,LSL #2
        0x00003fae:    3408        .4      ADDS     r4,r4,#8
        0x00003fb0:    f8234010    #..@    STRH     r4,[r3,r0,LSL #1]
        0x00003fb4:    88cc        ..      LDRH     r4,[r1,#6]
        0x00003fb6:    eb030540    ..@.    ADD      r5,r3,r0,LSL #1
        0x00003fba:    3c08        .<      SUBS     r4,r4,#8
        0x00003fbc:    806c        l.      STRH     r4,[r5,#2]
        0x00003fbe:    2001        .       MOVS     r0,#1
        0x00003fc0:    7128        (q      STRB     r0,[r5,#4]
        0x00003fc2:    f9b10004    ....    LDRSH    r0,[r1,#4]
        0x00003fc6:    f9b10006    ....    LDRSH    r0,[r1,#6]
        0x00003fca:    f9b20000    ....    LDRSH    r0,[r2,#0]
        0x00003fce:    f9b20002    ....    LDRSH    r0,[r2,#2]
        0x00003fd2:    8810        ..      LDRH     r0,[r2,#0]
        0x00003fd4:    888b        ..      LDRH     r3,[r1,#4]
        0x00003fd6:    1ac0        ..      SUBS     r0,r0,r3
        0x00003fd8:    b206        ..      SXTH     r6,r0
        0x00003fda:    8850        P.      LDRH     r0,[r2,#2]
        0x00003fdc:    88c9        ..      LDRH     r1,[r1,#6]
        0x00003fde:    1a40        @.      SUBS     r0,r0,r1
        0x00003fe0:    b207        ..      SXTH     r7,r0
        0x00003fe2:    2e00        ..      CMP      r6,#0
        0x00003fe4:    da01        ..      BGE      0x3fea ; s_grey_createOneEnmeyBullet + 102
        0x00003fe6:    4270        pB      RSBS     r0,r6,#0
        0x00003fe8:    e000        ..      B        0x3fec ; s_grey_createOneEnmeyBullet + 104
        0x00003fea:    4630        0F      MOV      r0,r6
        0x00003fec:    f7fcf98e    ....    BL       __aeabi_i2f ; 0x30c
        0x00003ff0:    4604        .F      MOV      r4,r0
        0x00003ff2:    2f00        ./      CMP      r7,#0
        0x00003ff4:    da01        ..      BGE      0x3ffa ; s_grey_createOneEnmeyBullet + 118
        0x00003ff6:    4278        xB      RSBS     r0,r7,#0
        0x00003ff8:    e000        ..      B        0x3ffc ; s_grey_createOneEnmeyBullet + 120
        0x00003ffa:    4638        8F      MOV      r0,r7
        0x00003ffc:    f7fcf986    ....    BL       __aeabi_i2f ; 0x30c
        0x00004000:    4621        !F      MOV      r1,r4
        0x00004002:    f7fcf945    ..E.    BL       __aeabi_fdiv ; 0x290
        0x00004006:    4682        .F      MOV      r10,r0
        0x00004008:    2400        .$      MOVS     r4,#0
        0x0000400a:    f8df804c    ..L.    LDR      r8,[pc,#76] ; [0x4058] = 0x4aa8
        0x0000400e:    f8df904c    ..L.    LDR      r9,[pc,#76] ; [0x405c] = 0x80800000
        0x00004012:    4651        QF      MOV      r1,r10
        0x00004014:    f8580024    X.$.    LDR      r0,[r8,r4,LSL #2]
        0x00004018:    f7fcf902    ....    BL       __aeabi_fsub ; 0x220
        0x0000401c:    4548        HE      CMP      r0,r9
        0x0000401e:    d214        ..      BCS      0x404a ; s_grey_createOneEnmeyBullet + 198
        0x00004020:    480d        .H      LDR      r0,[pc,#52] ; [0x4058] = 0x4aa8
        0x00004022:    3814        .8      SUBS     r0,r0,#0x14
        0x00004024:    f8300014    0...    LDRH     r0,[r0,r4,LSL #1]
        0x00004028:    80e8        ..      STRH     r0,[r5,#6]
        0x0000402a:    480b        .H      LDR      r0,[pc,#44] ; [0x4058] = 0x4aa8
        0x0000402c:    3828        (8      SUBS     r0,r0,#0x28
        0x0000402e:    f8300014    0...    LDRH     r0,[r0,r4,LSL #1]
        0x00004032:    8128        (.      STRH     r0,[r5,#8]
        0x00004034:    2e00        ..      CMP      r6,#0
        0x00004036:    da02        ..      BGE      0x403e ; s_grey_createOneEnmeyBullet + 186
        0x00004038:    88e8        ..      LDRH     r0,[r5,#6]
        0x0000403a:    4240        @B      RSBS     r0,r0,#0
        0x0000403c:    80e8        ..      STRH     r0,[r5,#6]
        0x0000403e:    2f00        ./      CMP      r7,#0
        0x00004040:    dab0        ..      BGE      0x3fa4 ; s_grey_createOneEnmeyBullet + 32
        0x00004042:    8928        (.      LDRH     r0,[r5,#8]
        0x00004044:    4240        @B      RSBS     r0,r0,#0
        0x00004046:    8128        (.      STRH     r0,[r5,#8]
        0x00004048:    e7ac        ..      B        0x3fa4 ; s_grey_createOneEnmeyBullet + 32
        0x0000404a:    1c64        d.      ADDS     r4,r4,#1
        0x0000404c:    2c0a        .,      CMP      r4,#0xa
        0x0000404e:    dbe0        ..      BLT      0x4012 ; s_grey_createOneEnmeyBullet + 142
        0x00004050:    e7a8        ..      B        0x3fa4 ; s_grey_createOneEnmeyBullet + 32
    $d
        0x00004052:    0000        ..      DCW    0
        0x00004054:    00004a7d    }J..    DCD    19069
        0x00004058:    00004aa8    .J..    DCD    19112
        0x0000405c:    80800000    ....    DCD    2155872256
    $t
    i.s_grey_createOnePlane
    s_grey_createOnePlane
        0x00004060:    e92d41f0    -..A    PUSH     {r4-r8,lr}
        0x00004064:    460d        .F      MOV      r5,r1
        0x00004066:    2200        ."      MOVS     r2,#0
        0x00004068:    4928        (I      LDR      r1,[pc,#160] ; [0x410c] = 0x4a79
        0x0000406a:    780b        .x      LDRB     r3,[r1,#0]
        0x0000406c:    e004        ..      B        0x4078 ; s_grey_createOnePlane + 24
        0x0000406e:    eb001102    ....    ADD      r1,r0,r2,LSL #4
        0x00004072:    7809        .x      LDRB     r1,[r1,#0]
        0x00004074:    b121        !.      CBZ      r1,0x4080 ; s_grey_createOnePlane + 32
        0x00004076:    1c52        R.      ADDS     r2,r2,#1
        0x00004078:    429a        .B      CMP      r2,r3
        0x0000407a:    dbf8        ..      BLT      0x406e ; s_grey_createOnePlane + 14
        0x0000407c:    e8bd81f0    ....    POP      {r4-r8,pc}
        0x00004080:    eb001402    ....    ADD      r4,r0,r2,LSL #4
        0x00004084:    2601        .&      MOVS     r6,#1
        0x00004086:    7066        fp      STRB     r6,[r4,#1]
        0x00004088:    7026        &p      STRB     r6,[r4,#0]
        0x0000408a:    2700        .'      MOVS     r7,#0
        0x0000408c:    73e7        .s      STRB     r7,[r4,#0xf]
        0x0000408e:    70a7        .p      STRB     r7,[r4,#2]
        0x00004090:    72a7        .r      STRB     r7,[r4,#0xa]
        0x00004092:    f7fcf861    ..a.    BL       rand ; 0x158
        0x00004096:    eb0071d0    ...q    ADD      r1,r0,r0,LSR #31
        0x0000409a:    f0210101    !...    BIC      r1,r1,#1
        0x0000409e:    1a40        @.      SUBS     r0,r0,r1
        0x000040a0:    7260        `r      STRB     r0,[r4,#9]
        0x000040a2:    7226        &r      STRB     r6,[r4,#8]
        0x000040a4:    88a8        ..      LDRH     r0,[r5,#4]
        0x000040a6:    80a0        ..      STRH     r0,[r4,#4]
        0x000040a8:    f7fcf856    ..V.    BL       rand ; 0x158
        0x000040ac:    eb0071d0    ...q    ADD      r1,r0,r0,LSR #31
        0x000040b0:    f0210101    !...    BIC      r1,r1,#1
        0x000040b4:    1a40        @.      SUBS     r0,r0,r1
        0x000040b6:    eb000080    ....    ADD      r0,r0,r0,LSL #2
        0x000040ba:    210f        .!      MOVS     r1,#0xf
        0x000040bc:    eb010040    ..@.    ADD      r0,r1,r0,LSL #1
        0x000040c0:    80e0        ..      STRH     r0,[r4,#6]
        0x000040c2:    7ae8        .z      LDRB     r0,[r5,#0xb]
        0x000040c4:    72e0        .r      STRB     r0,[r4,#0xb]
        0x000040c6:    7ae0        .z      LDRB     r0,[r4,#0xb]
        0x000040c8:    2602        .&      MOVS     r6,#2
        0x000040ca:    2503        .%      MOVS     r5,#3
        0x000040cc:    2804        .(      CMP      r0,#4
        0x000040ce:    d009        ..      BEQ      0x40e4 ; s_grey_createOnePlane + 132
        0x000040d0:    7ae0        .z      LDRB     r0,[r4,#0xb]
        0x000040d2:    2805        .(      CMP      r0,#5
        0x000040d4:    d015        ..      BEQ      0x4102 ; s_grey_createOnePlane + 162
        0x000040d6:    7ae0        .z      LDRB     r0,[r4,#0xb]
        0x000040d8:    2806        .(      CMP      r0,#6
        0x000040da:    d1cf        ..      BNE      0x407c ; s_grey_createOnePlane + 28
        0x000040dc:    7326        &s      STRB     r6,[r4,#0xc]
        0x000040de:    7365        es      STRB     r5,[r4,#0xd]
        0x000040e0:    73a5        .s      STRB     r5,[r4,#0xe]
        0x000040e2:    e7cb        ..      B        0x407c ; s_grey_createOnePlane + 28
        0x000040e4:    7327        's      STRB     r7,[r4,#0xc]
        0x000040e6:    7365        es      STRB     r5,[r4,#0xd]
        0x000040e8:    f7fcf836    ..6.    BL       rand ; 0x158
        0x000040ec:    eb0071d0    ...q    ADD      r1,r0,r0,LSR #31
        0x000040f0:    f0210101    !...    BIC      r1,r1,#1
        0x000040f4:    1a40        @.      SUBS     r0,r0,r1
        0x000040f6:    b2c0        ..      UXTB     r0,r0
        0x000040f8:    b108        ..      CBZ      r0,0x40fe ; s_grey_createOnePlane + 158
        0x000040fa:    73a5        .s      STRB     r5,[r4,#0xe]
        0x000040fc:    e7be        ..      B        0x407c ; s_grey_createOnePlane + 28
        0x000040fe:    73a6        .s      STRB     r6,[r4,#0xe]
        0x00004100:    e7bc        ..      B        0x407c ; s_grey_createOnePlane + 28
        0x00004102:    20fe        .       MOVS     r0,#0xfe
        0x00004104:    7320         s      STRB     r0,[r4,#0xc]
        0x00004106:    7365        es      STRB     r5,[r4,#0xd]
        0x00004108:    73a6        .s      STRB     r6,[r4,#0xe]
        0x0000410a:    e7b7        ..      B        0x407c ; s_grey_createOnePlane + 28
    $d
        0x0000410c:    00004a79    yJ..    DCD    19065
    $t
    i.s_grey_createPlane_111
    s_grey_createPlane_111
        0x00004110:    b520         .      PUSH     {r5,lr}
        0x00004112:    4605        .F      MOV      r5,r0
        0x00004114:    f7fcf820    .. .    BL       rand ; 0x158
        0x00004118:    21aa        .!      MOVS     r1,#0xaa
        0x0000411a:    fb90f2f1    ....    SDIV     r2,r0,r1
        0x0000411e:    fb010012    ....    MLS      r0,r1,r2,r0
        0x00004122:    1d40        @.      ADDS     r0,r0,#5
        0x00004124:    80a0        ..      STRH     r0,[r4,#4]
        0x00004126:    f9b40004    ....    LDRSH    r0,[r4,#4]
        0x0000412a:    2805        .(      CMP      r0,#5
        0x0000412c:    dd06        ..      BLE      0x413c ; s_grey_createPlane_111 + 44
        0x0000412e:    f9b40004    ....    LDRSH    r0,[r4,#4]
        0x00004132:    2855        U(      CMP      r0,#0x55
        0x00004134:    da02        ..      BGE      0x413c ; s_grey_createPlane_111 + 44
        0x00004136:    2006        .       MOVS     r0,#6
        0x00004138:    72e0        .r      STRB     r0,[r4,#0xb]
        0x0000413a:    e00c        ..      B        0x4156 ; s_grey_createPlane_111 + 70
        0x0000413c:    f9b40004    ....    LDRSH    r0,[r4,#4]
        0x00004140:    28ab        .(      CMP      r0,#0xab
        0x00004142:    dd06        ..      BLE      0x4152 ; s_grey_createPlane_111 + 66
        0x00004144:    f9b40004    ....    LDRSH    r0,[r4,#4]
        0x00004148:    28fb        .(      CMP      r0,#0xfb
        0x0000414a:    da02        ..      BGE      0x4152 ; s_grey_createPlane_111 + 66
        0x0000414c:    2005        .       MOVS     r0,#5
        0x0000414e:    72e0        .r      STRB     r0,[r4,#0xb]
        0x00004150:    e001        ..      B        0x4156 ; s_grey_createPlane_111 + 70
        0x00004152:    2004        .       MOVS     r0,#4
        0x00004154:    72e0        .r      STRB     r0,[r4,#0xb]
        0x00004156:    4628        (F      MOV      r0,r5
        0x00004158:    2300        .#      MOVS     r3,#0
        0x0000415a:    e8bd4020    .. @    POP      {r5,lr}
        0x0000415e:    461a        .F      MOV      r2,r3
        0x00004160:    4621        !F      MOV      r1,r4
        0x00004162:    f7ffbf7d    ..}.    B.W      s_grey_createOnePlane ; 0x4060
    i.s_grey_createPlane_122
    s_grey_createPlane_122
        0x00004166:    b570        p.      PUSH     {r4-r6,lr}
        0x00004168:    4606        .F      MOV      r6,r0
        0x0000416a:    f7fbfff5    ....    BL       rand ; 0x158
        0x0000416e:    21aa        .!      MOVS     r1,#0xaa
        0x00004170:    fb90f2f1    ....    SDIV     r2,r0,r1
        0x00004174:    fb010512    ....    MLS      r5,r1,r2,r0
        0x00004178:    3519        .5      ADDS     r5,r5,#0x19
        0x0000417a:    80a5        ..      STRH     r5,[r4,#4]
        0x0000417c:    2004        .       MOVS     r0,#4
        0x0000417e:    72e0        .r      STRB     r0,[r4,#0xb]
        0x00004180:    2300        .#      MOVS     r3,#0
        0x00004182:    461a        .F      MOV      r2,r3
        0x00004184:    4621        !F      MOV      r1,r4
        0x00004186:    4630        0F      MOV      r0,r6
        0x00004188:    f7ffff6a    ..j.    BL       s_grey_createOnePlane ; 0x4060
        0x0000418c:    3514        .5      ADDS     r5,r5,#0x14
        0x0000418e:    80a5        ..      STRH     r5,[r4,#4]
        0x00004190:    4621        !F      MOV      r1,r4
        0x00004192:    4630        0F      MOV      r0,r6
        0x00004194:    e8bd4070    ..p@    POP      {r4-r6,lr}
        0x00004198:    2300        .#      MOVS     r3,#0
        0x0000419a:    461a        .F      MOV      r2,r3
        0x0000419c:    f7ffbf60    ..`.    B.W      s_grey_createOnePlane ; 0x4060
    i.s_grey_createPlane_123
    s_grey_createPlane_123
        0x000041a0:    b5e0        ..      PUSH     {r5-r7,lr}
        0x000041a2:    4607        .F      MOV      r7,r0
        0x000041a4:    f7fbffd8    ....    BL       rand ; 0x158
        0x000041a8:    21aa        .!      MOVS     r1,#0xaa
        0x000041aa:    fb90f2f1    ....    SDIV     r2,r0,r1
        0x000041ae:    fb010012    ....    MLS      r0,r1,r2,r0
        0x000041b2:    1d40        @.      ADDS     r0,r0,#5
        0x000041b4:    80a0        ..      STRH     r0,[r4,#4]
        0x000041b6:    f9b40004    ....    LDRSH    r0,[r4,#4]
        0x000041ba:    2506        .%      MOVS     r5,#6
        0x000041bc:    2605        .&      MOVS     r6,#5
        0x000041be:    2805        .(      CMP      r0,#5
        0x000041c0:    dd05        ..      BLE      0x41ce ; s_grey_createPlane_123 + 46
        0x000041c2:    f9b40004    ....    LDRSH    r0,[r4,#4]
        0x000041c6:    2855        U(      CMP      r0,#0x55
        0x000041c8:    da01        ..      BGE      0x41ce ; s_grey_createPlane_123 + 46
        0x000041ca:    72e5        .r      STRB     r5,[r4,#0xb]
        0x000041cc:    e00b        ..      B        0x41e6 ; s_grey_createPlane_123 + 70
        0x000041ce:    f9b40004    ....    LDRSH    r0,[r4,#4]
        0x000041d2:    28ab        .(      CMP      r0,#0xab
        0x000041d4:    dd05        ..      BLE      0x41e2 ; s_grey_createPlane_123 + 66
        0x000041d6:    f9b40004    ....    LDRSH    r0,[r4,#4]
        0x000041da:    28fb        .(      CMP      r0,#0xfb
        0x000041dc:    da01        ..      BGE      0x41e2 ; s_grey_createPlane_123 + 66
        0x000041de:    72e6        .r      STRB     r6,[r4,#0xb]
        0x000041e0:    e001        ..      B        0x41e6 ; s_grey_createPlane_123 + 70
        0x000041e2:    2004        .       MOVS     r0,#4
        0x000041e4:    72e0        .r      STRB     r0,[r4,#0xb]
        0x000041e6:    2300        .#      MOVS     r3,#0
        0x000041e8:    461a        .F      MOV      r2,r3
        0x000041ea:    4621        !F      MOV      r1,r4
        0x000041ec:    4638        8F      MOV      r0,r7
        0x000041ee:    f7ffff37    ..7.    BL       s_grey_createOnePlane ; 0x4060
        0x000041f2:    f9b40004    ....    LDRSH    r0,[r4,#4]
        0x000041f6:    f5c07080    ...p    RSB      r0,r0,#0x100
        0x000041fa:    80a0        ..      STRH     r0,[r4,#4]
        0x000041fc:    7ae0        .z      LDRB     r0,[r4,#0xb]
        0x000041fe:    2806        .(      CMP      r0,#6
        0x00004200:    d003        ..      BEQ      0x420a ; s_grey_createPlane_123 + 106
        0x00004202:    7ae0        .z      LDRB     r0,[r4,#0xb]
        0x00004204:    2805        .(      CMP      r0,#5
        0x00004206:    d002        ..      BEQ      0x420e ; s_grey_createPlane_123 + 110
        0x00004208:    e002        ..      B        0x4210 ; s_grey_createPlane_123 + 112
        0x0000420a:    72e6        .r      STRB     r6,[r4,#0xb]
        0x0000420c:    e000        ..      B        0x4210 ; s_grey_createPlane_123 + 112
        0x0000420e:    72e5        .r      STRB     r5,[r4,#0xb]
        0x00004210:    4638        8F      MOV      r0,r7
        0x00004212:    e8bd40e0    ...@    POP      {r5-r7,lr}
        0x00004216:    2300        .#      MOVS     r3,#0
        0x00004218:    461a        .F      MOV      r2,r3
        0x0000421a:    4621        !F      MOV      r1,r4
        0x0000421c:    f7ffbf20    .. .    B.W      s_grey_createOnePlane ; 0x4060
    i.s_grey_createPlane_144
    s_grey_createPlane_144
        0x00004220:    b570        p.      PUSH     {r4-r6,lr}
        0x00004222:    4606        .F      MOV      r6,r0
        0x00004224:    f7fbff98    ....    BL       rand ; 0x158
        0x00004228:    21aa        .!      MOVS     r1,#0xaa
        0x0000422a:    fb90f2f1    ....    SDIV     r2,r0,r1
        0x0000422e:    fb010512    ....    MLS      r5,r1,r2,r0
        0x00004232:    3519        .5      ADDS     r5,r5,#0x19
        0x00004234:    80a5        ..      STRH     r5,[r4,#4]
        0x00004236:    2004        .       MOVS     r0,#4
        0x00004238:    72e0        .r      STRB     r0,[r4,#0xb]
        0x0000423a:    2300        .#      MOVS     r3,#0
        0x0000423c:    461a        .F      MOV      r2,r3
        0x0000423e:    4621        !F      MOV      r1,r4
        0x00004240:    4630        0F      MOV      r0,r6
        0x00004242:    f7ffff0d    ....    BL       s_grey_createOnePlane ; 0x4060
        0x00004246:    f1050014    ....    ADD      r0,r5,#0x14
        0x0000424a:    80a0        ..      STRH     r0,[r4,#4]
        0x0000424c:    2300        .#      MOVS     r3,#0
        0x0000424e:    461a        .F      MOV      r2,r3
        0x00004250:    4621        !F      MOV      r1,r4
        0x00004252:    4630        0F      MOV      r0,r6
        0x00004254:    f7ffff04    ....    BL       s_grey_createOnePlane ; 0x4060
        0x00004258:    f1050028    ..(.    ADD      r0,r5,#0x28
        0x0000425c:    80a0        ..      STRH     r0,[r4,#4]
        0x0000425e:    2300        .#      MOVS     r3,#0
        0x00004260:    461a        .F      MOV      r2,r3
        0x00004262:    4621        !F      MOV      r1,r4
        0x00004264:    4630        0F      MOV      r0,r6
        0x00004266:    f7fffefb    ....    BL       s_grey_createOnePlane ; 0x4060
        0x0000426a:    353c        <5      ADDS     r5,r5,#0x3c
        0x0000426c:    80a5        ..      STRH     r5,[r4,#4]
        0x0000426e:    4621        !F      MOV      r1,r4
        0x00004270:    4630        0F      MOV      r0,r6
        0x00004272:    e8bd4070    ..p@    POP      {r4-r6,lr}
        0x00004276:    2300        .#      MOVS     r3,#0
        0x00004278:    461a        .F      MOV      r2,r3
        0x0000427a:    f7ffbef1    ....    B.W      s_grey_createOnePlane ; 0x4060
    i.s_grey_createPlane_145
    s_grey_createPlane_145
        0x0000427e:    b5e0        ..      PUSH     {r5-r7,lr}
        0x00004280:    4607        .F      MOV      r7,r0
        0x00004282:    f7fbff69    ..i.    BL       rand ; 0x158
        0x00004286:    21aa        .!      MOVS     r1,#0xaa
        0x00004288:    fb90f2f1    ....    SDIV     r2,r0,r1
        0x0000428c:    fb010012    ....    MLS      r0,r1,r2,r0
        0x00004290:    1d40        @.      ADDS     r0,r0,#5
        0x00004292:    80a0        ..      STRH     r0,[r4,#4]
        0x00004294:    f9b40004    ....    LDRSH    r0,[r4,#4]
        0x00004298:    2506        .%      MOVS     r5,#6
        0x0000429a:    2605        .&      MOVS     r6,#5
        0x0000429c:    2805        .(      CMP      r0,#5
        0x0000429e:    dd05        ..      BLE      0x42ac ; s_grey_createPlane_145 + 46
        0x000042a0:    f9b40004    ....    LDRSH    r0,[r4,#4]
        0x000042a4:    2855        U(      CMP      r0,#0x55
        0x000042a6:    da01        ..      BGE      0x42ac ; s_grey_createPlane_145 + 46
        0x000042a8:    72e5        .r      STRB     r5,[r4,#0xb]
        0x000042aa:    e00b        ..      B        0x42c4 ; s_grey_createPlane_145 + 70
        0x000042ac:    f9b40004    ....    LDRSH    r0,[r4,#4]
        0x000042b0:    28ab        .(      CMP      r0,#0xab
        0x000042b2:    dd05        ..      BLE      0x42c0 ; s_grey_createPlane_145 + 66
        0x000042b4:    f9b40004    ....    LDRSH    r0,[r4,#4]
        0x000042b8:    28fb        .(      CMP      r0,#0xfb
        0x000042ba:    da01        ..      BGE      0x42c0 ; s_grey_createPlane_145 + 66
        0x000042bc:    72e6        .r      STRB     r6,[r4,#0xb]
        0x000042be:    e001        ..      B        0x42c4 ; s_grey_createPlane_145 + 70
        0x000042c0:    2004        .       MOVS     r0,#4
        0x000042c2:    72e0        .r      STRB     r0,[r4,#0xb]
        0x000042c4:    2300        .#      MOVS     r3,#0
        0x000042c6:    461a        .F      MOV      r2,r3
        0x000042c8:    4621        !F      MOV      r1,r4
        0x000042ca:    4638        8F      MOV      r0,r7
        0x000042cc:    f7fffec8    ....    BL       s_grey_createOnePlane ; 0x4060
        0x000042d0:    88a0        ..      LDRH     r0,[r4,#4]
        0x000042d2:    3014        .0      ADDS     r0,r0,#0x14
        0x000042d4:    80a0        ..      STRH     r0,[r4,#4]
        0x000042d6:    2300        .#      MOVS     r3,#0
        0x000042d8:    461a        .F      MOV      r2,r3
        0x000042da:    4621        !F      MOV      r1,r4
        0x000042dc:    4638        8F      MOV      r0,r7
        0x000042de:    f7fffebf    ....    BL       s_grey_createOnePlane ; 0x4060
        0x000042e2:    f9b40004    ....    LDRSH    r0,[r4,#4]
        0x000042e6:    f5c07080    ...p    RSB      r0,r0,#0x100
        0x000042ea:    80a0        ..      STRH     r0,[r4,#4]
        0x000042ec:    7ae0        .z      LDRB     r0,[r4,#0xb]
        0x000042ee:    2806        .(      CMP      r0,#6
        0x000042f0:    d003        ..      BEQ      0x42fa ; s_grey_createPlane_145 + 124
        0x000042f2:    7ae0        .z      LDRB     r0,[r4,#0xb]
        0x000042f4:    2805        .(      CMP      r0,#5
        0x000042f6:    d002        ..      BEQ      0x42fe ; s_grey_createPlane_145 + 128
        0x000042f8:    e002        ..      B        0x4300 ; s_grey_createPlane_145 + 130
        0x000042fa:    72e6        .r      STRB     r6,[r4,#0xb]
        0x000042fc:    e000        ..      B        0x4300 ; s_grey_createPlane_145 + 130
        0x000042fe:    72e5        .r      STRB     r5,[r4,#0xb]
        0x00004300:    2300        .#      MOVS     r3,#0
        0x00004302:    461a        .F      MOV      r2,r3
        0x00004304:    4621        !F      MOV      r1,r4
        0x00004306:    4638        8F      MOV      r0,r7
        0x00004308:    f7fffeaa    ....    BL       s_grey_createOnePlane ; 0x4060
        0x0000430c:    88a0        ..      LDRH     r0,[r4,#4]
        0x0000430e:    3014        .0      ADDS     r0,r0,#0x14
        0x00004310:    80a0        ..      STRH     r0,[r4,#4]
        0x00004312:    4638        8F      MOV      r0,r7
        0x00004314:    e8bd40e0    ...@    POP      {r5-r7,lr}
        0x00004318:    2300        .#      MOVS     r3,#0
        0x0000431a:    461a        .F      MOV      r2,r3
        0x0000431c:    4621        !F      MOV      r1,r4
        0x0000431e:    f7ffbe9f    ....    B.W      s_grey_createOnePlane ; 0x4060
    i.s_grey_createPlane_166
    s_grey_createPlane_166
        0x00004322:    b510        ..      PUSH     {r4,lr}
        0x00004324:    4604        .F      MOV      r4,r0
        0x00004326:    4620         F      MOV      r0,r4
        0x00004328:    f7ffff7a    ..z.    BL       s_grey_createPlane_144 ; 0x4220
        0x0000432c:    4620         F      MOV      r0,r4
        0x0000432e:    e8bd4010    ...@    POP      {r4,lr}
        0x00004332:    f7ffbf18    ....    B.W      s_grey_createPlane_122 ; 0x4166
        0x00004336:    0000        ..      MOVS     r0,r0
    i.s_grey_drawPlane
    s_grey_drawPlane
        0x00004338:    e92d4ff8    -..O    PUSH     {r3-r11,lr}
        0x0000433c:    4681        .F      MOV      r9,r0
        0x0000433e:    460d        .F      MOV      r5,r1
        0x00004340:    2700        .'      MOVS     r7,#0
        0x00004342:    f04f0840    O.@.    MOV      r8,#0x40
        0x00004346:    f8dfa284    ....    LDR      r10,[pc,#644] ; [0x45cc] = 0x4a79
        0x0000434a:    e137        7.      B        0x45bc ; s_grey_drawPlane + 644
        0x0000434c:    eb091407    ....    ADD      r4,r9,r7,LSL #4
        0x00004350:    7820         x      LDRB     r0,[r4,#0]
        0x00004352:    2800        .(      CMP      r0,#0
        0x00004354:    d02e        ..      BEQ      0x43b4 ; s_grey_drawPlane + 124
        0x00004356:    2600        .&      MOVS     r6,#0
        0x00004358:    7be0        .{      LDRB     r0,[r4,#0xf]
        0x0000435a:    2808        .(      CMP      r0,#8
        0x0000435c:    d22a        *.      BCS      0x43b4 ; s_grey_drawPlane + 124
        0x0000435e:    e8dff000    ....    TBB      [pc,r0]
    $d
        0x00004362:    2a04        .*      DCW    10756
        0x00004364:    c1986f53    So..    DCD    3247992659
        0x00004368:    fde8        ..      DCW    65000
    $t
        0x0000436a:    2340        @#      MOVS     r3,#0x40
        0x0000436c:    9600        ..      STR      r6,[sp,#0]
        0x0000436e:    88e0        ..      LDRH     r0,[r4,#6]
        0x00004370:    b2c2        ..      UXTB     r2,r0
        0x00004372:    88a0        ..      LDRH     r0,[r4,#4]
        0x00004374:    b2c1        ..      UXTB     r1,r0
        0x00004376:    7828        (x      LDRB     r0,[r5,#0]
        0x00004378:    f000fb6c    ..l.    BL       writeOneSprite ; 0x4a54
        0x0000437c:    9600        ..      STR      r6,[sp,#0]
        0x0000437e:    88e0        ..      LDRH     r0,[r4,#6]
        0x00004380:    2341        A#      MOVS     r3,#0x41
        0x00004382:    b2c2        ..      UXTB     r2,r0
        0x00004384:    88a0        ..      LDRH     r0,[r4,#4]
        0x00004386:    3008        .0      ADDS     r0,r0,#8
        0x00004388:    b2c1        ..      UXTB     r1,r0
        0x0000438a:    7828        (x      LDRB     r0,[r5,#0]
        0x0000438c:    1c40        @.      ADDS     r0,r0,#1
        0x0000438e:    b2c0        ..      UXTB     r0,r0
        0x00004390:    f000fb60    ..`.    BL       writeOneSprite ; 0x4a54
        0x00004394:    9600        ..      STR      r6,[sp,#0]
        0x00004396:    88e0        ..      LDRH     r0,[r4,#6]
        0x00004398:    2342        B#      MOVS     r3,#0x42
        0x0000439a:    3808        .8      SUBS     r0,r0,#8
        0x0000439c:    b2c2        ..      UXTB     r2,r0
        0x0000439e:    88a0        ..      LDRH     r0,[r4,#4]
        0x000043a0:    1d00        ..      ADDS     r0,r0,#4
        0x000043a2:    b2c1        ..      UXTB     r1,r0
        0x000043a4:    7828        (x      LDRB     r0,[r5,#0]
        0x000043a6:    1c80        ..      ADDS     r0,r0,#2
        0x000043a8:    b2c0        ..      UXTB     r0,r0
        0x000043aa:    f000fb53    ..S.    BL       writeOneSprite ; 0x4a54
        0x000043ae:    7828        (x      LDRB     r0,[r5,#0]
        0x000043b0:    1cc0        ..      ADDS     r0,r0,#3
        0x000043b2:    7028        (p      STRB     r0,[r5,#0]
        0x000043b4:    e101        ..      B        0x45ba ; s_grey_drawPlane + 642
        0x000043b6:    f04f0b43    O.C.    MOV      r11,#0x43
        0x000043ba:    9600        ..      STR      r6,[sp,#0]
        0x000043bc:    88e0        ..      LDRH     r0,[r4,#6]
        0x000043be:    b2c2        ..      UXTB     r2,r0
        0x000043c0:    88a0        ..      LDRH     r0,[r4,#4]
        0x000043c2:    465b        [F      MOV      r3,r11
        0x000043c4:    b2c1        ..      UXTB     r1,r0
        0x000043c6:    7828        (x      LDRB     r0,[r5,#0]
        0x000043c8:    f000fb44    ..D.    BL       writeOneSprite ; 0x4a54
        0x000043cc:    f8cd8000    ....    STR      r8,[sp,#0]
        0x000043d0:    88e0        ..      LDRH     r0,[r4,#6]
        0x000043d2:    b2c2        ..      UXTB     r2,r0
        0x000043d4:    88a0        ..      LDRH     r0,[r4,#4]
        0x000043d6:    465b        [F      MOV      r3,r11
        0x000043d8:    3008        .0      ADDS     r0,r0,#8
        0x000043da:    b2c1        ..      UXTB     r1,r0
        0x000043dc:    7828        (x      LDRB     r0,[r5,#0]
        0x000043de:    1c40        @.      ADDS     r0,r0,#1
        0x000043e0:    b2c0        ..      UXTB     r0,r0
        0x000043e2:    f000fb37    ..7.    BL       writeOneSprite ; 0x4a54
        0x000043e6:    9600        ..      STR      r6,[sp,#0]
        0x000043e8:    88e0        ..      LDRH     r0,[r4,#6]
        0x000043ea:    2344        D#      MOVS     r3,#0x44
        0x000043ec:    3808        .8      SUBS     r0,r0,#8
        0x000043ee:    b2c2        ..      UXTB     r2,r0
        0x000043f0:    88a0        ..      LDRH     r0,[r4,#4]
        0x000043f2:    1d00        ..      ADDS     r0,r0,#4
        0x000043f4:    b2c1        ..      UXTB     r1,r0
        0x000043f6:    7828        (x      LDRB     r0,[r5,#0]
        0x000043f8:    1c80        ..      ADDS     r0,r0,#2
        0x000043fa:    b2c0        ..      UXTB     r0,r0
        0x000043fc:    f000fb2a    ..*.    BL       writeOneSprite ; 0x4a54
        0x00004400:    7828        (x      LDRB     r0,[r5,#0]
        0x00004402:    1cc0        ..      ADDS     r0,r0,#3
        0x00004404:    7028        (p      STRB     r0,[r5,#0]
        0x00004406:    e0d8        ..      B        0x45ba ; s_grey_drawPlane + 642
        0x00004408:    f04f0b45    O.E.    MOV      r11,#0x45
        0x0000440c:    9600        ..      STR      r6,[sp,#0]
        0x0000440e:    88e0        ..      LDRH     r0,[r4,#6]
        0x00004410:    b2c2        ..      UXTB     r2,r0
        0x00004412:    88a0        ..      LDRH     r0,[r4,#4]
        0x00004414:    465b        [F      MOV      r3,r11
        0x00004416:    b2c1        ..      UXTB     r1,r0
        0x00004418:    7828        (x      LDRB     r0,[r5,#0]
        0x0000441a:    f000fb1b    ....    BL       writeOneSprite ; 0x4a54
        0x0000441e:    f8cd8000    ....    STR      r8,[sp,#0]
        0x00004422:    88e0        ..      LDRH     r0,[r4,#6]
        0x00004424:    b2c2        ..      UXTB     r2,r0
        0x00004426:    88a0        ..      LDRH     r0,[r4,#4]
        0x00004428:    465b        [F      MOV      r3,r11
        0x0000442a:    3008        .0      ADDS     r0,r0,#8
        0x0000442c:    b2c1        ..      UXTB     r1,r0
        0x0000442e:    7828        (x      LDRB     r0,[r5,#0]
        0x00004430:    1c40        @.      ADDS     r0,r0,#1
        0x00004432:    b2c0        ..      UXTB     r0,r0
        0x00004434:    f000fb0e    ....    BL       writeOneSprite ; 0x4a54
        0x00004438:    7828        (x      LDRB     r0,[r5,#0]
        0x0000443a:    1c80        ..      ADDS     r0,r0,#2
        0x0000443c:    7028        (p      STRB     r0,[r5,#0]
        0x0000443e:    e0bc        ..      B        0x45ba ; s_grey_drawPlane + 642
        0x00004440:    f04f0b46    O.F.    MOV      r11,#0x46
        0x00004444:    9600        ..      STR      r6,[sp,#0]
        0x00004446:    88e0        ..      LDRH     r0,[r4,#6]
        0x00004448:    b2c2        ..      UXTB     r2,r0
        0x0000444a:    88a0        ..      LDRH     r0,[r4,#4]
        0x0000444c:    465b        [F      MOV      r3,r11
        0x0000444e:    b2c1        ..      UXTB     r1,r0
        0x00004450:    7828        (x      LDRB     r0,[r5,#0]
        0x00004452:    f000faff    ....    BL       writeOneSprite ; 0x4a54
        0x00004456:    f8cd8000    ....    STR      r8,[sp,#0]
        0x0000445a:    88e0        ..      LDRH     r0,[r4,#6]
        0x0000445c:    b2c2        ..      UXTB     r2,r0
        0x0000445e:    88a0        ..      LDRH     r0,[r4,#4]
        0x00004460:    465b        [F      MOV      r3,r11
        0x00004462:    3008        .0      ADDS     r0,r0,#8
        0x00004464:    b2c1        ..      UXTB     r1,r0
        0x00004466:    7828        (x      LDRB     r0,[r5,#0]
        0x00004468:    1c40        @.      ADDS     r0,r0,#1
        0x0000446a:    b2c0        ..      UXTB     r0,r0
        0x0000446c:    f000faf2    ....    BL       writeOneSprite ; 0x4a54
        0x00004470:    9600        ..      STR      r6,[sp,#0]
        0x00004472:    88e0        ..      LDRH     r0,[r4,#6]
        0x00004474:    2347        G#      MOVS     r3,#0x47
        0x00004476:    3008        .0      ADDS     r0,r0,#8
        0x00004478:    b2c2        ..      UXTB     r2,r0
        0x0000447a:    88a0        ..      LDRH     r0,[r4,#4]
        0x0000447c:    1d00        ..      ADDS     r0,r0,#4
        0x0000447e:    b2c1        ..      UXTB     r1,r0
        0x00004480:    7828        (x      LDRB     r0,[r5,#0]
        0x00004482:    1c80        ..      ADDS     r0,r0,#2
        0x00004484:    b2c0        ..      UXTB     r0,r0
        0x00004486:    f000fae5    ....    BL       writeOneSprite ; 0x4a54
        0x0000448a:    7828        (x      LDRB     r0,[r5,#0]
        0x0000448c:    1cc0        ..      ADDS     r0,r0,#3
        0x0000448e:    7028        (p      STRB     r0,[r5,#0]
        0x00004490:    e093        ..      B        0x45ba ; s_grey_drawPlane + 642
        0x00004492:    f04f0b48    O.H.    MOV      r11,#0x48
        0x00004496:    9600        ..      STR      r6,[sp,#0]
        0x00004498:    88e0        ..      LDRH     r0,[r4,#6]
        0x0000449a:    b2c2        ..      UXTB     r2,r0
        0x0000449c:    88a0        ..      LDRH     r0,[r4,#4]
        0x0000449e:    465b        [F      MOV      r3,r11
        0x000044a0:    b2c1        ..      UXTB     r1,r0
        0x000044a2:    7828        (x      LDRB     r0,[r5,#0]
        0x000044a4:    f000fad6    ....    BL       writeOneSprite ; 0x4a54
        0x000044a8:    f8cd8000    ....    STR      r8,[sp,#0]
        0x000044ac:    88e0        ..      LDRH     r0,[r4,#6]
        0x000044ae:    b2c2        ..      UXTB     r2,r0
        0x000044b0:    88a0        ..      LDRH     r0,[r4,#4]
        0x000044b2:    465b        [F      MOV      r3,r11
        0x000044b4:    3008        .0      ADDS     r0,r0,#8
        0x000044b6:    b2c1        ..      UXTB     r1,r0
        0x000044b8:    7828        (x      LDRB     r0,[r5,#0]
        0x000044ba:    1c40        @.      ADDS     r0,r0,#1
        0x000044bc:    b2c0        ..      UXTB     r0,r0
        0x000044be:    f000fac9    ....    BL       writeOneSprite ; 0x4a54
        0x000044c2:    9600        ..      STR      r6,[sp,#0]
        0x000044c4:    88e0        ..      LDRH     r0,[r4,#6]
        0x000044c6:    2349        I#      MOVS     r3,#0x49
        0x000044c8:    3008        .0      ADDS     r0,r0,#8
        0x000044ca:    b2c2        ..      UXTB     r2,r0
        0x000044cc:    88a0        ..      LDRH     r0,[r4,#4]
        0x000044ce:    1d00        ..      ADDS     r0,r0,#4
        0x000044d0:    b2c1        ..      UXTB     r1,r0
        0x000044d2:    7828        (x      LDRB     r0,[r5,#0]
        0x000044d4:    1c80        ..      ADDS     r0,r0,#2
        0x000044d6:    b2c0        ..      UXTB     r0,r0
        0x000044d8:    f000fabc    ....    BL       writeOneSprite ; 0x4a54
        0x000044dc:    7828        (x      LDRB     r0,[r5,#0]
        0x000044de:    1cc0        ..      ADDS     r0,r0,#3
        0x000044e0:    7028        (p      STRB     r0,[r5,#0]
        0x000044e2:    e06a        j.      B        0x45ba ; s_grey_drawPlane + 642
        0x000044e4:    9600        ..      STR      r6,[sp,#0]
        0x000044e6:    88e0        ..      LDRH     r0,[r4,#6]
        0x000044e8:    b2c2        ..      UXTB     r2,r0
        0x000044ea:    88a0        ..      LDRH     r0,[r4,#4]
        0x000044ec:    234b        K#      MOVS     r3,#0x4b
        0x000044ee:    b2c1        ..      UXTB     r1,r0
        0x000044f0:    7828        (x      LDRB     r0,[r5,#0]
        0x000044f2:    f000faaf    ....    BL       writeOneSprite ; 0x4a54
        0x000044f6:    f8cd8000    ....    STR      r8,[sp,#0]
        0x000044fa:    88e0        ..      LDRH     r0,[r4,#6]
        0x000044fc:    b2c2        ..      UXTB     r2,r0
        0x000044fe:    88a0        ..      LDRH     r0,[r4,#4]
        0x00004500:    234a        J#      MOVS     r3,#0x4a
        0x00004502:    3008        .0      ADDS     r0,r0,#8
        0x00004504:    b2c1        ..      UXTB     r1,r0
        0x00004506:    7828        (x      LDRB     r0,[r5,#0]
        0x00004508:    1c40        @.      ADDS     r0,r0,#1
        0x0000450a:    b2c0        ..      UXTB     r0,r0
        0x0000450c:    f000faa2    ....    BL       writeOneSprite ; 0x4a54
        0x00004510:    9600        ..      STR      r6,[sp,#0]
        0x00004512:    88e0        ..      LDRH     r0,[r4,#6]
        0x00004514:    3808        .8      SUBS     r0,r0,#8
        0x00004516:    b2c2        ..      UXTB     r2,r0
        0x00004518:    88a0        ..      LDRH     r0,[r4,#4]
        0x0000451a:    234c        L#      MOVS     r3,#0x4c
        0x0000451c:    1d00        ..      ADDS     r0,r0,#4
        0x0000451e:    b2c1        ..      UXTB     r1,r0
        0x00004520:    7828        (x      LDRB     r0,[r5,#0]
        0x00004522:    1c80        ..      ADDS     r0,r0,#2
        0x00004524:    b2c0        ..      UXTB     r0,r0
        0x00004526:    f000fa95    ....    BL       writeOneSprite ; 0x4a54
        0x0000452a:    7828        (x      LDRB     r0,[r5,#0]
        0x0000452c:    1cc0        ..      ADDS     r0,r0,#3
        0x0000452e:    7028        (p      STRB     r0,[r5,#0]
        0x00004530:    e043        C.      B        0x45ba ; s_grey_drawPlane + 642
        0x00004532:    9600        ..      STR      r6,[sp,#0]
        0x00004534:    88e0        ..      LDRH     r0,[r4,#6]
        0x00004536:    b2c2        ..      UXTB     r2,r0
        0x00004538:    88a0        ..      LDRH     r0,[r4,#4]
        0x0000453a:    234d        M#      MOVS     r3,#0x4d
        0x0000453c:    b2c1        ..      UXTB     r1,r0
        0x0000453e:    7828        (x      LDRB     r0,[r5,#0]
        0x00004540:    f000fa88    ....    BL       writeOneSprite ; 0x4a54
        0x00004544:    f8cd8000    ....    STR      r8,[sp,#0]
        0x00004548:    88e0        ..      LDRH     r0,[r4,#6]
        0x0000454a:    3808        .8      SUBS     r0,r0,#8
        0x0000454c:    b2c2        ..      UXTB     r2,r0
        0x0000454e:    88a0        ..      LDRH     r0,[r4,#4]
        0x00004550:    b2c1        ..      UXTB     r1,r0
        0x00004552:    7828        (x      LDRB     r0,[r5,#0]
        0x00004554:    1c40        @.      ADDS     r0,r0,#1
        0x00004556:    b2c0        ..      UXTB     r0,r0
        0x00004558:    234e        N#      MOVS     r3,#0x4e
        0x0000455a:    e000        ..      B        0x455e ; s_grey_drawPlane + 550
        0x0000455c:    e005        ..      B        0x456a ; s_grey_drawPlane + 562
        0x0000455e:    f000fa79    ..y.    BL       writeOneSprite ; 0x4a54
        0x00004562:    7828        (x      LDRB     r0,[r5,#0]
        0x00004564:    1c80        ..      ADDS     r0,r0,#2
        0x00004566:    7028        (p      STRB     r0,[r5,#0]
        0x00004568:    e027        '.      B        0x45ba ; s_grey_drawPlane + 642
        0x0000456a:    f8cd8000    ....    STR      r8,[sp,#0]
        0x0000456e:    88e0        ..      LDRH     r0,[r4,#6]
        0x00004570:    b2c2        ..      UXTB     r2,r0
        0x00004572:    88a0        ..      LDRH     r0,[r4,#4]
        0x00004574:    2350        P#      MOVS     r3,#0x50
        0x00004576:    b2c1        ..      UXTB     r1,r0
        0x00004578:    7828        (x      LDRB     r0,[r5,#0]
        0x0000457a:    f000fa6b    ..k.    BL       writeOneSprite ; 0x4a54
        0x0000457e:    f8cd8000    ....    STR      r8,[sp,#0]
        0x00004582:    88e0        ..      LDRH     r0,[r4,#6]
        0x00004584:    b2c2        ..      UXTB     r2,r0
        0x00004586:    88a0        ..      LDRH     r0,[r4,#4]
        0x00004588:    234f        O#      MOVS     r3,#0x4f
        0x0000458a:    3008        .0      ADDS     r0,r0,#8
        0x0000458c:    b2c1        ..      UXTB     r1,r0
        0x0000458e:    7828        (x      LDRB     r0,[r5,#0]
        0x00004590:    1c40        @.      ADDS     r0,r0,#1
        0x00004592:    b2c0        ..      UXTB     r0,r0
        0x00004594:    f000fa5e    ..^.    BL       writeOneSprite ; 0x4a54
        0x00004598:    f8cd8000    ....    STR      r8,[sp,#0]
        0x0000459c:    88e0        ..      LDRH     r0,[r4,#6]
        0x0000459e:    1fc0        ..      SUBS     r0,r0,#7
        0x000045a0:    b2c2        ..      UXTB     r2,r0
        0x000045a2:    88a0        ..      LDRH     r0,[r4,#4]
        0x000045a4:    2351        Q#      MOVS     r3,#0x51
        0x000045a6:    1d00        ..      ADDS     r0,r0,#4
        0x000045a8:    b2c1        ..      UXTB     r1,r0
        0x000045aa:    7828        (x      LDRB     r0,[r5,#0]
        0x000045ac:    1c80        ..      ADDS     r0,r0,#2
        0x000045ae:    b2c0        ..      UXTB     r0,r0
        0x000045b0:    f000fa50    ..P.    BL       writeOneSprite ; 0x4a54
        0x000045b4:    7828        (x      LDRB     r0,[r5,#0]
        0x000045b6:    1cc0        ..      ADDS     r0,r0,#3
        0x000045b8:    7028        (p      STRB     r0,[r5,#0]
        0x000045ba:    1c7f        ..      ADDS     r7,r7,#1
        0x000045bc:    f89a0000    ....    LDRB     r0,[r10,#0]
        0x000045c0:    4287        .B      CMP      r7,r0
        0x000045c2:    f6ffaec3    ....    BLT      0x434c ; s_grey_drawPlane + 20
        0x000045c6:    e8bd8ff8    ....    POP      {r3-r11,pc}
    $d
        0x000045ca:    0000        ..      DCW    0
        0x000045cc:    00004a79    yJ..    DCD    19065
    $t
    i.s_grey_movePlane
    s_grey_movePlane
        0x000045d0:    e92d4ff7    -..O    PUSH     {r0-r2,r4-r11,lr}
        0x000045d4:    460d        .F      MOV      r5,r1
        0x000045d6:    2600        .&      MOVS     r6,#0
        0x000045d8:    f04f0903    O...    MOV      r9,#3
        0x000045dc:    2700        .'      MOVS     r7,#0
        0x000045de:    f04f0a05    O...    MOV      r10,#5
        0x000045e2:    f04f0b01    O...    MOV      r11,#1
        0x000045e6:    f04f0802    O...    MOV      r8,#2
        0x000045ea:    e00b        ..      B        0x4604 ; s_grey_movePlane + 52
        0x000045ec:    9800        ..      LDR      r0,[sp,#0]
        0x000045ee:    eb001406    ....    ADD      r4,r0,r6,LSL #4
        0x000045f2:    7820         x      LDRB     r0,[r4,#0]
        0x000045f4:    b128        (.      CBZ      r0,0x4602 ; s_grey_movePlane + 50
        0x000045f6:    78a0        .x      LDRB     r0,[r4,#2]
        0x000045f8:    2802        .(      CMP      r0,#2
        0x000045fa:    d009        ..      BEQ      0x4610 ; s_grey_movePlane + 64
        0x000045fc:    78a0        .x      LDRB     r0,[r4,#2]
        0x000045fe:    1c40        @.      ADDS     r0,r0,#1
        0x00004600:    70a0        .p      STRB     r0,[r4,#2]
        0x00004602:    1c76        v.      ADDS     r6,r6,#1
        0x00004604:    4882        .H      LDR      r0,[pc,#520] ; [0x4810] = 0x4a79
        0x00004606:    7800        .x      LDRB     r0,[r0,#0]
        0x00004608:    4286        .B      CMP      r6,r0
        0x0000460a:    dbef        ..      BLT      0x45ec ; s_grey_movePlane + 28
        0x0000460c:    e8bd8ffe    ....    POP      {r1-r11,pc}
        0x00004610:    70a7        .p      STRB     r7,[r4,#2]
        0x00004612:    f9b40004    ....    LDRSH    r0,[r4,#4]
        0x00004616:    2805        .(      CMP      r0,#5
        0x00004618:    db0b        ..      BLT      0x4632 ; s_grey_movePlane + 98
        0x0000461a:    f9b40004    ....    LDRSH    r0,[r4,#4]
        0x0000461e:    28fb        .(      CMP      r0,#0xfb
        0x00004620:    dc07        ..      BGT      0x4632 ; s_grey_movePlane + 98
        0x00004622:    f9b40006    ....    LDRSH    r0,[r4,#6]
        0x00004626:    280a        .(      CMP      r0,#0xa
        0x00004628:    db03        ..      BLT      0x4632 ; s_grey_movePlane + 98
        0x0000462a:    f9b40006    ....    LDRSH    r0,[r4,#6]
        0x0000462e:    28e6        .(      CMP      r0,#0xe6
        0x00004630:    dd03        ..      BLE      0x463a ; s_grey_movePlane + 106
        0x00004632:    7027        'p      STRB     r7,[r4,#0]
        0x00004634:    80a7        ..      STRH     r7,[r4,#4]
        0x00004636:    80e7        ..      STRH     r7,[r4,#6]
        0x00004638:    e7e3        ..      B        0x4602 ; s_grey_movePlane + 50
        0x0000463a:    7aa0        .z      LDRB     r0,[r4,#0xa]
        0x0000463c:    b178        x.      CBZ      r0,0x465e ; s_grey_movePlane + 142
        0x0000463e:    7aa0        .z      LDRB     r0,[r4,#0xa]
        0x00004640:    2801        .(      CMP      r0,#1
        0x00004642:    d072        r.      BEQ      0x472a ; s_grey_movePlane + 346
        0x00004644:    7aa0        .z      LDRB     r0,[r4,#0xa]
        0x00004646:    2802        .(      CMP      r0,#2
        0x00004648:    d1db        ..      BNE      0x4602 ; s_grey_movePlane + 50
        0x0000464a:    7ba0        .{      LDRB     r0,[r4,#0xe]
        0x0000464c:    2807        .(      CMP      r0,#7
        0x0000464e:    d2d8        ..      BCS      0x4602 ; s_grey_movePlane + 50
        0x00004650:    e8dff000    ....    TBB      [pc,r0]
    $d
        0x00004654:    c2bbb504    ....    DCD    3267081476
        0x00004658:    00d6cfc9    ....    DCD    14077897
    $t
        0x0000465c:    e7d1        ..      B        0x4602 ; s_grey_movePlane + 50
        0x0000465e:    f7fbfd7b    ..{.    BL       rand ; 0x158
        0x00004662:    eb000080    ....    ADD      r0,r0,r0,LSL #2
        0x00004666:    0080        ..      LSLS     r0,r0,#2
        0x00004668:    fb90f1f9    ....    SDIV     r1,r0,r9
        0x0000466c:    fb090011    ....    MLS      r0,r9,r1,r0
        0x00004670:    f9b51002    ....    LDRSH    r1,[r5,#2]
        0x00004674:    1a08        ..      SUBS     r0,r1,r0
        0x00004676:    f9b41006    ....    LDRSH    r1,[r4,#6]
        0x0000467a:    3828        (8      SUBS     r0,r0,#0x28
        0x0000467c:    4288        .B      CMP      r0,r1
        0x0000467e:    dc70        p.      BGT      0x4762 ; s_grey_movePlane + 402
        0x00004680:    7a20         z      LDRB     r0,[r4,#8]
        0x00004682:    2801        .(      CMP      r0,#1
        0x00004684:    d105        ..      BNE      0x4692 ; s_grey_movePlane + 194
        0x00004686:    4621        !F      MOV      r1,r4
        0x00004688:    462a        *F      MOV      r2,r5
        0x0000468a:    9802        ..      LDR      r0,[sp,#8]
        0x0000468c:    f7fffc7a    ..z.    BL       s_grey_createOneEnmeyBullet ; 0x3f84
        0x00004690:    7227        'r      STRB     r7,[r4,#8]
        0x00004692:    7a60        `z      LDRB     r0,[r4,#9]
        0x00004694:    b148        H.      CBZ      r0,0x46aa ; s_grey_movePlane + 218
        0x00004696:    7ae0        .z      LDRB     r0,[r4,#0xb]
        0x00004698:    2804        .(      CMP      r0,#4
        0x0000469a:    d037        7.      BEQ      0x470c ; s_grey_movePlane + 316
        0x0000469c:    7ae0        .z      LDRB     r0,[r4,#0xb]
        0x0000469e:    2805        .(      CMP      r0,#5
        0x000046a0:    d047        G.      BEQ      0x4732 ; s_grey_movePlane + 354
        0x000046a2:    7ae0        .z      LDRB     r0,[r4,#0xb]
        0x000046a4:    2806        .(      CMP      r0,#6
        0x000046a6:    d047        G.      BEQ      0x4738 ; s_grey_movePlane + 360
        0x000046a8:    e048        H.      B        0x473c ; s_grey_movePlane + 364
        0x000046aa:    f9b40004    ....    LDRSH    r0,[r4,#4]
        0x000046ae:    f9b51000    ....    LDRSH    r1,[r5,#0]
        0x000046b2:    4288        .B      CMP      r0,r1
        0x000046b4:    da10        ..      BGE      0x46d8 ; s_grey_movePlane + 264
        0x000046b6:    f9b50000    ....    LDRSH    r0,[r5,#0]
        0x000046ba:    f9b41004    ....    LDRSH    r1,[r4,#4]
        0x000046be:    1a40        @.      SUBS     r0,r0,r1
        0x000046c0:    283c        <(      CMP      r0,#0x3c
        0x000046c2:    da09        ..      BGE      0x46d8 ; s_grey_movePlane + 264
        0x000046c4:    f9b50000    ....    LDRSH    r0,[r5,#0]
        0x000046c8:    f9b41004    ....    LDRSH    r1,[r4,#4]
        0x000046cc:    1a40        @.      SUBS     r0,r0,r1
        0x000046ce:    2800        .(      CMP      r0,#0
        0x000046d0:    dd02        ..      BLE      0x46d8 ; s_grey_movePlane + 264
        0x000046d2:    2006        .       MOVS     r0,#6
        0x000046d4:    73a0        .s      STRB     r0,[r4,#0xe]
        0x000046d6:    e031        1.      B        0x473c ; s_grey_movePlane + 364
        0x000046d8:    f9b40004    ....    LDRSH    r0,[r4,#4]
        0x000046dc:    f9b51000    ....    LDRSH    r1,[r5,#0]
        0x000046e0:    4288        .B      CMP      r0,r1
        0x000046e2:    dd10        ..      BLE      0x4706 ; s_grey_movePlane + 310
        0x000046e4:    f9b40004    ....    LDRSH    r0,[r4,#4]
        0x000046e8:    f9b51000    ....    LDRSH    r1,[r5,#0]
        0x000046ec:    1a40        @.      SUBS     r0,r0,r1
        0x000046ee:    2832        2(      CMP      r0,#0x32
        0x000046f0:    da09        ..      BGE      0x4706 ; s_grey_movePlane + 310
        0x000046f2:    f9b40004    ....    LDRSH    r0,[r4,#4]
        0x000046f6:    f9b51000    ....    LDRSH    r1,[r5,#0]
        0x000046fa:    1a40        @.      SUBS     r0,r0,r1
        0x000046fc:    2800        .(      CMP      r0,#0
        0x000046fe:    dd02        ..      BLE      0x4706 ; s_grey_movePlane + 310
        0x00004700:    f884a00e    ....    STRB     r10,[r4,#0xe]
        0x00004704:    e01a        ..      B        0x473c ; s_grey_movePlane + 364
        0x00004706:    2004        .       MOVS     r0,#4
        0x00004708:    73a0        .s      STRB     r0,[r4,#0xe]
        0x0000470a:    e017        ..      B        0x473c ; s_grey_movePlane + 364
        0x0000470c:    7327        's      STRB     r7,[r4,#0xc]
        0x0000470e:    f884900d    ....    STRB     r9,[r4,#0xd]
        0x00004712:    f7fbfd21    ..!.    BL       rand ; 0x158
        0x00004716:    eb0071d0    ...q    ADD      r1,r0,r0,LSR #31
        0x0000471a:    f0210101    !...    BIC      r1,r1,#1
        0x0000471e:    1a40        @.      SUBS     r0,r0,r1
        0x00004720:    b2c0        ..      UXTB     r0,r0
        0x00004722:    b118        ..      CBZ      r0,0x472c ; s_grey_movePlane + 348
        0x00004724:    f884900e    ....    STRB     r9,[r4,#0xe]
        0x00004728:    e008        ..      B        0x473c ; s_grey_movePlane + 364
        0x0000472a:    e025        %.      B        0x4778 ; s_grey_movePlane + 424
        0x0000472c:    f884800e    ....    STRB     r8,[r4,#0xe]
        0x00004730:    e004        ..      B        0x473c ; s_grey_movePlane + 364
        0x00004732:    f884800e    ....    STRB     r8,[r4,#0xe]
        0x00004736:    e001        ..      B        0x473c ; s_grey_movePlane + 364
        0x00004738:    f884900e    ....    STRB     r9,[r4,#0xe]
        0x0000473c:    7a60        `z      LDRB     r0,[r4,#9]
        0x0000473e:    2801        .(      CMP      r0,#1
        0x00004740:    d007        ..      BEQ      0x4752 ; s_grey_movePlane + 386
        0x00004742:    7ba0        .{      LDRB     r0,[r4,#0xe]
        0x00004744:    2804        .(      CMP      r0,#4
        0x00004746:    d008        ..      BEQ      0x475a ; s_grey_movePlane + 394
        0x00004748:    f884b00a    ....    STRB     r11,[r4,#0xa]
        0x0000474c:    f884a00f    ....    STRB     r10,[r4,#0xf]
        0x00004750:    e757        W.      B        0x4602 ; s_grey_movePlane + 50
        0x00004752:    73e7        .s      STRB     r7,[r4,#0xf]
        0x00004754:    f884b00a    ....    STRB     r11,[r4,#0xa]
        0x00004758:    e753        S.      B        0x4602 ; s_grey_movePlane + 50
        0x0000475a:    f884800a    ....    STRB     r8,[r4,#0xa]
        0x0000475e:    e750        P.      B        0x4602 ; s_grey_movePlane + 50
        0x00004760:    e7ff        ..      B        0x4762 ; s_grey_movePlane + 402
        0x00004762:    88a0        ..      LDRH     r0,[r4,#4]
        0x00004764:    f994100c    ....    LDRSB    r1,[r4,#0xc]
        0x00004768:    4408        .D      ADD      r0,r0,r1
        0x0000476a:    80a0        ..      STRH     r0,[r4,#4]
        0x0000476c:    88e0        ..      LDRH     r0,[r4,#6]
        0x0000476e:    f994100d    ....    LDRSB    r1,[r4,#0xd]
        0x00004772:    4408        .D      ADD      r0,r0,r1
        0x00004774:    80e0        ..      STRH     r0,[r4,#6]
        0x00004776:    e744        D.      B        0x4602 ; s_grey_movePlane + 50
        0x00004778:    7a60        `z      LDRB     r0,[r4,#9]
        0x0000477a:    2801        .(      CMP      r0,#1
        0x0000477c:    d00f        ..      BEQ      0x479e ; s_grey_movePlane + 462
        0x0000477e:    88a0        ..      LDRH     r0,[r4,#4]
        0x00004780:    80a0        ..      STRH     r0,[r4,#4]
        0x00004782:    88e0        ..      LDRH     r0,[r4,#6]
        0x00004784:    80e0        ..      STRH     r0,[r4,#6]
        0x00004786:    7be0        .{      LDRB     r0,[r4,#0xf]
        0x00004788:    2807        .(      CMP      r0,#7
        0x0000478a:    d2e1        ..      BCS      0x4750 ; s_grey_movePlane + 384
        0x0000478c:    7be0        .{      LDRB     r0,[r4,#0xf]
        0x0000478e:    1c40        @.      ADDS     r0,r0,#1
        0x00004790:    73e0        .s      STRB     r0,[r4,#0xf]
        0x00004792:    7be0        .{      LDRB     r0,[r4,#0xf]
        0x00004794:    2807        .(      CMP      r0,#7
        0x00004796:    d1db        ..      BNE      0x4750 ; s_grey_movePlane + 384
        0x00004798:    f884800a    ....    STRB     r8,[r4,#0xa]
        0x0000479c:    e731        1.      B        0x4602 ; s_grey_movePlane + 50
        0x0000479e:    88a0        ..      LDRH     r0,[r4,#4]
        0x000047a0:    80a0        ..      STRH     r0,[r4,#4]
        0x000047a2:    88e0        ..      LDRH     r0,[r4,#6]
        0x000047a4:    80e0        ..      STRH     r0,[r4,#6]
        0x000047a6:    7be0        .{      LDRB     r0,[r4,#0xf]
        0x000047a8:    2804        .(      CMP      r0,#4
        0x000047aa:    d2d1        ..      BCS      0x4750 ; s_grey_movePlane + 384
        0x000047ac:    7be0        .{      LDRB     r0,[r4,#0xf]
        0x000047ae:    1c40        @.      ADDS     r0,r0,#1
        0x000047b0:    73e0        .s      STRB     r0,[r4,#0xf]
        0x000047b2:    7be0        .{      LDRB     r0,[r4,#0xf]
        0x000047b4:    2804        .(      CMP      r0,#4
        0x000047b6:    d1cb        ..      BNE      0x4750 ; s_grey_movePlane + 384
        0x000047b8:    f884800a    ....    STRB     r8,[r4,#0xa]
        0x000047bc:    e721        !.      B        0x4602 ; s_grey_movePlane + 50
        0x000047be:    88a0        ..      LDRH     r0,[r4,#4]
        0x000047c0:    80a0        ..      STRH     r0,[r4,#4]
        0x000047c2:    88e0        ..      LDRH     r0,[r4,#6]
        0x000047c4:    1f00        ..      SUBS     r0,r0,#4
        0x000047c6:    80e0        ..      STRH     r0,[r4,#6]
        0x000047c8:    e71b        ..      B        0x4602 ; s_grey_movePlane + 50
        0x000047ca:    88a0        ..      LDRH     r0,[r4,#4]
        0x000047cc:    1e80        ..      SUBS     r0,r0,#2
        0x000047ce:    80a0        ..      STRH     r0,[r4,#4]
        0x000047d0:    88e0        ..      LDRH     r0,[r4,#6]
        0x000047d2:    1ec0        ..      SUBS     r0,r0,#3
        0x000047d4:    80e0        ..      STRH     r0,[r4,#6]
        0x000047d6:    e714        ..      B        0x4602 ; s_grey_movePlane + 50
        0x000047d8:    88a0        ..      LDRH     r0,[r4,#4]
        0x000047da:    1c80        ..      ADDS     r0,r0,#2
        0x000047dc:    80a0        ..      STRH     r0,[r4,#4]
        0x000047de:    88e0        ..      LDRH     r0,[r4,#6]
        0x000047e0:    1ec0        ..      SUBS     r0,r0,#3
        0x000047e2:    80e0        ..      STRH     r0,[r4,#6]
        0x000047e4:    e70d        ..      B        0x4602 ; s_grey_movePlane + 50
        0x000047e6:    88a0        ..      LDRH     r0,[r4,#4]
        0x000047e8:    80a0        ..      STRH     r0,[r4,#4]
        0x000047ea:    88e0        ..      LDRH     r0,[r4,#6]
        0x000047ec:    1d40        @.      ADDS     r0,r0,#5
        0x000047ee:    80e0        ..      STRH     r0,[r4,#6]
        0x000047f0:    e707        ..      B        0x4602 ; s_grey_movePlane + 50
        0x000047f2:    88a0        ..      LDRH     r0,[r4,#4]
        0x000047f4:    1e80        ..      SUBS     r0,r0,#2
        0x000047f6:    80a0        ..      STRH     r0,[r4,#4]
        0x000047f8:    88e0        ..      LDRH     r0,[r4,#6]
        0x000047fa:    1cc0        ..      ADDS     r0,r0,#3
        0x000047fc:    80e0        ..      STRH     r0,[r4,#6]
        0x000047fe:    e700        ..      B        0x4602 ; s_grey_movePlane + 50
        0x00004800:    88a0        ..      LDRH     r0,[r4,#4]
        0x00004802:    1c80        ..      ADDS     r0,r0,#2
        0x00004804:    80a0        ..      STRH     r0,[r4,#4]
        0x00004806:    88e0        ..      LDRH     r0,[r4,#6]
        0x00004808:    1cc0        ..      ADDS     r0,r0,#3
        0x0000480a:    80e0        ..      STRH     r0,[r4,#6]
        0x0000480c:    e6f9        ..      B        0x4602 ; s_grey_movePlane + 50
    $d
        0x0000480e:    0000        ..      DCW    0
        0x00004810:    00004a79    yJ..    DCD    19065
    $t
    i.s_grey_planeInit
    s_grey_planeInit
        0x00004814:    b530        0.      PUSH     {r4,r5,lr}
        0x00004816:    2200        ."      MOVS     r2,#0
        0x00004818:    4d08        .M      LDR      r5,[pc,#32] ; [0x483c] = 0x4a79
        0x0000481a:    e00b        ..      B        0x4834 ; s_grey_planeInit + 32
        0x0000481c:    eb001102    ....    ADD      r1,r0,r2,LSL #4
        0x00004820:    2300        .#      MOVS     r3,#0
        0x00004822:    808b        ..      STRH     r3,[r1,#4]
        0x00004824:    80cb        ..      STRH     r3,[r1,#6]
        0x00004826:    700b        .p      STRB     r3,[r1,#0]
        0x00004828:    2401        .$      MOVS     r4,#1
        0x0000482a:    704c        Lp      STRB     r4,[r1,#1]
        0x0000482c:    708b        .p      STRB     r3,[r1,#2]
        0x0000482e:    720b        .r      STRB     r3,[r1,#8]
        0x00004830:    724c        Lr      STRB     r4,[r1,#9]
        0x00004832:    1c52        R.      ADDS     r2,r2,#1
        0x00004834:    7829        )x      LDRB     r1,[r5,#0]
        0x00004836:    428a        .B      CMP      r2,r1
        0x00004838:    dbf0        ..      BLT      0x481c ; s_grey_planeInit + 8
        0x0000483a:    bd30        0.      POP      {r4,r5,pc}
    $d
        0x0000483c:    00004a79    yJ..    DCD    19065
    $t
    i.set_frame
    set_frame
        0x00004840:    4901        .I      LDR      r1,[pc,#4] ; [0x4848] = 0x50030000
        0x00004842:    75c8        .u      STRB     r0,[r1,#0x17]
        0x00004844:    4770        pG      BX       lr
    $d
        0x00004846:    0000        ..      DCW    0
        0x00004848:    50030000    ...P    DCD    1342373888
    $t
    i.set_noise_00
    set_noise_00
        0x0000484c:    4901        .I      LDR      r1,[pc,#4] ; [0x4854] = 0x50030000
        0x0000484e:    7308        .s      STRB     r0,[r1,#0xc]
        0x00004850:    4770        pG      BX       lr
    $d
        0x00004852:    0000        ..      DCW    0
        0x00004854:    50030000    ...P    DCD    1342373888
    $t
    i.set_noise_01
    set_noise_01
        0x00004858:    4901        .I      LDR      r1,[pc,#4] ; [0x4860] = 0x50030000
        0x0000485a:    7348        Hs      STRB     r0,[r1,#0xd]
        0x0000485c:    4770        pG      BX       lr
    $d
        0x0000485e:    0000        ..      DCW    0
        0x00004860:    50030000    ...P    DCD    1342373888
    $t
    i.set_noise_10
    set_noise_10
        0x00004864:    4901        .I      LDR      r1,[pc,#4] ; [0x486c] = 0x50030000
        0x00004866:    7388        .s      STRB     r0,[r1,#0xe]
        0x00004868:    4770        pG      BX       lr
    $d
        0x0000486a:    0000        ..      DCW    0
        0x0000486c:    50030000    ...P    DCD    1342373888
    $t
    i.set_noise_11
    set_noise_11
        0x00004870:    4901        .I      LDR      r1,[pc,#4] ; [0x4878] = 0x50030000
        0x00004872:    73c8        .s      STRB     r0,[r1,#0xf]
        0x00004874:    4770        pG      BX       lr
    $d
        0x00004876:    0000        ..      DCW    0
        0x00004878:    50030000    ...P    DCD    1342373888
    $t
    i.set_pulse0_00
    set_pulse0_00
        0x0000487c:    4901        .I      LDR      r1,[pc,#4] ; [0x4884] = 0x50030000
        0x0000487e:    7008        .p      STRB     r0,[r1,#0]
        0x00004880:    4770        pG      BX       lr
    $d
        0x00004882:    0000        ..      DCW    0
        0x00004884:    50030000    ...P    DCD    1342373888
    $t
    i.set_pulse0_01
    set_pulse0_01
        0x00004888:    4901        .I      LDR      r1,[pc,#4] ; [0x4890] = 0x50030000
        0x0000488a:    7048        Hp      STRB     r0,[r1,#1]
        0x0000488c:    4770        pG      BX       lr
    $d
        0x0000488e:    0000        ..      DCW    0
        0x00004890:    50030000    ...P    DCD    1342373888
    $t
    i.set_pulse0_10
    set_pulse0_10
        0x00004894:    4901        .I      LDR      r1,[pc,#4] ; [0x489c] = 0x50030000
        0x00004896:    7088        .p      STRB     r0,[r1,#2]
        0x00004898:    4770        pG      BX       lr
    $d
        0x0000489a:    0000        ..      DCW    0
        0x0000489c:    50030000    ...P    DCD    1342373888
    $t
    i.set_pulse0_11
    set_pulse0_11
        0x000048a0:    4901        .I      LDR      r1,[pc,#4] ; [0x48a8] = 0x50030000
        0x000048a2:    70c8        .p      STRB     r0,[r1,#3]
        0x000048a4:    4770        pG      BX       lr
    $d
        0x000048a6:    0000        ..      DCW    0
        0x000048a8:    50030000    ...P    DCD    1342373888
    $t
    i.set_pulse1_00
    set_pulse1_00
        0x000048ac:    4901        .I      LDR      r1,[pc,#4] ; [0x48b4] = 0x50030000
        0x000048ae:    7108        .q      STRB     r0,[r1,#4]
        0x000048b0:    4770        pG      BX       lr
    $d
        0x000048b2:    0000        ..      DCW    0
        0x000048b4:    50030000    ...P    DCD    1342373888
    $t
    i.set_pulse1_01
    set_pulse1_01
        0x000048b8:    4901        .I      LDR      r1,[pc,#4] ; [0x48c0] = 0x50030000
        0x000048ba:    7148        Hq      STRB     r0,[r1,#5]
        0x000048bc:    4770        pG      BX       lr
    $d
        0x000048be:    0000        ..      DCW    0
        0x000048c0:    50030000    ...P    DCD    1342373888
    $t
    i.set_pulse1_10
    set_pulse1_10
        0x000048c4:    4901        .I      LDR      r1,[pc,#4] ; [0x48cc] = 0x50030000
        0x000048c6:    7188        .q      STRB     r0,[r1,#6]
        0x000048c8:    4770        pG      BX       lr
    $d
        0x000048ca:    0000        ..      DCW    0
        0x000048cc:    50030000    ...P    DCD    1342373888
    $t
    i.set_pulse1_11
    set_pulse1_11
        0x000048d0:    4901        .I      LDR      r1,[pc,#4] ; [0x48d8] = 0x50030000
        0x000048d2:    71c8        .q      STRB     r0,[r1,#7]
        0x000048d4:    4770        pG      BX       lr
    $d
        0x000048d6:    0000        ..      DCW    0
        0x000048d8:    50030000    ...P    DCD    1342373888
    $t
    i.set_state
    set_state
        0x000048dc:    4901        .I      LDR      r1,[pc,#4] ; [0x48e4] = 0x50030000
        0x000048de:    7548        Hu      STRB     r0,[r1,#0x15]
        0x000048e0:    4770        pG      BX       lr
    $d
        0x000048e2:    0000        ..      DCW    0
        0x000048e4:    50030000    ...P    DCD    1342373888
    $t
    i.tileMap
    tileMap
        0x000048e8:    08c3        ..      LSRS     r3,r0,#3
        0x000048ea:    08c8        ..      LSRS     r0,r1,#3
        0x000048ec:    2101        .!      MOVS     r1,#1
        0x000048ee:    4099        .@      LSLS     r1,r1,r3
        0x000048f0:    f8523020    R. 0    LDR      r3,[r2,r0,LSL #2]
        0x000048f4:    430b        .C      ORRS     r3,r3,r1
        0x000048f6:    f8423020    B. 0    STR      r3,[r2,r0,LSL #2]
        0x000048fa:    4770        pG      BX       lr
    i.triangle_Handler
    triangle_Handler
        0x000048fc:    4770        pG      BX       lr
    i.uart_SendChar
    uart_SendChar
        0x000048fe:    6842        Bh      LDR      r2,[r0,#4]
        0x00004900:    07d2        ..      LSLS     r2,r2,#31
        0x00004902:    d1fc        ..      BNE      uart_SendChar ; 0x48fe
        0x00004904:    6001        .`      STR      r1,[r0,#0]
        0x00004906:    4770        pG      BX       lr
    i.uart_init
    uart_init
        0x00004908:    b5f0        ..      PUSH     {r4-r7,lr}
        0x0000490a:    ad05        ..      ADD      r5,sp,#0x14
        0x0000490c:    e89510e0    ....    LDM      r5,{r5-r7,r12}
        0x00004910:    2400        .$      MOVS     r4,#0
        0x00004912:    2a00        .*      CMP      r2,#0
        0x00004914:    d000        ..      BEQ      0x4918 ; uart_init + 16
        0x00004916:    2401        .$      MOVS     r4,#1
        0x00004918:    b10b        ..      CBZ      r3,0x491e ; uart_init + 22
        0x0000491a:    f0440402    D...    ORR      r4,r4,#2
        0x0000491e:    b10d        ..      CBZ      r5,0x4924 ; uart_init + 28
        0x00004920:    f0440404    D...    ORR      r4,r4,#4
        0x00004924:    b10e        ..      CBZ      r6,0x492a ; uart_init + 34
        0x00004926:    f0440408    D...    ORR      r4,r4,#8
        0x0000492a:    b10f        ..      CBZ      r7,0x4930 ; uart_init + 40
        0x0000492c:    f0440410    D...    ORR      r4,r4,#0x10
        0x00004930:    f1bc0f00    ....    CMP      r12,#0
        0x00004934:    d001        ..      BEQ      0x493a ; uart_init + 50
        0x00004936:    f0440420    D. .    ORR      r4,r4,#0x20
        0x0000493a:    2200        ."      MOVS     r2,#0
        0x0000493c:    6082        .`      STR      r2,[r0,#8]
        0x0000493e:    6101        .a      STR      r1,[r0,#0x10]
        0x00004940:    6084        .`      STR      r4,[r0,#8]
        0x00004942:    6840        @h      LDR      r0,[r0,#4]
        0x00004944:    f0100f0c    ....    TST      r0,#0xc
        0x00004948:    d001        ..      BEQ      0x494e ; uart_init + 70
        0x0000494a:    2001        .       MOVS     r0,#1
        0x0000494c:    bdf0        ..      POP      {r4-r7,pc}
        0x0000494e:    2000        .       MOVS     r0,#0
        0x00004950:    bdf0        ..      POP      {r4-r7,pc}
        0x00004952:    0000        ..      MOVS     r0,r0
    i.updateEnemyBulletData
    updateEnemyBulletData
        0x00004954:    b5f0        ..      PUSH     {r4-r7,lr}
        0x00004956:    2300        .#      MOVS     r3,#0
        0x00004958:    2400        .$      MOVS     r4,#0
        0x0000495a:    4e19        .N      LDR      r6,[pc,#100] ; [0x49c0] = 0x4a7d
        0x0000495c:    e00a        ..      B        0x4974 ; updateEnemyBulletData + 32
        0x0000495e:    eb030283    ....    ADD      r2,r3,r3,LSL #2
        0x00004962:    eb000142    ..B.    ADD      r1,r0,r2,LSL #1
        0x00004966:    794d        My      LDRB     r5,[r1,#5]
        0x00004968:    2d04        .-      CMP      r5,#4
        0x0000496a:    d007        ..      BEQ      0x497c ; updateEnemyBulletData + 40
        0x0000496c:    794a        Jy      LDRB     r2,[r1,#5]
        0x0000496e:    1c52        R.      ADDS     r2,r2,#1
        0x00004970:    714a        Jq      STRB     r2,[r1,#5]
        0x00004972:    1c5b        [.      ADDS     r3,r3,#1
        0x00004974:    7831        1x      LDRB     r1,[r6,#0]
        0x00004976:    428b        .B      CMP      r3,r1
        0x00004978:    dbf1        ..      BLT      0x495e ; updateEnemyBulletData + 10
        0x0000497a:    bdf0        ..      POP      {r4-r7,pc}
        0x0000497c:    714c        Lq      STRB     r4,[r1,#5]
        0x0000497e:    790d        .y      LDRB     r5,[r1,#4]
        0x00004980:    2d00        .-      CMP      r5,#0
        0x00004982:    d0f6        ..      BEQ      0x4972 ; updateEnemyBulletData + 30
        0x00004984:    884d        M.      LDRH     r5,[r1,#2]
        0x00004986:    890f        ..      LDRH     r7,[r1,#8]
        0x00004988:    443d        =D      ADD      r5,r5,r7
        0x0000498a:    804d        M.      STRH     r5,[r1,#2]
        0x0000498c:    f8305012    0..P    LDRH     r5,[r0,r2,LSL #1]
        0x00004990:    88cf        ..      LDRH     r7,[r1,#6]
        0x00004992:    443d        =D      ADD      r5,r5,r7
        0x00004994:    f8205012     ..P    STRH     r5,[r0,r2,LSL #1]
        0x00004998:    f9b15002    ...P    LDRSH    r5,[r1,#2]
        0x0000499c:    2de6        .-      CMP      r5,#0xe6
        0x0000499e:    dc03        ..      BGT      0x49a8 ; updateEnemyBulletData + 84
        0x000049a0:    f9b15002    ...P    LDRSH    r5,[r1,#2]
        0x000049a4:    2d0a        .-      CMP      r5,#0xa
        0x000049a6:    da01        ..      BGE      0x49ac ; updateEnemyBulletData + 88
        0x000049a8:    710c        .q      STRB     r4,[r1,#4]
        0x000049aa:    e7e2        ..      B        0x4972 ; updateEnemyBulletData + 30
        0x000049ac:    f9305012    0..P    LDRSH    r5,[r0,r2,LSL #1]
        0x000049b0:    2dfb        .-      CMP      r5,#0xfb
        0x000049b2:    dc03        ..      BGT      0x49bc ; updateEnemyBulletData + 104
        0x000049b4:    f9302012    0..     LDRSH    r2,[r0,r2,LSL #1]
        0x000049b8:    2a05        .*      CMP      r2,#5
        0x000049ba:    dada        ..      BGE      0x4972 ; updateEnemyBulletData + 30
        0x000049bc:    710c        .q      STRB     r4,[r1,#4]
        0x000049be:    e7d8        ..      B        0x4972 ; updateEnemyBulletData + 30
    $d
        0x000049c0:    00004a7d    }J..    DCD    19069
    $t
    i.vga_Handler
    vga_Handler
        0x000049c4:    4818        .H      LDR      r0,[pc,#96] ; [0x4a28] = 0x20000001
        0x000049c6:    2200        ."      MOVS     r2,#0
        0x000049c8:    7800        .x      LDRB     r0,[r0,#0]
        0x000049ca:    2801        .(      CMP      r0,#1
        0x000049cc:    d00d        ..      BEQ      0x49ea ; vga_Handler + 38
        0x000049ce:    2802        .(      CMP      r0,#2
        0x000049d0:    d10a        ..      BNE      0x49e8 ; vga_Handler + 36
        0x000049d2:    4916        .I      LDR      r1,[pc,#88] ; [0x4a2c] = 0x20000002
        0x000049d4:    7808        .x      LDRB     r0,[r1,#0]
        0x000049d6:    1c40        @.      ADDS     r0,r0,#1
        0x000049d8:    b2c0        ..      UXTB     r0,r0
        0x000049da:    7008        .p      STRB     r0,[r1,#0]
        0x000049dc:    280a        .(      CMP      r0,#0xa
        0x000049de:    d103        ..      BNE      0x49e8 ; vga_Handler + 36
        0x000049e0:    700a        .p      STRB     r2,[r1,#0]
        0x000049e2:    4913        .I      LDR      r1,[pc,#76] ; [0x4a30] = 0x20000004
        0x000049e4:    2001        .       MOVS     r0,#1
        0x000049e6:    7008        .p      STRB     r0,[r1,#0]
        0x000049e8:    4770        pG      BX       lr
        0x000049ea:    4812        .H      LDR      r0,[pc,#72] ; [0x4a34] = 0x20000006
        0x000049ec:    7801        .x      LDRB     r1,[r0,#0]
        0x000049ee:    2901        .)      CMP      r1,#1
        0x000049f0:    d1fa        ..      BNE      0x49e8 ; vga_Handler + 36
        0x000049f2:    4911        .I      LDR      r1,[pc,#68] ; [0x4a38] = 0x50020810
        0x000049f4:    680b        .h      LDR      r3,[r1,#0]
        0x000049f6:    4910        .I      LDR      r1,[pc,#64] ; [0x4a38] = 0x50020810
        0x000049f8:    3108        .1      ADDS     r1,r1,#8
        0x000049fa:    2b09        .+      CMP      r3,#9
        0x000049fc:    d101        ..      BNE      0x4a02 ; vga_Handler + 62
        0x000049fe:    680b        .h      LDR      r3,[r1,#0]
        0x00004a00:    b163        c.      CBZ      r3,0x4a1c ; vga_Handler + 88
        0x00004a02:    2202        ."      MOVS     r2,#2
        0x00004a04:    7002        .p      STRB     r2,[r0,#0]
        0x00004a06:    480d        .H      LDR      r0,[pc,#52] ; [0x4a3c] = 0x20002c38
        0x00004a08:    7900        .y      LDRB     r0,[r0,#4]
        0x00004a0a:    b110        ..      CBZ      r0,0x4a12 ; vga_Handler + 78
        0x00004a0c:    6808        .h      LDR      r0,[r1,#0]
        0x00004a0e:    2800        .(      CMP      r0,#0
        0x00004a10:    d1ea        ..      BNE      0x49e8 ; vga_Handler + 36
        0x00004a12:    480b        .H      LDR      r0,[pc,#44] ; [0x4a40] = 0x20000010
        0x00004a14:    7801        .x      LDRB     r1,[r0,#0]
        0x00004a16:    1c49        I.      ADDS     r1,r1,#1
        0x00004a18:    7001        .p      STRB     r1,[r0,#0]
        0x00004a1a:    4770        pG      BX       lr
        0x00004a1c:    2303        .#      MOVS     r3,#3
        0x00004a1e:    7003        .p      STRB     r3,[r0,#0]
        0x00004a20:    4805        .H      LDR      r0,[pc,#20] ; [0x4a38] = 0x50020810
        0x00004a22:    3810        .8      SUBS     r0,r0,#0x10
        0x00004a24:    6002        .`      STR      r2,[r0,#0]
        0x00004a26:    e7ee        ..      B        0x4a06 ; vga_Handler + 66
    $d
        0x00004a28:    20000001    ...     DCD    536870913
        0x00004a2c:    20000002    ...     DCD    536870914
        0x00004a30:    20000004    ...     DCD    536870916
        0x00004a34:    20000006    ...     DCD    536870918
        0x00004a38:    50020810    ...P    DCD    1342310416
        0x00004a3c:    20002c38    8,.     DCD    536882232
        0x00004a40:    20000010    ...     DCD    536870928
    $t
    i.writeOneNametable
    writeOneNametable
        0x00004a44:    eb001041    ..A.    ADD      r0,r0,r1,LSL #5
        0x00004a48:    4901        .I      LDR      r1,[pc,#4] ; [0x4a50] = 0x50020000
        0x00004a4a:    5442        BT      STRB     r2,[r0,r1]
        0x00004a4c:    4770        pG      BX       lr
    $d
        0x00004a4e:    0000        ..      DCW    0
        0x00004a50:    50020000    ...P    DCD    1342308352
    $t
    i.writeOneSprite
    writeOneSprite
        0x00004a54:    b530        0.      PUSH     {r4,r5,lr}
        0x00004a56:    9c03        ..      LDR      r4,[sp,#0xc]
        0x00004a58:    0085        ..      LSLS     r5,r0,#2
        0x00004a5a:    4803        .H      LDR      r0,[pc,#12] ; [0x4a68] = 0x50010000
        0x00004a5c:    4428        (D      ADD      r0,r0,r5
        0x00004a5e:    70c1        .p      STRB     r1,[r0,#3]
        0x00004a60:    7082        .p      STRB     r2,[r0,#2]
        0x00004a62:    7043        Cp      STRB     r3,[r0,#1]
        0x00004a64:    7004        .p      STRB     r4,[r0,#0]
        0x00004a66:    bd30        0.      POP      {r4,r5,pc}
    $d
        0x00004a68:    50010000    ...P    DCD    1342242816
    $t
    i.write_ov5640_config
    write_ov5640_config
        0x00004a6c:    f04f43c0    O..C    MOV      r3,#0x60000000
        0x00004a70:    6058        X`      STR      r0,[r3,#4]
        0x00004a72:    6099        .`      STR      r1,[r3,#8]
        0x00004a74:    60da        .`      STR      r2,[r3,#0xc]
        0x00004a76:    4770        pG      BX       lr
    $d.realdata
    .constdata
    MYPLANE_BULLET_NUMMAX
        0x00004a78:    0c          .       DCB    12
    .constdata
    S_GREY_NUMMAX
        0x00004a79:    0c          .       DCB    12
    .constdata
    S_GREEN_NUMMAX
        0x00004a7a:    08          .       DCB    8
    .constdata
    M_STRAIGHT_NUMMAX
        0x00004a7b:    03          .       DCB    3
    .constdata
    B_GREEN_NUMMAX
        0x00004a7c:    01          .       DCB    1
    .constdata
    ENEMY_BULLETS_NUMMAX
        0x00004a7d:    0a          .       DCB    10
    .constdata
    BOOM_NUMMAX
        0x00004a7e:    0005        ..      DCW    5
    .constdata
    sin_array
        0x00004a80:    00020001    ....    DCD    131073
        0x00004a84:    00020002    ....    DCD    131074
        0x00004a88:    00040003    ....    DCD    262147
        0x00004a8c:    00040004    ....    DCD    262148
        0x00004a90:    00050005    ....    DCD    327685
    cos_array
        0x00004a94:    00040004    ....    DCD    262148
        0x00004a98:    00040004    ....    DCD    262148
        0x00004a9c:    00030004    ....    DCD    196612
        0x00004aa0:    00020002    ....    DCD    131074
        0x00004aa4:    00000001    ....    DCD    1
    tan_array
        0x00004aa8:    00000000    ....    DCD    0
        0x00004aac:    3e3851ec    .Q8>    DCD    1043878380
        0x00004ab0:    3eb851ec    .Q.>    DCD    1052266988
        0x00004ab4:    3f147ae1    .z.?    DCD    1058306785
        0x00004ab8:    3f570a3d    =.W?    DCD    1062668861
        0x00004abc:    3f9851ec    .Q.?    DCD    1066947052
        0x00004ac0:    3fdd70a4    .p.?    DCD    1071476900
        0x00004ac4:    40300000    ..0@    DCD    1076887552
        0x00004ac8:    40b570a4    .p.@    DCD    1085632676
        0x00004acc:    43480000    ..HC    DCD    1128792064
    Region$$Table$$Base
        0x00004ad0:    00004af0    .J..    DCD    19184
        0x00004ad4:    20000000    ...     DCD    536870912
        0x00004ad8:    00002b38    8+..    DCD    11064
        0x00004adc:    00000482    ....    DCD    1154
        0x00004ae0:    000059f4    .Y..    DCD    23028
        0x00004ae4:    20002b38    8+.     DCD    536881976
        0x00004ae8:    00000cf8    ....    DCD    3320
        0x00004aec:    00000974    t...    DCD    2420
    Region$$Table$$Limit

====================================

** Section #2

    Name        : RW_IRAM1
    Type        : SHT_PROGBITS (0x00000001)
    Flags       : SHF_ALLOC + SHF_WRITE (0x00000003)
    Addr        : 0x20000000
    File Offset : 19236 (0x4b24)
    Size        : 3844 bytes (0xf04)
    Link        : SHN_UNDEF
    Info        : 0
    Alignment   : 4
    Entry Size  : 0


====================================

** Section #3

    Name        : RW_IRAM1
    Type        : SHT_NOBITS (0x00000008)
    Flags       : SHF_ALLOC + SHF_WRITE (0x00000003)
    Addr        : 0x20002b38
    File Offset : 23080 (0x5a28)
    Size        : 3320 bytes (0xcf8)
    Link        : SHN_UNDEF
    Info        : 0
    Alignment   : 8
    Entry Size  : 0


====================================

** Section #4

    Name        : .debug_abbrev
    Type        : SHT_PROGBITS (0x00000001)
    Flags       : None (0x00000000)
    Addr        : 0x00000000
    File Offset : 23080 (0x5a28)
    Size        : 1476 bytes (0x5c4)
    Link        : SHN_UNDEF
    Info        : 0
    Alignment   : 1
    Entry Size  : 0


====================================

** Section #5

    Name        : .debug_frame
    Type        : SHT_PROGBITS (0x00000001)
    Flags       : None (0x00000000)
    Addr        : 0x00000000
    File Offset : 24556 (0x5fec)
    Size        : 5116 bytes (0x13fc)
    Link        : SHN_UNDEF
    Info        : 0
    Alignment   : 1
    Entry Size  : 0


====================================

** Section #6

    Name        : .debug_info
    Type        : SHT_PROGBITS (0x00000001)
    Flags       : None (0x00000000)
    Addr        : 0x00000000
    File Offset : 29672 (0x73e8)
    Size        : 57556 bytes (0xe0d4)
    Link        : SHN_UNDEF
    Info        : 0
    Alignment   : 1
    Entry Size  : 0


====================================

** Section #7

    Name        : .debug_line
    Type        : SHT_PROGBITS (0x00000001)
    Flags       : None (0x00000000)
    Addr        : 0x00000000
    File Offset : 87228 (0x154bc)
    Size        : 23928 bytes (0x5d78)
    Link        : SHN_UNDEF
    Info        : 0
    Alignment   : 1
    Entry Size  : 0


====================================

** Section #8

    Name        : .debug_loc
    Type        : SHT_PROGBITS (0x00000001)
    Flags       : None (0x00000000)
    Addr        : 0x00000000
    File Offset : 111156 (0x1b234)
    Size        : 11456 bytes (0x2cc0)
    Link        : SHN_UNDEF
    Info        : 0
    Alignment   : 1
    Entry Size  : 0


====================================

** Section #9

    Name        : .debug_macinfo
    Type        : SHT_PROGBITS (0x00000001)
    Flags       : None (0x00000000)
    Addr        : 0x00000000
    File Offset : 122612 (0x1def4)
    Size        : 43364 bytes (0xa964)
    Link        : SHN_UNDEF
    Info        : 0
    Alignment   : 1
    Entry Size  : 0


====================================

** Section #10

    Name        : .debug_pubnames
    Type        : SHT_PROGBITS (0x00000001)
    Flags       : None (0x00000000)
    Addr        : 0x00000000
    File Offset : 165976 (0x28858)
    Size        : 8070 bytes (0x1f86)
    Link        : SHN_UNDEF
    Info        : 0
    Alignment   : 1
    Entry Size  : 0


====================================

** Section #11

    Name        : .symtab
    Type        : SHT_SYMTAB (0x00000002)
    Flags       : None (0x00000000)
    Addr        : 0x00000000
    File Offset : 174048 (0x2a7e0)
    Size        : 12448 bytes (0x30a0)
    Link        : Section 12 (.strtab)
    Info        : Last local symbol no = 451
    Alignment   : 4
    Entry Size  : 16


====================================

** Section #12

    Name        : .strtab
    Type        : SHT_STRTAB (0x00000003)
    Flags       : None (0x00000000)
    Addr        : 0x00000000
    File Offset : 186496 (0x2d880)
    Size        : 8972 bytes (0x230c)
    Link        : SHN_UNDEF
    Info        : 0
    Alignment   : 1
    Entry Size  : 0


====================================

** Section #13

    Name        : .note
    Type        : SHT_NOTE (0x00000007)
    Flags       : None (0x00000000)
    Addr        : 0x00000000
    File Offset : 195468 (0x2fb8c)
    Size        : 28 bytes (0x1c)
    Link        : SHN_UNDEF
    Info        : 0
    Alignment   : 4
    Entry Size  : 0

        Section     Segment
    ====================================

              1           0
              2           0
              3           0

====================================

** Section #14

    Name        : .comment
    Type        : SHT_PROGBITS (0x00000001)
    Flags       : None (0x00000000)
    Addr        : 0x00000000
    File Offset : 195496 (0x2fba8)
    Size        : 15212 bytes (0x3b6c)
    Link        : SHN_UNDEF
    Info        : 0
    Alignment   : 1
    Entry Size  : 0

    Component: ARM Compiler 5.06 update 6 (build 750) Tool: armlink [4d35ed]
    ArmLink --strict --library_type=microlib --callgraph --load_addr_map_info --map --symbols --xref --diag_suppress=9931 --cpu=Cortex-M3 --list=.\cm3.map --output=.\Objects\cm3.axf --scatter=.\Objects\cm3.sct --info=summarysizes,sizes,totals,unused,veneers

    D:\Program Files\Keil_V5\ARM\ARMCC\Bin\..\lib\armlib\h_w.l
    D:\Program Files\Keil_V5\ARM\ARMCC\Bin\..\lib\armlib\m_ws.l
    D:\Program Files\Keil_V5\ARM\ARMCC\Bin\..\lib\armlib\mc_w.l
    D:\Program Files\Keil_V5\ARM\ARMCC\Bin\..\lib\armlib\mf_w.l
    D:\Program Files\Keil_V5\ARM\ARMCC\Bin\..\lib\armlib\vfpsupport.l
    Input Comments:
    
    main.o
    
    Component: ARM Compiler 5.06 update 6 (build 750) Tool: armlink [4d35ed]
    armlink --partial --no_add_relocs_to_undefined --no_generate_mapping_symbols --diag_suppress=9931,9931,6642 --cpu=Cortex-M3 --fpu=SoftVFP --output=.\objects\main.o --vfemode=force

    Input Comments:
    
    p2d70-3
    
    Component: ARM Compiler 5.06 update 6 (build 750) Tool: armasm [4d35ec]
    armasm --debug --diag_suppress=9931,9931,1602,1073 --cpu=Cortex-M3 --fpu=SoftVFP --apcs=/interwork/interwork --divide 
    main.o
    
    Component: ARM Compiler 5.06 update 6 (build 750) Tool: ArmCC [4d3637]
    ArmCC --c99 --split_sections --debug -c --gnu -o.\objects\main.o --depend=.\objects\main.d --cpu=Cortex-M3 --apcs=interwork -O1 --diag_suppress=9931 -I..\CORE -I..\DEVICE -I..\MY_GAME -I.\RTE\_Target_1 -I"D:\Program Files\Keil_V5\Arm\Packs\Keil\V2M-MPS2_CMx_BSP\1.7.1\Device\CMSDK_CM3\Include" -I"D:\Program Files\Keil_V5\ARM\CMSIS\Include" -D__MICROLIB -D__UVISION_VERSION=528 -DCMSDK_CM3 --omf_browse=.\objects\main.crf main.c
    
    
    startup_cm3ds.o
    
    Component: ARM Compiler 5.06 update 6 (build 750) Tool: armasm [4d35ec]
    ArmAsm --debug --xref --diag_suppress=9931 --cpu=Cortex-M3 --apcs=interwork --depend=.\objects\startup_cm3ds.d  -I.\RTE\_Target_1 -I"D:\Program Files\Keil_V5\Arm\Packs\Keil\V2M-MPS2_CMx_BSP\1.7.1\Device\CMSDK_CM3\Include" -I"D:\Program
    
    
    handler.o
    
    Component: ARM Compiler 5.06 update 6 (build 750) Tool: armlink [4d35ed]
    armlink --partial --no_add_relocs_to_undefined --no_generate_mapping_symbols --diag_suppress=9931,9931,6642 --cpu=Cortex-M3 --fpu=SoftVFP --output=.\objects\handler.o --vfemode=force

    Input Comments:
    
    p5934-3
    
    Component: ARM Compiler 5.06 update 6 (build 750) Tool: armasm [4d35ec]
    armasm --debug --diag_suppress=9931,9931,1602,1073 --cpu=Cortex-M3 --fpu=SoftVFP --apcs=/interwork/interwork --divide 
    handler.o
    
    Component: ARM Compiler 5.06 update 6 (build 750) Tool: ArmCC [4d3637]
    ArmCC --c99 --split_sections --debug -c --gnu -o.\objects\handler.o --depend=.\objects\handler.d --cpu=Cortex-M3 --apcs=interwork -O1 --diag_suppress=9931 -I..\CORE -I..\DEVICE -I..\MY_GAME -I.\RTE\_Target_1 -I"D:\Program Files\Keil_V5\Arm\Packs\Keil\V2M-MPS2_CMx_BSP\1.7.1\Device\CMSDK_CM3\Include" -I"D:\Program Files\Keil_V5\ARM\CMSIS\Include" -D__MICROLIB -D__UVISION_VERSION=528 -DCMSDK_CM3 --omf_browse=.\objects\handler.crf ..\CORE\handler.c
    
    
    
    
    system.o
    
    Component: ARM Compiler 5.06 update 6 (build 750) Tool: armlink [4d35ed]
    armlink --partial --no_add_relocs_to_undefined --no_generate_mapping_symbols --diag_suppress=9931,9931,6642 --cpu=Cortex-M3 --fpu=SoftVFP --output=.\objects\system.o --vfemode=force

    Input Comments:
    
    p531c-3
    
    Component: ARM Compiler 5.06 update 6 (build 750) Tool: armasm [4d35ec]
    armasm --debug --diag_suppress=9931,9931,1602,1073 --cpu=Cortex-M3 --fpu=SoftVFP --apcs=/interwork/interwork --divide 
    system.o
    
    Component: ARM Compiler 5.06 update 6 (build 750) Tool: ArmCC [4d3637]
    ArmCC --c99 --split_sections --debug -c --gnu -o.\objects\system.o --depend=.\objects\system.d --cpu=Cortex-M3 --apcs=interwork -O1 --diag_suppress=9931 -I..\CORE -I..\DEVICE -I..\MY_GAME -I.\RTE\_Target_1 -I"D:\Program Files\Keil_V5\Arm\Packs\Keil\V2M-MPS2_CMx_BSP\1.7.1\Device\CMSDK_CM3\Include" -I"D:\Program Files\Keil_V5\ARM\CMSIS\Include" -D__MICROLIB -D__UVISION_VERSION=528 -DCMSDK_CM3 --omf_browse=.\objects\system.crf ..\CORE\system.c
    
    
    retarget.o
    
    Component: ARM Compiler 5.06 update 6 (build 750) Tool: ArmCC [4d3637]
    ArmCC --c99 --split_sections --debug -c --gnu -o.\objects\retarget.o --depend=.\objects\retarget.d --cpu=Cortex-M3 --apcs=interwork -O1 --diag_suppress=9931 -I..\CORE -I..\DEVICE -I..\MY_GAME -I.\RTE\_Target_1 -I"D:\Program Files\Keil_V5\Arm\Packs\Keil\V2M-MPS2_CMx_BSP\1.7.1\Device\CMSDK_CM3\Include" -I"D:\Program Files\Keil_V5\ARM\CMSIS\Include" -D__MICROLIB -D__UVISION_VERSION=528 -DCMSDK_CM3 --omf_browse=.\objects\retarget.crf ..\DEVICE\Retarget.c
    
    lcd.o
    
    Component: ARM Compiler 5.06 update 6 (build 750) Tool: ArmCC [4d3637]
    ArmCC --c99 --split_sections --debug -c --gnu -o.\objects\lcd.o --depend=.\objects\lcd.d --cpu=Cortex-M3 --apcs=interwork -O1 --diag_suppress=9931 -I..\CORE -I..\DEVICE -I..\MY_GAME -I.\RTE\_Target_1 -I"D:\Program Files\Keil_V5\Arm\Packs\Keil\V2M-MPS2_CMx_BSP\1.7.1\Device\CMSDK_CM3\Include" -I"D:\Program Files\Keil_V5\ARM\CMSIS\Include" -D__MICROLIB -D__UVISION_VERSION=528 -DCMSDK_CM3 --omf_browse=.\objects\lcd.crf ..\DEVICE\lcd.c
    
    uart.o
    
    Component: ARM Compiler 5.06 update 6 (build 750) Tool: ArmCC [4d3637]
    ArmCC --c99 --split_sections --debug -c --gnu -o.\objects\uart.o --depend=.\objects\uart.d --cpu=Cortex-M3 --apcs=interwork -O1 --diag_suppress=9931 -I..\CORE -I..\DEVICE -I..\MY_GAME -I.\RTE\_Target_1 -I"D:\Program Files\Keil_V5\Arm\Packs\Keil\V2M-MPS2_CMx_BSP\1.7.1\Device\CMSDK_CM3\Include" -I"D:\Program Files\Keil_V5\ARM\CMSIS\Include" -D__MICROLIB -D__UVISION_VERSION=528 -DCMSDK_CM3 --omf_browse=.\objects\uart.crf ..\DEVICE\uart.c
    
    systick.o
    
    Component: ARM Compiler 5.06 update 6 (build 750) Tool: armlink [4d35ed]
    armlink --partial --no_add_relocs_to_undefined --no_generate_mapping_symbols --diag_suppress=9931,9931,6642 --cpu=Cortex-M3 --fpu=SoftVFP --output=.\objects\systick.o --vfemode=force

    Input Comments:
    
    p2b04-3
    
    Component: ARM Compiler 5.06 update 6 (build 750) Tool: armasm [4d35ec]
    armasm --debug --diag_suppress=9931,9931,1602,1073 --cpu=Cortex-M3 --fpu=SoftVFP --apcs=/interwork/interwork --divide 
    systick.o
    
    Component: ARM Compiler 5.06 update 6 (build 750) Tool: ArmCC [4d3637]
    ArmCC --c99 --split_sections --debug -c --gnu -o.\objects\systick.o --depend=.\objects\systick.d --cpu=Cortex-M3 --apcs=interwork -O1 --diag_suppress=9931 -I..\CORE -I..\DEVICE -I..\MY_GAME -I.\RTE\_Target_1 -I"D:\Program Files\Keil_V5\Arm\Packs\Keil\V2M-MPS2_CMx_BSP\1.7.1\Device\CMSDK_CM3\Include" -I"D:\Program Files\Keil_V5\ARM\CMSIS\Include" -D__MICROLIB -D__UVISION_VERSION=528 -DCMSDK_CM3 --omf_browse=.\objects\systick.crf ..\DEVICE\systick.c
    
    
    led.o
    
    Component: ARM Compiler 5.06 update 6 (build 750) Tool: ArmCC [4d3637]
    ArmCC --c99 --split_sections --debug -c --gnu -o.\objects\led.o --depend=.\objects\led.d --cpu=Cortex-M3 --apcs=interwork -O1 --diag_suppress=9931 -I..\CORE -I..\DEVICE -I..\MY_GAME -I.\RTE\_Target_1 -I"D:\Program Files\Keil_V5\Arm\Packs\Keil\V2M-MPS2_CMx_BSP\1.7.1\Device\CMSDK_CM3\Include" -I"D:\Program Files\Keil_V5\ARM\CMSIS\Include" -D__MICROLIB -D__UVISION_VERSION=528 -DCMSDK_CM3 --omf_browse=.\objects\led.crf ..\DEVICE\led.c
    
    malloc.o
    
    Component: ARM Compiler 5.06 update 6 (build 750) Tool: ArmCC [4d3637]
    ArmCC --c99 --split_sections --debug -c --gnu -o.\objects\malloc.o --depend=.\objects\malloc.d --cpu=Cortex-M3 --apcs=interwork -O1 --diag_suppress=9931 -I..\CORE -I..\DEVICE -I..\MY_GAME -I.\RTE\_Target_1 -I"D:\Program Files\Keil_V5\Arm\Packs\Keil\V2M-MPS2_CMx_BSP\1.7.1\Device\CMSDK_CM3\Include" -I"D:\Program Files\Keil_V5\ARM\CMSIS\Include" -D__MICROLIB -D__UVISION_VERSION=528 -DCMSDK_CM3 --omf_browse=.\objects\malloc.crf ..\DEVICE\malloc.c
    
    spi_flash.o
    
    Component: ARM Compiler 5.06 update 6 (build 750) Tool: ArmCC [4d3637]
    ArmCC --c99 --split_sections --debug -c --gnu -o.\objects\spi_flash.o --depend=.\objects\spi_flash.d --cpu=Cortex-M3 --apcs=interwork -O1 --diag_suppress=9931 -I..\CORE -I..\DEVICE -I..\MY_GAME -I.\RTE\_Target_1 -I"D:\Program Files\Keil_V5\Arm\Packs\Keil\V2M-MPS2_CMx_BSP\1.7.1\Device\CMSDK_CM3\Include" -I"D:\Program Files\Keil_V5\ARM\CMSIS\Include" -D__MICROLIB -D__UVISION_VERSION=528 -DCMSDK_CM3 --omf_browse=.\objects\spi_flash.crf ..\DEVICE\spi_flash.c
    
    apu.o
    
    Component: ARM Compiler 5.06 update 6 (build 750) Tool: ArmCC [4d3637]
    ArmCC --c99 --split_sections --debug -c --gnu -o.\objects\apu.o --depend=.\objects\apu.d --cpu=Cortex-M3 --apcs=interwork -O1 --diag_suppress=9931 -I..\CORE -I..\DEVICE -I..\MY_GAME -I.\RTE\_Target_1 -I"D:\Program Files\Keil_V5\Arm\Packs\Keil\V2M-MPS2_CMx_BSP\1.7.1\Device\CMSDK_CM3\Include" -I"D:\Program Files\Keil_V5\ARM\CMSIS\Include" -D__MICROLIB -D__UVISION_VERSION=528 -DCMSDK_CM3 --omf_browse=.\objects\apu.crf ..\DEVICE\apu.c
    
    pstwo.o
    
    Component: ARM Compiler 5.06 update 6 (build 750) Tool: ArmCC [4d3637]
    ArmCC --c99 --split_sections --debug -c --gnu -o.\objects\pstwo.o --depend=.\objects\pstwo.d --cpu=Cortex-M3 --apcs=interwork -O1 --diag_suppress=9931 -I..\CORE -I..\DEVICE -I..\MY_GAME -I.\RTE\_Target_1 -I"D:\Program Files\Keil_V5\Arm\Packs\Keil\V2M-MPS2_CMx_BSP\1.7.1\Device\CMSDK_CM3\Include" -I"D:\Program Files\Keil_V5\ARM\CMSIS\Include" -D__MICROLIB -D__UVISION_VERSION=528 -DCMSDK_CM3 --omf_browse=.\objects\pstwo.crf ..\DEVICE\pstwo.c
    
    spriteram.o
    
    Component: ARM Compiler 5.06 update 6 (build 750) Tool: ArmCC [4d3637]
    ArmCC --c99 --split_sections --debug -c --gnu -o.\objects\spriteram.o --depend=.\objects\spriteram.d --cpu=Cortex-M3 --apcs=interwork -O1 --diag_suppress=9931 -I..\CORE -I..\DEVICE -I..\MY_GAME -I.\RTE\_Target_1 -I"D:\Program Files\Keil_V5\Arm\Packs\Keil\V2M-MPS2_CMx_BSP\1.7.1\Device\CMSDK_CM3\Include" -I"D:\Program Files\Keil_V5\ARM\CMSIS\Include" -D__MICROLIB -D__UVISION_VERSION=528 -DCMSDK_CM3 --omf_browse=.\objects\spriteram.crf ..\DEVICE\spriteRam.c
    
    jy61p.o
    
    Component: ARM Compiler 5.06 update 6 (build 750) Tool: ArmCC [4d3637]
    ArmCC --c99 --split_sections --debug -c --gnu -o.\objects\jy61p.o --depend=.\objects\jy61p.d --cpu=Cortex-M3 --apcs=interwork -O1 --diag_suppress=9931 -I..\CORE -I..\DEVICE -I..\MY_GAME -I.\RTE\_Target_1 -I"D:\Program Files\Keil_V5\Arm\Packs\Keil\V2M-MPS2_CMx_BSP\1.7.1\Device\CMSDK_CM3\Include" -I"D:\Program Files\Keil_V5\ARM\CMSIS\Include" -D__MICROLIB -D__UVISION_VERSION=528 -DCMSDK_CM3 --omf_browse=.\objects\jy61p.crf ..\DEVICE\jy61p.c
    
    cnn.o
    
    Component: ARM Compiler 5.06 update 6 (build 750) Tool: ArmCC [4d3637]
    ArmCC --c99 --split_sections --debug -c --gnu -o.\objects\cnn.o --depend=.\objects\cnn.d --cpu=Cortex-M3 --apcs=interwork -O1 --diag_suppress=9931 -I..\CORE -I..\DEVICE -I..\MY_GAME -I.\RTE\_Target_1 -I"D:\Program Files\Keil_V5\Arm\Packs\Keil\V2M-MPS2_CMx_BSP\1.7.1\Device\CMSDK_CM3\Include" -I"D:\Program Files\Keil_V5\ARM\CMSIS\Include" -D__MICROLIB -D__UVISION_VERSION=528 -DCMSDK_CM3 --omf_browse=.\objects\cnn.crf ..\DEVICE\cnn.c
    
    boom.o
    
    Component: ARM Compiler 5.06 update 6 (build 750) Tool: ArmCC [4d3637]
    ArmCC --c99 --split_sections --debug -c --gnu -o.\objects\boom.o --depend=.\objects\boom.d --cpu=Cortex-M3 --apcs=interwork -O1 --diag_suppress=9931 -I..\CORE -I..\DEVICE -I..\MY_GAME -I.\RTE\_Target_1 -I"D:\Program Files\Keil_V5\Arm\Packs\Keil\V2M-MPS2_CMx_BSP\1.7.1\Device\CMSDK_CM3\Include" -I"D:\Program Files\Keil_V5\ARM\CMSIS\Include" -D__MICROLIB -D__UVISION_VERSION=528 -DCMSDK_CM3 --omf_browse=.\objects\boom.crf ..\MY_GAME\boom.c
    
    enemybullet.o
    
    Component: ARM Compiler 5.06 update 6 (build 750) Tool: ArmCC [4d3637]
    ArmCC --c99 --split_sections --debug -c --gnu -o.\objects\enemybullet.o --depend=.\objects\enemybullet.d --cpu=Cortex-M3 --apcs=interwork -O1 --diag_suppress=9931 -I..\CORE -I..\DEVICE -I..\MY_GAME -I.\RTE\_Target_1 -I"D:\Program Files\Keil_V5\Arm\Packs\Keil\V2M-MPS2_CMx_BSP\1.7.1\Device\CMSDK_CM3\Include" -I"D:\Program Files\Keil_V5\ARM\CMSIS\Include" -D__MICROLIB -D__UVISION_VERSION=528 -DCMSDK_CM3 --omf_browse=.\objects\enemybullet.crf ..\MY_GAME\enemyBullet.c
    
    enemyplane.o
    
    Component: ARM Compiler 5.06 update 6 (build 750) Tool: ArmCC [4d3637]
    ArmCC --c99 --split_sections --debug -c --gnu -o.\objects\enemyplane.o --depend=.\objects\enemyplane.d --cpu=Cortex-M3 --apcs=interwork -O1 --diag_suppress=9931 -I..\CORE -I..\DEVICE -I..\MY_GAME -I.\RTE\_Target_1 -I"D:\Program Files\Keil_V5\Arm\Packs\Keil\V2M-MPS2_CMx_BSP\1.7.1\Device\CMSDK_CM3\Include" -I"D:\Program Files\Keil_V5\ARM\CMSIS\Include" -D__MICROLIB -D__UVISION_VERSION=528 -DCMSDK_CM3 --omf_browse=.\objects\enemyplane.crf ..\MY_GAME\enemyPlane.c
    
    gamehitcheck.o
    
    Component: ARM Compiler 5.06 update 6 (build 750) Tool: ArmCC [4d3637]
    ArmCC --c99 --split_sections --debug -c --gnu -o.\objects\gamehitcheck.o --depend=.\objects\gamehitcheck.d --cpu=Cortex-M3 --apcs=interwork -O1 --diag_suppress=9931 -I..\CORE -I..\DEVICE -I..\MY_GAME -I.\RTE\_Target_1 -I"D:\Program Files\Keil_V5\Arm\Packs\Keil\V2M-MPS2_CMx_BSP\1.7.1\Device\CMSDK_CM3\Include" -I"D:\Program Files\Keil_V5\ARM\CMSIS\Include" -D__MICROLIB -D__UVISION_VERSION=528 -DCMSDK_CM3 --omf_browse=.\objects\gamehitcheck.crf ..\MY_GAME\gameHitCheck.c
    
    gameinterface.o
    
    Component: ARM Compiler 5.06 update 6 (build 750) Tool: ArmCC [4d3637]
    ArmCC --c99 --split_sections --debug -c --gnu -o.\objects\gameinterface.o --depend=.\objects\gameinterface.d --cpu=Cortex-M3 --apcs=interwork -O1 --diag_suppress=9931 -I..\CORE -I..\DEVICE -I..\MY_GAME -I.\RTE\_Target_1 -I"D:\Program Files\Keil_V5\Arm\Packs\Keil\V2M-MPS2_CMx_BSP\1.7.1\Device\CMSDK_CM3\Include" -I"D:\Program Files\Keil_V5\ARM\CMSIS\Include" -D__MICROLIB -D__UVISION_VERSION=528 -DCMSDK_CM3 --omf_browse=.\objects\gameinterface.crf ..\MY_GAME\gameInterFace.c
    
    makeenemyplanearray.o
    
    Component: ARM Compiler 5.06 update 6 (build 750) Tool: ArmCC [4d3637]
    ArmCC --c99 --split_sections --debug -c --gnu -o.\objects\makeenemyplanearray.o --depend=.\objects\makeenemyplanearray.d --cpu=Cortex-M3 --apcs=interwork -O1 --diag_suppress=9931 -I..\CORE -I..\DEVICE -I..\MY_GAME -I.\RTE\_Target_1 -I"D:\Program Files\Keil_V5\Arm\Packs\Keil\V2M-MPS2_CMx_BSP\1.7.1\Device\CMSDK_CM3\Include" -I"D:\Program Files\Keil_V5\ARM\CMSIS\Include" -D__MICROLIB -D__UVISION_VERSION=528 -DCMSDK_CM3 --omf_browse=.\objects\makeenemyplanearray.crf ..\MY_GAME\makeEnemyPlaneArray.c
    
    makemap.o
    
    Component: ARM Compiler 5.06 update 6 (build 750) Tool: ArmCC [4d3637]
    ArmCC --c99 --split_sections --debug -c --gnu -o.\objects\makemap.o --depend=.\objects\makemap.d --cpu=Cortex-M3 --apcs=interwork -O1 --diag_suppress=9931 -I..\CORE -I..\DEVICE -I..\MY_GAME -I.\RTE\_Target_1 -I"D:\Program Files\Keil_V5\Arm\Packs\Keil\V2M-MPS2_CMx_BSP\1.7.1\Device\CMSDK_CM3\Include" -I"D:\Program Files\Keil_V5\ARM\CMSIS\Include" -D__MICROLIB -D__UVISION_VERSION=528 -DCMSDK_CM3 --omf_browse=.\objects\makemap.crf ..\MY_GAME\makeMap.c
    
    myplane.o
    
    Component: ARM Compiler 5.06 update 6 (build 750) Tool: ArmCC [4d3637]
    ArmCC --c99 --split_sections --debug -c --gnu -o.\objects\myplane.o --depend=.\objects\myplane.d --cpu=Cortex-M3 --apcs=interwork -O1 --diag_suppress=9931 -I..\CORE -I..\DEVICE -I..\MY_GAME -I.\RTE\_Target_1 -I"D:\Program Files\Keil_V5\Arm\Packs\Keil\V2M-MPS2_CMx_BSP\1.7.1\Device\CMSDK_CM3\Include" -I"D:\Program Files\Keil_V5\ARM\CMSIS\Include" -D__MICROLIB -D__UVISION_VERSION=528 -DCMSDK_CM3 --omf_browse=.\objects\myplane.crf ..\MY_GAME\myPlane.c
    
    

====================================

** Section #15

    Name        : .shstrtab
    Type        : SHT_STRTAB (0x00000003)
    Flags       : None (0x00000000)
    Addr        : 0x00000000
    File Offset : 210708 (0x33714)
    Size        : 156 bytes (0x9c)
    Link        : SHN_UNDEF
    Info        : 0
    Alignment   : 1
    Entry Size  : 0


====================================

