
========================================================================

** ELF Header Information

    File Name: .\Objects\m0.axf

    Machine class: ELFCLASS32 (32-bit)
    Data encoding: ELFDATA2LSB (Little endian)
    Header version: EV_CURRENT (Current version)
    Operating System ABI: none
    ABI Version: 0
    File Type: ET_EXEC (Executable) (2)
    Machine: EM_ARM (ARM)

    Image Entry point: 0x00000061
    Flags: EF_ARM_HASENTRY + EF_ARM_ABI_FLOAT_SOFT (0x05000202)

    ARM ELF revision: 5 (ABI version 2)

    Conforms to Soft float procedure-call standard

    Built with
    Component: ARM Compiler 5.06 update 6 (build 750) Tool: armasm [4d35ec]
    Component: ARM Compiler 5.06 update 6 (build 750) Tool: armlink [4d35ed]

    Header size: 52 bytes (0x34)
    Program header entry size: 32 bytes (0x20)
    Section header entry size: 40 bytes (0x28)

    Program header entries: 1
    Section header entries: 16

    Program header offset: 89908 (0x00015f34)
    Section header offset: 89940 (0x00015f54)

    Section header string table index: 15

========================================================================

** Program header #0

    Type          : PT_LOAD (1)
    File Offset   : 52 (0x34)
    Virtual Addr  : 0x00000000
    Physical Addr : 0x00000000
    Size in file  : 8840 bytes (0x2288)
    Size in memory: 16280 bytes (0x3f98)
    Flags         : PF_X + PF_W + PF_R + PF_ARM_ENTRY (0x80000007)
    Alignment     : 8


========================================================================

** Section #1

    Name        : ER_IROM1
    Type        : SHT_PROGBITS (0x00000001)
    Flags       : SHF_ALLOC + SHF_EXECINSTR (0x00000006)
    Addr        : 0x00000000
    File Offset : 52 (0x34)
    Size        : 7672 bytes (0x1df8)
    Link        : SHN_UNDEF
    Info        : 0
    Alignment   : 4
    Entry Size  : 0

    $d.realdata
    RESET
    __Vectors
        0x00000000:    200021a0    .!.     DCD    536879520
        0x00000004:    00000075    u...    DCD    117
        0x00000008:    00000081    ....    DCD    129
        0x0000000c:    00000089    ....    DCD    137
        0x00000010:    00000091    ....    DCD    145
        0x00000014:    00000099    ....    DCD    153
        0x00000018:    000000a1    ....    DCD    161
        0x0000001c:    00000000    ....    DCD    0
        0x00000020:    00000000    ....    DCD    0
        0x00000024:    00000000    ....    DCD    0
        0x00000028:    00000000    ....    DCD    0
        0x0000002c:    000000a9    ....    DCD    169
        0x00000030:    000000b1    ....    DCD    177
        0x00000034:    00000000    ....    DCD    0
        0x00000038:    000000b9    ....    DCD    185
        0x0000003c:    000000c1    ....    DCD    193
        0x00000040:    000000d1    ....    DCD    209
        0x00000044:    000000c9    ....    DCD    201
        0x00000048:    000000d9    ....    DCD    217
        0x0000004c:    000000e1    ....    DCD    225
        0x00000050:    000000e9    ....    DCD    233
        0x00000054:    000000f1    ....    DCD    241
        0x00000058:    000000f9    ....    DCD    249
        0x0000005c:    00000101    ....    DCD    257
    $t
    .ARM.Collect$$$$00000000
    .ARM.Collect$$$$00000001
    __Vectors_End
    __main
    _main_stk
        0x00000060:    4803        .H      LDR      r0,__lit__00000000 ; [0x70] = 0x200021a0
        0x00000062:    4685        .F      MOV      sp,r0
    .ARM.Collect$$$$00000004
    _main_scatterload
        0x00000064:    f000f8a2    ....    BL       __scatterload ; 0x1ac
    .ARM.Collect$$$$00000008
    .ARM.Collect$$$$0000000A
    .ARM.Collect$$$$0000000B
    __main_after_scatterload
    _main_clock
    _main_cpp_init
    _main_init
        0x00000068:    4800        .H      LDR      r0,[pc,#0] ; [0x6c] = 0x13d9
        0x0000006a:    4700        .G      BX       r0
    $d
        0x0000006c:    000013d9    ....    DCD    5081
    .ARM.Collect$$$$00002712
    __lit__00000000
    .ARM.Collect$$$$0000000D
    .ARM.Collect$$$$0000000F
    __rt_final_cpp
    __rt_final_exit
        0x00000070:    200021a0    .!.     DCD    536879520
    $t
    .text
    Reset_Handler
        0x00000074:    4824        $H      LDR      r0,[pc,#144] ; [0x108] = 0xc41
        0x00000076:    4680        .F      MOV      r8,r0
        0x00000078:    46c1        .F      MOV      r9,r8
        0x0000007a:    4780        .G      BLX      r0
        0x0000007c:    4823        #H      LDR      r0,[pc,#140] ; [0x10c] = 0x61
        0x0000007e:    4700        .G      BX       r0
    NMI_Handler
        0x00000080:    b500        ..      PUSH     {lr}
        0x00000082:    f000fd9c    ....    BL       NMIHandler ; 0xbbe
        0x00000086:    bd00        ..      POP      {pc}
    HardFault_Handler
        0x00000088:    b500        ..      PUSH     {lr}
        0x0000008a:    f000f8ce    ....    BL       HardFaultHandler ; 0x22a
        0x0000008e:    bd00        ..      POP      {pc}
    MemManage_Handler
        0x00000090:    b500        ..      PUSH     {lr}
        0x00000092:    f000fd93    ....    BL       MemManageHandler ; 0xbbc
        0x00000096:    bd00        ..      POP      {pc}
    BusFault_Handler
        0x00000098:    b500        ..      PUSH     {lr}
        0x0000009a:    f000f8c4    ....    BL       BusFaultHandler ; 0x226
        0x0000009e:    bd00        ..      POP      {pc}
    UsageFault_Handler
        0x000000a0:    b500        ..      PUSH     {lr}
        0x000000a2:    f000fe7d    ..}.    BL       UsageFaultHandler ; 0xda0
        0x000000a6:    bd00        ..      POP      {pc}
    SVC_Handler
        0x000000a8:    b500        ..      PUSH     {lr}
        0x000000aa:    f000fda7    ....    BL       SVCHandler ; 0xbfc
        0x000000ae:    bd00        ..      POP      {pc}
    DebugMon_Handler
        0x000000b0:    b500        ..      PUSH     {lr}
        0x000000b2:    f000f8b9    ....    BL       DebugMonHandler ; 0x228
        0x000000b6:    bd00        ..      POP      {pc}
    PendSV_Handler
        0x000000b8:    b500        ..      PUSH     {lr}
        0x000000ba:    f000fd95    ....    BL       PendSVHandler ; 0xbe8
        0x000000be:    bd00        ..      POP      {pc}
    SysTick_Handler
        0x000000c0:    b500        ..      PUSH     {lr}
        0x000000c2:    f000fdaf    ....    BL       SysTickHandler ; 0xc24
        0x000000c6:    bd00        ..      POP      {pc}
    UARTRX_Handler
        0x000000c8:    b500        ..      PUSH     {lr}
        0x000000ca:    f000fe33    ..3.    BL       UARTRXHandler ; 0xd34
        0x000000ce:    bd00        ..      POP      {pc}
    UARTTX_Handler
        0x000000d0:    b500        ..      PUSH     {lr}
        0x000000d2:    f000fe47    ..G.    BL       UARTTXHandler ; 0xd64
        0x000000d6:    bd00        ..      POP      {pc}
    UARTOVR_Handler
        0x000000d8:    b500        ..      PUSH     {lr}
        0x000000da:    f000fe29    ..).    BL       UARTOVRHandler ; 0xd30
        0x000000de:    bd00        ..      POP      {pc}
    KEY0_Handler
        0x000000e0:    b507        ..      PUSH     {r0-r2,lr}
        0x000000e2:    f000f8a3    ....    BL       KEY0 ; 0x22c
        0x000000e6:    bd07        ..      POP      {r0-r2,pc}
    KEY1_Handler
        0x000000e8:    b507        ..      PUSH     {r0-r2,lr}
        0x000000ea:    f000f8af    ....    BL       KEY1 ; 0x24c
        0x000000ee:    bd07        ..      POP      {r0-r2,pc}
    KEY2_Handler
        0x000000f0:    b507        ..      PUSH     {r0-r2,lr}
        0x000000f2:    f000f8bb    ....    BL       KEY2 ; 0x26c
        0x000000f6:    bd07        ..      POP      {r0-r2,pc}
    KEY3_Handler
        0x000000f8:    b507        ..      PUSH     {r0-r2,lr}
        0x000000fa:    f000f8bf    ....    BL       KEY3 ; 0x27c
        0x000000fe:    bd07        ..      POP      {r0-r2,pc}
    TIMER_Handler
        0x00000100:    b507        ..      PUSH     {r0-r2,lr}
        0x00000102:    f000fdb9    ....    BL       Timer_Handler ; 0xc78
        0x00000106:    bd07        ..      POP      {r0-r2,pc}
    $d
        0x00000108:    00000c41    A...    DCD    3137
        0x0000010c:    00000061    a...    DCD    97
    $t
    .text
    __aeabi_uidiv
    __aeabi_uidivmod
        0x00000110:    b530        0.      PUSH     {r4,r5,lr}
        0x00000112:    460b        .F      MOV      r3,r1
        0x00000114:    4601        .F      MOV      r1,r0
        0x00000116:    2000        .       MOVS     r0,#0
        0x00000118:    2220         "      MOVS     r2,#0x20
        0x0000011a:    2401        .$      MOVS     r4,#1
        0x0000011c:    e009        ..      B        0x132 ; __aeabi_uidiv + 34
        0x0000011e:    460d        .F      MOV      r5,r1
        0x00000120:    40d5        .@      LSRS     r5,r5,r2
        0x00000122:    429d        .B      CMP      r5,r3
        0x00000124:    d305        ..      BCC      0x132 ; __aeabi_uidiv + 34
        0x00000126:    461d        .F      MOV      r5,r3
        0x00000128:    4095        .@      LSLS     r5,r5,r2
        0x0000012a:    1b49        I.      SUBS     r1,r1,r5
        0x0000012c:    4625        %F      MOV      r5,r4
        0x0000012e:    4095        .@      LSLS     r5,r5,r2
        0x00000130:    1940        @.      ADDS     r0,r0,r5
        0x00000132:    4615        .F      MOV      r5,r2
        0x00000134:    1e52        R.      SUBS     r2,r2,#1
        0x00000136:    2d00        .-      CMP      r5,#0
        0x00000138:    dcf1        ..      BGT      0x11e ; __aeabi_uidiv + 14
        0x0000013a:    bd30        0.      POP      {r4,r5,pc}
    .text
    __aeabi_idiv
    __aeabi_idivmod
        0x0000013c:    b570        p.      PUSH     {r4-r6,lr}
        0x0000013e:    2400        .$      MOVS     r4,#0
        0x00000140:    4625        %F      MOV      r5,r4
        0x00000142:    2800        .(      CMP      r0,#0
        0x00000144:    da01        ..      BGE      0x14a ; __aeabi_idiv + 14
        0x00000146:    2401        .$      MOVS     r4,#1
        0x00000148:    4240        @B      RSBS     r0,r0,#0
        0x0000014a:    2900        .)      CMP      r1,#0
        0x0000014c:    da01        ..      BGE      0x152 ; __aeabi_idiv + 22
        0x0000014e:    2501        .%      MOVS     r5,#1
        0x00000150:    4249        IB      RSBS     r1,r1,#0
        0x00000152:    f7ffffdd    ....    BL       __aeabi_uidiv ; 0x110
        0x00000156:    42ac        .B      CMP      r4,r5
        0x00000158:    d000        ..      BEQ      0x15c ; __aeabi_idiv + 32
        0x0000015a:    4240        @B      RSBS     r0,r0,#0
        0x0000015c:    2c00        .,      CMP      r4,#0
        0x0000015e:    d000        ..      BEQ      0x162 ; __aeabi_idiv + 38
        0x00000160:    4249        IB      RSBS     r1,r1,#0
        0x00000162:    bd70        p.      POP      {r4-r6,pc}
    .text
    rand
        0x00000164:    4905        .I      LDR      r1,[pc,#20] ; [0x17c] = 0x20000b00
        0x00000166:    4a06        .J      LDR      r2,[pc,#24] ; [0x180] = 0x41c64e6d
        0x00000168:    6808        .h      LDR      r0,[r1,#0]
        0x0000016a:    4350        PC      MULS     r0,r2,r0
        0x0000016c:    4a05        .J      LDR      r2,[pc,#20] ; [0x184] = 0x3039
        0x0000016e:    1880        ..      ADDS     r0,r0,r2
        0x00000170:    6008        .`      STR      r0,[r1,#0]
        0x00000172:    0840        @.      LSRS     r0,r0,#1
        0x00000174:    4770        pG      BX       lr
    srand
        0x00000176:    4901        .I      LDR      r1,[pc,#4] ; [0x17c] = 0x20000b00
        0x00000178:    6008        .`      STR      r0,[r1,#0]
        0x0000017a:    4770        pG      BX       lr
    $d
        0x0000017c:    20000b00    ...     DCD    536873728
        0x00000180:    41c64e6d    mN.A    DCD    1103515245
        0x00000184:    00003039    90..    DCD    12345
    $t
    .text
    __aeabi_memcpy
    __aeabi_memcpy4
    __aeabi_memcpy8
        0x00000188:    4603        .F      MOV      r3,r0
        0x0000018a:    430b        .C      ORRS     r3,r3,r1
        0x0000018c:    079b        ..      LSLS     r3,r3,#30
        0x0000018e:    d003        ..      BEQ      0x198 ; __aeabi_memcpy + 16
        0x00000190:    e009        ..      B        0x1a6 ; __aeabi_memcpy + 30
        0x00000192:    c908        ..      LDM      r1!,{r3}
        0x00000194:    1f12        ..      SUBS     r2,r2,#4
        0x00000196:    c008        ..      STM      r0!,{r3}
        0x00000198:    2a04        .*      CMP      r2,#4
        0x0000019a:    d2fa        ..      BCS      0x192 ; __aeabi_memcpy + 10
        0x0000019c:    e003        ..      B        0x1a6 ; __aeabi_memcpy + 30
        0x0000019e:    780b        .x      LDRB     r3,[r1,#0]
        0x000001a0:    7003        .p      STRB     r3,[r0,#0]
        0x000001a2:    1c40        @.      ADDS     r0,r0,#1
        0x000001a4:    1c49        I.      ADDS     r1,r1,#1
        0x000001a6:    1e52        R.      SUBS     r2,r2,#1
        0x000001a8:    d2f9        ..      BCS      0x19e ; __aeabi_memcpy + 22
        0x000001aa:    4770        pG      BX       lr
    .text
    __scatterload
    __scatterload_rt2
        0x000001ac:    4c06        .L      LDR      r4,[pc,#24] ; [0x1c8] = 0x1dd8
        0x000001ae:    2501        .%      MOVS     r5,#1
        0x000001b0:    4e06        .N      LDR      r6,[pc,#24] ; [0x1cc] = 0x1df8
        0x000001b2:    e005        ..      B        0x1c0 ; __scatterload + 20
        0x000001b4:    68e3        .h      LDR      r3,[r4,#0xc]
        0x000001b6:    cc07        ..      LDM      r4!,{r0-r2}
        0x000001b8:    432b        +C      ORRS     r3,r3,r5
        0x000001ba:    3c0c        .<      SUBS     r4,r4,#0xc
        0x000001bc:    4798        .G      BLX      r3
        0x000001be:    3410        .4      ADDS     r4,r4,#0x10
        0x000001c0:    42b4        .B      CMP      r4,r6
        0x000001c2:    d3f7        ..      BCC      0x1b4 ; __scatterload + 8
        0x000001c4:    f7ffff50    ..P.    BL       __main_after_scatterload ; 0x68
    $d
        0x000001c8:    00001dd8    ....    DCD    7640
        0x000001cc:    00001df8    ....    DCD    7672
    $t
    .text
    __decompress
    __decompress1
        0x000001d0:    b570        p.      PUSH     {r4-r6,lr}
        0x000001d2:    188c        ..      ADDS     r4,r1,r2
        0x000001d4:    7805        .x      LDRB     r5,[r0,#0]
        0x000001d6:    1c40        @.      ADDS     r0,r0,#1
        0x000001d8:    076b        k.      LSLS     r3,r5,#29
        0x000001da:    0f5b        [.      LSRS     r3,r3,#29
        0x000001dc:    d101        ..      BNE      0x1e2 ; __decompress + 18
        0x000001de:    7803        .x      LDRB     r3,[r0,#0]
        0x000001e0:    1c40        @.      ADDS     r0,r0,#1
        0x000001e2:    112a        *.      ASRS     r2,r5,#4
        0x000001e4:    d106        ..      BNE      0x1f4 ; __decompress + 36
        0x000001e6:    7802        .x      LDRB     r2,[r0,#0]
        0x000001e8:    1c40        @.      ADDS     r0,r0,#1
        0x000001ea:    e003        ..      B        0x1f4 ; __decompress + 36
        0x000001ec:    7806        .x      LDRB     r6,[r0,#0]
        0x000001ee:    700e        .p      STRB     r6,[r1,#0]
        0x000001f0:    1c40        @.      ADDS     r0,r0,#1
        0x000001f2:    1c49        I.      ADDS     r1,r1,#1
        0x000001f4:    1e5b        [.      SUBS     r3,r3,#1
        0x000001f6:    d1f9        ..      BNE      0x1ec ; __decompress + 28
        0x000001f8:    072b        +.      LSLS     r3,r5,#28
        0x000001fa:    d405        ..      BMI      0x208 ; __decompress + 56
        0x000001fc:    2300        .#      MOVS     r3,#0
        0x000001fe:    1e52        R.      SUBS     r2,r2,#1
        0x00000200:    d40d        ..      BMI      0x21e ; __decompress + 78
        0x00000202:    700b        .p      STRB     r3,[r1,#0]
        0x00000204:    1c49        I.      ADDS     r1,r1,#1
        0x00000206:    e7fa        ..      B        0x1fe ; __decompress + 46
        0x00000208:    7803        .x      LDRB     r3,[r0,#0]
        0x0000020a:    1c40        @.      ADDS     r0,r0,#1
        0x0000020c:    1acb        ..      SUBS     r3,r1,r3
        0x0000020e:    1c92        ..      ADDS     r2,r2,#2
        0x00000210:    e003        ..      B        0x21a ; __decompress + 74
        0x00000212:    781d        .x      LDRB     r5,[r3,#0]
        0x00000214:    700d        .p      STRB     r5,[r1,#0]
        0x00000216:    1c49        I.      ADDS     r1,r1,#1
        0x00000218:    1c5b        [.      ADDS     r3,r3,#1
        0x0000021a:    1e52        R.      SUBS     r2,r2,#1
        0x0000021c:    d5f9        ..      BPL      0x212 ; __decompress + 66
        0x0000021e:    42a1        .B      CMP      r1,r4
        0x00000220:    d3d8        ..      BCC      0x1d4 ; __decompress + 4
        0x00000222:    2000        .       MOVS     r0,#0
        0x00000224:    bd70        p.      POP      {r4-r6,pc}
    i.BusFaultHandler
    BusFaultHandler
        0x00000226:    4770        pG      BX       lr
    i.DebugMonHandler
    DebugMonHandler
        0x00000228:    4770        pG      BX       lr
    i.HardFaultHandler
    HardFaultHandler
        0x0000022a:    4770        pG      BX       lr
    i.KEY0
    KEY0
        0x0000022c:    b510        ..      PUSH     {r4,lr}
        0x0000022e:    2000        .       MOVS     r0,#0
        0x00000230:    f000fca4    ....    BL       LED_toggle ; 0xb7c
        0x00000234:    4804        .H      LDR      r0,[pc,#16] ; [0x248] = 0x20000ad6
        0x00000236:    7800        .x      LDRB     r0,[r0,#0]
        0x00000238:    281e        .(      CMP      r0,#0x1e
        0x0000023a:    dd04        ..      BLE      0x246 ; KEY0 + 26
        0x0000023c:    4802        .H      LDR      r0,[pc,#8] ; [0x248] = 0x20000ad6
        0x0000023e:    7800        .x      LDRB     r0,[r0,#0]
        0x00000240:    1f40        @.      SUBS     r0,r0,#5
        0x00000242:    4901        .I      LDR      r1,[pc,#4] ; [0x248] = 0x20000ad6
        0x00000244:    7008        .p      STRB     r0,[r1,#0]
        0x00000246:    bd10        ..      POP      {r4,pc}
    $d
        0x00000248:    20000ad6    ...     DCD    536873686
    $t
    i.KEY1
    KEY1
        0x0000024c:    b510        ..      PUSH     {r4,lr}
        0x0000024e:    2001        .       MOVS     r0,#1
        0x00000250:    f000fc94    ....    BL       LED_toggle ; 0xb7c
        0x00000254:    4804        .H      LDR      r0,[pc,#16] ; [0x268] = 0x20000ad6
        0x00000256:    7800        .x      LDRB     r0,[r0,#0]
        0x00000258:    28c8        .(      CMP      r0,#0xc8
        0x0000025a:    da04        ..      BGE      0x266 ; KEY1 + 26
        0x0000025c:    4802        .H      LDR      r0,[pc,#8] ; [0x268] = 0x20000ad6
        0x0000025e:    7800        .x      LDRB     r0,[r0,#0]
        0x00000260:    1d40        @.      ADDS     r0,r0,#5
        0x00000262:    4901        .I      LDR      r1,[pc,#4] ; [0x268] = 0x20000ad6
        0x00000264:    7008        .p      STRB     r0,[r1,#0]
        0x00000266:    bd10        ..      POP      {r4,pc}
    $d
        0x00000268:    20000ad6    ...     DCD    536873686
    $t
    i.KEY2
    KEY2
        0x0000026c:    b510        ..      PUSH     {r4,lr}
        0x0000026e:    2002        .       MOVS     r0,#2
        0x00000270:    f000fc84    ....    BL       LED_toggle ; 0xb7c
        0x00000274:    f000fe66    ..f.    BL       createOneBullet ; 0xf44
        0x00000278:    bd10        ..      POP      {r4,pc}
        0x0000027a:    0000        ..      MOVS     r0,r0
    i.KEY3
    KEY3
        0x0000027c:    b510        ..      PUSH     {r4,lr}
        0x0000027e:    2003        .       MOVS     r0,#3
        0x00000280:    f000fc7c    ..|.    BL       LED_toggle ; 0xb7c
        0x00000284:    4804        .H      LDR      r0,[pc,#16] ; [0x298] = 0x20000ad6
        0x00000286:    7840        @x      LDRB     r0,[r0,#1]
        0x00000288:    281e        .(      CMP      r0,#0x1e
        0x0000028a:    dd04        ..      BLE      0x296 ; KEY3 + 26
        0x0000028c:    4802        .H      LDR      r0,[pc,#8] ; [0x298] = 0x20000ad6
        0x0000028e:    7840        @x      LDRB     r0,[r0,#1]
        0x00000290:    1f40        @.      SUBS     r0,r0,#5
        0x00000292:    4901        .I      LDR      r1,[pc,#4] ; [0x298] = 0x20000ad6
        0x00000294:    7048        Hp      STRB     r0,[r1,#1]
        0x00000296:    bd10        ..      POP      {r4,pc}
    $d
        0x00000298:    20000ad6    ...     DCD    536873686
    $t
    i.KEY_INIT
    KEY_INIT
        0x0000029c:    4901        .I      LDR      r1,[pc,#4] ; [0x2a4] = 0x40002000
        0x0000029e:    6048        H`      STR      r0,[r1,#4]
        0x000002a0:    4770        pG      BX       lr
    $d
        0x000002a2:    0000        ..      DCW    0
        0x000002a4:    40002000    . .@    DCD    1073750016
    $t
    i.LCD_Clear
    LCD_Clear
        0x000002a8:    b570        p.      PUSH     {r4-r6,lr}
        0x000002aa:    4606        .F      MOV      r6,r0
        0x000002ac:    2400        .$      MOVS     r4,#0
        0x000002ae:    4817        .H      LDR      r0,[pc,#92] ; [0x30c] = 0x20000c8c
        0x000002b0:    8805        ..      LDRH     r5,[r0,#0]
        0x000002b2:    8840        @.      LDRH     r0,[r0,#2]
        0x000002b4:    4345        EC      MULS     r5,r0,r5
        0x000002b6:    4815        .H      LDR      r0,[pc,#84] ; [0x30c] = 0x20000c8c
        0x000002b8:    8880        ..      LDRH     r0,[r0,#4]
        0x000002ba:    4915        .I      LDR      r1,[pc,#84] ; [0x310] = 0x6804
        0x000002bc:    4288        .B      CMP      r0,r1
        0x000002be:    d116        ..      BNE      0x2ee ; LCD_Clear + 70
        0x000002c0:    4812        .H      LDR      r0,[pc,#72] ; [0x30c] = 0x20000c8c
        0x000002c2:    7980        .y      LDRB     r0,[r0,#6]
        0x000002c4:    2801        .(      CMP      r0,#1
        0x000002c6:    d112        ..      BNE      0x2ee ; LCD_Clear + 70
        0x000002c8:    2000        .       MOVS     r0,#0
        0x000002ca:    4910        .I      LDR      r1,[pc,#64] ; [0x30c] = 0x20000c8c
        0x000002cc:    7188        .q      STRB     r0,[r1,#6]
        0x000002ce:    202a        *       MOVS     r0,#0x2a
        0x000002d0:    8148        H.      STRH     r0,[r1,#0xa]
        0x000002d2:    202b        +       MOVS     r0,#0x2b
        0x000002d4:    8188        ..      STRH     r0,[r1,#0xc]
        0x000002d6:    2100        .!      MOVS     r1,#0
        0x000002d8:    4608        .F      MOV      r0,r1
        0x000002da:    f000fb45    ..E.    BL       LCD_SetCursor ; 0x968
        0x000002de:    2001        .       MOVS     r0,#1
        0x000002e0:    490a        .I      LDR      r1,[pc,#40] ; [0x30c] = 0x20000c8c
        0x000002e2:    7188        .q      STRB     r0,[r1,#6]
        0x000002e4:    202b        +       MOVS     r0,#0x2b
        0x000002e6:    8148        H.      STRH     r0,[r1,#0xa]
        0x000002e8:    202a        *       MOVS     r0,#0x2a
        0x000002ea:    8188        ..      STRH     r0,[r1,#0xc]
        0x000002ec:    e003        ..      B        0x2f6 ; LCD_Clear + 78
        0x000002ee:    2100        .!      MOVS     r1,#0
        0x000002f0:    4608        .F      MOV      r0,r1
        0x000002f2:    f000fb39    ..9.    BL       LCD_SetCursor ; 0x968
        0x000002f6:    f000fc2f    ../.    BL       LCD_WriteRAM_Prepare ; 0xb58
        0x000002fa:    2400        .$      MOVS     r4,#0
        0x000002fc:    e003        ..      B        0x306 ; LCD_Clear + 94
        0x000002fe:    4630        0F      MOV      r0,r6
        0x00000300:    f000fc05    ....    BL       LCD_WR_DATA ; 0xb0e
        0x00000304:    1c64        d.      ADDS     r4,r4,#1
        0x00000306:    42ac        .B      CMP      r4,r5
        0x00000308:    d3f9        ..      BCC      0x2fe ; LCD_Clear + 86
        0x0000030a:    bd70        p.      POP      {r4-r6,pc}
    $d
        0x0000030c:    20000c8c    ...     DCD    536874124
        0x00000310:    00006804    .h..    DCD    26628
    $t
    i.LCD_Display_Dir
    LCD_Display_Dir
        0x00000314:    b510        ..      PUSH     {r4,lr}
        0x00000316:    4604        .F      MOV      r4,r0
        0x00000318:    2c00        .,      CMP      r4,#0
        0x0000031a:    d11e        ..      BNE      0x35a ; LCD_Display_Dir + 70
        0x0000031c:    4918        .I      LDR      r1,[pc,#96] ; [0x380] = 0x20000c8c
        0x0000031e:    7188        .q      STRB     r0,[r1,#6]
        0x00000320:    20f0        .       MOVS     r0,#0xf0
        0x00000322:    8008        ..      STRH     r0,[r1,#0]
        0x00000324:    20ff        .       MOVS     r0,#0xff
        0x00000326:    3041        A0      ADDS     r0,r0,#0x41
        0x00000328:    8048        H.      STRH     r0,[r1,#2]
        0x0000032a:    202c        ,       MOVS     r0,#0x2c
        0x0000032c:    8108        ..      STRH     r0,[r1,#8]
        0x0000032e:    202a        *       MOVS     r0,#0x2a
        0x00000330:    8148        H.      STRH     r0,[r1,#0xa]
        0x00000332:    202b        +       MOVS     r0,#0x2b
        0x00000334:    8188        ..      STRH     r0,[r1,#0xc]
        0x00000336:    4608        .F      MOV      r0,r1
        0x00000338:    8880        ..      LDRH     r0,[r0,#4]
        0x0000033a:    4912        .I      LDR      r1,[pc,#72] ; [0x384] = 0x6804
        0x0000033c:    4288        .B      CMP      r0,r1
        0x0000033e:    d004        ..      BEQ      0x34a ; LCD_Display_Dir + 54
        0x00000340:    480f        .H      LDR      r0,[pc,#60] ; [0x380] = 0x20000c8c
        0x00000342:    8880        ..      LDRH     r0,[r0,#4]
        0x00000344:    4910        .I      LDR      r1,[pc,#64] ; [0x388] = 0x5310
        0x00000346:    4288        .B      CMP      r0,r1
        0x00000348:    d115        ..      BNE      0x376 ; LCD_Display_Dir + 98
        0x0000034a:    20ff        .       MOVS     r0,#0xff
        0x0000034c:    3041        A0      ADDS     r0,r0,#0x41
        0x0000034e:    490c        .I      LDR      r1,[pc,#48] ; [0x380] = 0x20000c8c
        0x00000350:    8008        ..      STRH     r0,[r1,#0]
        0x00000352:    20ff        .       MOVS     r0,#0xff
        0x00000354:    30e1        .0      ADDS     r0,r0,#0xe1
        0x00000356:    8048        H.      STRH     r0,[r1,#2]
        0x00000358:    e00d        ..      B        0x376 ; LCD_Display_Dir + 98
        0x0000035a:    2001        .       MOVS     r0,#1
        0x0000035c:    4908        .I      LDR      r1,[pc,#32] ; [0x380] = 0x20000c8c
        0x0000035e:    7188        .q      STRB     r0,[r1,#6]
        0x00000360:    20ff        .       MOVS     r0,#0xff
        0x00000362:    3041        A0      ADDS     r0,r0,#0x41
        0x00000364:    8008        ..      STRH     r0,[r1,#0]
        0x00000366:    20f0        .       MOVS     r0,#0xf0
        0x00000368:    8048        H.      STRH     r0,[r1,#2]
        0x0000036a:    202c        ,       MOVS     r0,#0x2c
        0x0000036c:    8108        ..      STRH     r0,[r1,#8]
        0x0000036e:    202a        *       MOVS     r0,#0x2a
        0x00000370:    8148        H.      STRH     r0,[r1,#0xa]
        0x00000372:    202b        +       MOVS     r0,#0x2b
        0x00000374:    8188        ..      STRH     r0,[r1,#0xc]
        0x00000376:    2000        .       MOVS     r0,#0
        0x00000378:    f000f982    ....    BL       LCD_Scan_Dir ; 0x680
        0x0000037c:    bd10        ..      POP      {r4,pc}
    $d
        0x0000037e:    0000        ..      DCW    0
        0x00000380:    20000c8c    ...     DCD    536874124
        0x00000384:    00006804    .h..    DCD    26628
        0x00000388:    00005310    .S..    DCD    21264
    $t
    i.LCD_Fast_DrawPoint
    LCD_Fast_DrawPoint
        0x0000038c:    b530        0.      PUSH     {r4,r5,lr}
        0x0000038e:    4603        .F      MOV      r3,r0
        0x00000390:    460c        .F      MOV      r4,r1
        0x00000392:    4615        .F      MOV      r5,r2
        0x00000394:    4913        .I      LDR      r1,[pc,#76] ; [0x3e4] = 0x20000c8c
        0x00000396:    8948        H.      LDRH     r0,[r1,#0xa]
        0x00000398:    f000fbcc    ....    BL       LCD_WR_REG ; 0xb34
        0x0000039c:    1218        ..      ASRS     r0,r3,#8
        0x0000039e:    f000fbb6    ....    BL       LCD_WR_DATA ; 0xb0e
        0x000003a2:    b2d8        ..      UXTB     r0,r3
        0x000003a4:    f000fbb3    ....    BL       LCD_WR_DATA ; 0xb0e
        0x000003a8:    490e        .I      LDR      r1,[pc,#56] ; [0x3e4] = 0x20000c8c
        0x000003aa:    8988        ..      LDRH     r0,[r1,#0xc]
        0x000003ac:    f000fbc2    ....    BL       LCD_WR_REG ; 0xb34
        0x000003b0:    1220         .      ASRS     r0,r4,#8
        0x000003b2:    f000fbac    ....    BL       LCD_WR_DATA ; 0xb0e
        0x000003b6:    b2e0        ..      UXTB     r0,r4
        0x000003b8:    f000fba9    ....    BL       LCD_WR_DATA ; 0xb0e
        0x000003bc:    2000        .       MOVS     r0,#0
        0x000003be:    2105        .!      MOVS     r1,#5
        0x000003c0:    0709        ..      LSLS     r1,r1,#28
        0x000003c2:    6048        H`      STR      r0,[r1,#4]
        0x000003c4:    6008        .`      STR      r0,[r1,#0]
        0x000003c6:    4907        .I      LDR      r1,[pc,#28] ; [0x3e4] = 0x20000c8c
        0x000003c8:    8908        ..      LDRH     r0,[r1,#8]
        0x000003ca:    f000fbf3    ....    BL       MakeData ; 0xbb4
        0x000003ce:    2000        .       MOVS     r0,#0
        0x000003d0:    2105        .!      MOVS     r1,#5
        0x000003d2:    0709        ..      LSLS     r1,r1,#28
        0x000003d4:    6088        .`      STR      r0,[r1,#8]
        0x000003d6:    2001        .       MOVS     r0,#1
        0x000003d8:    6088        .`      STR      r0,[r1,#8]
        0x000003da:    6008        .`      STR      r0,[r1,#0]
        0x000003dc:    4628        (F      MOV      r0,r5
        0x000003de:    f000fb96    ....    BL       LCD_WR_DATA ; 0xb0e
        0x000003e2:    bd30        0.      POP      {r4,r5,pc}
    $d
        0x000003e4:    20000c8c    ...     DCD    536874124
    $t
    i.LCD_Init
    LCD_Init
        0x000003e8:    b510        ..      PUSH     {r4,lr}
        0x000003ea:    2001        .       MOVS     r0,#1
        0x000003ec:    2105        .!      MOVS     r1,#5
        0x000003ee:    0709        ..      LSLS     r1,r1,#28
        0x000003f0:    6108        .a      STR      r0,[r1,#0x10]
        0x000003f2:    489f        .H      LDR      r0,[pc,#636] ; [0x670] = 0x2625a0
        0x000003f4:    f000fdf4    ....    BL       delay ; 0xfe0
        0x000003f8:    2000        .       MOVS     r0,#0
        0x000003fa:    2105        .!      MOVS     r1,#5
        0x000003fc:    0709        ..      LSLS     r1,r1,#28
        0x000003fe:    6108        .a      STR      r0,[r1,#0x10]
        0x00000400:    489b        .H      LDR      r0,[pc,#620] ; [0x670] = 0x2625a0
        0x00000402:    f000fded    ....    BL       delay ; 0xfe0
        0x00000406:    2001        .       MOVS     r0,#1
        0x00000408:    2105        .!      MOVS     r1,#5
        0x0000040a:    0709        ..      LSLS     r1,r1,#28
        0x0000040c:    6108        .a      STR      r0,[r1,#0x10]
        0x0000040e:    4898        .H      LDR      r0,[pc,#608] ; [0x670] = 0x2625a0
        0x00000410:    f000fde6    ....    BL       delay ; 0xfe0
        0x00000414:    2001        .       MOVS     r0,#1
        0x00000416:    2105        .!      MOVS     r1,#5
        0x00000418:    0709        ..      LSLS     r1,r1,#28
        0x0000041a:    60c8        .`      STR      r0,[r1,#0xc]
        0x0000041c:    4895        .H      LDR      r0,[pc,#596] ; [0x674] = 0x9341
        0x0000041e:    4996        .I      LDR      r1,[pc,#600] ; [0x678] = 0x20000c8c
        0x00000420:    8088        ..      STRH     r0,[r1,#4]
        0x00000422:    4608        .F      MOV      r0,r1
        0x00000424:    8880        ..      LDRH     r0,[r0,#4]
        0x00000426:    4993        .I      LDR      r1,[pc,#588] ; [0x674] = 0x9341
        0x00000428:    4288        .B      CMP      r0,r1
        0x0000042a:    d17c        |.      BNE      0x526 ; LCD_Init + 318
        0x0000042c:    20cf        .       MOVS     r0,#0xcf
        0x0000042e:    f000fb81    ....    BL       LCD_WR_REG ; 0xb34
        0x00000432:    2000        .       MOVS     r0,#0
        0x00000434:    f000fb6b    ..k.    BL       LCD_WR_DATA ; 0xb0e
        0x00000438:    20c1        .       MOVS     r0,#0xc1
        0x0000043a:    f000fb68    ..h.    BL       LCD_WR_DATA ; 0xb0e
        0x0000043e:    2030        0       MOVS     r0,#0x30
        0x00000440:    f000fb65    ..e.    BL       LCD_WR_DATA ; 0xb0e
        0x00000444:    20ed        .       MOVS     r0,#0xed
        0x00000446:    f000fb75    ..u.    BL       LCD_WR_REG ; 0xb34
        0x0000044a:    2064        d       MOVS     r0,#0x64
        0x0000044c:    f000fb5f    .._.    BL       LCD_WR_DATA ; 0xb0e
        0x00000450:    2003        .       MOVS     r0,#3
        0x00000452:    f000fb5c    ..\.    BL       LCD_WR_DATA ; 0xb0e
        0x00000456:    2012        .       MOVS     r0,#0x12
        0x00000458:    f000fb59    ..Y.    BL       LCD_WR_DATA ; 0xb0e
        0x0000045c:    2081        .       MOVS     r0,#0x81
        0x0000045e:    f000fb56    ..V.    BL       LCD_WR_DATA ; 0xb0e
        0x00000462:    20e8        .       MOVS     r0,#0xe8
        0x00000464:    f000fb66    ..f.    BL       LCD_WR_REG ; 0xb34
        0x00000468:    2085        .       MOVS     r0,#0x85
        0x0000046a:    f000fb50    ..P.    BL       LCD_WR_DATA ; 0xb0e
        0x0000046e:    2010        .       MOVS     r0,#0x10
        0x00000470:    f000fb4d    ..M.    BL       LCD_WR_DATA ; 0xb0e
        0x00000474:    207a        z       MOVS     r0,#0x7a
        0x00000476:    f000fb4a    ..J.    BL       LCD_WR_DATA ; 0xb0e
        0x0000047a:    20cb        .       MOVS     r0,#0xcb
        0x0000047c:    f000fb5a    ..Z.    BL       LCD_WR_REG ; 0xb34
        0x00000480:    2039        9       MOVS     r0,#0x39
        0x00000482:    f000fb44    ..D.    BL       LCD_WR_DATA ; 0xb0e
        0x00000486:    202c        ,       MOVS     r0,#0x2c
        0x00000488:    f000fb41    ..A.    BL       LCD_WR_DATA ; 0xb0e
        0x0000048c:    2000        .       MOVS     r0,#0
        0x0000048e:    f000fb3e    ..>.    BL       LCD_WR_DATA ; 0xb0e
        0x00000492:    2034        4       MOVS     r0,#0x34
        0x00000494:    f000fb3b    ..;.    BL       LCD_WR_DATA ; 0xb0e
        0x00000498:    2002        .       MOVS     r0,#2
        0x0000049a:    f000fb38    ..8.    BL       LCD_WR_DATA ; 0xb0e
        0x0000049e:    20f7        .       MOVS     r0,#0xf7
        0x000004a0:    f000fb48    ..H.    BL       LCD_WR_REG ; 0xb34
        0x000004a4:    2020                MOVS     r0,#0x20
        0x000004a6:    f000fb32    ..2.    BL       LCD_WR_DATA ; 0xb0e
        0x000004aa:    20ea        .       MOVS     r0,#0xea
        0x000004ac:    f000fb42    ..B.    BL       LCD_WR_REG ; 0xb34
        0x000004b0:    2000        .       MOVS     r0,#0
        0x000004b2:    f000fb2c    ..,.    BL       LCD_WR_DATA ; 0xb0e
        0x000004b6:    2000        .       MOVS     r0,#0
        0x000004b8:    f000fb29    ..).    BL       LCD_WR_DATA ; 0xb0e
        0x000004bc:    20c0        .       MOVS     r0,#0xc0
        0x000004be:    f000fb39    ..9.    BL       LCD_WR_REG ; 0xb34
        0x000004c2:    201b        .       MOVS     r0,#0x1b
        0x000004c4:    f000fb23    ..#.    BL       LCD_WR_DATA ; 0xb0e
        0x000004c8:    20c1        .       MOVS     r0,#0xc1
        0x000004ca:    f000fb33    ..3.    BL       LCD_WR_REG ; 0xb34
        0x000004ce:    2001        .       MOVS     r0,#1
        0x000004d0:    f000fb1d    ....    BL       LCD_WR_DATA ; 0xb0e
        0x000004d4:    20c5        .       MOVS     r0,#0xc5
        0x000004d6:    f000fb2d    ..-.    BL       LCD_WR_REG ; 0xb34
        0x000004da:    2030        0       MOVS     r0,#0x30
        0x000004dc:    f000fb17    ....    BL       LCD_WR_DATA ; 0xb0e
        0x000004e0:    2030        0       MOVS     r0,#0x30
        0x000004e2:    f000fb14    ....    BL       LCD_WR_DATA ; 0xb0e
        0x000004e6:    20c7        .       MOVS     r0,#0xc7
        0x000004e8:    f000fb24    ..$.    BL       LCD_WR_REG ; 0xb34
        0x000004ec:    20b7        .       MOVS     r0,#0xb7
        0x000004ee:    f000fb0e    ....    BL       LCD_WR_DATA ; 0xb0e
        0x000004f2:    2036        6       MOVS     r0,#0x36
        0x000004f4:    f000fb1e    ....    BL       LCD_WR_REG ; 0xb34
        0x000004f8:    2048        H       MOVS     r0,#0x48
        0x000004fa:    f000fb08    ....    BL       LCD_WR_DATA ; 0xb0e
        0x000004fe:    203a        :       MOVS     r0,#0x3a
        0x00000500:    f000fb18    ....    BL       LCD_WR_REG ; 0xb34
        0x00000504:    2055        U       MOVS     r0,#0x55
        0x00000506:    f000fb02    ....    BL       LCD_WR_DATA ; 0xb0e
        0x0000050a:    20b1        .       MOVS     r0,#0xb1
        0x0000050c:    f000fb12    ....    BL       LCD_WR_REG ; 0xb34
        0x00000510:    2000        .       MOVS     r0,#0
        0x00000512:    f000fafc    ....    BL       LCD_WR_DATA ; 0xb0e
        0x00000516:    201a        .       MOVS     r0,#0x1a
        0x00000518:    f000faf9    ....    BL       LCD_WR_DATA ; 0xb0e
        0x0000051c:    20b6        .       MOVS     r0,#0xb6
        0x0000051e:    f000fb09    ....    BL       LCD_WR_REG ; 0xb34
        0x00000522:    200a        .       MOVS     r0,#0xa
        0x00000524:    e000        ..      B        0x528 ; LCD_Init + 320
        0x00000526:    e097        ..      B        0x658 ; LCD_Init + 624
        0x00000528:    f000faf1    ....    BL       LCD_WR_DATA ; 0xb0e
        0x0000052c:    20a2        .       MOVS     r0,#0xa2
        0x0000052e:    f000faee    ....    BL       LCD_WR_DATA ; 0xb0e
        0x00000532:    20f2        .       MOVS     r0,#0xf2
        0x00000534:    f000fafe    ....    BL       LCD_WR_REG ; 0xb34
        0x00000538:    2000        .       MOVS     r0,#0
        0x0000053a:    f000fae8    ....    BL       LCD_WR_DATA ; 0xb0e
        0x0000053e:    2026        &       MOVS     r0,#0x26
        0x00000540:    f000faf8    ....    BL       LCD_WR_REG ; 0xb34
        0x00000544:    2001        .       MOVS     r0,#1
        0x00000546:    f000fae2    ....    BL       LCD_WR_DATA ; 0xb0e
        0x0000054a:    20e0        .       MOVS     r0,#0xe0
        0x0000054c:    f000faf2    ....    BL       LCD_WR_REG ; 0xb34
        0x00000550:    200f        .       MOVS     r0,#0xf
        0x00000552:    f000fadc    ....    BL       LCD_WR_DATA ; 0xb0e
        0x00000556:    202a        *       MOVS     r0,#0x2a
        0x00000558:    f000fad9    ....    BL       LCD_WR_DATA ; 0xb0e
        0x0000055c:    2028        (       MOVS     r0,#0x28
        0x0000055e:    f000fad6    ....    BL       LCD_WR_DATA ; 0xb0e
        0x00000562:    2008        .       MOVS     r0,#8
        0x00000564:    f000fad3    ....    BL       LCD_WR_DATA ; 0xb0e
        0x00000568:    200e        .       MOVS     r0,#0xe
        0x0000056a:    f000fad0    ....    BL       LCD_WR_DATA ; 0xb0e
        0x0000056e:    2008        .       MOVS     r0,#8
        0x00000570:    f000facd    ....    BL       LCD_WR_DATA ; 0xb0e
        0x00000574:    2054        T       MOVS     r0,#0x54
        0x00000576:    f000faca    ....    BL       LCD_WR_DATA ; 0xb0e
        0x0000057a:    20a9        .       MOVS     r0,#0xa9
        0x0000057c:    f000fac7    ....    BL       LCD_WR_DATA ; 0xb0e
        0x00000580:    2043        C       MOVS     r0,#0x43
        0x00000582:    f000fac4    ....    BL       LCD_WR_DATA ; 0xb0e
        0x00000586:    200a        .       MOVS     r0,#0xa
        0x00000588:    f000fac1    ....    BL       LCD_WR_DATA ; 0xb0e
        0x0000058c:    200f        .       MOVS     r0,#0xf
        0x0000058e:    f000fabe    ....    BL       LCD_WR_DATA ; 0xb0e
        0x00000592:    2000        .       MOVS     r0,#0
        0x00000594:    f000fabb    ....    BL       LCD_WR_DATA ; 0xb0e
        0x00000598:    2000        .       MOVS     r0,#0
        0x0000059a:    f000fab8    ....    BL       LCD_WR_DATA ; 0xb0e
        0x0000059e:    2000        .       MOVS     r0,#0
        0x000005a0:    f000fab5    ....    BL       LCD_WR_DATA ; 0xb0e
        0x000005a4:    2000        .       MOVS     r0,#0
        0x000005a6:    f000fab2    ....    BL       LCD_WR_DATA ; 0xb0e
        0x000005aa:    20e1        .       MOVS     r0,#0xe1
        0x000005ac:    f000fac2    ....    BL       LCD_WR_REG ; 0xb34
        0x000005b0:    2000        .       MOVS     r0,#0
        0x000005b2:    f000faac    ....    BL       LCD_WR_DATA ; 0xb0e
        0x000005b6:    2015        .       MOVS     r0,#0x15
        0x000005b8:    f000faa9    ....    BL       LCD_WR_DATA ; 0xb0e
        0x000005bc:    2017        .       MOVS     r0,#0x17
        0x000005be:    f000faa6    ....    BL       LCD_WR_DATA ; 0xb0e
        0x000005c2:    2007        .       MOVS     r0,#7
        0x000005c4:    f000faa3    ....    BL       LCD_WR_DATA ; 0xb0e
        0x000005c8:    2011        .       MOVS     r0,#0x11
        0x000005ca:    f000faa0    ....    BL       LCD_WR_DATA ; 0xb0e
        0x000005ce:    2006        .       MOVS     r0,#6
        0x000005d0:    f000fa9d    ....    BL       LCD_WR_DATA ; 0xb0e
        0x000005d4:    202b        +       MOVS     r0,#0x2b
        0x000005d6:    f000fa9a    ....    BL       LCD_WR_DATA ; 0xb0e
        0x000005da:    2056        V       MOVS     r0,#0x56
        0x000005dc:    f000fa97    ....    BL       LCD_WR_DATA ; 0xb0e
        0x000005e0:    203c        <       MOVS     r0,#0x3c
        0x000005e2:    f000fa94    ....    BL       LCD_WR_DATA ; 0xb0e
        0x000005e6:    2005        .       MOVS     r0,#5
        0x000005e8:    f000fa91    ....    BL       LCD_WR_DATA ; 0xb0e
        0x000005ec:    2010        .       MOVS     r0,#0x10
        0x000005ee:    f000fa8e    ....    BL       LCD_WR_DATA ; 0xb0e
        0x000005f2:    200f        .       MOVS     r0,#0xf
        0x000005f4:    f000fa8b    ....    BL       LCD_WR_DATA ; 0xb0e
        0x000005f8:    203f        ?       MOVS     r0,#0x3f
        0x000005fa:    f000fa88    ....    BL       LCD_WR_DATA ; 0xb0e
        0x000005fe:    203f        ?       MOVS     r0,#0x3f
        0x00000600:    f000fa85    ....    BL       LCD_WR_DATA ; 0xb0e
        0x00000604:    200f        .       MOVS     r0,#0xf
        0x00000606:    f000fa82    ....    BL       LCD_WR_DATA ; 0xb0e
        0x0000060a:    202b        +       MOVS     r0,#0x2b
        0x0000060c:    f000fa92    ....    BL       LCD_WR_REG ; 0xb34
        0x00000610:    2000        .       MOVS     r0,#0
        0x00000612:    f000fa7c    ..|.    BL       LCD_WR_DATA ; 0xb0e
        0x00000616:    2000        .       MOVS     r0,#0
        0x00000618:    f000fa79    ..y.    BL       LCD_WR_DATA ; 0xb0e
        0x0000061c:    2001        .       MOVS     r0,#1
        0x0000061e:    f000fa76    ..v.    BL       LCD_WR_DATA ; 0xb0e
        0x00000622:    203f        ?       MOVS     r0,#0x3f
        0x00000624:    f000fa73    ..s.    BL       LCD_WR_DATA ; 0xb0e
        0x00000628:    202a        *       MOVS     r0,#0x2a
        0x0000062a:    f000fa83    ....    BL       LCD_WR_REG ; 0xb34
        0x0000062e:    2000        .       MOVS     r0,#0
        0x00000630:    f000fa6d    ..m.    BL       LCD_WR_DATA ; 0xb0e
        0x00000634:    2000        .       MOVS     r0,#0
        0x00000636:    f000fa6a    ..j.    BL       LCD_WR_DATA ; 0xb0e
        0x0000063a:    2000        .       MOVS     r0,#0
        0x0000063c:    f000fa67    ..g.    BL       LCD_WR_DATA ; 0xb0e
        0x00000640:    20ef        .       MOVS     r0,#0xef
        0x00000642:    f000fa64    ..d.    BL       LCD_WR_DATA ; 0xb0e
        0x00000646:    2011        .       MOVS     r0,#0x11
        0x00000648:    f000fa74    ..t.    BL       LCD_WR_REG ; 0xb34
        0x0000064c:    480b        .H      LDR      r0,[pc,#44] ; [0x67c] = 0x5b8d80
        0x0000064e:    f000fcc7    ....    BL       delay ; 0xfe0
        0x00000652:    2029        )       MOVS     r0,#0x29
        0x00000654:    f000fa6e    ..n.    BL       LCD_WR_REG ; 0xb34
        0x00000658:    2001        .       MOVS     r0,#1
        0x0000065a:    f7fffe5b    ..[.    BL       LCD_Display_Dir ; 0x314
        0x0000065e:    2001        .       MOVS     r0,#1
        0x00000660:    2105        .!      MOVS     r1,#5
        0x00000662:    0709        ..      LSLS     r1,r1,#28
        0x00000664:    6148        Ha      STR      r0,[r1,#0x14]
        0x00000666:    2000        .       MOVS     r0,#0
        0x00000668:    f7fffe1e    ....    BL       LCD_Clear ; 0x2a8
        0x0000066c:    bd10        ..      POP      {r4,pc}
    $d
        0x0000066e:    0000        ..      DCW    0
        0x00000670:    002625a0    .%&.    DCD    2500000
        0x00000674:    00009341    A...    DCD    37697
        0x00000678:    20000c8c    ...     DCD    536874124
        0x0000067c:    005b8d80    ..[.    DCD    6000000
    $t
    i.LCD_Scan_Dir
    LCD_Scan_Dir
        0x00000680:    b5f0        ..      PUSH     {r4-r7,lr}
        0x00000682:    4605        .F      MOV      r5,r0
        0x00000684:    2400        .$      MOVS     r4,#0
        0x00000686:    2700        .'      MOVS     r7,#0
        0x00000688:    48b1        .H      LDR      r0,[pc,#708] ; [0x950] = 0x20000c8c
        0x0000068a:    7980        .y      LDRB     r0,[r0,#6]
        0x0000068c:    2801        .(      CMP      r0,#1
        0x0000068e:    d109        ..      BNE      0x6a4 ; LCD_Scan_Dir + 36
        0x00000690:    48af        .H      LDR      r0,[pc,#700] ; [0x950] = 0x20000c8c
        0x00000692:    8880        ..      LDRH     r0,[r0,#4]
        0x00000694:    49af        .I      LDR      r1,[pc,#700] ; [0x954] = 0x6804
        0x00000696:    4288        .B      CMP      r0,r1
        0x00000698:    d004        ..      BEQ      0x6a4 ; LCD_Scan_Dir + 36
        0x0000069a:    48ad        .H      LDR      r0,[pc,#692] ; [0x950] = 0x20000c8c
        0x0000069c:    8880        ..      LDRH     r0,[r0,#4]
        0x0000069e:    49ae        .I      LDR      r1,[pc,#696] ; [0x958] = 0x1963
        0x000006a0:    4288        .B      CMP      r0,r1
        0x000006a2:    d108        ..      BNE      0x6b6 ; LCD_Scan_Dir + 54
        0x000006a4:    48aa        .H      LDR      r0,[pc,#680] ; [0x950] = 0x20000c8c
        0x000006a6:    7980        .y      LDRB     r0,[r0,#6]
        0x000006a8:    2800        .(      CMP      r0,#0
        0x000006aa:    d11d        ..      BNE      0x6e8 ; LCD_Scan_Dir + 104
        0x000006ac:    48a8        .H      LDR      r0,[pc,#672] ; [0x950] = 0x20000c8c
        0x000006ae:    8880        ..      LDRH     r0,[r0,#4]
        0x000006b0:    49a9        .I      LDR      r1,[pc,#676] ; [0x958] = 0x1963
        0x000006b2:    4288        .B      CMP      r0,r1
        0x000006b4:    d118        ..      BNE      0x6e8 ; LCD_Scan_Dir + 104
        0x000006b6:    002b        +.      MOVS     r3,r5
        0x000006b8:    f000fb7e    ..~.    BL       __ARM_common_switch8 ; 0xdb8
    $d
        0x000006bc:    09070508    ....    DCD    151454984
        0x000006c0:    110f0d0b    ....    DCD    286199051
        0x000006c4:    1513        ..      DCW    5395
    $t
        0x000006c6:    2506        .%      MOVS     r5,#6
        0x000006c8:    e00d        ..      B        0x6e6 ; LCD_Scan_Dir + 102
        0x000006ca:    2507        .%      MOVS     r5,#7
        0x000006cc:    e00b        ..      B        0x6e6 ; LCD_Scan_Dir + 102
        0x000006ce:    2504        .%      MOVS     r5,#4
        0x000006d0:    e009        ..      B        0x6e6 ; LCD_Scan_Dir + 102
        0x000006d2:    2505        .%      MOVS     r5,#5
        0x000006d4:    e007        ..      B        0x6e6 ; LCD_Scan_Dir + 102
        0x000006d6:    2501        .%      MOVS     r5,#1
        0x000006d8:    e005        ..      B        0x6e6 ; LCD_Scan_Dir + 102
        0x000006da:    2500        .%      MOVS     r5,#0
        0x000006dc:    e003        ..      B        0x6e6 ; LCD_Scan_Dir + 102
        0x000006de:    2503        .%      MOVS     r5,#3
        0x000006e0:    e001        ..      B        0x6e6 ; LCD_Scan_Dir + 102
        0x000006e2:    2502        .%      MOVS     r5,#2
        0x000006e4:    bf00        ..      NOP      
        0x000006e6:    bf00        ..      NOP      
        0x000006e8:    4899        .H      LDR      r0,[pc,#612] ; [0x950] = 0x20000c8c
        0x000006ea:    8880        ..      LDRH     r0,[r0,#4]
        0x000006ec:    499b        .I      LDR      r1,[pc,#620] ; [0x95c] = 0x9341
        0x000006ee:    4288        .B      CMP      r0,r1
        0x000006f0:    d013        ..      BEQ      0x71a ; LCD_Scan_Dir + 154
        0x000006f2:    4897        .H      LDR      r0,[pc,#604] ; [0x950] = 0x20000c8c
        0x000006f4:    8880        ..      LDRH     r0,[r0,#4]
        0x000006f6:    4997        .I      LDR      r1,[pc,#604] ; [0x954] = 0x6804
        0x000006f8:    4288        .B      CMP      r0,r1
        0x000006fa:    d00e        ..      BEQ      0x71a ; LCD_Scan_Dir + 154
        0x000006fc:    4894        .H      LDR      r0,[pc,#592] ; [0x950] = 0x20000c8c
        0x000006fe:    8880        ..      LDRH     r0,[r0,#4]
        0x00000700:    4997        .I      LDR      r1,[pc,#604] ; [0x960] = 0x5310
        0x00000702:    4288        .B      CMP      r0,r1
        0x00000704:    d009        ..      BEQ      0x71a ; LCD_Scan_Dir + 154
        0x00000706:    4892        .H      LDR      r0,[pc,#584] ; [0x950] = 0x20000c8c
        0x00000708:    8880        ..      LDRH     r0,[r0,#4]
        0x0000070a:    4996        .I      LDR      r1,[pc,#600] ; [0x964] = 0x5510
        0x0000070c:    4288        .B      CMP      r0,r1
        0x0000070e:    d004        ..      BEQ      0x71a ; LCD_Scan_Dir + 154
        0x00000710:    488f        .H      LDR      r0,[pc,#572] ; [0x950] = 0x20000c8c
        0x00000712:    8880        ..      LDRH     r0,[r0,#4]
        0x00000714:    4990        .I      LDR      r1,[pc,#576] ; [0x958] = 0x1963
        0x00000716:    4288        .B      CMP      r0,r1
        0x00000718:    d17e        ~.      BNE      0x818 ; LCD_Scan_Dir + 408
        0x0000071a:    002b        +.      MOVS     r3,r5
        0x0000071c:    f000fb4c    ..L.    BL       __ARM_common_switch8 ; 0xdb8
    $d
        0x00000720:    0a070508    ....    DCD    168232200
        0x00000724:    1613100d    ....    DCD    370348045
        0x00000728:    1c19        ..      DCW    7193
    $t
        0x0000072a:    bf00        ..      NOP      
        0x0000072c:    e014        ..      B        0x758 ; LCD_Scan_Dir + 216
        0x0000072e:    2080        .       MOVS     r0,#0x80
        0x00000730:    4304        .C      ORRS     r4,r4,r0
        0x00000732:    e011        ..      B        0x758 ; LCD_Scan_Dir + 216
        0x00000734:    2040        @       MOVS     r0,#0x40
        0x00000736:    4304        .C      ORRS     r4,r4,r0
        0x00000738:    e00e        ..      B        0x758 ; LCD_Scan_Dir + 216
        0x0000073a:    20c0        .       MOVS     r0,#0xc0
        0x0000073c:    4304        .C      ORRS     r4,r4,r0
        0x0000073e:    e00b        ..      B        0x758 ; LCD_Scan_Dir + 216
        0x00000740:    2020                MOVS     r0,#0x20
        0x00000742:    4304        .C      ORRS     r4,r4,r0
        0x00000744:    e008        ..      B        0x758 ; LCD_Scan_Dir + 216
        0x00000746:    2060        `       MOVS     r0,#0x60
        0x00000748:    4304        .C      ORRS     r4,r4,r0
        0x0000074a:    e005        ..      B        0x758 ; LCD_Scan_Dir + 216
        0x0000074c:    20a0        .       MOVS     r0,#0xa0
        0x0000074e:    4304        .C      ORRS     r4,r4,r0
        0x00000750:    e002        ..      B        0x758 ; LCD_Scan_Dir + 216
        0x00000752:    20e0        .       MOVS     r0,#0xe0
        0x00000754:    4304        .C      ORRS     r4,r4,r0
        0x00000756:    bf00        ..      NOP      
        0x00000758:    bf00        ..      NOP      
        0x0000075a:    487d        }H      LDR      r0,[pc,#500] ; [0x950] = 0x20000c8c
        0x0000075c:    8880        ..      LDRH     r0,[r0,#4]
        0x0000075e:    4981        .I      LDR      r1,[pc,#516] ; [0x964] = 0x5510
        0x00000760:    4288        .B      CMP      r0,r1
        0x00000762:    d102        ..      BNE      0x76a ; LCD_Scan_Dir + 234
        0x00000764:    271b        .'      MOVS     r7,#0x1b
        0x00000766:    027f        ..      LSLS     r7,r7,#9
        0x00000768:    e000        ..      B        0x76c ; LCD_Scan_Dir + 236
        0x0000076a:    2736        6'      MOVS     r7,#0x36
        0x0000076c:    4878        xH      LDR      r0,[pc,#480] ; [0x950] = 0x20000c8c
        0x0000076e:    8880        ..      LDRH     r0,[r0,#4]
        0x00000770:    497b        {I      LDR      r1,[pc,#492] ; [0x960] = 0x5310
        0x00000772:    4288        .B      CMP      r0,r1
        0x00000774:    d00b        ..      BEQ      0x78e ; LCD_Scan_Dir + 270
        0x00000776:    4876        vH      LDR      r0,[pc,#472] ; [0x950] = 0x20000c8c
        0x00000778:    8880        ..      LDRH     r0,[r0,#4]
        0x0000077a:    497a        zI      LDR      r1,[pc,#488] ; [0x964] = 0x5510
        0x0000077c:    4288        .B      CMP      r0,r1
        0x0000077e:    d006        ..      BEQ      0x78e ; LCD_Scan_Dir + 270
        0x00000780:    4873        sH      LDR      r0,[pc,#460] ; [0x950] = 0x20000c8c
        0x00000782:    8880        ..      LDRH     r0,[r0,#4]
        0x00000784:    4974        tI      LDR      r1,[pc,#464] ; [0x958] = 0x1963
        0x00000786:    4288        .B      CMP      r0,r1
        0x00000788:    d001        ..      BEQ      0x78e ; LCD_Scan_Dir + 270
        0x0000078a:    2008        .       MOVS     r0,#8
        0x0000078c:    4304        .C      ORRS     r4,r4,r0
        0x0000078e:    4870        pH      LDR      r0,[pc,#448] ; [0x950] = 0x20000c8c
        0x00000790:    8880        ..      LDRH     r0,[r0,#4]
        0x00000792:    4970        pI      LDR      r1,[pc,#448] ; [0x954] = 0x6804
        0x00000794:    4288        .B      CMP      r0,r1
        0x00000796:    d101        ..      BNE      0x79c ; LCD_Scan_Dir + 284
        0x00000798:    2002        .       MOVS     r0,#2
        0x0000079a:    4304        .C      ORRS     r4,r4,r0
        0x0000079c:    4621        !F      MOV      r1,r4
        0x0000079e:    4638        8F      MOV      r0,r7
        0x000007a0:    f000f9e2    ....    BL       LCD_WriteReg ; 0xb68
        0x000007a4:    486a        jH      LDR      r0,[pc,#424] ; [0x950] = 0x20000c8c
        0x000007a6:    8880        ..      LDRH     r0,[r0,#4]
        0x000007a8:    496b        kI      LDR      r1,[pc,#428] ; [0x958] = 0x1963
        0x000007aa:    4288        .B      CMP      r0,r1
        0x000007ac:    d01e        ..      BEQ      0x7ec ; LCD_Scan_Dir + 364
        0x000007ae:    2020                MOVS     r0,#0x20
        0x000007b0:    4020         @      ANDS     r0,r0,r4
        0x000007b2:    2800        .(      CMP      r0,#0
        0x000007b4:    d00d        ..      BEQ      0x7d2 ; LCD_Scan_Dir + 338
        0x000007b6:    4866        fH      LDR      r0,[pc,#408] ; [0x950] = 0x20000c8c
        0x000007b8:    8800        ..      LDRH     r0,[r0,#0]
        0x000007ba:    4965        eI      LDR      r1,[pc,#404] ; [0x950] = 0x20000c8c
        0x000007bc:    8849        I.      LDRH     r1,[r1,#2]
        0x000007be:    4288        .B      CMP      r0,r1
        0x000007c0:    da14        ..      BGE      0x7ec ; LCD_Scan_Dir + 364
        0x000007c2:    4863        cH      LDR      r0,[pc,#396] ; [0x950] = 0x20000c8c
        0x000007c4:    8806        ..      LDRH     r6,[r0,#0]
        0x000007c6:    8840        @.      LDRH     r0,[r0,#2]
        0x000007c8:    4961        aI      LDR      r1,[pc,#388] ; [0x950] = 0x20000c8c
        0x000007ca:    8008        ..      STRH     r0,[r1,#0]
        0x000007cc:    4608        .F      MOV      r0,r1
        0x000007ce:    8046        F.      STRH     r6,[r0,#2]
        0x000007d0:    e00c        ..      B        0x7ec ; LCD_Scan_Dir + 364
        0x000007d2:    485f        _H      LDR      r0,[pc,#380] ; [0x950] = 0x20000c8c
        0x000007d4:    8800        ..      LDRH     r0,[r0,#0]
        0x000007d6:    495e        ^I      LDR      r1,[pc,#376] ; [0x950] = 0x20000c8c
        0x000007d8:    8849        I.      LDRH     r1,[r1,#2]
        0x000007da:    4288        .B      CMP      r0,r1
        0x000007dc:    dd06        ..      BLE      0x7ec ; LCD_Scan_Dir + 364
        0x000007de:    485c        \H      LDR      r0,[pc,#368] ; [0x950] = 0x20000c8c
        0x000007e0:    8806        ..      LDRH     r6,[r0,#0]
        0x000007e2:    8840        @.      LDRH     r0,[r0,#2]
        0x000007e4:    495a        ZI      LDR      r1,[pc,#360] ; [0x950] = 0x20000c8c
        0x000007e6:    8008        ..      STRH     r0,[r1,#0]
        0x000007e8:    4608        .F      MOV      r0,r1
        0x000007ea:    8046        F.      STRH     r6,[r0,#2]
        0x000007ec:    4858        XH      LDR      r0,[pc,#352] ; [0x950] = 0x20000c8c
        0x000007ee:    8880        ..      LDRH     r0,[r0,#4]
        0x000007f0:    495c        \I      LDR      r1,[pc,#368] ; [0x964] = 0x5510
        0x000007f2:    4288        .B      CMP      r0,r1
        0x000007f4:    d154        T.      BNE      0x8a0 ; LCD_Scan_Dir + 544
        0x000007f6:    4956        VI      LDR      r1,[pc,#344] ; [0x950] = 0x20000c8c
        0x000007f8:    8948        H.      LDRH     r0,[r1,#0xa]
        0x000007fa:    f000f99b    ....    BL       LCD_WR_REG ; 0xb34
        0x000007fe:    2000        .       MOVS     r0,#0
        0x00000800:    f000f985    ....    BL       LCD_WR_DATA ; 0xb0e
        0x00000804:    4952        RI      LDR      r1,[pc,#328] ; [0x950] = 0x20000c8c
        0x00000806:    8949        I.      LDRH     r1,[r1,#0xa]
        0x00000808:    1c49        I.      ADDS     r1,r1,#1
        0x0000080a:    b288        ..      UXTH     r0,r1
        0x0000080c:    f000f992    ....    BL       LCD_WR_REG ; 0xb34
        0x00000810:    2000        .       MOVS     r0,#0
        0x00000812:    f000f97c    ..|.    BL       LCD_WR_DATA ; 0xb0e
        0x00000816:    e000        ..      B        0x81a ; LCD_Scan_Dir + 410
        0x00000818:    e071        q.      B        0x8fe ; LCD_Scan_Dir + 638
        0x0000081a:    494d        MI      LDR      r1,[pc,#308] ; [0x950] = 0x20000c8c
        0x0000081c:    8949        I.      LDRH     r1,[r1,#0xa]
        0x0000081e:    1c89        ..      ADDS     r1,r1,#2
        0x00000820:    b288        ..      UXTH     r0,r1
        0x00000822:    f000f987    ....    BL       LCD_WR_REG ; 0xb34
        0x00000826:    494a        JI      LDR      r1,[pc,#296] ; [0x950] = 0x20000c8c
        0x00000828:    8809        ..      LDRH     r1,[r1,#0]
        0x0000082a:    1e49        I.      SUBS     r1,r1,#1
        0x0000082c:    0209        ..      LSLS     r1,r1,#8
        0x0000082e:    0c08        ..      LSRS     r0,r1,#16
        0x00000830:    f000f96d    ..m.    BL       LCD_WR_DATA ; 0xb0e
        0x00000834:    4946        FI      LDR      r1,[pc,#280] ; [0x950] = 0x20000c8c
        0x00000836:    8949        I.      LDRH     r1,[r1,#0xa]
        0x00000838:    1cc9        ..      ADDS     r1,r1,#3
        0x0000083a:    b288        ..      UXTH     r0,r1
        0x0000083c:    f000f97a    ..z.    BL       LCD_WR_REG ; 0xb34
        0x00000840:    4943        CI      LDR      r1,[pc,#268] ; [0x950] = 0x20000c8c
        0x00000842:    7809        .x      LDRB     r1,[r1,#0]
        0x00000844:    1e49        I.      SUBS     r1,r1,#1
        0x00000846:    b2c8        ..      UXTB     r0,r1
        0x00000848:    f000f961    ..a.    BL       LCD_WR_DATA ; 0xb0e
        0x0000084c:    4940        @I      LDR      r1,[pc,#256] ; [0x950] = 0x20000c8c
        0x0000084e:    8988        ..      LDRH     r0,[r1,#0xc]
        0x00000850:    f000f970    ..p.    BL       LCD_WR_REG ; 0xb34
        0x00000854:    2000        .       MOVS     r0,#0
        0x00000856:    f000f95a    ..Z.    BL       LCD_WR_DATA ; 0xb0e
        0x0000085a:    493d        =I      LDR      r1,[pc,#244] ; [0x950] = 0x20000c8c
        0x0000085c:    8989        ..      LDRH     r1,[r1,#0xc]
        0x0000085e:    1c49        I.      ADDS     r1,r1,#1
        0x00000860:    b288        ..      UXTH     r0,r1
        0x00000862:    f000f967    ..g.    BL       LCD_WR_REG ; 0xb34
        0x00000866:    2000        .       MOVS     r0,#0
        0x00000868:    f000f951    ..Q.    BL       LCD_WR_DATA ; 0xb0e
        0x0000086c:    4938        8I      LDR      r1,[pc,#224] ; [0x950] = 0x20000c8c
        0x0000086e:    8989        ..      LDRH     r1,[r1,#0xc]
        0x00000870:    1c89        ..      ADDS     r1,r1,#2
        0x00000872:    b288        ..      UXTH     r0,r1
        0x00000874:    f000f95e    ..^.    BL       LCD_WR_REG ; 0xb34
        0x00000878:    4935        5I      LDR      r1,[pc,#212] ; [0x950] = 0x20000c8c
        0x0000087a:    8849        I.      LDRH     r1,[r1,#2]
        0x0000087c:    1e49        I.      SUBS     r1,r1,#1
        0x0000087e:    0209        ..      LSLS     r1,r1,#8
        0x00000880:    0c08        ..      LSRS     r0,r1,#16
        0x00000882:    f000f944    ..D.    BL       LCD_WR_DATA ; 0xb0e
        0x00000886:    4932        2I      LDR      r1,[pc,#200] ; [0x950] = 0x20000c8c
        0x00000888:    8989        ..      LDRH     r1,[r1,#0xc]
        0x0000088a:    1cc9        ..      ADDS     r1,r1,#3
        0x0000088c:    b288        ..      UXTH     r0,r1
        0x0000088e:    f000f951    ..Q.    BL       LCD_WR_REG ; 0xb34
        0x00000892:    492f        /I      LDR      r1,[pc,#188] ; [0x950] = 0x20000c8c
        0x00000894:    7889        .x      LDRB     r1,[r1,#2]
        0x00000896:    1e49        I.      SUBS     r1,r1,#1
        0x00000898:    b2c8        ..      UXTB     r0,r1
        0x0000089a:    f000f938    ..8.    BL       LCD_WR_DATA ; 0xb0e
        0x0000089e:    e056        V.      B        0x94e ; LCD_Scan_Dir + 718
        0x000008a0:    492b        +I      LDR      r1,[pc,#172] ; [0x950] = 0x20000c8c
        0x000008a2:    8948        H.      LDRH     r0,[r1,#0xa]
        0x000008a4:    f000f946    ..F.    BL       LCD_WR_REG ; 0xb34
        0x000008a8:    2000        .       MOVS     r0,#0
        0x000008aa:    f000f930    ..0.    BL       LCD_WR_DATA ; 0xb0e
        0x000008ae:    2000        .       MOVS     r0,#0
        0x000008b0:    f000f92d    ..-.    BL       LCD_WR_DATA ; 0xb0e
        0x000008b4:    4926        &I      LDR      r1,[pc,#152] ; [0x950] = 0x20000c8c
        0x000008b6:    8809        ..      LDRH     r1,[r1,#0]
        0x000008b8:    1e49        I.      SUBS     r1,r1,#1
        0x000008ba:    0209        ..      LSLS     r1,r1,#8
        0x000008bc:    0c08        ..      LSRS     r0,r1,#16
        0x000008be:    f000f926    ..&.    BL       LCD_WR_DATA ; 0xb0e
        0x000008c2:    4923        #I      LDR      r1,[pc,#140] ; [0x950] = 0x20000c8c
        0x000008c4:    7809        .x      LDRB     r1,[r1,#0]
        0x000008c6:    1e49        I.      SUBS     r1,r1,#1
        0x000008c8:    b2c8        ..      UXTB     r0,r1
        0x000008ca:    f000f920    .. .    BL       LCD_WR_DATA ; 0xb0e
        0x000008ce:    4920         I      LDR      r1,[pc,#128] ; [0x950] = 0x20000c8c
        0x000008d0:    8988        ..      LDRH     r0,[r1,#0xc]
        0x000008d2:    f000f92f    ../.    BL       LCD_WR_REG ; 0xb34
        0x000008d6:    2000        .       MOVS     r0,#0
        0x000008d8:    f000f919    ....    BL       LCD_WR_DATA ; 0xb0e
        0x000008dc:    2000        .       MOVS     r0,#0
        0x000008de:    f000f916    ....    BL       LCD_WR_DATA ; 0xb0e
        0x000008e2:    491b        .I      LDR      r1,[pc,#108] ; [0x950] = 0x20000c8c
        0x000008e4:    8849        I.      LDRH     r1,[r1,#2]
        0x000008e6:    1e49        I.      SUBS     r1,r1,#1
        0x000008e8:    0209        ..      LSLS     r1,r1,#8
        0x000008ea:    0c08        ..      LSRS     r0,r1,#16
        0x000008ec:    f000f90f    ....    BL       LCD_WR_DATA ; 0xb0e
        0x000008f0:    4917        .I      LDR      r1,[pc,#92] ; [0x950] = 0x20000c8c
        0x000008f2:    7889        .x      LDRB     r1,[r1,#2]
        0x000008f4:    1e49        I.      SUBS     r1,r1,#1
        0x000008f6:    b2c8        ..      UXTB     r0,r1
        0x000008f8:    f000f909    ....    BL       LCD_WR_DATA ; 0xb0e
        0x000008fc:    e027        '.      B        0x94e ; LCD_Scan_Dir + 718
        0x000008fe:    002b        +.      MOVS     r3,r5
        0x00000900:    f000fa5a    ..Z.    BL       __ARM_common_switch8 ; 0xdb8
    $d
        0x00000904:    0b080508    ....    DCD    185074952
        0x00000908:    1613100e    ....    DCD    370348046
        0x0000090c:    1c19        ..      DCW    7193
    $t
        0x0000090e:    2030        0       MOVS     r0,#0x30
        0x00000910:    4304        .C      ORRS     r4,r4,r0
        0x00000912:    e013        ..      B        0x93c ; LCD_Scan_Dir + 700
        0x00000914:    2010        .       MOVS     r0,#0x10
        0x00000916:    4304        .C      ORRS     r4,r4,r0
        0x00000918:    e010        ..      B        0x93c ; LCD_Scan_Dir + 700
        0x0000091a:    2020                MOVS     r0,#0x20
        0x0000091c:    4304        .C      ORRS     r4,r4,r0
        0x0000091e:    e00d        ..      B        0x93c ; LCD_Scan_Dir + 700
        0x00000920:    bf00        ..      NOP      
        0x00000922:    e00b        ..      B        0x93c ; LCD_Scan_Dir + 700
        0x00000924:    2038        8       MOVS     r0,#0x38
        0x00000926:    4304        .C      ORRS     r4,r4,r0
        0x00000928:    e008        ..      B        0x93c ; LCD_Scan_Dir + 700
        0x0000092a:    2028        (       MOVS     r0,#0x28
        0x0000092c:    4304        .C      ORRS     r4,r4,r0
        0x0000092e:    e005        ..      B        0x93c ; LCD_Scan_Dir + 700
        0x00000930:    2018        .       MOVS     r0,#0x18
        0x00000932:    4304        .C      ORRS     r4,r4,r0
        0x00000934:    e002        ..      B        0x93c ; LCD_Scan_Dir + 700
        0x00000936:    2008        .       MOVS     r0,#8
        0x00000938:    4304        .C      ORRS     r4,r4,r0
        0x0000093a:    bf00        ..      NOP      
        0x0000093c:    bf00        ..      NOP      
        0x0000093e:    2703        .'      MOVS     r7,#3
        0x00000940:    2001        .       MOVS     r0,#1
        0x00000942:    0300        ..      LSLS     r0,r0,#12
        0x00000944:    4304        .C      ORRS     r4,r4,r0
        0x00000946:    4621        !F      MOV      r1,r4
        0x00000948:    4638        8F      MOV      r0,r7
        0x0000094a:    f000f90d    ....    BL       LCD_WriteReg ; 0xb68
        0x0000094e:    bdf0        ..      POP      {r4-r7,pc}
    $d
        0x00000950:    20000c8c    ...     DCD    536874124
        0x00000954:    00006804    .h..    DCD    26628
        0x00000958:    00001963    c...    DCD    6499
        0x0000095c:    00009341    A...    DCD    37697
        0x00000960:    00005310    .S..    DCD    21264
        0x00000964:    00005510    .U..    DCD    21776
    $t
    i.LCD_SetCursor
    LCD_SetCursor
        0x00000968:    b510        ..      PUSH     {r4,lr}
        0x0000096a:    4603        .F      MOV      r3,r0
        0x0000096c:    460c        .F      MOV      r4,r1
        0x0000096e:    490a        .I      LDR      r1,[pc,#40] ; [0x998] = 0x20000c8c
        0x00000970:    8948        H.      LDRH     r0,[r1,#0xa]
        0x00000972:    f000f8df    ....    BL       LCD_WR_REG ; 0xb34
        0x00000976:    1218        ..      ASRS     r0,r3,#8
        0x00000978:    f000f8c9    ....    BL       LCD_WR_DATA ; 0xb0e
        0x0000097c:    b2d8        ..      UXTB     r0,r3
        0x0000097e:    f000f8c6    ....    BL       LCD_WR_DATA ; 0xb0e
        0x00000982:    4905        .I      LDR      r1,[pc,#20] ; [0x998] = 0x20000c8c
        0x00000984:    8988        ..      LDRH     r0,[r1,#0xc]
        0x00000986:    f000f8d5    ....    BL       LCD_WR_REG ; 0xb34
        0x0000098a:    1220         .      ASRS     r0,r4,#8
        0x0000098c:    f000f8bf    ....    BL       LCD_WR_DATA ; 0xb0e
        0x00000990:    b2e0        ..      UXTB     r0,r4
        0x00000992:    f000f8bc    ....    BL       LCD_WR_DATA ; 0xb0e
        0x00000996:    bd10        ..      POP      {r4,pc}
    $d
        0x00000998:    20000c8c    ...     DCD    536874124
    $t
    i.LCD_ShowChar
    LCD_ShowChar
        0x0000099c:    b5ff        ..      PUSH     {r0-r7,lr}
        0x0000099e:    b085        ..      SUB      sp,sp,#0x14
        0x000009a0:    460e        .F      MOV      r6,r1
        0x000009a2:    4617        .F      MOV      r7,r2
        0x000009a4:    2410        .$      MOVS     r4,#0x10
        0x000009a6:    9602        ..      STR      r6,[sp,#8]
        0x000009a8:    4620         F      MOV      r0,r4
        0x000009aa:    17e2        ..      ASRS     r2,r4,#31
        0x000009ac:    0f52        R.      LSRS     r2,r2,#29
        0x000009ae:    1812        ..      ADDS     r2,r2,r0
        0x000009b0:    10d2        ..      ASRS     r2,r2,#3
        0x000009b2:    17e3        ..      ASRS     r3,r4,#31
        0x000009b4:    0f5b        [.      LSRS     r3,r3,#29
        0x000009b6:    181b        ..      ADDS     r3,r3,r0
        0x000009b8:    10db        ..      ASRS     r3,r3,#3
        0x000009ba:    00db        ..      LSLS     r3,r3,#3
        0x000009bc:    9400        ..      STR      r4,[sp,#0]
        0x000009be:    1ae3        ..      SUBS     r3,r4,r3
        0x000009c0:    d001        ..      BEQ      0x9c6 ; LCD_ShowChar + 42
        0x000009c2:    2301        .#      MOVS     r3,#1
        0x000009c4:    e000        ..      B        0x9c8 ; LCD_ShowChar + 44
        0x000009c6:    2300        .#      MOVS     r3,#0
        0x000009c8:    18d2        ..      ADDS     r2,r2,r3
        0x000009ca:    4621        !F      MOV      r1,r4
        0x000009cc:    0fe3        ..      LSRS     r3,r4,#31
        0x000009ce:    185b        [.      ADDS     r3,r3,r1
        0x000009d0:    105b        [.      ASRS     r3,r3,#1
        0x000009d2:    435a        ZC      MULS     r2,r3,r2
        0x000009d4:    b2d2        ..      UXTB     r2,r2
        0x000009d6:    9201        ..      STR      r2,[sp,#4]
        0x000009d8:    4638        8F      MOV      r0,r7
        0x000009da:    3820         8      SUBS     r0,r0,#0x20
        0x000009dc:    b2c7        ..      UXTB     r7,r0
        0x000009de:    2500        .%      MOVS     r5,#0
        0x000009e0:    e056        V.      B        0xa90 ; LCD_ShowChar + 244
        0x000009e2:    2c0c        .,      CMP      r4,#0xc
        0x000009e4:    d105        ..      BNE      0x9f2 ; LCD_ShowChar + 86
        0x000009e6:    0138        8.      LSLS     r0,r7,#4
        0x000009e8:    492c        ,I      LDR      r1,[pc,#176] ; [0xa9c] = 0x17e6
        0x000009ea:    1840        @.      ADDS     r0,r0,r1
        0x000009ec:    5d40        @]      LDRB     r0,[r0,r5]
        0x000009ee:    9004        ..      STR      r0,[sp,#0x10]
        0x000009f0:    e011        ..      B        0xa16 ; LCD_ShowChar + 122
        0x000009f2:    2c10        .,      CMP      r4,#0x10
        0x000009f4:    d105        ..      BNE      0xa02 ; LCD_ShowChar + 102
        0x000009f6:    0138        8.      LSLS     r0,r7,#4
        0x000009f8:    4928        (I      LDR      r1,[pc,#160] ; [0xa9c] = 0x17e6
        0x000009fa:    1840        @.      ADDS     r0,r0,r1
        0x000009fc:    5d40        @]      LDRB     r0,[r0,r5]
        0x000009fe:    9004        ..      STR      r0,[sp,#0x10]
        0x00000a00:    e009        ..      B        0xa16 ; LCD_ShowChar + 122
        0x00000a02:    2c18        .,      CMP      r4,#0x18
        0x00000a04:    d105        ..      BNE      0xa12 ; LCD_ShowChar + 118
        0x00000a06:    0138        8.      LSLS     r0,r7,#4
        0x00000a08:    4924        $I      LDR      r1,[pc,#144] ; [0xa9c] = 0x17e6
        0x00000a0a:    1840        @.      ADDS     r0,r0,r1
        0x00000a0c:    5d40        @]      LDRB     r0,[r0,r5]
        0x00000a0e:    9004        ..      STR      r0,[sp,#0x10]
        0x00000a10:    e001        ..      B        0xa16 ; LCD_ShowChar + 122
        0x00000a12:    b009        ..      ADD      sp,sp,#0x24
        0x00000a14:    bdf0        ..      POP      {r4-r7,pc}
        0x00000a16:    2000        .       MOVS     r0,#0
        0x00000a18:    9003        ..      STR      r0,[sp,#0xc]
        0x00000a1a:    e033        3.      B        0xa84 ; LCD_ShowChar + 232
        0x00000a1c:    2180        .!      MOVS     r1,#0x80
        0x00000a1e:    9804        ..      LDR      r0,[sp,#0x10]
        0x00000a20:    4008        .@      ANDS     r0,r0,r1
        0x00000a22:    2800        .(      CMP      r0,#0
        0x00000a24:    d006        ..      BEQ      0xa34 ; LCD_ShowChar + 152
        0x00000a26:    481e        .H      LDR      r0,[pc,#120] ; [0xaa0] = 0x20000ae0
        0x00000a28:    8802        ..      LDRH     r2,[r0,#0]
        0x00000a2a:    4631        1F      MOV      r1,r6
        0x00000a2c:    9805        ..      LDR      r0,[sp,#0x14]
        0x00000a2e:    f7fffcad    ....    BL       LCD_Fast_DrawPoint ; 0x38c
        0x00000a32:    e008        ..      B        0xa46 ; LCD_ShowChar + 170
        0x00000a34:    9808        ..      LDR      r0,[sp,#0x20]
        0x00000a36:    2800        .(      CMP      r0,#0
        0x00000a38:    d105        ..      BNE      0xa46 ; LCD_ShowChar + 170
        0x00000a3a:    481a        .H      LDR      r0,[pc,#104] ; [0xaa4] = 0x20000ae2
        0x00000a3c:    8802        ..      LDRH     r2,[r0,#0]
        0x00000a3e:    4631        1F      MOV      r1,r6
        0x00000a40:    9805        ..      LDR      r0,[sp,#0x14]
        0x00000a42:    f7fffca3    ....    BL       LCD_Fast_DrawPoint ; 0x38c
        0x00000a46:    9804        ..      LDR      r0,[sp,#0x10]
        0x00000a48:    0640        @.      LSLS     r0,r0,#25
        0x00000a4a:    0e00        ..      LSRS     r0,r0,#24
        0x00000a4c:    9004        ..      STR      r0,[sp,#0x10]
        0x00000a4e:    1c70        p.      ADDS     r0,r6,#1
        0x00000a50:    b286        ..      UXTH     r6,r0
        0x00000a52:    4815        .H      LDR      r0,[pc,#84] ; [0xaa8] = 0x20000c8c
        0x00000a54:    8840        @.      LDRH     r0,[r0,#2]
        0x00000a56:    42b0        .B      CMP      r0,r6
        0x00000a58:    dc00        ..      BGT      0xa5c ; LCD_ShowChar + 192
        0x00000a5a:    e7da        ..      B        0xa12 ; LCD_ShowChar + 118
        0x00000a5c:    9802        ..      LDR      r0,[sp,#8]
        0x00000a5e:    1a30        0.      SUBS     r0,r6,r0
        0x00000a60:    42a0        .B      CMP      r0,r4
        0x00000a62:    d10b        ..      BNE      0xa7c ; LCD_ShowChar + 224
        0x00000a64:    9e02        ..      LDR      r6,[sp,#8]
        0x00000a66:    9805        ..      LDR      r0,[sp,#0x14]
        0x00000a68:    1c40        @.      ADDS     r0,r0,#1
        0x00000a6a:    b280        ..      UXTH     r0,r0
        0x00000a6c:    9005        ..      STR      r0,[sp,#0x14]
        0x00000a6e:    480e        .H      LDR      r0,[pc,#56] ; [0xaa8] = 0x20000c8c
        0x00000a70:    8801        ..      LDRH     r1,[r0,#0]
        0x00000a72:    9805        ..      LDR      r0,[sp,#0x14]
        0x00000a74:    4281        .B      CMP      r1,r0
        0x00000a76:    dc00        ..      BGT      0xa7a ; LCD_ShowChar + 222
        0x00000a78:    e7cb        ..      B        0xa12 ; LCD_ShowChar + 118
        0x00000a7a:    e006        ..      B        0xa8a ; LCD_ShowChar + 238
        0x00000a7c:    9803        ..      LDR      r0,[sp,#0xc]
        0x00000a7e:    1c40        @.      ADDS     r0,r0,#1
        0x00000a80:    b2c0        ..      UXTB     r0,r0
        0x00000a82:    9003        ..      STR      r0,[sp,#0xc]
        0x00000a84:    9803        ..      LDR      r0,[sp,#0xc]
        0x00000a86:    2808        .(      CMP      r0,#8
        0x00000a88:    dbc8        ..      BLT      0xa1c ; LCD_ShowChar + 128
        0x00000a8a:    bf00        ..      NOP      
        0x00000a8c:    1c68        h.      ADDS     r0,r5,#1
        0x00000a8e:    b2c5        ..      UXTB     r5,r0
        0x00000a90:    9801        ..      LDR      r0,[sp,#4]
        0x00000a92:    4285        .B      CMP      r5,r0
        0x00000a94:    dba5        ..      BLT      0x9e2 ; LCD_ShowChar + 70
        0x00000a96:    bf00        ..      NOP      
        0x00000a98:    e7bb        ..      B        0xa12 ; LCD_ShowChar + 118
    $d
        0x00000a9a:    0000        ..      DCW    0
        0x00000a9c:    000017e6    ....    DCD    6118
        0x00000aa0:    20000ae0    ...     DCD    536873696
        0x00000aa4:    20000ae2    ...     DCD    536873698
        0x00000aa8:    20000c8c    ...     DCD    536874124
    $t
    i.LCD_ShowString
    LCD_ShowString
        0x00000aac:    b5ff        ..      PUSH     {r0-r7,lr}
        0x00000aae:    b081        ..      SUB      sp,sp,#4
        0x00000ab0:    4604        .F      MOV      r4,r0
        0x00000ab2:    460d        .F      MOV      r5,r1
        0x00000ab4:    9e0a        ..      LDR      r6,[sp,#0x28]
        0x00000ab6:    2710        .'      MOVS     r7,#0x10
        0x00000ab8:    b2e0        ..      UXTB     r0,r4
        0x00000aba:    9000        ..      STR      r0,[sp,#0]
        0x00000abc:    9803        ..      LDR      r0,[sp,#0xc]
        0x00000abe:    1900        ..      ADDS     r0,r0,r4
        0x00000ac0:    b280        ..      UXTH     r0,r0
        0x00000ac2:    9003        ..      STR      r0,[sp,#0xc]
        0x00000ac4:    9804        ..      LDR      r0,[sp,#0x10]
        0x00000ac6:    1940        @.      ADDS     r0,r0,r5
        0x00000ac8:    b280        ..      UXTH     r0,r0
        0x00000aca:    9004        ..      STR      r0,[sp,#0x10]
        0x00000acc:    e016        ..      B        0xafc ; LCD_ShowString + 80
        0x00000ace:    9803        ..      LDR      r0,[sp,#0xc]
        0x00000ad0:    4284        .B      CMP      r4,r0
        0x00000ad2:    db02        ..      BLT      0xada ; LCD_ShowString + 46
        0x00000ad4:    9c00        ..      LDR      r4,[sp,#0]
        0x00000ad6:    19e8        ..      ADDS     r0,r5,r7
        0x00000ad8:    b285        ..      UXTH     r5,r0
        0x00000ada:    9804        ..      LDR      r0,[sp,#0x10]
        0x00000adc:    4285        .B      CMP      r5,r0
        0x00000ade:    db00        ..      BLT      0xae2 ; LCD_ShowString + 54
        0x00000ae0:    e012        ..      B        0xb08 ; LCD_ShowString + 92
        0x00000ae2:    7832        2x      LDRB     r2,[r6,#0]
        0x00000ae4:    2300        .#      MOVS     r3,#0
        0x00000ae6:    4629        )F      MOV      r1,r5
        0x00000ae8:    4620         F      MOV      r0,r4
        0x00000aea:    f7ffff57    ..W.    BL       LCD_ShowChar ; 0x99c
        0x00000aee:    4638        8F      MOV      r0,r7
        0x00000af0:    0ff9        ..      LSRS     r1,r7,#31
        0x00000af2:    1809        ..      ADDS     r1,r1,r0
        0x00000af4:    1049        I.      ASRS     r1,r1,#1
        0x00000af6:    1909        ..      ADDS     r1,r1,r4
        0x00000af8:    b28c        ..      UXTH     r4,r1
        0x00000afa:    1c76        v.      ADDS     r6,r6,#1
        0x00000afc:    7830        0x      LDRB     r0,[r6,#0]
        0x00000afe:    287e        ~(      CMP      r0,#0x7e
        0x00000b00:    dc02        ..      BGT      0xb08 ; LCD_ShowString + 92
        0x00000b02:    7830        0x      LDRB     r0,[r6,#0]
        0x00000b04:    2820         (      CMP      r0,#0x20
        0x00000b06:    dae2        ..      BGE      0xace ; LCD_ShowString + 34
        0x00000b08:    bf00        ..      NOP      
        0x00000b0a:    b005        ..      ADD      sp,sp,#0x14
        0x00000b0c:    bdf0        ..      POP      {r4-r7,pc}
    i.LCD_WR_DATA
    LCD_WR_DATA
        0x00000b0e:    b500        ..      PUSH     {lr}
        0x00000b10:    4602        .F      MOV      r2,r0
        0x00000b12:    2001        .       MOVS     r0,#1
        0x00000b14:    2105        .!      MOVS     r1,#5
        0x00000b16:    0709        ..      LSLS     r1,r1,#28
        0x00000b18:    6048        H`      STR      r0,[r1,#4]
        0x00000b1a:    2000        .       MOVS     r0,#0
        0x00000b1c:    6008        .`      STR      r0,[r1,#0]
        0x00000b1e:    4610        .F      MOV      r0,r2
        0x00000b20:    f000f848    ..H.    BL       MakeData ; 0xbb4
        0x00000b24:    2000        .       MOVS     r0,#0
        0x00000b26:    2105        .!      MOVS     r1,#5
        0x00000b28:    0709        ..      LSLS     r1,r1,#28
        0x00000b2a:    6088        .`      STR      r0,[r1,#8]
        0x00000b2c:    2001        .       MOVS     r0,#1
        0x00000b2e:    6088        .`      STR      r0,[r1,#8]
        0x00000b30:    6008        .`      STR      r0,[r1,#0]
        0x00000b32:    bd00        ..      POP      {pc}
    i.LCD_WR_REG
    LCD_WR_REG
        0x00000b34:    b500        ..      PUSH     {lr}
        0x00000b36:    4602        .F      MOV      r2,r0
        0x00000b38:    2000        .       MOVS     r0,#0
        0x00000b3a:    2105        .!      MOVS     r1,#5
        0x00000b3c:    0709        ..      LSLS     r1,r1,#28
        0x00000b3e:    6048        H`      STR      r0,[r1,#4]
        0x00000b40:    6008        .`      STR      r0,[r1,#0]
        0x00000b42:    4610        .F      MOV      r0,r2
        0x00000b44:    f000f836    ..6.    BL       MakeData ; 0xbb4
        0x00000b48:    2000        .       MOVS     r0,#0
        0x00000b4a:    2105        .!      MOVS     r1,#5
        0x00000b4c:    0709        ..      LSLS     r1,r1,#28
        0x00000b4e:    6088        .`      STR      r0,[r1,#8]
        0x00000b50:    2001        .       MOVS     r0,#1
        0x00000b52:    6088        .`      STR      r0,[r1,#8]
        0x00000b54:    6008        .`      STR      r0,[r1,#0]
        0x00000b56:    bd00        ..      POP      {pc}
    i.LCD_WriteRAM_Prepare
    LCD_WriteRAM_Prepare
        0x00000b58:    b500        ..      PUSH     {lr}
        0x00000b5a:    4902        .I      LDR      r1,[pc,#8] ; [0xb64] = 0x20000c8c
        0x00000b5c:    8908        ..      LDRH     r0,[r1,#8]
        0x00000b5e:    f7ffffe9    ....    BL       LCD_WR_REG ; 0xb34
        0x00000b62:    bd00        ..      POP      {pc}
    $d
        0x00000b64:    20000c8c    ...     DCD    536874124
    $t
    i.LCD_WriteReg
    LCD_WriteReg
        0x00000b68:    b510        ..      PUSH     {r4,lr}
        0x00000b6a:    4604        .F      MOV      r4,r0
        0x00000b6c:    460b        .F      MOV      r3,r1
        0x00000b6e:    4620         F      MOV      r0,r4
        0x00000b70:    f7ffffe0    ....    BL       LCD_WR_REG ; 0xb34
        0x00000b74:    4618        .F      MOV      r0,r3
        0x00000b76:    f7ffffca    ....    BL       LCD_WR_DATA ; 0xb0e
        0x00000b7a:    bd10        ..      POP      {r4,pc}
    i.LED_toggle
    LED_toggle
        0x00000b7c:    b530        0.      PUSH     {r4,r5,lr}
        0x00000b7e:    4602        .F      MOV      r2,r0
        0x00000b80:    2000        .       MOVS     r0,#0
        0x00000b82:    2100        .!      MOVS     r1,#0
        0x00000b84:    2300        .#      MOVS     r3,#0
        0x00000b86:    4c0a        .L      LDR      r4,[pc,#40] ; [0xbb0] = 0x40001000
        0x00000b88:    6821        !h      LDR      r1,[r4,#0]
        0x00000b8a:    2401        .$      MOVS     r4,#1
        0x00000b8c:    4094        .@      LSLS     r4,r4,r2
        0x00000b8e:    4620         F      MOV      r0,r4
        0x00000b90:    4604        .F      MOV      r4,r0
        0x00000b92:    400c        .@      ANDS     r4,r4,r1
        0x00000b94:    4623        #F      MOV      r3,r4
        0x00000b96:    2b00        .+      CMP      r3,#0
        0x00000b98:    d104        ..      BNE      0xba4 ; LED_toggle + 40
        0x00000b9a:    460c        .F      MOV      r4,r1
        0x00000b9c:    4304        .C      ORRS     r4,r4,r0
        0x00000b9e:    4d04        .M      LDR      r5,[pc,#16] ; [0xbb0] = 0x40001000
        0x00000ba0:    602c        ,`      STR      r4,[r5,#0]
        0x00000ba2:    e003        ..      B        0xbac ; LED_toggle + 48
        0x00000ba4:    460c        .F      MOV      r4,r1
        0x00000ba6:    4384        .C      BICS     r4,r4,r0
        0x00000ba8:    4d01        .M      LDR      r5,[pc,#4] ; [0xbb0] = 0x40001000
        0x00000baa:    602c        ,`      STR      r4,[r5,#0]
        0x00000bac:    bd30        0.      POP      {r4,r5,pc}
    $d
        0x00000bae:    0000        ..      DCW    0
        0x00000bb0:    40001000    ...@    DCD    1073745920
    $t
    i.MakeData
    MakeData
        0x00000bb4:    2105        .!      MOVS     r1,#5
        0x00000bb6:    0709        ..      LSLS     r1,r1,#28
        0x00000bb8:    6188        .a      STR      r0,[r1,#0x18]
        0x00000bba:    4770        pG      BX       lr
    i.MemManageHandler
    MemManageHandler
        0x00000bbc:    4770        pG      BX       lr
    i.NMIHandler
    NMIHandler
        0x00000bbe:    4770        pG      BX       lr
    i.NVIC_EnableIRQ
    NVIC_EnableIRQ
        0x00000bc0:    06c2        ..      LSLS     r2,r0,#27
        0x00000bc2:    0ed2        ..      LSRS     r2,r2,#27
        0x00000bc4:    2101        .!      MOVS     r1,#1
        0x00000bc6:    4091        .@      LSLS     r1,r1,r2
        0x00000bc8:    4a01        .J      LDR      r2,[pc,#4] ; [0xbd0] = 0xe000e100
        0x00000bca:    6011        .`      STR      r1,[r2,#0]
        0x00000bcc:    4770        pG      BX       lr
    $d
        0x00000bce:    0000        ..      DCW    0
        0x00000bd0:    e000e100    ....    DCD    3758153984
    $t
    i.NVIC_EnableIRQ
    NVIC_EnableIRQ
        0x00000bd4:    06c2        ..      LSLS     r2,r0,#27
        0x00000bd6:    0ed2        ..      LSRS     r2,r2,#27
        0x00000bd8:    2101        .!      MOVS     r1,#1
        0x00000bda:    4091        .@      LSLS     r1,r1,r2
        0x00000bdc:    4a01        .J      LDR      r2,[pc,#4] ; [0xbe4] = 0xe000e100
        0x00000bde:    6011        .`      STR      r1,[r2,#0]
        0x00000be0:    4770        pG      BX       lr
    $d
        0x00000be2:    0000        ..      DCW    0
        0x00000be4:    e000e100    ....    DCD    3758153984
    $t
    i.PendSVHandler
    PendSVHandler
        0x00000be8:    4770        pG      BX       lr
        0x00000bea:    0000        ..      MOVS     r0,r0
    i.SPI_Init
    SPI_Init
        0x00000bec:    4902        .I      LDR      r1,[pc,#8] ; [0xbf8] = 0x40004000
        0x00000bee:    6048        H`      STR      r0,[r1,#4]
        0x00000bf0:    2101        .!      MOVS     r1,#1
        0x00000bf2:    4a01        .J      LDR      r2,[pc,#4] ; [0xbf8] = 0x40004000
        0x00000bf4:    6011        .`      STR      r1,[r2,#0]
        0x00000bf6:    4770        pG      BX       lr
    $d
        0x00000bf8:    40004000    .@.@    DCD    1073758208
    $t
    i.SVCHandler
    SVCHandler
        0x00000bfc:    4770        pG      BX       lr
        0x00000bfe:    0000        ..      MOVS     r0,r0
    i.Set_SysTick_CTRL
    Set_SysTick_CTRL
        0x00000c00:    4901        .I      LDR      r1,[pc,#4] ; [0xc08] = 0xe000e000
        0x00000c02:    6108        .a      STR      r0,[r1,#0x10]
        0x00000c04:    4770        pG      BX       lr
    $d
        0x00000c06:    0000        ..      DCW    0
        0x00000c08:    e000e000    ....    DCD    3758153728
    $t
    i.Set_SysTick_LOAD
    Set_SysTick_LOAD
        0x00000c0c:    4901        .I      LDR      r1,[pc,#4] ; [0xc14] = 0xe000e000
        0x00000c0e:    6148        Ha      STR      r0,[r1,#0x14]
        0x00000c10:    4770        pG      BX       lr
    $d
        0x00000c12:    0000        ..      DCW    0
        0x00000c14:    e000e000    ....    DCD    3758153728
    $t
    i.Set_SysTick_VALUE
    Set_SysTick_VALUE
        0x00000c18:    4901        .I      LDR      r1,[pc,#4] ; [0xc20] = 0xe000e000
        0x00000c1a:    6188        .a      STR      r0,[r1,#0x18]
        0x00000c1c:    4770        pG      BX       lr
    $d
        0x00000c1e:    0000        ..      DCW    0
        0x00000c20:    e000e000    ....    DCD    3758153728
    $t
    i.SysTickHandler
    SysTickHandler
        0x00000c24:    b510        ..      PUSH     {r4,lr}
        0x00000c26:    2000        .       MOVS     r0,#0
        0x00000c28:    f7ffffea    ....    BL       Set_SysTick_CTRL ; 0xc00
        0x00000c2c:    4803        .H      LDR      r0,[pc,#12] ; [0xc3c] = 0xe000ed00
        0x00000c2e:    6840        @h      LDR      r0,[r0,#4]
        0x00000c30:    2101        .!      MOVS     r1,#1
        0x00000c32:    0649        I.      LSLS     r1,r1,#25
        0x00000c34:    4308        .C      ORRS     r0,r0,r1
        0x00000c36:    4901        .I      LDR      r1,[pc,#4] ; [0xc3c] = 0xe000ed00
        0x00000c38:    6048        H`      STR      r0,[r1,#4]
        0x00000c3a:    bd10        ..      POP      {r4,pc}
    $d
        0x00000c3c:    e000ed00    ....    DCD    3758157056
    $t
    i.SystemInit
    SystemInit
        0x00000c40:    b510        ..      PUSH     {r4,lr}
        0x00000c42:    2001        .       MOVS     r0,#1
        0x00000c44:    f7ffffc6    ....    BL       NVIC_EnableIRQ ; 0xbd4
        0x00000c48:    2000        .       MOVS     r0,#0
        0x00000c4a:    f7ffffc3    ....    BL       NVIC_EnableIRQ ; 0xbd4
        0x00000c4e:    2007        .       MOVS     r0,#7
        0x00000c50:    f7ffffc0    ....    BL       NVIC_EnableIRQ ; 0xbd4
        0x00000c54:    bd10        ..      POP      {r4,pc}
        0x00000c56:    0000        ..      MOVS     r0,r0
    i.TIMER_Init
    TIMER_Init
        0x00000c58:    b530        0.      PUSH     {r4,r5,lr}
        0x00000c5a:    2305        .#      MOVS     r3,#5
        0x00000c5c:    0054        T.      LSLS     r4,r2,#1
        0x00000c5e:    4323        #C      ORRS     r3,r3,r4
        0x00000c60:    4c04        .L      LDR      r4,[pc,#16] ; [0xc74] = 0x40003000
        0x00000c62:    6023        #`      STR      r3,[r4,#0]
        0x00000c64:    2400        .$      MOVS     r4,#0
        0x00000c66:    4d03        .M      LDR      r5,[pc,#12] ; [0xc74] = 0x40003000
        0x00000c68:    606c        l`      STR      r4,[r5,#4]
        0x00000c6a:    462c        ,F      MOV      r4,r5
        0x00000c6c:    60a0        .`      STR      r0,[r4,#8]
        0x00000c6e:    6121        !a      STR      r1,[r4,#0x10]
        0x00000c70:    bd30        0.      POP      {r4,r5,pc}
    $d
        0x00000c72:    0000        ..      DCW    0
        0x00000c74:    40003000    .0.@    DCD    1073754112
    $t
    i.Timer_Handler
    Timer_Handler
        0x00000c78:    b570        p.      PUSH     {r4-r6,lr}
        0x00000c7a:    b09c        ..      SUB      sp,sp,#0x70
        0x00000c7c:    f7fffa72    ..r.    BL       rand ; 0x164
        0x00000c80:    4606        .F      MOV      r6,r0
        0x00000c82:    210a        .!      MOVS     r1,#0xa
        0x00000c84:    f7fffa5a    ..Z.    BL       __aeabi_idiv ; 0x13c
        0x00000c88:    200c        .       MOVS     r0,#0xc
        0x00000c8a:    4341        AC      MULS     r1,r0,r1
        0x00000c8c:    311e        .1      ADDS     r1,r1,#0x1e
        0x00000c8e:    b2cc        ..      UXTB     r4,r1
        0x00000c90:    f7fffa68    ..h.    BL       rand ; 0x164
        0x00000c94:    4606        .F      MOV      r6,r0
        0x00000c96:    210a        .!      MOVS     r1,#0xa
        0x00000c98:    f7fffa50    ..P.    BL       __aeabi_idiv ; 0x13c
        0x00000c9c:    200c        .       MOVS     r0,#0xc
        0x00000c9e:    4341        AC      MULS     r1,r0,r1
        0x00000ca0:    310a        .1      ADDS     r1,r1,#0xa
        0x00000ca2:    b2cd        ..      UXTB     r5,r1
        0x00000ca4:    4629        )F      MOV      r1,r5
        0x00000ca6:    4620         F      MOV      r0,r4
        0x00000ca8:    f000f97a    ..z.    BL       createOneEnmeyPlane ; 0xfa0
        0x00000cac:    4a1a        .J      LDR      r2,[pc,#104] ; [0xd18] = 0x20000ad6
        0x00000cae:    7851        Qx      LDRB     r1,[r2,#1]
        0x00000cb0:    7810        .x      LDRB     r0,[r2,#0]
        0x00000cb2:    f000fc6b    ..k.    BL       myPlaneDraw ; 0x158c
        0x00000cb6:    f000f8d7    ....    BL       bulletDraw ; 0xe68
        0x00000cba:    f000f9d9    ....    BL       enmeyPlaneDraw ; 0x1070
        0x00000cbe:    4917        .I      LDR      r1,[pc,#92] ; [0xd1c] = 0x20000c14
        0x00000cc0:    4817        .H      LDR      r0,[pc,#92] ; [0xd20] = 0x20000c00
        0x00000cc2:    f000f99d    ....    BL       enemyMapCreate ; 0x1000
        0x00000cc6:    4917        .I      LDR      r1,[pc,#92] ; [0xd24] = 0x20000b10
        0x00000cc8:    4817        .H      LDR      r0,[pc,#92] ; [0xd28] = 0x20000b04
        0x00000cca:    f000f915    ....    BL       bulletsMapCreate ; 0xef8
        0x00000cce:    4913        .I      LDR      r1,[pc,#76] ; [0xd1c] = 0x20000c14
        0x00000cd0:    4811        .H      LDR      r0,[pc,#68] ; [0xd18] = 0x20000ad6
        0x00000cd2:    f000fb3b    ..;.    BL       isMyPlaneHit ; 0x134c
        0x00000cd6:    226c        l"      MOVS     r2,#0x6c
        0x00000cd8:    4912        .I      LDR      r1,[pc,#72] ; [0xd24] = 0x20000b10
        0x00000cda:    310c        .1      ADDS     r1,r1,#0xc
        0x00000cdc:    4668        hF      MOV      r0,sp
        0x00000cde:    f7fffa53    ..S.    BL       __aeabi_memcpy ; 0x188
        0x00000ce2:    4810        .H      LDR      r0,[pc,#64] ; [0xd24] = 0x20000b10
        0x00000ce4:    c80e        ..      LDM      r0!,{r1-r3}
        0x00000ce6:    480e        .H      LDR      r0,[pc,#56] ; [0xd20] = 0x20000c00
        0x00000ce8:    f000fad8    ....    BL       isEnemyPlaneHit ; 0x129c
        0x00000cec:    226c        l"      MOVS     r2,#0x6c
        0x00000cee:    490b        .I      LDR      r1,[pc,#44] ; [0xd1c] = 0x20000c14
        0x00000cf0:    310c        .1      ADDS     r1,r1,#0xc
        0x00000cf2:    4668        hF      MOV      r0,sp
        0x00000cf4:    f7fffa48    ..H.    BL       __aeabi_memcpy ; 0x188
        0x00000cf8:    4808        .H      LDR      r0,[pc,#32] ; [0xd1c] = 0x20000c14
        0x00000cfa:    c80e        ..      LDM      r0!,{r1-r3}
        0x00000cfc:    480a        .H      LDR      r0,[pc,#40] ; [0xd28] = 0x20000b04
        0x00000cfe:    f000fa8d    ....    BL       isBulletsHit ; 0x121c
        0x00000d02:    480a        .H      LDR      r0,[pc,#40] ; [0xd2c] = 0x20000adc
        0x00000d04:    210a        .!      MOVS     r1,#0xa
        0x00000d06:    6802        .h      LDR      r2,[r0,#0]
        0x00000d08:    2003        .       MOVS     r0,#3
        0x00000d0a:    f000fa39    ..9.    BL       gameScoreDraw ; 0x1180
        0x00000d0e:    f000fd2d    ..-.    BL       updateBulletData ; 0x176c
        0x00000d12:    b01c        ..      ADD      sp,sp,#0x70
        0x00000d14:    bd70        p.      POP      {r4-r6,pc}
    $d
        0x00000d16:    0000        ..      DCW    0
        0x00000d18:    20000ad6    ...     DCD    536873686
        0x00000d1c:    20000c14    ...     DCD    536874004
        0x00000d20:    20000c00    ...     DCD    536873984
        0x00000d24:    20000b10    ...     DCD    536873744
        0x00000d28:    20000b04    ...     DCD    536873732
        0x00000d2c:    20000adc    ...     DCD    536873692
    $t
    i.UARTOVRHandler
    UARTOVRHandler
        0x00000d30:    4770        pG      BX       lr
        0x00000d32:    0000        ..      MOVS     r0,r0
    i.UARTRXHandler
    UARTRXHandler
        0x00000d34:    b510        ..      PUSH     {r4,lr}
        0x00000d36:    2001        .       MOVS     r0,#1
        0x00000d38:    0780        ..      LSLS     r0,r0,#30
        0x00000d3a:    f000fcd9    ....    BL       uart_ClearRxIRQ ; 0x16f0
        0x00000d3e:    2001        .       MOVS     r0,#1
        0x00000d40:    f7ffff1c    ....    BL       LED_toggle ; 0xb7c
        0x00000d44:    a001        ..      ADR      r0,{pc}+8 ; 0xd4c
        0x00000d46:    f000f82d    ..-.    BL       __0printf$bare ; 0xda4
        0x00000d4a:    bd10        ..      POP      {r4,pc}
    $d
        0x00000d4c:    74726175    uart    DCD    1953653109
        0x00000d50:    2078725f    _rx     DCD    544764511
        0x00000d54:    20746e69    int     DCD    544501353
        0x00000d58:    7563636f    occu    DCD    1969447791
        0x00000d5c:    21212172    r!!!    DCD    555819378
        0x00000d60:    0000000a    ....    DCD    10
    $t
    i.UARTTXHandler
    UARTTXHandler
        0x00000d64:    b508        ..      PUSH     {r3,lr}
        0x00000d66:    2001        .       MOVS     r0,#1
        0x00000d68:    0780        ..      LSLS     r0,r0,#30
        0x00000d6a:    f000fcc4    ....    BL       uart_ClearTxIRQ ; 0x16f6
        0x00000d6e:    2002        .       MOVS     r0,#2
        0x00000d70:    f7ffff04    ....    BL       LED_toggle ; 0xb7c
        0x00000d74:    a004        ..      ADR      r0,{pc}+0x14 ; 0xd88
        0x00000d76:    23ff        .#      MOVS     r3,#0xff
        0x00000d78:    3341        A3      ADDS     r3,r3,#0x41
        0x00000d7a:    22f0        ."      MOVS     r2,#0xf0
        0x00000d7c:    2100        .!      MOVS     r1,#0
        0x00000d7e:    9000        ..      STR      r0,[sp,#0]
        0x00000d80:    4608        .F      MOV      r0,r1
        0x00000d82:    f7fffe93    ....    BL       LCD_ShowString ; 0xaac
        0x00000d86:    bd08        ..      POP      {r3,pc}
    $d
        0x00000d88:    54524155    UART    DCD    1414676821
        0x00000d8c:    495f5854    TX_I    DCD    1230985300
        0x00000d90:    206e5152    RQn     DCD    544100690
        0x00000d94:    5543434f    OCCU    DCD    1430471503
        0x00000d98:    21444552    RED!    DCD    558122322
        0x00000d9c:    00002121    !!..    DCD    8481
    $t
    i.UsageFaultHandler
    UsageFaultHandler
        0x00000da0:    4770        pG      BX       lr
        0x00000da2:    0000        ..      MOVS     r0,r0
    i.__0printf$bare
    __0printf$bare
    __1printf$bare
    __2printf
        0x00000da4:    b510        ..      PUSH     {r4,lr}
        0x00000da6:    4a02        .J      LDR      r2,[pc,#8] ; [0xdb0] = 0x1161
        0x00000da8:    4902        .I      LDR      r1,[pc,#8] ; [0xdb4] = 0x20000ae4
        0x00000daa:    f000f822    ..".    BL       _printf_core ; 0xdf2
        0x00000dae:    bd10        ..      POP      {r4,pc}
    $d
        0x00000db0:    00001161    a...    DCD    4449
        0x00000db4:    20000ae4    ...     DCD    536873700
    $t
    i.__ARM_common_switch8
    __ARM_common_switch8
        0x00000db8:    b430        0.      PUSH     {r4,r5}
        0x00000dba:    4674        tF      MOV      r4,lr
        0x00000dbc:    1e64        d.      SUBS     r4,r4,#1
        0x00000dbe:    7825        %x      LDRB     r5,[r4,#0]
        0x00000dc0:    1c64        d.      ADDS     r4,r4,#1
        0x00000dc2:    42ab        .B      CMP      r3,r5
        0x00000dc4:    d304        ..      BCC      0xdd0 ; __ARM_common_switch8 + 24
        0x00000dc6:    5d63        c]      LDRB     r3,[r4,r5]
        0x00000dc8:    005b        [.      LSLS     r3,r3,#1
        0x00000dca:    18e3        ..      ADDS     r3,r4,r3
        0x00000dcc:    bc30        0.      POP      {r4,r5}
        0x00000dce:    4718        .G      BX       r3
        0x00000dd0:    461d        .F      MOV      r5,r3
        0x00000dd2:    e7f8        ..      B        0xdc6 ; __ARM_common_switch8 + 14
    i.__scatterload_copy
    __scatterload_copy
        0x00000dd4:    e002        ..      B        0xddc ; __scatterload_copy + 8
        0x00000dd6:    c808        ..      LDM      r0!,{r3}
        0x00000dd8:    1f12        ..      SUBS     r2,r2,#4
        0x00000dda:    c108        ..      STM      r1!,{r3}
        0x00000ddc:    2a00        .*      CMP      r2,#0
        0x00000dde:    d1fa        ..      BNE      0xdd6 ; __scatterload_copy + 2
        0x00000de0:    4770        pG      BX       lr
    i.__scatterload_null
    __scatterload_null
        0x00000de2:    4770        pG      BX       lr
    i.__scatterload_zeroinit
    __scatterload_zeroinit
        0x00000de4:    2000        .       MOVS     r0,#0
        0x00000de6:    e001        ..      B        0xdec ; __scatterload_zeroinit + 8
        0x00000de8:    c101        ..      STM      r1!,{r0}
        0x00000dea:    1f12        ..      SUBS     r2,r2,#4
        0x00000dec:    2a00        .*      CMP      r2,#0
        0x00000dee:    d1fb        ..      BNE      0xde8 ; __scatterload_zeroinit + 4
        0x00000df0:    4770        pG      BX       lr
    i._printf_core
    _printf_core
        0x00000df2:    b5f8        ..      PUSH     {r3-r7,lr}
        0x00000df4:    4616        .F      MOV      r6,r2
        0x00000df6:    460f        .F      MOV      r7,r1
        0x00000df8:    4604        .F      MOV      r4,r0
        0x00000dfa:    2500        .%      MOVS     r5,#0
        0x00000dfc:    e003        ..      B        0xe06 ; _printf_core + 20
        0x00000dfe:    4639        9F      MOV      r1,r7
        0x00000e00:    47b0        .G      BLX      r6
        0x00000e02:    1c64        d.      ADDS     r4,r4,#1
        0x00000e04:    1c6d        m.      ADDS     r5,r5,#1
        0x00000e06:    7820         x      LDRB     r0,[r4,#0]
        0x00000e08:    2800        .(      CMP      r0,#0
        0x00000e0a:    d1f8        ..      BNE      0xdfe ; _printf_core + 12
        0x00000e0c:    4628        (F      MOV      r0,r5
        0x00000e0e:    bdf8        ..      POP      {r3-r7,pc}
    i.boomDraw
    boomDraw
        0x00000e10:    b538        8.      PUSH     {r3-r5,lr}
        0x00000e12:    4604        .F      MOV      r4,r0
        0x00000e14:    460d        .F      MOV      r5,r1
        0x00000e16:    2010        .       MOVS     r0,#0x10
        0x00000e18:    2313        .#      MOVS     r3,#0x13
        0x00000e1a:    462a        *F      MOV      r2,r5
        0x00000e1c:    4621        !F      MOV      r1,r4
        0x00000e1e:    9000        ..      STR      r0,[sp,#0]
        0x00000e20:    2004        .       MOVS     r0,#4
        0x00000e22:    f000fccd    ....    BL       writeOneSprite ; 0x17c0
        0x00000e26:    2010        .       MOVS     r0,#0x10
        0x00000e28:    9000        ..      STR      r0,[sp,#0]
        0x00000e2a:    4620         F      MOV      r0,r4
        0x00000e2c:    3008        .0      ADDS     r0,r0,#8
        0x00000e2e:    b2c1        ..      UXTB     r1,r0
        0x00000e30:    2314        .#      MOVS     r3,#0x14
        0x00000e32:    462a        *F      MOV      r2,r5
        0x00000e34:    2005        .       MOVS     r0,#5
        0x00000e36:    f000fcc3    ....    BL       writeOneSprite ; 0x17c0
        0x00000e3a:    20d0        .       MOVS     r0,#0xd0
        0x00000e3c:    9000        ..      STR      r0,[sp,#0]
        0x00000e3e:    4628        (F      MOV      r0,r5
        0x00000e40:    3008        .0      ADDS     r0,r0,#8
        0x00000e42:    b2c2        ..      UXTB     r2,r0
        0x00000e44:    2314        .#      MOVS     r3,#0x14
        0x00000e46:    4621        !F      MOV      r1,r4
        0x00000e48:    2006        .       MOVS     r0,#6
        0x00000e4a:    f000fcb9    ....    BL       writeOneSprite ; 0x17c0
        0x00000e4e:    20d0        .       MOVS     r0,#0xd0
        0x00000e50:    9000        ..      STR      r0,[sp,#0]
        0x00000e52:    4628        (F      MOV      r0,r5
        0x00000e54:    3008        .0      ADDS     r0,r0,#8
        0x00000e56:    b2c2        ..      UXTB     r2,r0
        0x00000e58:    4620         F      MOV      r0,r4
        0x00000e5a:    3008        .0      ADDS     r0,r0,#8
        0x00000e5c:    b2c1        ..      UXTB     r1,r0
        0x00000e5e:    2313        .#      MOVS     r3,#0x13
        0x00000e60:    2007        .       MOVS     r0,#7
        0x00000e62:    f000fcad    ....    BL       writeOneSprite ; 0x17c0
        0x00000e66:    bd38        8.      POP      {r3-r5,pc}
    i.bulletDraw
    bulletDraw
        0x00000e68:    b538        8.      PUSH     {r3-r5,lr}
        0x00000e6a:    2400        .$      MOVS     r4,#0
        0x00000e6c:    e028        (.      B        0xec0 ; bulletDraw + 88
        0x00000e6e:    0060        `.      LSLS     r0,r4,#1
        0x00000e70:    1820         .      ADDS     r0,r4,r0
        0x00000e72:    4916        .I      LDR      r1,[pc,#88] ; [0xecc] = 0x20000b04
        0x00000e74:    1840        @.      ADDS     r0,r0,r1
        0x00000e76:    7880        .x      LDRB     r0,[r0,#2]
        0x00000e78:    2800        .(      CMP      r0,#0
        0x00000e7a:    d010        ..      BEQ      0xe9e ; bulletDraw + 54
        0x00000e7c:    2010        .       MOVS     r0,#0x10
        0x00000e7e:    0063        c.      LSLS     r3,r4,#1
        0x00000e80:    18e3        ..      ADDS     r3,r4,r3
        0x00000e82:    460d        .F      MOV      r5,r1
        0x00000e84:    195b        [.      ADDS     r3,r3,r5
        0x00000e86:    9000        ..      STR      r0,[sp,#0]
        0x00000e88:    785a        Zx      LDRB     r2,[r3,#1]
        0x00000e8a:    0063        c.      LSLS     r3,r4,#1
        0x00000e8c:    18e3        ..      ADDS     r3,r4,r3
        0x00000e8e:    5ce9        .\      LDRB     r1,[r5,r3]
        0x00000e90:    4623        #F      MOV      r3,r4
        0x00000e92:    3314        .3      ADDS     r3,r3,#0x14
        0x00000e94:    b2d8        ..      UXTB     r0,r3
        0x00000e96:    230e        .#      MOVS     r3,#0xe
        0x00000e98:    f000fc92    ....    BL       writeOneSprite ; 0x17c0
        0x00000e9c:    e00f        ..      B        0xebe ; bulletDraw + 86
        0x00000e9e:    2010        .       MOVS     r0,#0x10
        0x00000ea0:    0063        c.      LSLS     r3,r4,#1
        0x00000ea2:    18e3        ..      ADDS     r3,r4,r3
        0x00000ea4:    4d09        .M      LDR      r5,[pc,#36] ; [0xecc] = 0x20000b04
        0x00000ea6:    195b        [.      ADDS     r3,r3,r5
        0x00000ea8:    9000        ..      STR      r0,[sp,#0]
        0x00000eaa:    785a        Zx      LDRB     r2,[r3,#1]
        0x00000eac:    0063        c.      LSLS     r3,r4,#1
        0x00000eae:    18e3        ..      ADDS     r3,r4,r3
        0x00000eb0:    5ce9        .\      LDRB     r1,[r5,r3]
        0x00000eb2:    4623        #F      MOV      r3,r4
        0x00000eb4:    3314        .3      ADDS     r3,r3,#0x14
        0x00000eb6:    b2d8        ..      UXTB     r0,r3
        0x00000eb8:    231f        .#      MOVS     r3,#0x1f
        0x00000eba:    f000fc81    ....    BL       writeOneSprite ; 0x17c0
        0x00000ebe:    1c64        d.      ADDS     r4,r4,#1
        0x00000ec0:    4803        .H      LDR      r0,[pc,#12] ; [0xed0] = 0x17e4
        0x00000ec2:    7800        .x      LDRB     r0,[r0,#0]
        0x00000ec4:    4284        .B      CMP      r4,r0
        0x00000ec6:    dbd2        ..      BLT      0xe6e ; bulletDraw + 6
        0x00000ec8:    bd38        8.      POP      {r3-r5,pc}
    $d
        0x00000eca:    0000        ..      DCW    0
        0x00000ecc:    20000b04    ...     DCD    536873732
        0x00000ed0:    000017e4    ....    DCD    6116
    $t
    i.bulletInit
    bulletInit
        0x00000ed4:    2000        .       MOVS     r0,#0
        0x00000ed6:    e006        ..      B        0xee6 ; bulletInit + 18
        0x00000ed8:    2100        .!      MOVS     r1,#0
        0x00000eda:    0042        B.      LSLS     r2,r0,#1
        0x00000edc:    1882        ..      ADDS     r2,r0,r2
        0x00000ede:    4b04        .K      LDR      r3,[pc,#16] ; [0xef0] = 0x20000b04
        0x00000ee0:    18d2        ..      ADDS     r2,r2,r3
        0x00000ee2:    7091        .p      STRB     r1,[r2,#2]
        0x00000ee4:    1c40        @.      ADDS     r0,r0,#1
        0x00000ee6:    4903        .I      LDR      r1,[pc,#12] ; [0xef4] = 0x17e4
        0x00000ee8:    7809        .x      LDRB     r1,[r1,#0]
        0x00000eea:    4288        .B      CMP      r0,r1
        0x00000eec:    dbf4        ..      BLT      0xed8 ; bulletInit + 4
        0x00000eee:    4770        pG      BX       lr
    $d
        0x00000ef0:    20000b04    ...     DCD    536873732
        0x00000ef4:    000017e4    ....    DCD    6116
    $t
    i.bulletsMapCreate
    bulletsMapCreate
        0x00000ef8:    b570        p.      PUSH     {r4-r6,lr}
        0x00000efa:    4605        .F      MOV      r5,r0
        0x00000efc:    460e        .F      MOV      r6,r1
        0x00000efe:    2000        .       MOVS     r0,#0
        0x00000f00:    e003        ..      B        0xf0a ; bulletsMapCreate + 18
        0x00000f02:    2100        .!      MOVS     r1,#0
        0x00000f04:    0082        ..      LSLS     r2,r0,#2
        0x00000f06:    50b1        .P      STR      r1,[r6,r2]
        0x00000f08:    1c40        @.      ADDS     r0,r0,#1
        0x00000f0a:    281e        .(      CMP      r0,#0x1e
        0x00000f0c:    dbf9        ..      BLT      0xf02 ; bulletsMapCreate + 10
        0x00000f0e:    2400        .$      MOVS     r4,#0
        0x00000f10:    e010        ..      B        0xf34 ; bulletsMapCreate + 60
        0x00000f12:    0060        `.      LSLS     r0,r4,#1
        0x00000f14:    1820         .      ADDS     r0,r4,r0
        0x00000f16:    1940        @.      ADDS     r0,r0,r5
        0x00000f18:    7880        .x      LDRB     r0,[r0,#2]
        0x00000f1a:    2800        .(      CMP      r0,#0
        0x00000f1c:    d009        ..      BEQ      0xf32 ; bulletsMapCreate + 58
        0x00000f1e:    0062        b.      LSLS     r2,r4,#1
        0x00000f20:    18a2        ..      ADDS     r2,r4,r2
        0x00000f22:    1952        R.      ADDS     r2,r2,r5
        0x00000f24:    7851        Qx      LDRB     r1,[r2,#1]
        0x00000f26:    0062        b.      LSLS     r2,r4,#1
        0x00000f28:    18a2        ..      ADDS     r2,r4,r2
        0x00000f2a:    5ca8        .\      LDRB     r0,[r5,r2]
        0x00000f2c:    4632        2F      MOV      r2,r6
        0x00000f2e:    f000fbd3    ....    BL       tileMap ; 0x16d8
        0x00000f32:    1c64        d.      ADDS     r4,r4,#1
        0x00000f34:    4802        .H      LDR      r0,[pc,#8] ; [0xf40] = 0x17e4
        0x00000f36:    7800        .x      LDRB     r0,[r0,#0]
        0x00000f38:    4284        .B      CMP      r4,r0
        0x00000f3a:    dbea        ..      BLT      0xf12 ; bulletsMapCreate + 26
        0x00000f3c:    bd70        p.      POP      {r4-r6,pc}
    $d
        0x00000f3e:    0000        ..      DCW    0
        0x00000f40:    000017e4    ....    DCD    6116
    $t
    i.createOneBullet
    createOneBullet
        0x00000f44:    2000        .       MOVS     r0,#0
        0x00000f46:    e01f        ..      B        0xf88 ; createOneBullet + 68
        0x00000f48:    0041        A.      LSLS     r1,r0,#1
        0x00000f4a:    1841        A.      ADDS     r1,r0,r1
        0x00000f4c:    4a11        .J      LDR      r2,[pc,#68] ; [0xf94] = 0x20000b04
        0x00000f4e:    1889        ..      ADDS     r1,r1,r2
        0x00000f50:    7889        .x      LDRB     r1,[r1,#2]
        0x00000f52:    2900        .)      CMP      r1,#0
        0x00000f54:    d117        ..      BNE      0xf86 ; createOneBullet + 66
        0x00000f56:    4910        .I      LDR      r1,[pc,#64] ; [0xf98] = 0x20000ad6
        0x00000f58:    7889        .x      LDRB     r1,[r1,#2]
        0x00000f5a:    2900        .)      CMP      r1,#0
        0x00000f5c:    d013        ..      BEQ      0xf86 ; createOneBullet + 66
        0x00000f5e:    490e        .I      LDR      r1,[pc,#56] ; [0xf98] = 0x20000ad6
        0x00000f60:    7809        .x      LDRB     r1,[r1,#0]
        0x00000f62:    3108        .1      ADDS     r1,r1,#8
        0x00000f64:    0042        B.      LSLS     r2,r0,#1
        0x00000f66:    1882        ..      ADDS     r2,r0,r2
        0x00000f68:    4b0a        .K      LDR      r3,[pc,#40] ; [0xf94] = 0x20000b04
        0x00000f6a:    5499        .T      STRB     r1,[r3,r2]
        0x00000f6c:    490a        .I      LDR      r1,[pc,#40] ; [0xf98] = 0x20000ad6
        0x00000f6e:    7849        Ix      LDRB     r1,[r1,#1]
        0x00000f70:    3908        .9      SUBS     r1,r1,#8
        0x00000f72:    0042        B.      LSLS     r2,r0,#1
        0x00000f74:    1882        ..      ADDS     r2,r0,r2
        0x00000f76:    18d2        ..      ADDS     r2,r2,r3
        0x00000f78:    7051        Qp      STRB     r1,[r2,#1]
        0x00000f7a:    2101        .!      MOVS     r1,#1
        0x00000f7c:    0042        B.      LSLS     r2,r0,#1
        0x00000f7e:    1882        ..      ADDS     r2,r0,r2
        0x00000f80:    18d2        ..      ADDS     r2,r2,r3
        0x00000f82:    7091        .p      STRB     r1,[r2,#2]
        0x00000f84:    e004        ..      B        0xf90 ; createOneBullet + 76
        0x00000f86:    1c40        @.      ADDS     r0,r0,#1
        0x00000f88:    4904        .I      LDR      r1,[pc,#16] ; [0xf9c] = 0x17e4
        0x00000f8a:    7809        .x      LDRB     r1,[r1,#0]
        0x00000f8c:    4288        .B      CMP      r0,r1
        0x00000f8e:    dbdb        ..      BLT      0xf48 ; createOneBullet + 4
        0x00000f90:    bf00        ..      NOP      
        0x00000f92:    4770        pG      BX       lr
    $d
        0x00000f94:    20000b04    ...     DCD    536873732
        0x00000f98:    20000ad6    ...     DCD    536873686
        0x00000f9c:    000017e4    ....    DCD    6116
    $t
    i.createOneEnmeyPlane
    createOneEnmeyPlane
        0x00000fa0:    b530        0.      PUSH     {r4,r5,lr}
        0x00000fa2:    4602        .F      MOV      r2,r0
        0x00000fa4:    2000        .       MOVS     r0,#0
        0x00000fa6:    e011        ..      B        0xfcc ; createOneEnmeyPlane + 44
        0x00000fa8:    0083        ..      LSLS     r3,r0,#2
        0x00000faa:    4c0b        .L      LDR      r4,[pc,#44] ; [0xfd8] = 0x20000c00
        0x00000fac:    191b        ..      ADDS     r3,r3,r4
        0x00000fae:    789b        .x      LDRB     r3,[r3,#2]
        0x00000fb0:    2b00        .+      CMP      r3,#0
        0x00000fb2:    d10a        ..      BNE      0xfca ; createOneEnmeyPlane + 42
        0x00000fb4:    0083        ..      LSLS     r3,r0,#2
        0x00000fb6:    54e2        .T      STRB     r2,[r4,r3]
        0x00000fb8:    0083        ..      LSLS     r3,r0,#2
        0x00000fba:    191b        ..      ADDS     r3,r3,r4
        0x00000fbc:    7059        Yp      STRB     r1,[r3,#1]
        0x00000fbe:    2301        .#      MOVS     r3,#1
        0x00000fc0:    0084        ..      LSLS     r4,r0,#2
        0x00000fc2:    4d05        .M      LDR      r5,[pc,#20] ; [0xfd8] = 0x20000c00
        0x00000fc4:    1964        d.      ADDS     r4,r4,r5
        0x00000fc6:    70a3        .p      STRB     r3,[r4,#2]
        0x00000fc8:    e004        ..      B        0xfd4 ; createOneEnmeyPlane + 52
        0x00000fca:    1c40        @.      ADDS     r0,r0,#1
        0x00000fcc:    4b03        .K      LDR      r3,[pc,#12] ; [0xfdc] = 0x17e5
        0x00000fce:    781b        .x      LDRB     r3,[r3,#0]
        0x00000fd0:    4298        .B      CMP      r0,r3
        0x00000fd2:    dbe9        ..      BLT      0xfa8 ; createOneEnmeyPlane + 8
        0x00000fd4:    bf00        ..      NOP      
        0x00000fd6:    bd30        0.      POP      {r4,r5,pc}
    $d
        0x00000fd8:    20000c00    ...     DCD    536873984
        0x00000fdc:    000017e5    ....    DCD    6117
    $t
    i.delay
    delay
        0x00000fe0:    b500        ..      PUSH     {lr}
        0x00000fe2:    4602        .F      MOV      r2,r0
        0x00000fe4:    2000        .       MOVS     r0,#0
        0x00000fe6:    f7fffe0b    ....    BL       Set_SysTick_CTRL ; 0xc00
        0x00000fea:    4610        .F      MOV      r0,r2
        0x00000fec:    f7fffe0e    ....    BL       Set_SysTick_LOAD ; 0xc0c
        0x00000ff0:    2000        .       MOVS     r0,#0
        0x00000ff2:    f7fffe11    ....    BL       Set_SysTick_VALUE ; 0xc18
        0x00000ff6:    2007        .       MOVS     r0,#7
        0x00000ff8:    f7fffe02    ....    BL       Set_SysTick_CTRL ; 0xc00
        0x00000ffc:    bf30        0.      WFI      
        0x00000ffe:    bd00        ..      POP      {pc}
    i.enemyMapCreate
    enemyMapCreate
        0x00001000:    b570        p.      PUSH     {r4-r6,lr}
        0x00001002:    4605        .F      MOV      r5,r0
        0x00001004:    460e        .F      MOV      r6,r1
        0x00001006:    2000        .       MOVS     r0,#0
        0x00001008:    e003        ..      B        0x1012 ; enemyMapCreate + 18
        0x0000100a:    2100        .!      MOVS     r1,#0
        0x0000100c:    0082        ..      LSLS     r2,r0,#2
        0x0000100e:    50b1        .P      STR      r1,[r6,r2]
        0x00001010:    1c40        @.      ADDS     r0,r0,#1
        0x00001012:    281e        .(      CMP      r0,#0x1e
        0x00001014:    dbf9        ..      BLT      0x100a ; enemyMapCreate + 10
        0x00001016:    2400        .$      MOVS     r4,#0
        0x00001018:    e023        #.      B        0x1062 ; enemyMapCreate + 98
        0x0000101a:    00a0        ..      LSLS     r0,r4,#2
        0x0000101c:    1940        @.      ADDS     r0,r0,r5
        0x0000101e:    7880        .x      LDRB     r0,[r0,#2]
        0x00001020:    2800        .(      CMP      r0,#0
        0x00001022:    d01d        ..      BEQ      0x1060 ; enemyMapCreate + 96
        0x00001024:    00a2        ..      LSLS     r2,r4,#2
        0x00001026:    1952        R.      ADDS     r2,r2,r5
        0x00001028:    7851        Qx      LDRB     r1,[r2,#1]
        0x0000102a:    00a2        ..      LSLS     r2,r4,#2
        0x0000102c:    5ca8        .\      LDRB     r0,[r5,r2]
        0x0000102e:    4632        2F      MOV      r2,r6
        0x00001030:    f000fb52    ..R.    BL       tileMap ; 0x16d8
        0x00001034:    00a2        ..      LSLS     r2,r4,#2
        0x00001036:    1952        R.      ADDS     r2,r2,r5
        0x00001038:    7851        Qx      LDRB     r1,[r2,#1]
        0x0000103a:    00a2        ..      LSLS     r2,r4,#2
        0x0000103c:    5caa        .\      LDRB     r2,[r5,r2]
        0x0000103e:    3208        .2      ADDS     r2,r2,#8
        0x00001040:    b2d0        ..      UXTB     r0,r2
        0x00001042:    4632        2F      MOV      r2,r6
        0x00001044:    f000fb48    ..H.    BL       tileMap ; 0x16d8
        0x00001048:    00a2        ..      LSLS     r2,r4,#2
        0x0000104a:    1952        R.      ADDS     r2,r2,r5
        0x0000104c:    7852        Rx      LDRB     r2,[r2,#1]
        0x0000104e:    3a08        .:      SUBS     r2,r2,#8
        0x00001050:    b2d1        ..      UXTB     r1,r2
        0x00001052:    00a2        ..      LSLS     r2,r4,#2
        0x00001054:    5caa        .\      LDRB     r2,[r5,r2]
        0x00001056:    1d12        ..      ADDS     r2,r2,#4
        0x00001058:    b2d0        ..      UXTB     r0,r2
        0x0000105a:    4632        2F      MOV      r2,r6
        0x0000105c:    f000fb3c    ..<.    BL       tileMap ; 0x16d8
        0x00001060:    1c64        d.      ADDS     r4,r4,#1
        0x00001062:    4802        .H      LDR      r0,[pc,#8] ; [0x106c] = 0x17e5
        0x00001064:    7800        .x      LDRB     r0,[r0,#0]
        0x00001066:    4284        .B      CMP      r4,r0
        0x00001068:    dbd7        ..      BLT      0x101a ; enemyMapCreate + 26
        0x0000106a:    bd70        p.      POP      {r4-r6,pc}
    $d
        0x0000106c:    000017e5    ....    DCD    6117
    $t
    i.enmeyPlaneDraw
    enmeyPlaneDraw
        0x00001070:    b538        8.      PUSH     {r3-r5,lr}
        0x00001072:    2400        .$      MOVS     r4,#0
        0x00001074:    e059        Y.      B        0x112a ; enmeyPlaneDraw + 186
        0x00001076:    00a0        ..      LSLS     r0,r4,#2
        0x00001078:    492e        .I      LDR      r1,[pc,#184] ; [0x1134] = 0x20000c00
        0x0000107a:    1840        @.      ADDS     r0,r0,r1
        0x0000107c:    7880        .x      LDRB     r0,[r0,#2]
        0x0000107e:    2800        .(      CMP      r0,#0
        0x00001080:    d031        1.      BEQ      0x10e6 ; enmeyPlaneDraw + 118
        0x00001082:    2020                MOVS     r0,#0x20
        0x00001084:    00a3        ..      LSLS     r3,r4,#2
        0x00001086:    460d        .F      MOV      r5,r1
        0x00001088:    195b        [.      ADDS     r3,r3,r5
        0x0000108a:    9000        ..      STR      r0,[sp,#0]
        0x0000108c:    785a        Zx      LDRB     r2,[r3,#1]
        0x0000108e:    00a3        ..      LSLS     r3,r4,#2
        0x00001090:    5ce9        .\      LDRB     r1,[r5,r3]
        0x00001092:    0063        c.      LSLS     r3,r4,#1
        0x00001094:    18e3        ..      ADDS     r3,r4,r3
        0x00001096:    3328        (3      ADDS     r3,r3,#0x28
        0x00001098:    b2d8        ..      UXTB     r0,r3
        0x0000109a:    230f        .#      MOVS     r3,#0xf
        0x0000109c:    f000fb90    ....    BL       writeOneSprite ; 0x17c0
        0x000010a0:    2020                MOVS     r0,#0x20
        0x000010a2:    00a3        ..      LSLS     r3,r4,#2
        0x000010a4:    195b        [.      ADDS     r3,r3,r5
        0x000010a6:    9000        ..      STR      r0,[sp,#0]
        0x000010a8:    785a        Zx      LDRB     r2,[r3,#1]
        0x000010aa:    00a3        ..      LSLS     r3,r4,#2
        0x000010ac:    5ceb        .\      LDRB     r3,[r5,r3]
        0x000010ae:    3308        .3      ADDS     r3,r3,#8
        0x000010b0:    b2d9        ..      UXTB     r1,r3
        0x000010b2:    0063        c.      LSLS     r3,r4,#1
        0x000010b4:    18e3        ..      ADDS     r3,r4,r3
        0x000010b6:    3329        )3      ADDS     r3,r3,#0x29
        0x000010b8:    b2d8        ..      UXTB     r0,r3
        0x000010ba:    2310        .#      MOVS     r3,#0x10
        0x000010bc:    f000fb80    ....    BL       writeOneSprite ; 0x17c0
        0x000010c0:    2020                MOVS     r0,#0x20
        0x000010c2:    00a3        ..      LSLS     r3,r4,#2
        0x000010c4:    195b        [.      ADDS     r3,r3,r5
        0x000010c6:    9000        ..      STR      r0,[sp,#0]
        0x000010c8:    785b        [x      LDRB     r3,[r3,#1]
        0x000010ca:    3b08        .;      SUBS     r3,r3,#8
        0x000010cc:    b2da        ..      UXTB     r2,r3
        0x000010ce:    00a3        ..      LSLS     r3,r4,#2
        0x000010d0:    5ceb        .\      LDRB     r3,[r5,r3]
        0x000010d2:    1d1b        ..      ADDS     r3,r3,#4
        0x000010d4:    b2d9        ..      UXTB     r1,r3
        0x000010d6:    0063        c.      LSLS     r3,r4,#1
        0x000010d8:    18e3        ..      ADDS     r3,r4,r3
        0x000010da:    332a        *3      ADDS     r3,r3,#0x2a
        0x000010dc:    b2d8        ..      UXTB     r0,r3
        0x000010de:    2311        .#      MOVS     r3,#0x11
        0x000010e0:    f000fb6e    ..n.    BL       writeOneSprite ; 0x17c0
        0x000010e4:    e020         .      B        0x1128 ; enmeyPlaneDraw + 184
        0x000010e6:    2020                MOVS     r0,#0x20
        0x000010e8:    0061        a.      LSLS     r1,r4,#1
        0x000010ea:    1861        a.      ADDS     r1,r4,r1
        0x000010ec:    3128        (1      ADDS     r1,r1,#0x28
        0x000010ee:    9000        ..      STR      r0,[sp,#0]
        0x000010f0:    b2c8        ..      UXTB     r0,r1
        0x000010f2:    231f        .#      MOVS     r3,#0x1f
        0x000010f4:    2200        ."      MOVS     r2,#0
        0x000010f6:    4611        .F      MOV      r1,r2
        0x000010f8:    f000fb62    ..b.    BL       writeOneSprite ; 0x17c0
        0x000010fc:    2020                MOVS     r0,#0x20
        0x000010fe:    0061        a.      LSLS     r1,r4,#1
        0x00001100:    1861        a.      ADDS     r1,r4,r1
        0x00001102:    3129        )1      ADDS     r1,r1,#0x29
        0x00001104:    9000        ..      STR      r0,[sp,#0]
        0x00001106:    b2c8        ..      UXTB     r0,r1
        0x00001108:    231f        .#      MOVS     r3,#0x1f
        0x0000110a:    2200        ."      MOVS     r2,#0
        0x0000110c:    4611        .F      MOV      r1,r2
        0x0000110e:    f000fb57    ..W.    BL       writeOneSprite ; 0x17c0
        0x00001112:    2020                MOVS     r0,#0x20
        0x00001114:    0061        a.      LSLS     r1,r4,#1
        0x00001116:    1861        a.      ADDS     r1,r4,r1
        0x00001118:    312a        *1      ADDS     r1,r1,#0x2a
        0x0000111a:    9000        ..      STR      r0,[sp,#0]
        0x0000111c:    b2c8        ..      UXTB     r0,r1
        0x0000111e:    231f        .#      MOVS     r3,#0x1f
        0x00001120:    2200        ."      MOVS     r2,#0
        0x00001122:    4611        .F      MOV      r1,r2
        0x00001124:    f000fb4c    ..L.    BL       writeOneSprite ; 0x17c0
        0x00001128:    1c64        d.      ADDS     r4,r4,#1
        0x0000112a:    4803        .H      LDR      r0,[pc,#12] ; [0x1138] = 0x17e5
        0x0000112c:    7800        .x      LDRB     r0,[r0,#0]
        0x0000112e:    4284        .B      CMP      r4,r0
        0x00001130:    dba1        ..      BLT      0x1076 ; enmeyPlaneDraw + 6
        0x00001132:    bd38        8.      POP      {r3-r5,pc}
    $d
        0x00001134:    20000c00    ...     DCD    536873984
        0x00001138:    000017e5    ....    DCD    6117
    $t
    i.enmeyPlaneInit
    enmeyPlaneInit
        0x0000113c:    2000        .       MOVS     r0,#0
        0x0000113e:    e005        ..      B        0x114c ; enmeyPlaneInit + 16
        0x00001140:    2100        .!      MOVS     r1,#0
        0x00001142:    0082        ..      LSLS     r2,r0,#2
        0x00001144:    4b04        .K      LDR      r3,[pc,#16] ; [0x1158] = 0x20000c00
        0x00001146:    18d2        ..      ADDS     r2,r2,r3
        0x00001148:    7091        .p      STRB     r1,[r2,#2]
        0x0000114a:    1c40        @.      ADDS     r0,r0,#1
        0x0000114c:    4903        .I      LDR      r1,[pc,#12] ; [0x115c] = 0x17e5
        0x0000114e:    7809        .x      LDRB     r1,[r1,#0]
        0x00001150:    4288        .B      CMP      r0,r1
        0x00001152:    dbf5        ..      BLT      0x1140 ; enmeyPlaneInit + 4
        0x00001154:    4770        pG      BX       lr
    $d
        0x00001156:    0000        ..      DCW    0
        0x00001158:    20000c00    ...     DCD    536873984
        0x0000115c:    000017e5    ....    DCD    6117
    $t
    i.fputc
    fputc
        0x00001160:    b570        p.      PUSH     {r4-r6,lr}
        0x00001162:    4604        .F      MOV      r4,r0
        0x00001164:    460d        .F      MOV      r5,r1
        0x00001166:    2c0a        .,      CMP      r4,#0xa
        0x00001168:    d103        ..      BNE      0x1172 ; fputc + 18
        0x0000116a:    210d        .!      MOVS     r1,#0xd
        0x0000116c:    0740        @.      LSLS     r0,r0,#29
        0x0000116e:    f000fac5    ....    BL       uart_SendChar ; 0x16fc
        0x00001172:    b2e1        ..      UXTB     r1,r4
        0x00001174:    2001        .       MOVS     r0,#1
        0x00001176:    0780        ..      LSLS     r0,r0,#30
        0x00001178:    f000fac0    ....    BL       uart_SendChar ; 0x16fc
        0x0000117c:    4620         F      MOV      r0,r4
        0x0000117e:    bd70        p.      POP      {r4-r6,pc}
    i.gameScoreDraw
    gameScoreDraw
        0x00001180:    b5f0        ..      PUSH     {r4-r7,lr}
        0x00001182:    b085        ..      SUB      sp,sp,#0x14
        0x00001184:    4604        .F      MOV      r4,r0
        0x00001186:    460d        .F      MOV      r5,r1
        0x00001188:    4616        .F      MOV      r6,r2
        0x0000118a:    210a        .!      MOVS     r1,#0xa
        0x0000118c:    4630        0F      MOV      r0,r6
        0x0000118e:    f7feffbf    ....    BL       __aeabi_uidiv ; 0x110
        0x00001192:    9103        ..      STR      r1,[sp,#0xc]
        0x00001194:    210a        .!      MOVS     r1,#0xa
        0x00001196:    4630        0F      MOV      r0,r6
        0x00001198:    f7feffba    ....    BL       __aeabi_uidiv ; 0x110
        0x0000119c:    210a        .!      MOVS     r1,#0xa
        0x0000119e:    9000        ..      STR      r0,[sp,#0]
        0x000011a0:    f7feffb6    ....    BL       __aeabi_uidiv ; 0x110
        0x000011a4:    460f        .F      MOV      r7,r1
        0x000011a6:    2164        d!      MOVS     r1,#0x64
        0x000011a8:    4630        0F      MOV      r0,r6
        0x000011aa:    f7feffb1    ....    BL       __aeabi_uidiv ; 0x110
        0x000011ae:    210a        .!      MOVS     r1,#0xa
        0x000011b0:    9000        ..      STR      r0,[sp,#0]
        0x000011b2:    f7feffad    ....    BL       __aeabi_uidiv ; 0x110
        0x000011b6:    9102        ..      STR      r1,[sp,#8]
        0x000011b8:    217d        }!      MOVS     r1,#0x7d
        0x000011ba:    00c9        ..      LSLS     r1,r1,#3
        0x000011bc:    4630        0F      MOV      r0,r6
        0x000011be:    f7feffa7    ....    BL       __aeabi_uidiv ; 0x110
        0x000011c2:    210a        .!      MOVS     r1,#0xa
        0x000011c4:    9000        ..      STR      r0,[sp,#0]
        0x000011c6:    f7feffa3    ....    BL       __aeabi_uidiv ; 0x110
        0x000011ca:    9101        ..      STR      r1,[sp,#4]
        0x000011cc:    2030        0       MOVS     r0,#0x30
        0x000011ce:    9000        ..      STR      r0,[sp,#0]
        0x000011d0:    462a        *F      MOV      r2,r5
        0x000011d2:    4621        !F      MOV      r1,r4
        0x000011d4:    2000        .       MOVS     r0,#0
        0x000011d6:    9b01        ..      LDR      r3,[sp,#4]
        0x000011d8:    f000faf2    ....    BL       writeOneSprite ; 0x17c0
        0x000011dc:    2030        0       MOVS     r0,#0x30
        0x000011de:    9000        ..      STR      r0,[sp,#0]
        0x000011e0:    4620         F      MOV      r0,r4
        0x000011e2:    3008        .0      ADDS     r0,r0,#8
        0x000011e4:    b2c1        ..      UXTB     r1,r0
        0x000011e6:    462a        *F      MOV      r2,r5
        0x000011e8:    2001        .       MOVS     r0,#1
        0x000011ea:    9b02        ..      LDR      r3,[sp,#8]
        0x000011ec:    f000fae8    ....    BL       writeOneSprite ; 0x17c0
        0x000011f0:    2030        0       MOVS     r0,#0x30
        0x000011f2:    9000        ..      STR      r0,[sp,#0]
        0x000011f4:    4620         F      MOV      r0,r4
        0x000011f6:    3010        .0      ADDS     r0,r0,#0x10
        0x000011f8:    b2c1        ..      UXTB     r1,r0
        0x000011fa:    463b        ;F      MOV      r3,r7
        0x000011fc:    462a        *F      MOV      r2,r5
        0x000011fe:    2002        .       MOVS     r0,#2
        0x00001200:    f000fade    ....    BL       writeOneSprite ; 0x17c0
        0x00001204:    2030        0       MOVS     r0,#0x30
        0x00001206:    9000        ..      STR      r0,[sp,#0]
        0x00001208:    4620         F      MOV      r0,r4
        0x0000120a:    3018        .0      ADDS     r0,r0,#0x18
        0x0000120c:    b2c1        ..      UXTB     r1,r0
        0x0000120e:    462a        *F      MOV      r2,r5
        0x00001210:    2003        .       MOVS     r0,#3
        0x00001212:    9b03        ..      LDR      r3,[sp,#0xc]
        0x00001214:    f000fad4    ....    BL       writeOneSprite ; 0x17c0
        0x00001218:    b005        ..      ADD      sp,sp,#0x14
        0x0000121a:    bdf0        ..      POP      {r4-r7,pc}
    i.isBulletsHit
    isBulletsHit
        0x0000121c:    b40f        ..      PUSH     {r0-r3}
        0x0000121e:    b570        p.      PUSH     {r4-r6,lr}
        0x00001220:    4604        .F      MOV      r4,r0
        0x00001222:    2000        .       MOVS     r0,#0
        0x00001224:    e030        0.      B        0x1288 ; isBulletsHit + 108
        0x00001226:    0041        A.      LSLS     r1,r0,#1
        0x00001228:    1841        A.      ADDS     r1,r0,r1
        0x0000122a:    1909        ..      ADDS     r1,r1,r4
        0x0000122c:    7889        .x      LDRB     r1,[r1,#2]
        0x0000122e:    2900        .)      CMP      r1,#0
        0x00001230:    d029        ).      BEQ      0x1286 ; isBulletsHit + 106
        0x00001232:    0045        E.      LSLS     r5,r0,#1
        0x00001234:    1945        E.      ADDS     r5,r0,r5
        0x00001236:    5d65        e]      LDRB     r5,[r4,r5]
        0x00001238:    10e9        ..      ASRS     r1,r5,#3
        0x0000123a:    0045        E.      LSLS     r5,r0,#1
        0x0000123c:    1945        E.      ADDS     r5,r0,r5
        0x0000123e:    192d        -.      ADDS     r5,r5,r4
        0x00001240:    786d        mx      LDRB     r5,[r5,#1]
        0x00001242:    10ea        ..      ASRS     r2,r5,#3
        0x00001244:    0095        ..      LSLS     r5,r2,#2
        0x00001246:    ae05        ..      ADD      r6,sp,#0x14
        0x00001248:    5975        uY      LDR      r5,[r6,r5]
        0x0000124a:    2601        .&      MOVS     r6,#1
        0x0000124c:    408e        .@      LSLS     r6,r6,r1
        0x0000124e:    4035        5@      ANDS     r5,r5,r6
        0x00001250:    462b        +F      MOV      r3,r5
        0x00001252:    2b00        .+      CMP      r3,#0
        0x00001254:    d108        ..      BNE      0x1268 ; isBulletsHit + 76
        0x00001256:    0045        E.      LSLS     r5,r0,#1
        0x00001258:    1945        E.      ADDS     r5,r0,r5
        0x0000125a:    192d        -.      ADDS     r5,r5,r4
        0x0000125c:    78ad        .x      LDRB     r5,[r5,#2]
        0x0000125e:    0046        F.      LSLS     r6,r0,#1
        0x00001260:    1986        ..      ADDS     r6,r0,r6
        0x00001262:    1936        6.      ADDS     r6,r6,r4
        0x00001264:    70b5        .p      STRB     r5,[r6,#2]
        0x00001266:    e00d        ..      B        0x1284 ; isBulletsHit + 104
        0x00001268:    2500        .%      MOVS     r5,#0
        0x0000126a:    0046        F.      LSLS     r6,r0,#1
        0x0000126c:    1986        ..      ADDS     r6,r0,r6
        0x0000126e:    1936        6.      ADDS     r6,r6,r4
        0x00001270:    70b5        .p      STRB     r5,[r6,#2]
        0x00001272:    25fd        .%      MOVS     r5,#0xfd
        0x00001274:    0046        F.      LSLS     r6,r0,#1
        0x00001276:    1986        ..      ADDS     r6,r0,r6
        0x00001278:    55a5        .U      STRB     r5,[r4,r6]
        0x0000127a:    25ef        .%      MOVS     r5,#0xef
        0x0000127c:    0046        F.      LSLS     r6,r0,#1
        0x0000127e:    1986        ..      ADDS     r6,r0,r6
        0x00001280:    1936        6.      ADDS     r6,r6,r4
        0x00001282:    7075        up      STRB     r5,[r6,#1]
        0x00001284:    bf00        ..      NOP      
        0x00001286:    1c40        @.      ADDS     r0,r0,#1
        0x00001288:    4903        .I      LDR      r1,[pc,#12] ; [0x1298] = 0x17e4
        0x0000128a:    7809        .x      LDRB     r1,[r1,#0]
        0x0000128c:    4288        .B      CMP      r0,r1
        0x0000128e:    dbca        ..      BLT      0x1226 ; isBulletsHit + 10
        0x00001290:    bc70        p.      POP      {r4-r6}
        0x00001292:    bc08        ..      POP      {r3}
        0x00001294:    b004        ..      ADD      sp,sp,#0x10
        0x00001296:    4718        .G      BX       r3
    $d
        0x00001298:    000017e4    ....    DCD    6116
    $t
    i.isEnemyPlaneHit
    isEnemyPlaneHit
        0x0000129c:    b40f        ..      PUSH     {r0-r3}
        0x0000129e:    b5f8        ..      PUSH     {r3-r7,lr}
        0x000012a0:    4605        .F      MOV      r5,r0
        0x000012a2:    2400        .$      MOVS     r4,#0
        0x000012a4:    e046        F.      B        0x1334 ; isEnemyPlaneHit + 152
        0x000012a6:    00a0        ..      LSLS     r0,r4,#2
        0x000012a8:    1940        @.      ADDS     r0,r0,r5
        0x000012aa:    7880        .x      LDRB     r0,[r0,#2]
        0x000012ac:    2800        .(      CMP      r0,#0
        0x000012ae:    d040        @.      BEQ      0x1332 ; isEnemyPlaneHit + 150
        0x000012b0:    00a0        ..      LSLS     r0,r4,#2
        0x000012b2:    5c28        (\      LDRB     r0,[r5,r0]
        0x000012b4:    10c7        ..      ASRS     r7,r0,#3
        0x000012b6:    00a0        ..      LSLS     r0,r4,#2
        0x000012b8:    1940        @.      ADDS     r0,r0,r5
        0x000012ba:    7840        @x      LDRB     r0,[r0,#1]
        0x000012bc:    10c6        ..      ASRS     r6,r0,#3
        0x000012be:    00b0        ..      LSLS     r0,r6,#2
        0x000012c0:    a907        ..      ADD      r1,sp,#0x1c
        0x000012c2:    5808        .X      LDR      r0,[r1,r0]
        0x000012c4:    2101        .!      MOVS     r1,#1
        0x000012c6:    40b9        .@      LSLS     r1,r1,r7
        0x000012c8:    4008        .@      ANDS     r0,r0,r1
        0x000012ca:    00b1        ..      LSLS     r1,r6,#2
        0x000012cc:    aa07        ..      ADD      r2,sp,#0x1c
        0x000012ce:    5851        QX      LDR      r1,[r2,r1]
        0x000012d0:    1c7a        z.      ADDS     r2,r7,#1
        0x000012d2:    2301        .#      MOVS     r3,#1
        0x000012d4:    4093        .@      LSLS     r3,r3,r2
        0x000012d6:    4019        .@      ANDS     r1,r1,r3
        0x000012d8:    4308        .C      ORRS     r0,r0,r1
        0x000012da:    1e71        q.      SUBS     r1,r6,#1
        0x000012dc:    0089        ..      LSLS     r1,r1,#2
        0x000012de:    aa07        ..      ADD      r2,sp,#0x1c
        0x000012e0:    5851        QX      LDR      r1,[r2,r1]
        0x000012e2:    1c7a        z.      ADDS     r2,r7,#1
        0x000012e4:    2301        .#      MOVS     r3,#1
        0x000012e6:    4093        .@      LSLS     r3,r3,r2
        0x000012e8:    4019        .@      ANDS     r1,r1,r3
        0x000012ea:    4308        .C      ORRS     r0,r0,r1
        0x000012ec:    9000        ..      STR      r0,[sp,#0]
        0x000012ee:    9800        ..      LDR      r0,[sp,#0]
        0x000012f0:    2800        .(      CMP      r0,#0
        0x000012f2:    d106        ..      BNE      0x1302 ; isEnemyPlaneHit + 102
        0x000012f4:    00a0        ..      LSLS     r0,r4,#2
        0x000012f6:    1940        @.      ADDS     r0,r0,r5
        0x000012f8:    7880        .x      LDRB     r0,[r0,#2]
        0x000012fa:    00a1        ..      LSLS     r1,r4,#2
        0x000012fc:    1949        I.      ADDS     r1,r1,r5
        0x000012fe:    7088        .p      STRB     r0,[r1,#2]
        0x00001300:    e016        ..      B        0x1330 ; isEnemyPlaneHit + 148
        0x00001302:    00a2        ..      LSLS     r2,r4,#2
        0x00001304:    1952        R.      ADDS     r2,r2,r5
        0x00001306:    7851        Qx      LDRB     r1,[r2,#1]
        0x00001308:    00a2        ..      LSLS     r2,r4,#2
        0x0000130a:    5ca8        .\      LDRB     r0,[r5,r2]
        0x0000130c:    f7fffd80    ....    BL       boomDraw ; 0xe10
        0x00001310:    2000        .       MOVS     r0,#0
        0x00001312:    00a1        ..      LSLS     r1,r4,#2
        0x00001314:    1949        I.      ADDS     r1,r1,r5
        0x00001316:    7088        .p      STRB     r0,[r1,#2]
        0x00001318:    20fd        .       MOVS     r0,#0xfd
        0x0000131a:    00a1        ..      LSLS     r1,r4,#2
        0x0000131c:    5468        hT      STRB     r0,[r5,r1]
        0x0000131e:    20ef        .       MOVS     r0,#0xef
        0x00001320:    00a1        ..      LSLS     r1,r4,#2
        0x00001322:    1949        I.      ADDS     r1,r1,r5
        0x00001324:    7048        Hp      STRB     r0,[r1,#1]
        0x00001326:    4807        .H      LDR      r0,[pc,#28] ; [0x1344] = 0x20000adc
        0x00001328:    6800        .h      LDR      r0,[r0,#0]
        0x0000132a:    300a        .0      ADDS     r0,r0,#0xa
        0x0000132c:    4905        .I      LDR      r1,[pc,#20] ; [0x1344] = 0x20000adc
        0x0000132e:    6008        .`      STR      r0,[r1,#0]
        0x00001330:    bf00        ..      NOP      
        0x00001332:    1c64        d.      ADDS     r4,r4,#1
        0x00001334:    4804        .H      LDR      r0,[pc,#16] ; [0x1348] = 0x17e5
        0x00001336:    7800        .x      LDRB     r0,[r0,#0]
        0x00001338:    4284        .B      CMP      r4,r0
        0x0000133a:    dbb4        ..      BLT      0x12a6 ; isEnemyPlaneHit + 10
        0x0000133c:    bcf8        ..      POP      {r3-r7}
        0x0000133e:    bc08        ..      POP      {r3}
        0x00001340:    b004        ..      ADD      sp,sp,#0x10
        0x00001342:    4718        .G      BX       r3
    $d
        0x00001344:    20000adc    ...     DCD    536873692
        0x00001348:    000017e5    ....    DCD    6117
    $t
    i.isMyPlaneHit
    isMyPlaneHit
        0x0000134c:    b5f8        ..      PUSH     {r3-r7,lr}
        0x0000134e:    4604        .F      MOV      r4,r0
        0x00001350:    460f        .F      MOV      r7,r1
        0x00001352:    4639        9F      MOV      r1,r7
        0x00001354:    481e        .H      LDR      r0,[pc,#120] ; [0x13d0] = 0x20000c00
        0x00001356:    f7fffe53    ..S.    BL       enemyMapCreate ; 0x1000
        0x0000135a:    7820         x      LDRB     r0,[r4,#0]
        0x0000135c:    10c6        ..      ASRS     r6,r0,#3
        0x0000135e:    7860        `x      LDRB     r0,[r4,#1]
        0x00001360:    10c5        ..      ASRS     r5,r0,#3
        0x00001362:    00a8        ..      LSLS     r0,r5,#2
        0x00001364:    5838        8X      LDR      r0,[r7,r0]
        0x00001366:    2101        .!      MOVS     r1,#1
        0x00001368:    40b1        .@      LSLS     r1,r1,r6
        0x0000136a:    4008        .@      ANDS     r0,r0,r1
        0x0000136c:    00a9        ..      LSLS     r1,r5,#2
        0x0000136e:    5879        yX      LDR      r1,[r7,r1]
        0x00001370:    1c72        r.      ADDS     r2,r6,#1
        0x00001372:    2301        .#      MOVS     r3,#1
        0x00001374:    4093        .@      LSLS     r3,r3,r2
        0x00001376:    4019        .@      ANDS     r1,r1,r3
        0x00001378:    4308        .C      ORRS     r0,r0,r1
        0x0000137a:    00a9        ..      LSLS     r1,r5,#2
        0x0000137c:    5879        yX      LDR      r1,[r7,r1]
        0x0000137e:    1cb2        ..      ADDS     r2,r6,#2
        0x00001380:    2301        .#      MOVS     r3,#1
        0x00001382:    4093        .@      LSLS     r3,r3,r2
        0x00001384:    4019        .@      ANDS     r1,r1,r3
        0x00001386:    4308        .C      ORRS     r0,r0,r1
        0x00001388:    1c69        i.      ADDS     r1,r5,#1
        0x0000138a:    0089        ..      LSLS     r1,r1,#2
        0x0000138c:    5879        yX      LDR      r1,[r7,r1]
        0x0000138e:    2201        ."      MOVS     r2,#1
        0x00001390:    40b2        .@      LSLS     r2,r2,r6
        0x00001392:    4011        .@      ANDS     r1,r1,r2
        0x00001394:    4308        .C      ORRS     r0,r0,r1
        0x00001396:    1c69        i.      ADDS     r1,r5,#1
        0x00001398:    0089        ..      LSLS     r1,r1,#2
        0x0000139a:    5879        yX      LDR      r1,[r7,r1]
        0x0000139c:    1c72        r.      ADDS     r2,r6,#1
        0x0000139e:    2301        .#      MOVS     r3,#1
        0x000013a0:    4093        .@      LSLS     r3,r3,r2
        0x000013a2:    4019        .@      ANDS     r1,r1,r3
        0x000013a4:    4308        .C      ORRS     r0,r0,r1
        0x000013a6:    9000        ..      STR      r0,[sp,#0]
        0x000013a8:    9800        ..      LDR      r0,[sp,#0]
        0x000013aa:    2800        .(      CMP      r0,#0
        0x000013ac:    d103        ..      BNE      0x13b6 ; isMyPlaneHit + 106
        0x000013ae:    78a0        .x      LDRB     r0,[r4,#2]
        0x000013b0:    70a0        .p      STRB     r0,[r4,#2]
        0x000013b2:    2000        .       MOVS     r0,#0
        0x000013b4:    bdf8        ..      POP      {r3-r7,pc}
        0x000013b6:    4a07        .J      LDR      r2,[pc,#28] ; [0x13d4] = 0x20000ad6
        0x000013b8:    7851        Qx      LDRB     r1,[r2,#1]
        0x000013ba:    7810        .x      LDRB     r0,[r2,#0]
        0x000013bc:    f7fffd28    ..(.    BL       boomDraw ; 0xe10
        0x000013c0:    20ff        .       MOVS     r0,#0xff
        0x000013c2:    7020         p      STRB     r0,[r4,#0]
        0x000013c4:    20ef        .       MOVS     r0,#0xef
        0x000013c6:    7060        `p      STRB     r0,[r4,#1]
        0x000013c8:    2000        .       MOVS     r0,#0
        0x000013ca:    70a0        .p      STRB     r0,[r4,#2]
        0x000013cc:    2001        .       MOVS     r0,#1
        0x000013ce:    e7f1        ..      B        0x13b4 ; isMyPlaneHit + 104
    $d
        0x000013d0:    20000c00    ...     DCD    536873984
        0x000013d4:    20000ad6    ...     DCD    536873686
    $t
    i.main
    main
        0x000013d8:    b51f        ..      PUSH     {r0-r4,lr}
        0x000013da:    2400        .$      MOVS     r4,#0
        0x000013dc:    e008        ..      B        0x13f0 ; main + 24
        0x000013de:    2000        .       MOVS     r0,#0
        0x000013e0:    9000        ..      STR      r0,[sp,#0]
        0x000013e2:    b2e0        ..      UXTB     r0,r4
        0x000013e4:    231f        .#      MOVS     r3,#0x1f
        0x000013e6:    22f0        ."      MOVS     r2,#0xf0
        0x000013e8:    4611        .F      MOV      r1,r2
        0x000013ea:    f000f9e9    ....    BL       writeOneSprite ; 0x17c0
        0x000013ee:    1c64        d.      ADDS     r4,r4,#1
        0x000013f0:    2c40        @,      CMP      r4,#0x40
        0x000013f2:    dbf4        ..      BLT      0x13de ; main + 6
        0x000013f4:    f000f93a    ..:.    BL       myPlaneInit ; 0x166c
        0x000013f8:    f7fffd6c    ..l.    BL       bulletInit ; 0xed4
        0x000013fc:    f7fffe9e    ....    BL       enmeyPlaneInit ; 0x113c
        0x00001400:    2000        .       MOVS     r0,#0
        0x00001402:    9000        ..      STR      r0,[sp,#0]
        0x00001404:    9001        ..      STR      r0,[sp,#4]
        0x00001406:    9002        ..      STR      r0,[sp,#8]
        0x00001408:    2301        .#      MOVS     r3,#1
        0x0000140a:    461a        .F      MOV      r2,r3
        0x0000140c:    21ff        .!      MOVS     r1,#0xff
        0x0000140e:    31b3        .1      ADDS     r1,r1,#0xb3
        0x00001410:    9003        ..      STR      r0,[sp,#0xc]
        0x00001412:    0748        H.      LSLS     r0,r1,#29
        0x00001414:    f000f97d    ..}.    BL       uart_init ; 0x1712
        0x00001418:    2064        d       MOVS     r0,#0x64
        0x0000141a:    f7fffbe7    ....    BL       SPI_Init ; 0xbec
        0x0000141e:    f7feffe3    ....    BL       LCD_Init ; 0x3e8
        0x00001422:    200f        .       MOVS     r0,#0xf
        0x00001424:    f7feff3a    ..:.    BL       KEY_INIT ; 0x29c
        0x00001428:    2003        .       MOVS     r0,#3
        0x0000142a:    f7fffbc9    ....    BL       NVIC_EnableIRQ ; 0xbc0
        0x0000142e:    2004        .       MOVS     r0,#4
        0x00001430:    f7fffbc6    ....    BL       NVIC_EnableIRQ ; 0xbc0
        0x00001434:    2005        .       MOVS     r0,#5
        0x00001436:    f7fffbc3    ....    BL       NVIC_EnableIRQ ; 0xbc0
        0x0000143a:    2006        .       MOVS     r0,#6
        0x0000143c:    f7fffbc0    ....    BL       NVIC_EnableIRQ ; 0xbc0
        0x00001440:    2201        ."      MOVS     r2,#1
        0x00001442:    2100        .!      MOVS     r1,#0
        0x00001444:    4808        .H      LDR      r0,[pc,#32] ; [0x1468] = 0x7a120
        0x00001446:    f7fffc07    ....    BL       TIMER_Init ; 0xc58
        0x0000144a:    2500        .%      MOVS     r5,#0
        0x0000144c:    2001        .       MOVS     r0,#1
        0x0000144e:    0300        ..      LSLS     r0,r0,#12
        0x00001450:    f000f928    ..(.    BL       mymalloc ; 0x16a4
        0x00001454:    4605        .F      MOV      r5,r0
        0x00001456:    4628        (F      MOV      r0,r5
        0x00001458:    f000f914    ....    BL       myfree ; 0x1684
        0x0000145c:    4803        .H      LDR      r0,[pc,#12] ; [0x146c] = 0x5458
        0x0000145e:    f7feff23    ..#.    BL       LCD_Clear ; 0x2a8
        0x00001462:    bf00        ..      NOP      
        0x00001464:    bf00        ..      NOP      
        0x00001466:    e7fe        ..      B        0x1466 ; main + 142
    $d
        0x00001468:    0007a120     ...    DCD    500000
        0x0000146c:    00005458    XT..    DCD    21592
    $t
    i.mem_free
    mem_free
        0x00001470:    b570        p.      PUSH     {r4-r6,lr}
        0x00001472:    4605        .F      MOV      r5,r0
        0x00001474:    4810        .H      LDR      r0,[pc,#64] ; [0x14b8] = 0x20000aec
        0x00001476:    7c00        .|      LDRB     r0,[r0,#0x10]
        0x00001478:    2800        .(      CMP      r0,#0
        0x0000147a:    d104        ..      BNE      0x1486 ; mem_free + 22
        0x0000147c:    490e        .I      LDR      r1,[pc,#56] ; [0x14b8] = 0x20000aec
        0x0000147e:    6808        .h      LDR      r0,[r1,#0]
        0x00001480:    4780        .G      BLX      r0
        0x00001482:    2001        .       MOVS     r0,#1
        0x00001484:    bd70        p.      POP      {r4-r6,pc}
        0x00001486:    2001        .       MOVS     r0,#1
        0x00001488:    0300        ..      LSLS     r0,r0,#12
        0x0000148a:    4285        .B      CMP      r5,r0
        0x0000148c:    d211        ..      BCS      0x14b2 ; mem_free + 66
        0x0000148e:    0969        i.      LSRS     r1,r5,#5
        0x00001490:    4809        .H      LDR      r0,[pc,#36] ; [0x14b8] = 0x20000aec
        0x00001492:    68c0        .h      LDR      r0,[r0,#0xc]
        0x00001494:    004b        K.      LSLS     r3,r1,#1
        0x00001496:    5ac2        .Z      LDRH     r2,[r0,r3]
        0x00001498:    2400        .$      MOVS     r4,#0
        0x0000149a:    e006        ..      B        0x14aa ; mem_free + 58
        0x0000149c:    2000        .       MOVS     r0,#0
        0x0000149e:    4b06        .K      LDR      r3,[pc,#24] ; [0x14b8] = 0x20000aec
        0x000014a0:    68db        .h      LDR      r3,[r3,#0xc]
        0x000014a2:    190e        ..      ADDS     r6,r1,r4
        0x000014a4:    0076        v.      LSLS     r6,r6,#1
        0x000014a6:    5398        .S      STRH     r0,[r3,r6]
        0x000014a8:    1c64        d.      ADDS     r4,r4,#1
        0x000014aa:    4294        .B      CMP      r4,r2
        0x000014ac:    dbf6        ..      BLT      0x149c ; mem_free + 44
        0x000014ae:    2000        .       MOVS     r0,#0
        0x000014b0:    e7e8        ..      B        0x1484 ; mem_free + 20
        0x000014b2:    2002        .       MOVS     r0,#2
        0x000014b4:    e7e6        ..      B        0x1484 ; mem_free + 20
    $d
        0x000014b6:    0000        ..      DCW    0
        0x000014b8:    20000aec    ...     DCD    536873708
    $t
    i.mem_init
    mem_init
        0x000014bc:    b500        ..      PUSH     {lr}
        0x000014be:    4909        .I      LDR      r1,[pc,#36] ; [0x14e4] = 0x20000aec
        0x000014c0:    22ff        ."      MOVS     r2,#0xff
        0x000014c2:    3201        .2      ADDS     r2,#1
        0x000014c4:    68c8        .h      LDR      r0,[r1,#0xc]
        0x000014c6:    2100        .!      MOVS     r1,#0
        0x000014c8:    f000f8fc    ....    BL       mymemset ; 0x16c4
        0x000014cc:    4905        .I      LDR      r1,[pc,#20] ; [0x14e4] = 0x20000aec
        0x000014ce:    2201        ."      MOVS     r2,#1
        0x000014d0:    0312        ..      LSLS     r2,r2,#12
        0x000014d2:    6888        .h      LDR      r0,[r1,#8]
        0x000014d4:    2100        .!      MOVS     r1,#0
        0x000014d6:    f000f8f5    ....    BL       mymemset ; 0x16c4
        0x000014da:    2001        .       MOVS     r0,#1
        0x000014dc:    4901        .I      LDR      r1,[pc,#4] ; [0x14e4] = 0x20000aec
        0x000014de:    7408        .t      STRB     r0,[r1,#0x10]
        0x000014e0:    bd00        ..      POP      {pc}
    $d
        0x000014e2:    0000        ..      DCW    0
        0x000014e4:    20000aec    ...     DCD    536873708
    $t
    i.mem_malloc
    mem_malloc
        0x000014e8:    b5f8        ..      PUSH     {r3-r7,lr}
        0x000014ea:    4606        .F      MOV      r6,r0
        0x000014ec:    2400        .$      MOVS     r4,#0
        0x000014ee:    2000        .       MOVS     r0,#0
        0x000014f0:    9000        ..      STR      r0,[sp,#0]
        0x000014f2:    481b        .H      LDR      r0,[pc,#108] ; [0x1560] = 0x20000aec
        0x000014f4:    7c00        .|      LDRB     r0,[r0,#0x10]
        0x000014f6:    2800        .(      CMP      r0,#0
        0x000014f8:    d102        ..      BNE      0x1500 ; mem_malloc + 24
        0x000014fa:    4919        .I      LDR      r1,[pc,#100] ; [0x1560] = 0x20000aec
        0x000014fc:    6808        .h      LDR      r0,[r1,#0]
        0x000014fe:    4780        .G      BLX      r0
        0x00001500:    2e00        ..      CMP      r6,#0
        0x00001502:    d101        ..      BNE      0x1508 ; mem_malloc + 32
        0x00001504:    1e70        p.      SUBS     r0,r6,#1
        0x00001506:    bdf8        ..      POP      {r3-r7,pc}
        0x00001508:    02f0        ..      LSLS     r0,r6,#11
        0x0000150a:    0c05        ..      LSRS     r5,r0,#16
        0x0000150c:    06f0        ..      LSLS     r0,r6,#27
        0x0000150e:    0ec0        ..      LSRS     r0,r0,#27
        0x00001510:    2800        .(      CMP      r0,#0
        0x00001512:    d001        ..      BEQ      0x1518 ; mem_malloc + 48
        0x00001514:    1c68        h.      ADDS     r0,r5,#1
        0x00001516:    b285        ..      UXTH     r5,r0
        0x00001518:    247f        .$      MOVS     r4,#0x7f
        0x0000151a:    e01c        ..      B        0x1556 ; mem_malloc + 110
        0x0000151c:    4810        .H      LDR      r0,[pc,#64] ; [0x1560] = 0x20000aec
        0x0000151e:    68c0        .h      LDR      r0,[r0,#0xc]
        0x00001520:    0061        a.      LSLS     r1,r4,#1
        0x00001522:    5a40        @Z      LDRH     r0,[r0,r1]
        0x00001524:    2800        .(      CMP      r0,#0
        0x00001526:    d104        ..      BNE      0x1532 ; mem_malloc + 74
        0x00001528:    9800        ..      LDR      r0,[sp,#0]
        0x0000152a:    1c40        @.      ADDS     r0,r0,#1
        0x0000152c:    b280        ..      UXTH     r0,r0
        0x0000152e:    9000        ..      STR      r0,[sp,#0]
        0x00001530:    e001        ..      B        0x1536 ; mem_malloc + 78
        0x00001532:    2000        .       MOVS     r0,#0
        0x00001534:    9000        ..      STR      r0,[sp,#0]
        0x00001536:    9800        ..      LDR      r0,[sp,#0]
        0x00001538:    42a8        .B      CMP      r0,r5
        0x0000153a:    d10b        ..      BNE      0x1554 ; mem_malloc + 108
        0x0000153c:    2700        .'      MOVS     r7,#0
        0x0000153e:    e005        ..      B        0x154c ; mem_malloc + 100
        0x00001540:    4807        .H      LDR      r0,[pc,#28] ; [0x1560] = 0x20000aec
        0x00001542:    68c0        .h      LDR      r0,[r0,#0xc]
        0x00001544:    19e1        ..      ADDS     r1,r4,r7
        0x00001546:    0049        I.      LSLS     r1,r1,#1
        0x00001548:    5245        ER      STRH     r5,[r0,r1]
        0x0000154a:    1c7f        ..      ADDS     r7,r7,#1
        0x0000154c:    42af        .B      CMP      r7,r5
        0x0000154e:    d3f7        ..      BCC      0x1540 ; mem_malloc + 88
        0x00001550:    0160        `.      LSLS     r0,r4,#5
        0x00001552:    e7d8        ..      B        0x1506 ; mem_malloc + 30
        0x00001554:    1e64        d.      SUBS     r4,r4,#1
        0x00001556:    2c00        .,      CMP      r4,#0
        0x00001558:    dae0        ..      BGE      0x151c ; mem_malloc + 52
        0x0000155a:    2000        .       MOVS     r0,#0
        0x0000155c:    43c0        .C      MVNS     r0,r0
        0x0000155e:    e7d2        ..      B        0x1506 ; mem_malloc + 30
    $d
        0x00001560:    20000aec    ...     DCD    536873708
    $t
    i.mem_perused
    mem_perused
        0x00001564:    2200        ."      MOVS     r2,#0
        0x00001566:    2100        .!      MOVS     r1,#0
        0x00001568:    e007        ..      B        0x157a ; mem_perused + 22
        0x0000156a:    4807        .H      LDR      r0,[pc,#28] ; [0x1588] = 0x20000aec
        0x0000156c:    68c0        .h      LDR      r0,[r0,#0xc]
        0x0000156e:    004b        K.      LSLS     r3,r1,#1
        0x00001570:    5ac0        .Z      LDRH     r0,[r0,r3]
        0x00001572:    2800        .(      CMP      r0,#0
        0x00001574:    d000        ..      BEQ      0x1578 ; mem_perused + 20
        0x00001576:    1c52        R.      ADDS     r2,r2,#1
        0x00001578:    1c49        I.      ADDS     r1,r1,#1
        0x0000157a:    2980        .)      CMP      r1,#0x80
        0x0000157c:    d3f5        ..      BCC      0x156a ; mem_perused + 6
        0x0000157e:    2064        d       MOVS     r0,#0x64
        0x00001580:    4350        PC      MULS     r0,r2,r0
        0x00001582:    0440        @.      LSLS     r0,r0,#17
        0x00001584:    0e00        ..      LSRS     r0,r0,#24
        0x00001586:    4770        pG      BX       lr
    $d
        0x00001588:    20000aec    ...     DCD    536873708
    $t
    i.myPlaneDraw
    myPlaneDraw
        0x0000158c:    b538        8.      PUSH     {r3-r5,lr}
        0x0000158e:    4604        .F      MOV      r4,r0
        0x00001590:    460d        .F      MOV      r5,r1
        0x00001592:    4835        5H      LDR      r0,[pc,#212] ; [0x1668] = 0x20000ad6
        0x00001594:    7880        .x      LDRB     r0,[r0,#2]
        0x00001596:    2800        .(      CMP      r0,#0
        0x00001598:    d033        3.      BEQ      0x1602 ; myPlaneDraw + 118
        0x0000159a:    2030        0       MOVS     r0,#0x30
        0x0000159c:    b2e1        ..      UXTB     r1,r4
        0x0000159e:    230a        .#      MOVS     r3,#0xa
        0x000015a0:    462a        *F      MOV      r2,r5
        0x000015a2:    9000        ..      STR      r0,[sp,#0]
        0x000015a4:    4618        .F      MOV      r0,r3
        0x000015a6:    f000f90b    ....    BL       writeOneSprite ; 0x17c0
        0x000015aa:    2030        0       MOVS     r0,#0x30
        0x000015ac:    9000        ..      STR      r0,[sp,#0]
        0x000015ae:    4620         F      MOV      r0,r4
        0x000015b0:    3008        .0      ADDS     r0,r0,#8
        0x000015b2:    b2c1        ..      UXTB     r1,r0
        0x000015b4:    230b        .#      MOVS     r3,#0xb
        0x000015b6:    462a        *F      MOV      r2,r5
        0x000015b8:    4618        .F      MOV      r0,r3
        0x000015ba:    f000f901    ....    BL       writeOneSprite ; 0x17c0
        0x000015be:    2070        p       MOVS     r0,#0x70
        0x000015c0:    9000        ..      STR      r0,[sp,#0]
        0x000015c2:    4620         F      MOV      r0,r4
        0x000015c4:    3010        .0      ADDS     r0,r0,#0x10
        0x000015c6:    b2c1        ..      UXTB     r1,r0
        0x000015c8:    230a        .#      MOVS     r3,#0xa
        0x000015ca:    462a        *F      MOV      r2,r5
        0x000015cc:    200c        .       MOVS     r0,#0xc
        0x000015ce:    f000f8f7    ....    BL       writeOneSprite ; 0x17c0
        0x000015d2:    2030        0       MOVS     r0,#0x30
        0x000015d4:    9000        ..      STR      r0,[sp,#0]
        0x000015d6:    4628        (F      MOV      r0,r5
        0x000015d8:    3008        .0      ADDS     r0,r0,#8
        0x000015da:    b2c2        ..      UXTB     r2,r0
        0x000015dc:    1d20         .      ADDS     r0,r4,#4
        0x000015de:    b2c1        ..      UXTB     r1,r0
        0x000015e0:    230c        .#      MOVS     r3,#0xc
        0x000015e2:    200d        .       MOVS     r0,#0xd
        0x000015e4:    f000f8ec    ....    BL       writeOneSprite ; 0x17c0
        0x000015e8:    2030        0       MOVS     r0,#0x30
        0x000015ea:    9000        ..      STR      r0,[sp,#0]
        0x000015ec:    4628        (F      MOV      r0,r5
        0x000015ee:    3008        .0      ADDS     r0,r0,#8
        0x000015f0:    b2c2        ..      UXTB     r2,r0
        0x000015f2:    4620         F      MOV      r0,r4
        0x000015f4:    300c        .0      ADDS     r0,r0,#0xc
        0x000015f6:    b2c1        ..      UXTB     r1,r0
        0x000015f8:    230d        .#      MOVS     r3,#0xd
        0x000015fa:    200e        .       MOVS     r0,#0xe
        0x000015fc:    f000f8e0    ....    BL       writeOneSprite ; 0x17c0
        0x00001600:    e031        1.      B        0x1666 ; myPlaneDraw + 218
        0x00001602:    2010        .       MOVS     r0,#0x10
        0x00001604:    9000        ..      STR      r0,[sp,#0]
        0x00001606:    4620         F      MOV      r0,r4
        0x00001608:    3808        .8      SUBS     r0,r0,#8
        0x0000160a:    b2c1        ..      UXTB     r1,r0
        0x0000160c:    231f        .#      MOVS     r3,#0x1f
        0x0000160e:    462a        *F      MOV      r2,r5
        0x00001610:    200a        .       MOVS     r0,#0xa
        0x00001612:    f000f8d5    ....    BL       writeOneSprite ; 0x17c0
        0x00001616:    2010        .       MOVS     r0,#0x10
        0x00001618:    b2e1        ..      UXTB     r1,r4
        0x0000161a:    231f        .#      MOVS     r3,#0x1f
        0x0000161c:    462a        *F      MOV      r2,r5
        0x0000161e:    9000        ..      STR      r0,[sp,#0]
        0x00001620:    200b        .       MOVS     r0,#0xb
        0x00001622:    f000f8cd    ....    BL       writeOneSprite ; 0x17c0
        0x00001626:    2050        P       MOVS     r0,#0x50
        0x00001628:    9000        ..      STR      r0,[sp,#0]
        0x0000162a:    4620         F      MOV      r0,r4
        0x0000162c:    3008        .0      ADDS     r0,r0,#8
        0x0000162e:    b2c1        ..      UXTB     r1,r0
        0x00001630:    231f        .#      MOVS     r3,#0x1f
        0x00001632:    462a        *F      MOV      r2,r5
        0x00001634:    200c        .       MOVS     r0,#0xc
        0x00001636:    f000f8c3    ....    BL       writeOneSprite ; 0x17c0
        0x0000163a:    2010        .       MOVS     r0,#0x10
        0x0000163c:    9000        ..      STR      r0,[sp,#0]
        0x0000163e:    4628        (F      MOV      r0,r5
        0x00001640:    3008        .0      ADDS     r0,r0,#8
        0x00001642:    b2c2        ..      UXTB     r2,r0
        0x00001644:    1f20         .      SUBS     r0,r4,#4
        0x00001646:    b2c1        ..      UXTB     r1,r0
        0x00001648:    231f        .#      MOVS     r3,#0x1f
        0x0000164a:    200d        .       MOVS     r0,#0xd
        0x0000164c:    f000f8b8    ....    BL       writeOneSprite ; 0x17c0
        0x00001650:    2010        .       MOVS     r0,#0x10
        0x00001652:    9000        ..      STR      r0,[sp,#0]
        0x00001654:    4628        (F      MOV      r0,r5
        0x00001656:    3008        .0      ADDS     r0,r0,#8
        0x00001658:    b2c2        ..      UXTB     r2,r0
        0x0000165a:    1d20         .      ADDS     r0,r4,#4
        0x0000165c:    b2c1        ..      UXTB     r1,r0
        0x0000165e:    231f        .#      MOVS     r3,#0x1f
        0x00001660:    200e        .       MOVS     r0,#0xe
        0x00001662:    f000f8ad    ....    BL       writeOneSprite ; 0x17c0
        0x00001666:    bd38        8.      POP      {r3-r5,pc}
    $d
        0x00001668:    20000ad6    ...     DCD    536873686
    $t
    i.myPlaneInit
    myPlaneInit
        0x0000166c:    2078        x       MOVS     r0,#0x78
        0x0000166e:    4904        .I      LDR      r1,[pc,#16] ; [0x1680] = 0x20000ad6
        0x00001670:    7008        .p      STRB     r0,[r1,#0]
        0x00001672:    20b4        .       MOVS     r0,#0xb4
        0x00001674:    7048        Hp      STRB     r0,[r1,#1]
        0x00001676:    2001        .       MOVS     r0,#1
        0x00001678:    7088        .p      STRB     r0,[r1,#2]
        0x0000167a:    200f        .       MOVS     r0,#0xf
        0x0000167c:    70c8        .p      STRB     r0,[r1,#3]
        0x0000167e:    4770        pG      BX       lr
    $d
        0x00001680:    20000ad6    ...     DCD    536873686
    $t
    i.myfree
    myfree
        0x00001684:    b570        p.      PUSH     {r4-r6,lr}
        0x00001686:    4604        .F      MOV      r4,r0
        0x00001688:    2c00        .,      CMP      r4,#0
        0x0000168a:    d100        ..      BNE      0x168e ; myfree + 10
        0x0000168c:    bd70        p.      POP      {r4-r6,pc}
        0x0000168e:    4804        .H      LDR      r0,[pc,#16] ; [0x16a0] = 0x20000aec
        0x00001690:    6880        .h      LDR      r0,[r0,#8]
        0x00001692:    1a25        %.      SUBS     r5,r4,r0
        0x00001694:    4628        (F      MOV      r0,r5
        0x00001696:    f7fffeeb    ....    BL       mem_free ; 0x1470
        0x0000169a:    bf00        ..      NOP      
        0x0000169c:    e7f6        ..      B        0x168c ; myfree + 8
    $d
        0x0000169e:    0000        ..      DCW    0
        0x000016a0:    20000aec    ...     DCD    536873708
    $t
    i.mymalloc
    mymalloc
        0x000016a4:    b570        p.      PUSH     {r4-r6,lr}
        0x000016a6:    4605        .F      MOV      r5,r0
        0x000016a8:    4628        (F      MOV      r0,r5
        0x000016aa:    f7ffff1d    ....    BL       mem_malloc ; 0x14e8
        0x000016ae:    4604        .F      MOV      r4,r0
        0x000016b0:    1c60        `.      ADDS     r0,r4,#1
        0x000016b2:    2800        .(      CMP      r0,#0
        0x000016b4:    d100        ..      BNE      0x16b8 ; mymalloc + 20
        0x000016b6:    bd70        p.      POP      {r4-r6,pc}
        0x000016b8:    4801        .H      LDR      r0,[pc,#4] ; [0x16c0] = 0x20000aec
        0x000016ba:    6880        .h      LDR      r0,[r0,#8]
        0x000016bc:    1900        ..      ADDS     r0,r0,r4
        0x000016be:    e7fa        ..      B        0x16b6 ; mymalloc + 18
    $d
        0x000016c0:    20000aec    ...     DCD    536873708
    $t
    i.mymemset
    mymemset
        0x000016c4:    b530        0.      PUSH     {r4,r5,lr}
        0x000016c6:    4603        .F      MOV      r3,r0
        0x000016c8:    e001        ..      B        0x16ce ; mymemset + 10
        0x000016ca:    7019        .p      STRB     r1,[r3,#0]
        0x000016cc:    1c5b        [.      ADDS     r3,r3,#1
        0x000016ce:    4614        .F      MOV      r4,r2
        0x000016d0:    1e52        R.      SUBS     r2,r2,#1
        0x000016d2:    2c00        .,      CMP      r4,#0
        0x000016d4:    d1f9        ..      BNE      0x16ca ; mymemset + 6
        0x000016d6:    bd30        0.      POP      {r4,r5,pc}
    i.tileMap
    tileMap
        0x000016d8:    b5f0        ..      PUSH     {r4-r7,lr}
        0x000016da:    10c5        ..      ASRS     r5,r0,#3
        0x000016dc:    10cb        ..      ASRS     r3,r1,#3
        0x000016de:    2601        .&      MOVS     r6,#1
        0x000016e0:    40ae        .@      LSLS     r6,r6,r5
        0x000016e2:    4634        4F      MOV      r4,r6
        0x000016e4:    009e        ..      LSLS     r6,r3,#2
        0x000016e6:    5996        .Y      LDR      r6,[r2,r6]
        0x000016e8:    4326        &C      ORRS     r6,r6,r4
        0x000016ea:    009f        ..      LSLS     r7,r3,#2
        0x000016ec:    51d6        .Q      STR      r6,[r2,r7]
        0x000016ee:    bdf0        ..      POP      {r4-r7,pc}
    i.uart_ClearRxIRQ
    uart_ClearRxIRQ
        0x000016f0:    2102        .!      MOVS     r1,#2
        0x000016f2:    60c1        .`      STR      r1,[r0,#0xc]
        0x000016f4:    4770        pG      BX       lr
    i.uart_ClearTxIRQ
    uart_ClearTxIRQ
        0x000016f6:    2101        .!      MOVS     r1,#1
        0x000016f8:    60c1        .`      STR      r1,[r0,#0xc]
        0x000016fa:    4770        pG      BX       lr
    i.uart_SendChar
    uart_SendChar
        0x000016fc:    e005        ..      B        0x170a ; uart_SendChar + 14
        0x000016fe:    6842        Bh      LDR      r2,[r0,#4]
        0x00001700:    07d2        ..      LSLS     r2,r2,#31
        0x00001702:    0fd2        ..      LSRS     r2,r2,#31
        0x00001704:    2a00        .*      CMP      r2,#0
        0x00001706:    d100        ..      BNE      0x170a ; uart_SendChar + 14
        0x00001708:    e000        ..      B        0x170c ; uart_SendChar + 16
        0x0000170a:    e7f8        ..      B        0x16fe ; uart_SendChar + 2
        0x0000170c:    bf00        ..      NOP      
        0x0000170e:    6001        .`      STR      r1,[r0,#0]
        0x00001710:    4770        pG      BX       lr
    i.uart_init
    uart_init
        0x00001712:    b5f0        ..      PUSH     {r4-r7,lr}
        0x00001714:    4604        .F      MOV      r4,r0
        0x00001716:    9d05        ..      LDR      r5,[sp,#0x14]
        0x00001718:    2600        .&      MOVS     r6,#0
        0x0000171a:    2a00        .*      CMP      r2,#0
        0x0000171c:    d001        ..      BEQ      0x1722 ; uart_init + 16
        0x0000171e:    2001        .       MOVS     r0,#1
        0x00001720:    4306        .C      ORRS     r6,r6,r0
        0x00001722:    2b00        .+      CMP      r3,#0
        0x00001724:    d001        ..      BEQ      0x172a ; uart_init + 24
        0x00001726:    2002        .       MOVS     r0,#2
        0x00001728:    4306        .C      ORRS     r6,r6,r0
        0x0000172a:    2d00        .-      CMP      r5,#0
        0x0000172c:    d001        ..      BEQ      0x1732 ; uart_init + 32
        0x0000172e:    2004        .       MOVS     r0,#4
        0x00001730:    4306        .C      ORRS     r6,r6,r0
        0x00001732:    9806        ..      LDR      r0,[sp,#0x18]
        0x00001734:    2800        .(      CMP      r0,#0
        0x00001736:    d001        ..      BEQ      0x173c ; uart_init + 42
        0x00001738:    2008        .       MOVS     r0,#8
        0x0000173a:    4306        .C      ORRS     r6,r6,r0
        0x0000173c:    9807        ..      LDR      r0,[sp,#0x1c]
        0x0000173e:    2800        .(      CMP      r0,#0
        0x00001740:    d001        ..      BEQ      0x1746 ; uart_init + 52
        0x00001742:    2010        .       MOVS     r0,#0x10
        0x00001744:    4306        .C      ORRS     r6,r6,r0
        0x00001746:    9808        ..      LDR      r0,[sp,#0x20]
        0x00001748:    2800        .(      CMP      r0,#0
        0x0000174a:    d001        ..      BEQ      0x1750 ; uart_init + 62
        0x0000174c:    2020                MOVS     r0,#0x20
        0x0000174e:    4306        .C      ORRS     r6,r6,r0
        0x00001750:    2000        .       MOVS     r0,#0
        0x00001752:    60a0        .`      STR      r0,[r4,#8]
        0x00001754:    6121        !a      STR      r1,[r4,#0x10]
        0x00001756:    60a6        .`      STR      r6,[r4,#8]
        0x00001758:    6860        `h      LDR      r0,[r4,#4]
        0x0000175a:    270c        .'      MOVS     r7,#0xc
        0x0000175c:    4038        8@      ANDS     r0,r0,r7
        0x0000175e:    2800        .(      CMP      r0,#0
        0x00001760:    d001        ..      BEQ      0x1766 ; uart_init + 84
        0x00001762:    2001        .       MOVS     r0,#1
        0x00001764:    bdf0        ..      POP      {r4-r7,pc}
        0x00001766:    2000        .       MOVS     r0,#0
        0x00001768:    e7fc        ..      B        0x1764 ; uart_init + 82
        0x0000176a:    0000        ..      MOVS     r0,r0
    i.updateBulletData
    updateBulletData
        0x0000176c:    2000        .       MOVS     r0,#0
        0x0000176e:    e01d        ..      B        0x17ac ; updateBulletData + 64
        0x00001770:    0041        A.      LSLS     r1,r0,#1
        0x00001772:    1841        A.      ADDS     r1,r0,r1
        0x00001774:    4a10        .J      LDR      r2,[pc,#64] ; [0x17b8] = 0x20000b04
        0x00001776:    1889        ..      ADDS     r1,r1,r2
        0x00001778:    7889        .x      LDRB     r1,[r1,#2]
        0x0000177a:    2900        .)      CMP      r1,#0
        0x0000177c:    d015        ..      BEQ      0x17aa ; updateBulletData + 62
        0x0000177e:    0041        A.      LSLS     r1,r0,#1
        0x00001780:    1841        A.      ADDS     r1,r0,r1
        0x00001782:    1889        ..      ADDS     r1,r1,r2
        0x00001784:    7849        Ix      LDRB     r1,[r1,#1]
        0x00001786:    1e89        ..      SUBS     r1,r1,#2
        0x00001788:    0042        B.      LSLS     r2,r0,#1
        0x0000178a:    1882        ..      ADDS     r2,r0,r2
        0x0000178c:    4b0a        .K      LDR      r3,[pc,#40] ; [0x17b8] = 0x20000b04
        0x0000178e:    18d2        ..      ADDS     r2,r2,r3
        0x00001790:    7051        Qp      STRB     r1,[r2,#1]
        0x00001792:    0041        A.      LSLS     r1,r0,#1
        0x00001794:    1841        A.      ADDS     r1,r0,r1
        0x00001796:    461a        .F      MOV      r2,r3
        0x00001798:    1889        ..      ADDS     r1,r1,r2
        0x0000179a:    7849        Ix      LDRB     r1,[r1,#1]
        0x0000179c:    2905        .)      CMP      r1,#5
        0x0000179e:    da04        ..      BGE      0x17aa ; updateBulletData + 62
        0x000017a0:    2100        .!      MOVS     r1,#0
        0x000017a2:    0042        B.      LSLS     r2,r0,#1
        0x000017a4:    1882        ..      ADDS     r2,r0,r2
        0x000017a6:    18d2        ..      ADDS     r2,r2,r3
        0x000017a8:    7091        .p      STRB     r1,[r2,#2]
        0x000017aa:    1c40        @.      ADDS     r0,r0,#1
        0x000017ac:    4903        .I      LDR      r1,[pc,#12] ; [0x17bc] = 0x17e4
        0x000017ae:    7809        .x      LDRB     r1,[r1,#0]
        0x000017b0:    4288        .B      CMP      r0,r1
        0x000017b2:    dbdd        ..      BLT      0x1770 ; updateBulletData + 4
        0x000017b4:    4770        pG      BX       lr
    $d
        0x000017b6:    0000        ..      DCW    0
        0x000017b8:    20000b04    ...     DCD    536873732
        0x000017bc:    000017e4    ....    DCD    6116
    $t
    i.writeOneSprite
    writeOneSprite
        0x000017c0:    b570        p.      PUSH     {r4-r6,lr}
        0x000017c2:    9c04        ..      LDR      r4,[sp,#0x10]
        0x000017c4:    0085        ..      LSLS     r5,r0,#2
        0x000017c6:    4e06        .N      LDR      r6,[pc,#24] ; [0x17e0] = 0x50010000
        0x000017c8:    19ad        ..      ADDS     r5,r5,r6
        0x000017ca:    70e9        .p      STRB     r1,[r5,#3]
        0x000017cc:    0085        ..      LSLS     r5,r0,#2
        0x000017ce:    19ad        ..      ADDS     r5,r5,r6
        0x000017d0:    70aa        .p      STRB     r2,[r5,#2]
        0x000017d2:    0085        ..      LSLS     r5,r0,#2
        0x000017d4:    19ad        ..      ADDS     r5,r5,r6
        0x000017d6:    706b        kp      STRB     r3,[r5,#1]
        0x000017d8:    0085        ..      LSLS     r5,r0,#2
        0x000017da:    19ad        ..      ADDS     r5,r5,r6
        0x000017dc:    702c        ,p      STRB     r4,[r5,#0]
        0x000017de:    bd70        p.      POP      {r4-r6,pc}
    $d
        0x000017e0:    50010000    ...P    DCD    1342242816
    $d.realdata
    .constdata
    BULLET_NUMMAX
        0x000017e4:    03          .       DCB    3
    ENEMY_NUMMAX
        0x000017e5:    05          .       DCB    5
    .constdata
    asc2_1608
        0x000017e6:    0000        ..      DCW    0
        0x000017e8:    00000000    ....    DCD    0
        0x000017ec:    00000000    ....    DCD    0
        0x000017f0:    00000000    ....    DCD    0
        0x000017f4:    00000000    ....    DCD    0
        0x000017f8:    00000000    ....    DCD    0
        0x000017fc:    0c00cc1f    ....    DCD    201378847
        0x00001800:    00000000    ....    DCD    0
        0x00001804:    00000000    ....    DCD    0
        0x00001808:    00300008    ..0.    DCD    3145736
        0x0000180c:    00080060    `...    DCD    524384
        0x00001810:    00600030    0.`.    DCD    6291504
        0x00001814:    20020000    ...     DCD    537001984
        0x00001818:    201efc03    ...     DCD    538901507
        0x0000181c:    fc032002    . ..    DCD    4228063234
        0x00001820:    2002201e    . .     DCD    537010206
        0x00001824:    00000000    ....    DCD    0
        0x00001828:    0411180e    ....    DCD    68229134
        0x0000182c:    8410ff3f    ?...    DCD    2215706431
        0x00001830:    0000780c    .x..    DCD    30732
        0x00001834:    000f0000    ....    DCD    983040
        0x00001838:    380f8410    ...8    DCD    940540944
        0x0000183c:    7807c000    ...x    DCD    2013773824
        0x00001840:    78008418    ...x    DCD    2013299736
        0x00001844:    78000000    ...x    DCD    2013265920
        0x00001848:    c410840f    ....    DCD    3289416719
        0x0000184c:    980e2411    .$..    DCD    2551063569
        0x00001850:    8400e400    ....    DCD    2214650880
        0x00001854:    00080800    ....    DCD    526336
        0x00001858:    00700068    h.p.    DCD    7340136
        0x0000185c:    00000000    ....    DCD    0
        0x00001860:    00000000    ....    DCD    0
        0x00001864:    00000000    ....    DCD    0
        0x00001868:    00000000    ....    DCD    0
        0x0000186c:    1818e007    ....    DCD    404283399
        0x00001870:    02400420     .@.    DCD    37749792
        0x00001874:    00000000    ....    DCD    0
        0x00001878:    04200240    @. .    DCD    69206592
        0x0000187c:    e0071818    ....    DCD    3758561304
        0x00001880:    00000000    ....    DCD    0
        0x00001884:    40020000    ...@    DCD    1073872896
        0x00001888:    80014002    .@..    DCD    2147565570
        0x0000188c:    8001f00f    ....    DCD    2147610639
        0x00001890:    40024002    .@.@    DCD    1073889282
        0x00001894:    80000000    ....    DCD    2147483648
        0x00001898:    80008000    ....    DCD    2147516416
        0x0000189c:    8000f80f    ....    DCD    2147547151
        0x000018a0:    80008000    ....    DCD    2147516416
        0x000018a4:    01000000    ....    DCD    16777216
        0x000018a8:    0e000d00    ....    DCD    234884352
        0x000018ac:    00000000    ....    DCD    0
        0x000018b0:    00000000    ....    DCD    0
        0x000018b4:    00000000    ....    DCD    0
        0x000018b8:    80008000    ....    DCD    2147516416
        0x000018bc:    80008000    ....    DCD    2147516416
        0x000018c0:    80008000    ....    DCD    2147516416
        0x000018c4:    00008000    ....    DCD    32768
        0x000018c8:    0c000c00    ....    DCD    201329664
        0x000018cc:    00000000    ....    DCD    0
        0x000018d0:    00000000    ....    DCD    0
        0x000018d4:    00000000    ....    DCD    0
        0x000018d8:    18000600    ....    DCD    402654720
        0x000018dc:    80016000    .`..    DCD    2147573760
        0x000018e0:    00180006    ....    DCD    1572870
        0x000018e4:    00000020     ...    DCD    32
        0x000018e8:    0808f007    ....    DCD    134803463
        0x000018ec:    04100410    ....    DCD    68158480
        0x000018f0:    f0070808    ....    DCD    4026992648
        0x000018f4:    00000000    ....    DCD    0
        0x000018f8:    04080408    ....    DCD    67634184
        0x000018fc:    0400fc1f    ....    DCD    67173407
        0x00001900:    00000400    ....    DCD    1024
        0x00001904:    00000000    ....    DCD    0
        0x00001908:    14100c0e    ....    DCD    336595982
        0x0000190c:    44102410    .$.D    DCD    1141908496
        0x00001910:    0c0e8411    ....    DCD    202277905
        0x00001914:    00000000    ....    DCD    0
        0x00001918:    0410180c    ....    DCD    68163596
        0x0000191c:    04110411    ....    DCD    68224017
        0x00001920:    700c8812    ...p    DCD    1879869458
        0x00001924:    00000000    ....    DCD    0
        0x00001928:    2003e000    ...     DCD    537124864
        0x0000192c:    24082404    .$.$    DCD    604513284
        0x00001930:    2400fc1f    ...$    DCD    604044319
        0x00001934:    00000000    ....    DCD    0
        0x00001938:    8410981f    ....    DCD    2215680031
        0x0000193c:    04110411    ....    DCD    68224017
        0x00001940:    70108810    ...p    DCD    1880131600
        0x00001944:    00000000    ....    DCD    0
        0x00001948:    8808f007    ....    DCD    2282287111
        0x0000194c:    04110411    ....    DCD    68224017
        0x00001950:    70008818    ...p    DCD    1879083032
        0x00001954:    00000000    ....    DCD    0
        0x00001958:    0010001c    ....    DCD    1048604
        0x0000195c:    0013fc10    ....    DCD    1309712
        0x00001960:    0010001c    ....    DCD    1048604
        0x00001964:    00000000    ....    DCD    0
        0x00001968:    4411380e    .8.D    DCD    1141979150
        0x0000196c:    84108410    ....    DCD    2215674896
        0x00001970:    380e4411    .D.8    DCD    940459025
        0x00001974:    00000000    ....    DCD    0
        0x00001978:    8c080007    ....    DCD    2349334535
        0x0000197c:    44104410    .D.D    DCD    1141916688
        0x00001980:    f0078808    ....    DCD    4027025416
        0x00001984:    00000000    ....    DCD    0
        0x00001988:    00000000    ....    DCD    0
        0x0000198c:    0c030c03    ....    DCD    201526275
        0x00001990:    00000000    ....    DCD    0
        0x00001994:    00000000    ....    DCD    0
        0x00001998:    01000000    ....    DCD    16777216
        0x0000199c:    00000601    ....    DCD    1537
        0x000019a0:    00000000    ....    DCD    0
        0x000019a4:    00000000    ....    DCD    0
        0x000019a8:    40018000    ...@    DCD    1073840128
        0x000019ac:    10042002    . ..    DCD    268705794
        0x000019b0:    04100808    ....    DCD    68159496
        0x000019b4:    20020000    ...     DCD    537001984
        0x000019b8:    20022002    . .     DCD    537010178
        0x000019bc:    20022002    . .     DCD    537010178
        0x000019c0:    20022002    . .     DCD    537010178
        0x000019c4:    00000000    ....    DCD    0
        0x000019c8:    08080410    ....    DCD    134743056
        0x000019cc:    20021004    ...     DCD    537006084
        0x000019d0:    80004001    .@..    DCD    2147500033
        0x000019d4:    00000000    ....    DCD    0
        0x000019d8:    0012000e    ....    DCD    1179662
        0x000019dc:    6c100c10    ...l    DCD    1812990992
        0x000019e0:    000f8010    ....    DCD    1015824
        0x000019e4:    e0030000    ....    DCD    3758292992
        0x000019e8:    e413180c    ....    DCD    3826456588
        0x000019ec:    c4172414    .$..    DCD    3289850900
        0x000019f0:    d0072808    .(..    DCD    3490129928
        0x000019f4:    04000000    ....    DCD    67108864
        0x000019f8:    c4033c00    .<..    DCD    3288546304
        0x000019fc:    4007401c    .@.@    DCD    1074216988
        0x00001a00:    1c00e400    ....    DCD    469820416
        0x00001a04:    04100400    ....    DCD    68158464
        0x00001a08:    0411fc1f    ....    DCD    68287519
        0x00001a0c:    04110411    ....    DCD    68224017
        0x00001a10:    7000880e    ...p    DCD    1879083022
        0x00001a14:    e0030000    ....    DCD    3758292992
        0x00001a18:    0410180c    ....    DCD    68163596
        0x00001a1c:    04100410    ....    DCD    68158480
        0x00001a20:    101c0810    ....    DCD    270272528
        0x00001a24:    04100000    ....    DCD    68157440
        0x00001a28:    0410fc1f    ....    DCD    68221983
        0x00001a2c:    04100410    ....    DCD    68158480
        0x00001a30:    f0070808    ....    DCD    4026992648
        0x00001a34:    04100000    ....    DCD    68157440
        0x00001a38:    0411fc1f    ....    DCD    68287519
        0x00001a3c:    c4170411    ....    DCD    3289842705
        0x00001a40:    18080410    ....    DCD    403178512
        0x00001a44:    04100000    ....    DCD    68157440
        0x00001a48:    0411fc1f    ....    DCD    68287519
        0x00001a4c:    c0170011    ....    DCD    3222732817
        0x00001a50:    00080010    ....    DCD    524304
        0x00001a54:    e0030000    ....    DCD    3758292992
        0x00001a58:    0410180c    ....    DCD    68163596
        0x00001a5c:    44100410    ...D    DCD    1141900304
        0x00001a60:    4000781c    .x.@    DCD    1073772572
        0x00001a64:    04100000    ....    DCD    68157440
        0x00001a68:    8410fc1f    ....    DCD    2215705631
        0x00001a6c:    80008000    ....    DCD    2147516416
        0x00001a70:    fc1f8410    ....    DCD    4229923856
        0x00001a74:    00000410    ....    DCD    1040
        0x00001a78:    04100410    ....    DCD    68158480
        0x00001a7c:    0410fc1f    ....    DCD    68221983
        0x00001a80:    00000410    ....    DCD    1040
        0x00001a84:    03000000    ....    DCD    50331648
        0x00001a88:    01100100    ....    DCD    17826048
        0x00001a8c:    fe1f0110    ....    DCD    4263444752
        0x00001a90:    00100010    ....    DCD    1048592
        0x00001a94:    04100000    ....    DCD    68157440
        0x00001a98:    0411fc1f    ....    DCD    68287519
        0x00001a9c:    64148003    ...d    DCD    1679065091
        0x00001aa0:    04101c18    ....    DCD    68164632
        0x00001aa4:    04100000    ....    DCD    68157440
        0x00001aa8:    0410fc1f    ....    DCD    68221983
        0x00001aac:    04000400    ....    DCD    67109888
        0x00001ab0:    0c000400    ....    DCD    201327616
        0x00001ab4:    04100000    ....    DCD    68157440
        0x00001ab8:    001ffc1f    ....    DCD    2096159
        0x00001abc:    001ffc00    ....    DCD    2096128
        0x00001ac0:    0410fc1f    ....    DCD    68221983
        0x00001ac4:    04100000    ....    DCD    68157440
        0x00001ac8:    040cfc1f    ....    DCD    67959839
        0x00001acc:    e0000003    ....    DCD    3758096387
        0x00001ad0:    fc1f1810    ....    DCD    4229896208
        0x00001ad4:    f0070010    ....    DCD    4026990608
        0x00001ad8:    04100808    ....    DCD    68159496
        0x00001adc:    04100410    ....    DCD    68158480
        0x00001ae0:    f0070808    ....    DCD    4026992648
        0x00001ae4:    04100000    ....    DCD    68157440
        0x00001ae8:    8410fc1f    ....    DCD    2215705631
        0x00001aec:    80108010    ....    DCD    2148565008
        0x00001af0:    000f8010    ....    DCD    1015824
        0x00001af4:    f0070000    ....    DCD    4026990592
        0x00001af8:    24101808    ...$    DCD    605034504
        0x00001afc:    1c102410    .$..    DCD    470819856
        0x00001b00:    f2070a08    ....    DCD    4060547592
        0x00001b04:    04100000    ....    DCD    68157440
        0x00001b08:    0411fc1f    ....    DCD    68287519
        0x00001b0c:    c0110011    ....    DCD    3222339601
        0x00001b10:    0c0e3011    .0..    DCD    202256401
        0x00001b14:    00000400    ....    DCD    1024
        0x00001b18:    04111c0e    ....    DCD    68230158
        0x00001b1c:    84108410    ....    DCD    2215674896
        0x00001b20:    381c4410    .D.8    DCD    941376528
        0x00001b24:    00180000    ....    DCD    1572864
        0x00001b28:    04100010    ....    DCD    68157456
        0x00001b2c:    0410fc1f    ....    DCD    68221983
        0x00001b30:    00180010    ....    DCD    1572880
        0x00001b34:    00100000    ....    DCD    1048576
        0x00001b38:    0410f81f    ....    DCD    68220959
        0x00001b3c:    04000400    ....    DCD    67109888
        0x00001b40:    f81f0410    ....    DCD    4162782224
        0x00001b44:    00100010    ....    DCD    1048592
        0x00001b48:    e011001e    ....    DCD    3759210526
        0x00001b4c:    70001c00    ...p    DCD    1879055360
        0x00001b50:    001c8013    ....    DCD    1867795
        0x00001b54:    c01f0010    ....    DCD    3223257104
        0x00001b58:    e0003c10    .<..    DCD    3758111760
        0x00001b5c:    e000001f    ....    DCD    3758096415
        0x00001b60:    c01f3c10    .<..    DCD    3223272464
        0x00001b64:    04100000    ....    DCD    68157440
        0x00001b68:    34160c18    ...4    DCD    873860120
        0x00001b6c:    c001c001    ....    DCD    3221340161
        0x00001b70:    0c183416    .4..    DCD    202912790
        0x00001b74:    00100410    ....    DCD    1049616
        0x00001b78:    0413001c    ....    DCD    68354076
        0x00001b7c:    0413fc00    ....    DCD    68418560
        0x00001b80:    0010001c    ....    DCD    1048604
        0x00001b84:    04080000    ....    DCD    67633152
        0x00001b88:    64101c10    ...d    DCD    1678777360
        0x00001b8c:    04138410    ....    DCD    68387856
        0x00001b90:    1810041c    ....    DCD    403702812
        0x00001b94:    00000000    ....    DCD    0
        0x00001b98:    00000000    ....    DCD    0
        0x00001b9c:    0240fe7f    ..@.    DCD    37813887
        0x00001ba0:    02400240    @.@.    DCD    37749312
        0x00001ba4:    00000000    ....    DCD    0
        0x00001ba8:    000c0030    0...    DCD    786480
        0x00001bac:    60008003    ...`    DCD    1610645507
        0x00001bb0:    03001c00    ....    DCD    50338816
        0x00001bb4:    00000000    ....    DCD    0
        0x00001bb8:    02400240    @.@.    DCD    37749312
        0x00001bbc:    fe7f0240    @...    DCD    4269736512
        0x00001bc0:    00000000    ....    DCD    0
        0x00001bc4:    00000000    ....    DCD    0
        0x00001bc8:    00200000    .. .    DCD    2097152
        0x00001bcc:    00400040    @.@.    DCD    4194368
        0x00001bd0:    00200040    @. .    DCD    2097216
        0x00001bd4:    01000000    ....    DCD    16777216
        0x00001bd8:    01000100    ....    DCD    16777472
        0x00001bdc:    01000100    ....    DCD    16777472
        0x00001be0:    01000100    ....    DCD    16777472
        0x00001be4:    00000100    ....    DCD    256
        0x00001be8:    00400040    @.@.    DCD    4194368
        0x00001bec:    00000020     ...    DCD    32
        0x00001bf0:    00000000    ....    DCD    0
        0x00001bf4:    00000000    ....    DCD    0
        0x00001bf8:    24019800    ...$    DCD    604084224
        0x00001bfc:    44014401    .D.D    DCD    1140933633
        0x00001c00:    fc004401    .D..    DCD    4227875841
        0x00001c04:    00100400    ....    DCD    1049600
        0x00001c08:    8800fc1f    ....    DCD    2281765919
        0x00001c0c:    04010401    ....    DCD    67175425
        0x00001c10:    70008800    ...p    DCD    1879083008
        0x00001c14:    00000000    ....    DCD    0
        0x00001c18:    88007000    .p..    DCD    2281730048
        0x00001c1c:    04010401    ....    DCD    67175425
        0x00001c20:    88000401    ....    DCD    2281702401
        0x00001c24:    00000000    ....    DCD    0
        0x00001c28:    88007000    .p..    DCD    2281730048
        0x00001c2c:    04010401    ....    DCD    67175425
        0x00001c30:    fc1f0811    ....    DCD    4229892113
        0x00001c34:    00000400    ....    DCD    1024
        0x00001c38:    4401f800    ...D    DCD    1140979712
        0x00001c3c:    44014401    .D.D    DCD    1140933633
        0x00001c40:    c8004401    .D..    DCD    3355460609
        0x00001c44:    00000000    ....    DCD    0
        0x00001c48:    04010401    ....    DCD    67175425
        0x00001c4c:    0411fc0f    ....    DCD    68287503
        0x00001c50:    00110411    ....    DCD    1115153
        0x00001c54:    00000018    ....    DCD    24
        0x00001c58:    2901d600    ...)    DCD    687986176
        0x00001c5c:    29012901    .).)    DCD    687941889
        0x00001c60:    0601c901    ....    DCD    100780289
        0x00001c64:    04100000    ....    DCD    68157440
        0x00001c68:    8400fc1f    ....    DCD    2214657055
        0x00001c6c:    00010001    ....    DCD    65537
        0x00001c70:    fc000401    ....    DCD    4227859457
        0x00001c74:    00000400    ....    DCD    1024
        0x00001c78:    04190401    ....    DCD    68748289
        0x00001c7c:    0400fc19    ....    DCD    67173401
        0x00001c80:    00000400    ....    DCD    1024
        0x00001c84:    00000000    ....    DCD    0
        0x00001c88:    01000300    ....    DCD    16777984
        0x00001c8c:    01190101    ....    DCD    18415873
        0x00001c90:    0000fe19    ....    DCD    65049
        0x00001c94:    04100000    ....    DCD    68157440
        0x00001c98:    2400fc1f    ...$    DCD    604044319
        0x00001c9c:    b4014000    .@..    DCD    3019980800
        0x00001ca0:    04010c01    ....    DCD    67177473
        0x00001ca4:    00000000    ....    DCD    0
        0x00001ca8:    04100410    ....    DCD    68158480
        0x00001cac:    0400fc1f    ....    DCD    67173407
        0x00001cb0:    00000400    ....    DCD    1024
        0x00001cb4:    04010000    ....    DCD    67174400
        0x00001cb8:    0401fc01    ....    DCD    67238913
        0x00001cbc:    fc010001    ....    DCD    4227923969
        0x00001cc0:    00010401    ....    DCD    66561
        0x00001cc4:    0401fc00    ....    DCD    67238912
        0x00001cc8:    8400fc01    ....    DCD    2214657025
        0x00001ccc:    00010001    ....    DCD    65537
        0x00001cd0:    fc000401    ....    DCD    4227859457
        0x00001cd4:    00000400    ....    DCD    1024
        0x00001cd8:    0401f800    ....    DCD    67237888
        0x00001cdc:    04010401    ....    DCD    67175425
        0x00001ce0:    f8000401    ....    DCD    4160750593
        0x00001ce4:    01010000    ....    DCD    16842752
        0x00001ce8:    8500ff01    ....    DCD    2231435009
        0x00001cec:    04010401    ....    DCD    67175425
        0x00001cf0:    70008800    ...p    DCD    1879083008
        0x00001cf4:    00000000    ....    DCD    0
        0x00001cf8:    88007000    .p..    DCD    2281730048
        0x00001cfc:    04010401    ....    DCD    67175425
        0x00001d00:    ff010501    ....    DCD    4278256897
        0x00001d04:    04010100    ....    DCD    67174656
        0x00001d08:    fc010401    ....    DCD    4227924993
        0x00001d0c:    04018400    ....    DCD    67208192
        0x00001d10:    80010001    ....    DCD    2147549185
        0x00001d14:    00000000    ....    DCD    0
        0x00001d18:    2401cc00    ...$    DCD    604097536
        0x00001d1c:    24012401    .$.$    DCD    604054529
        0x00001d20:    98012401    .$..    DCD    2550211585
        0x00001d24:    00000000    ....    DCD    0
        0x00001d28:    00010001    ....    DCD    65537
        0x00001d2c:    0401f807    ....    DCD    67237895
        0x00001d30:    00000401    ....    DCD    1025
        0x00001d34:    00010000    ....    DCD    65536
        0x00001d38:    0400f801    ....    DCD    67172353
        0x00001d3c:    04000400    ....    DCD    67109888
        0x00001d40:    fc010801    ....    DCD    4227926017
        0x00001d44:    00010400    ....    DCD    66560
        0x00001d48:    70018001    ...p    DCD    1879146497
        0x00001d4c:    10000c00    ....    DCD    268438528
        0x00001d50:    80016001    .`..    DCD    2147573761
        0x00001d54:    f0010001    ....    DCD    4026597377
        0x00001d58:    30000c01    ...0    DCD    805309441
        0x00001d5c:    3000c001    ...0    DCD    805355521
        0x00001d60:    f0010c01    ....    DCD    4026600449
        0x00001d64:    00000001    ....    DCD    1
        0x00001d68:    8c010401    ....    DCD    2348876801
        0x00001d6c:    70017400    .t.p    DCD    1879143424
        0x00001d70:    04018c01    ....    DCD    67210241
        0x00001d74:    01010000    ....    DCD    16842752
        0x00001d78:    71018101    ...q    DCD    1895923969
        0x00001d7c:    18000e00    ....    DCD    402656768
        0x00001d80:    80016001    .`..    DCD    2147573761
        0x00001d84:    00000001    ....    DCD    1
        0x00001d88:    0c018401    ....    DCD    201425921
        0x00001d8c:    44013401    .4.D    DCD    1140929537
        0x00001d90:    0c018401    ....    DCD    201425921
        0x00001d94:    00000000    ....    DCD    0
        0x00001d98:    00000000    ....    DCD    0
        0x00001d9c:    00010000    ....    DCD    65536
        0x00001da0:    0240fc3e    >.@.    DCD    37813310
        0x00001da4:    00000240    @...    DCD    576
        0x00001da8:    00000000    ....    DCD    0
        0x00001dac:    ffff0000    ....    DCD    4294901760
        0x00001db0:    00000000    ....    DCD    0
        0x00001db4:    00000000    ....    DCD    0
        0x00001db8:    02400240    @.@.    DCD    37749312
        0x00001dbc:    0001fc3e    >...    DCD    130110
        0x00001dc0:    00000000    ....    DCD    0
        0x00001dc4:    00000000    ....    DCD    0
        0x00001dc8:    00800060    `...    DCD    8388704
        0x00001dcc:    00400080    ..@.    DCD    4194432
        0x00001dd0:    00200040    @. .    DCD    2097216
        0x00001dd4:    00000020     ...    DCD    32
    Region$$Table$$Base
        0x00001dd8:    00001df8    ....    DCD    7672
        0x00001ddc:    20000000    ...     DCD    536870912
        0x00001de0:    00000b04    ....    DCD    2820
        0x00001de4:    000001d0    ....    DCD    464
        0x00001de8:    00002288    ."..    DCD    8840
        0x00001dec:    20000b04    ...     DCD    536873732
        0x00001df0:    0000169c    ....    DCD    5788
        0x00001df4:    00000de4    ....    DCD    3556
    Region$$Table$$Limit

====================================

** Section #2

    Name        : RW_IRAM1
    Type        : SHT_PROGBITS (0x00000001)
    Flags       : SHF_ALLOC + SHF_WRITE (0x00000003)
    Addr        : 0x20000000
    File Offset : 7724 (0x1e2c)
    Size        : 1168 bytes (0x490)
    Link        : SHN_UNDEF
    Info        : 0
    Alignment   : 4
    Entry Size  : 0


====================================

** Section #3

    Name        : RW_IRAM1
    Type        : SHT_NOBITS (0x00000008)
    Flags       : SHF_ALLOC + SHF_WRITE (0x00000003)
    Addr        : 0x20000b04
    File Offset : 8892 (0x22bc)
    Size        : 5788 bytes (0x169c)
    Link        : SHN_UNDEF
    Info        : 0
    Alignment   : 8
    Entry Size  : 0


====================================

** Section #4

    Name        : .debug_abbrev
    Type        : SHT_PROGBITS (0x00000001)
    Flags       : None (0x00000000)
    Addr        : 0x00000000
    File Offset : 8892 (0x22bc)
    Size        : 1476 bytes (0x5c4)
    Link        : SHN_UNDEF
    Info        : 0
    Alignment   : 1
    Entry Size  : 0


====================================

** Section #5

    Name        : .debug_frame
    Type        : SHT_PROGBITS (0x00000001)
    Flags       : None (0x00000000)
    Addr        : 0x00000000
    File Offset : 10368 (0x2880)
    Size        : 2864 bytes (0xb30)
    Link        : SHN_UNDEF
    Info        : 0
    Alignment   : 1
    Entry Size  : 0


====================================

** Section #6

    Name        : .debug_info
    Type        : SHT_PROGBITS (0x00000001)
    Flags       : None (0x00000000)
    Addr        : 0x00000000
    File Offset : 13232 (0x33b0)
    Size        : 25376 bytes (0x6320)
    Link        : SHN_UNDEF
    Info        : 0
    Alignment   : 1
    Entry Size  : 0


====================================

** Section #7

    Name        : .debug_line
    Type        : SHT_PROGBITS (0x00000001)
    Flags       : None (0x00000000)
    Addr        : 0x00000000
    File Offset : 38608 (0x96d0)
    Size        : 10652 bytes (0x299c)
    Link        : SHN_UNDEF
    Info        : 0
    Alignment   : 1
    Entry Size  : 0


====================================

** Section #8

    Name        : .debug_loc
    Type        : SHT_PROGBITS (0x00000001)
    Flags       : None (0x00000000)
    Addr        : 0x00000000
    File Offset : 49260 (0xc06c)
    Size        : 5296 bytes (0x14b0)
    Link        : SHN_UNDEF
    Info        : 0
    Alignment   : 1
    Entry Size  : 0


====================================

** Section #9

    Name        : .debug_macinfo
    Type        : SHT_PROGBITS (0x00000001)
    Flags       : None (0x00000000)
    Addr        : 0x00000000
    File Offset : 54556 (0xd51c)
    Size        : 9912 bytes (0x26b8)
    Link        : SHN_UNDEF
    Info        : 0
    Alignment   : 1
    Entry Size  : 0


====================================

** Section #10

    Name        : .debug_pubnames
    Type        : SHT_PROGBITS (0x00000001)
    Flags       : None (0x00000000)
    Addr        : 0x00000000
    File Offset : 64468 (0xfbd4)
    Size        : 3117 bytes (0xc2d)
    Link        : SHN_UNDEF
    Info        : 0
    Alignment   : 1
    Entry Size  : 0


====================================

** Section #11

    Name        : .symtab
    Type        : SHT_SYMTAB (0x00000002)
    Flags       : None (0x00000000)
    Addr        : 0x00000000
    File Offset : 67588 (0x10804)
    Size        : 6960 bytes (0x1b30)
    Link        : Section 12 (.strtab)
    Info        : Last local symbol no = 287
    Alignment   : 4
    Entry Size  : 16


====================================

** Section #12

    Name        : .strtab
    Type        : SHT_STRTAB (0x00000003)
    Flags       : None (0x00000000)
    Addr        : 0x00000000
    File Offset : 74548 (0x12334)
    Size        : 4384 bytes (0x1120)
    Link        : SHN_UNDEF
    Info        : 0
    Alignment   : 1
    Entry Size  : 0


====================================

** Section #13

    Name        : .note
    Type        : SHT_NOTE (0x00000007)
    Flags       : None (0x00000000)
    Addr        : 0x00000000
    File Offset : 78932 (0x13454)
    Size        : 28 bytes (0x1c)
    Link        : SHN_UNDEF
    Info        : 0
    Alignment   : 4
    Entry Size  : 0

        Section     Segment
    ====================================

              1           0
              2           0
              3           0

====================================

** Section #14

    Name        : .comment
    Type        : SHT_PROGBITS (0x00000001)
    Flags       : None (0x00000000)
    Addr        : 0x00000000
    File Offset : 78960 (0x13470)
    Size        : 10792 bytes (0x2a28)
    Link        : SHN_UNDEF
    Info        : 0
    Alignment   : 1
    Entry Size  : 0

    Component: ARM Compiler 5.06 update 6 (build 750) Tool: armlink [4d35ed]
    ArmLink --strict --library_type=microlib --callgraph --load_addr_map_info --map --symbols --xref --diag_suppress=9931 --cpu=Cortex-M0 --list=.\Listings\m0.map --output=.\Objects\m0.axf --scatter=.\Objects\m0.sct --info=summarysizes,sizes,totals,unused,veneers

    D:\Program Files\Keil_V5\ARM\ARMCC\Bin\..\lib\armlib\h_p.l
    D:\Program Files\Keil_V5\ARM\ARMCC\Bin\..\lib\armlib\m_ps.l
    D:\Program Files\Keil_V5\ARM\ARMCC\Bin\..\lib\armlib\mc_p.l
    D:\Program Files\Keil_V5\ARM\ARMCC\Bin\..\lib\armlib\mf_p.l
    D:\Program Files\Keil_V5\ARM\ARMCC\Bin\..\lib\armlib\vfpsupport.l
    Input Comments:
    
    main.o
    
    Component: ARM Compiler 5.06 update 6 (build 750) Tool: armlink [4d35ed]
    armlink --partial --no_add_relocs_to_undefined --no_generate_mapping_symbols --diag_suppress=9931,9931,6642 --cpu=Cortex-M0 --fpu=SoftVFP --output=.\objects\main.o --vfemode=force

    Input Comments:
    
    p3ca4-3
    
    Component: ARM Compiler 5.06 update 6 (build 750) Tool: armasm [4d35ec]
    armasm --debug --diag_suppress=9931,9931,1602,1073 --cpu=Cortex-M0 --fpu=SoftVFP --apcs=/interwork/interwork --no_divide 
    main.o
    
    Component: ARM Compiler 5.06 update 6 (build 750) Tool: ArmCC [4d3637]
    ArmCC --c99 --split_sections --debug -c --gnu -o.\objects\main.o --depend=.\objects\main.d --cpu=Cortex-M0 --apcs=interwork -O0 --diag_suppress=9931 -I..\CORE -I..\DEVICE -I..\USER -I.\RTE\_Target_1 -I"D:\Program Files\Keil_V5\Arm\Packs\Keil\V2M-MPS2_CMx_BSP\1.7.1\Device\CMSDK_CM0\Include" -I"D:\Program Files\Keil_V5\ARM\CMSIS\Include" -D__MICROLIB -D__UVISION_VERSION=528 -DCMSDK_CM0 --omf_browse=.\objects\main.crf main.c
    
    
    handler.o
    
    Component: ARM Compiler 5.06 update 6 (build 750) Tool: armlink [4d35ed]
    armlink --partial --no_add_relocs_to_undefined --no_generate_mapping_symbols --diag_suppress=9931,9931,6642 --cpu=Cortex-M0 --fpu=SoftVFP --output=.\objects\handler.o --vfemode=force

    Input Comments:
    
    p3840-3
    
    Component: ARM Compiler 5.06 update 6 (build 750) Tool: armasm [4d35ec]
    armasm --debug --diag_suppress=9931,9931,1602,1073 --cpu=Cortex-M0 --fpu=SoftVFP --apcs=/interwork/interwork --no_divide 
    handler.o
    
    Component: ARM Compiler 5.06 update 6 (build 750) Tool: ArmCC [4d3637]
    ArmCC --c99 --split_sections --debug -c --gnu -o.\objects\handler.o --depend=.\objects\handler.d --cpu=Cortex-M0 --apcs=interwork -O0 --diag_suppress=9931 -I..\CORE -I..\DEVICE -I..\USER -I.\RTE\_Target_1 -I"D:\Program Files\Keil_V5\Arm\Packs\Keil\V2M-MPS2_CMx_BSP\1.7.1\Device\CMSDK_CM0\Include" -I"D:\Program Files\Keil_V5\ARM\CMSIS\Include" -D__MICROLIB -D__UVISION_VERSION=528 -DCMSDK_CM0 --omf_browse=.\objects\handler.crf ..\CORE\handler.c
    
    
    
    
    startup_cm0ds.o
    
    Component: ARM Compiler 5.06 update 6 (build 750) Tool: armasm [4d35ec]
    ArmAsm --debug --xref --diag_suppress=9931 --cpu=Cortex-M0 --apcs=interwork --depend=.\objects\startup_cm0ds.d  -I.\RTE\_Target_1 -I"D:\Program Files\Keil_V5\Arm\Packs\Keil\V2M-MPS2_CMx_BSP\1.7.1\Device\CMSDK_CM0\Include" -I"D:\Program
    
    
    system.o
    
    Component: ARM Compiler 5.06 update 6 (build 750) Tool: armlink [4d35ed]
    armlink --partial --no_add_relocs_to_undefined --no_generate_mapping_symbols --diag_suppress=9931,9931,6642 --cpu=Cortex-M0 --fpu=SoftVFP --output=.\objects\system.o --vfemode=force

    Input Comments:
    
    p32b8-3
    
    Component: ARM Compiler 5.06 update 6 (build 750) Tool: armasm [4d35ec]
    armasm --debug --diag_suppress=9931,9931,1602,1073 --cpu=Cortex-M0 --fpu=SoftVFP --apcs=/interwork/interwork --no_divide 
    system.o
    
    Component: ARM Compiler 5.06 update 6 (build 750) Tool: ArmCC [4d3637]
    ArmCC --c99 --split_sections --debug -c --gnu -o.\objects\system.o --depend=.\objects\system.d --cpu=Cortex-M0 --apcs=interwork -O0 --diag_suppress=9931 -I..\CORE -I..\DEVICE -I..\USER -I.\RTE\_Target_1 -I"D:\Program Files\Keil_V5\Arm\Packs\Keil\V2M-MPS2_CMx_BSP\1.7.1\Device\CMSDK_CM0\Include" -I"D:\Program Files\Keil_V5\ARM\CMSIS\Include" -D__MICROLIB -D__UVISION_VERSION=528 -DCMSDK_CM0 --omf_browse=.\objects\system.crf ..\CORE\system.c
    
    
    camera.o
    
    Component: ARM Compiler 5.06 update 6 (build 750) Tool: ArmCC [4d3637]
    ArmCC --c99 --split_sections --debug -c --gnu -o.\objects\camera.o --depend=.\objects\camera.d --cpu=Cortex-M0 --apcs=interwork -O0 --diag_suppress=9931 -I..\CORE -I..\DEVICE -I..\USER -I.\RTE\_Target_1 -I"D:\Program Files\Keil_V5\Arm\Packs\Keil\V2M-MPS2_CMx_BSP\1.7.1\Device\CMSDK_CM0\Include" -I"D:\Program Files\Keil_V5\ARM\CMSIS\Include" -D__MICROLIB -D__UVISION_VERSION=528 -DCMSDK_CM0 --omf_browse=.\objects\camera.crf ..\DEVICE\camera.c
    
    key.o
    
    Component: ARM Compiler 5.06 update 6 (build 750) Tool: ArmCC [4d3637]
    ArmCC --c99 --split_sections --debug -c --gnu -o.\objects\key.o --depend=.\objects\key.d --cpu=Cortex-M0 --apcs=interwork -O0 --diag_suppress=9931 -I..\CORE -I..\DEVICE -I..\USER -I.\RTE\_Target_1 -I"D:\Program Files\Keil_V5\Arm\Packs\Keil\V2M-MPS2_CMx_BSP\1.7.1\Device\CMSDK_CM0\Include" -I"D:\Program Files\Keil_V5\ARM\CMSIS\Include" -D__MICROLIB -D__UVISION_VERSION=528 -DCMSDK_CM0 --omf_browse=.\objects\key.crf ..\DEVICE\key.c
    
    lcd.o
    
    Component: ARM Compiler 5.06 update 6 (build 750) Tool: ArmCC [4d3637]
    ArmCC --c99 --split_sections --debug -c --gnu -o.\objects\lcd.o --depend=.\objects\lcd.d --cpu=Cortex-M0 --apcs=interwork -O0 --diag_suppress=9931 -I..\CORE -I..\DEVICE -I..\USER -I.\RTE\_Target_1 -I"D:\Program Files\Keil_V5\Arm\Packs\Keil\V2M-MPS2_CMx_BSP\1.7.1\Device\CMSDK_CM0\Include" -I"D:\Program Files\Keil_V5\ARM\CMSIS\Include" -D__MICROLIB -D__UVISION_VERSION=528 -DCMSDK_CM0 --omf_browse=.\objects\lcd.crf ..\DEVICE\lcd.c
    
    led.o
    
    Component: ARM Compiler 5.06 update 6 (build 750) Tool: ArmCC [4d3637]
    ArmCC --c99 --split_sections --debug -c --gnu -o.\objects\led.o --depend=.\objects\led.d --cpu=Cortex-M0 --apcs=interwork -O0 --diag_suppress=9931 -I..\CORE -I..\DEVICE -I..\USER -I.\RTE\_Target_1 -I"D:\Program Files\Keil_V5\Arm\Packs\Keil\V2M-MPS2_CMx_BSP\1.7.1\Device\CMSDK_CM0\Include" -I"D:\Program Files\Keil_V5\ARM\CMSIS\Include" -D__MICROLIB -D__UVISION_VERSION=528 -DCMSDK_CM0 --omf_browse=.\objects\led.crf ..\DEVICE\led.c
    
    retarget.o
    
    Component: ARM Compiler 5.06 update 6 (build 750) Tool: ArmCC [4d3637]
    ArmCC --c99 --split_sections --debug -c --gnu -o.\objects\retarget.o --depend=.\objects\retarget.d --cpu=Cortex-M0 --apcs=interwork -O0 --diag_suppress=9931 -I..\CORE -I..\DEVICE -I..\USER -I.\RTE\_Target_1 -I"D:\Program Files\Keil_V5\Arm\Packs\Keil\V2M-MPS2_CMx_BSP\1.7.1\Device\CMSDK_CM0\Include" -I"D:\Program Files\Keil_V5\ARM\CMSIS\Include" -D__MICROLIB -D__UVISION_VERSION=528 -DCMSDK_CM0 --omf_browse=.\objects\retarget.crf ..\DEVICE\Retarget.c
    
    spi_flash.o
    
    Component: ARM Compiler 5.06 update 6 (build 750) Tool: ArmCC [4d3637]
    ArmCC --c99 --split_sections --debug -c --gnu -o.\objects\spi_flash.o --depend=.\objects\spi_flash.d --cpu=Cortex-M0 --apcs=interwork -O0 --diag_suppress=9931 -I..\CORE -I..\DEVICE -I..\USER -I.\RTE\_Target_1 -I"D:\Program Files\Keil_V5\Arm\Packs\Keil\V2M-MPS2_CMx_BSP\1.7.1\Device\CMSDK_CM0\Include" -I"D:\Program Files\Keil_V5\ARM\CMSIS\Include" -D__MICROLIB -D__UVISION_VERSION=528 -DCMSDK_CM0 --omf_browse=.\objects\spi_flash.crf ..\DEVICE\spi_flash.c
    
    systick.o
    
    Component: ARM Compiler 5.06 update 6 (build 750) Tool: armlink [4d35ed]
    armlink --partial --no_add_relocs_to_undefined --no_generate_mapping_symbols --diag_suppress=9931,9931,6642 --cpu=Cortex-M0 --fpu=SoftVFP --output=.\objects\systick.o --vfemode=force

    Input Comments:
    
    p4b24-3
    
    Component: ARM Compiler 5.06 update 6 (build 750) Tool: armasm [4d35ec]
    armasm --debug --diag_suppress=9931,9931,1602,1073 --cpu=Cortex-M0 --fpu=SoftVFP --apcs=/interwork/interwork --no_divide 
    systick.o
    
    Component: ARM Compiler 5.06 update 6 (build 750) Tool: ArmCC [4d3637]
    ArmCC --c99 --split_sections --debug -c --gnu -o.\objects\systick.o --depend=.\objects\systick.d --cpu=Cortex-M0 --apcs=interwork -O0 --diag_suppress=9931 -I..\CORE -I..\DEVICE -I..\USER -I.\RTE\_Target_1 -I"D:\Program Files\Keil_V5\Arm\Packs\Keil\V2M-MPS2_CMx_BSP\1.7.1\Device\CMSDK_CM0\Include" -I"D:\Program Files\Keil_V5\ARM\CMSIS\Include" -D__MICROLIB -D__UVISION_VERSION=528 -DCMSDK_CM0 --omf_browse=.\objects\systick.crf ..\DEVICE\systick.c
    
    
    timer.o
    
    Component: ARM Compiler 5.06 update 6 (build 750) Tool: ArmCC [4d3637]
    ArmCC --c99 --split_sections --debug -c --gnu -o.\objects\timer.o --depend=.\objects\timer.d --cpu=Cortex-M0 --apcs=interwork -O0 --diag_suppress=9931 -I..\CORE -I..\DEVICE -I..\USER -I.\RTE\_Target_1 -I"D:\Program Files\Keil_V5\Arm\Packs\Keil\V2M-MPS2_CMx_BSP\1.7.1\Device\CMSDK_CM0\Include" -I"D:\Program Files\Keil_V5\ARM\CMSIS\Include" -D__MICROLIB -D__UVISION_VERSION=528 -DCMSDK_CM0 --omf_browse=.\objects\timer.crf ..\DEVICE\timer.c
    
    uart.o
    
    Component: ARM Compiler 5.06 update 6 (build 750) Tool: ArmCC [4d3637]
    ArmCC --c99 --split_sections --debug -c --gnu -o.\objects\uart.o --depend=.\objects\uart.d --cpu=Cortex-M0 --apcs=interwork -O0 --diag_suppress=9931 -I..\CORE -I..\DEVICE -I..\USER -I.\RTE\_Target_1 -I"D:\Program Files\Keil_V5\Arm\Packs\Keil\V2M-MPS2_CMx_BSP\1.7.1\Device\CMSDK_CM0\Include" -I"D:\Program Files\Keil_V5\ARM\CMSIS\Include" -D__MICROLIB -D__UVISION_VERSION=528 -DCMSDK_CM0 --omf_browse=.\objects\uart.crf ..\DEVICE\uart.c
    
    malloc.o
    
    Component: ARM Compiler 5.06 update 6 (build 750) Tool: ArmCC [4d3637]
    ArmCC --c99 --split_sections --debug -c --gnu -o.\objects\malloc.o --depend=.\objects\malloc.d --cpu=Cortex-M0 --apcs=interwork -O0 --diag_suppress=9931 -I..\CORE -I..\DEVICE -I..\USER -I.\RTE\_Target_1 -I"D:\Program Files\Keil_V5\Arm\Packs\Keil\V2M-MPS2_CMx_BSP\1.7.1\Device\CMSDK_CM0\Include" -I"D:\Program Files\Keil_V5\ARM\CMSIS\Include" -D__MICROLIB -D__UVISION_VERSION=528 -DCMSDK_CM0 --omf_browse=.\objects\malloc.crf ..\DEVICE\malloc.c
    
    spriteram.o
    
    Component: ARM Compiler 5.06 update 6 (build 750) Tool: ArmCC [4d3637]
    ArmCC --c99 --split_sections --debug -c --gnu -o.\objects\spriteram.o --depend=.\objects\spriteram.d --cpu=Cortex-M0 --apcs=interwork -O0 --diag_suppress=9931 -I..\CORE -I..\DEVICE -I..\USER -I.\RTE\_Target_1 -I"D:\Program Files\Keil_V5\Arm\Packs\Keil\V2M-MPS2_CMx_BSP\1.7.1\Device\CMSDK_CM0\Include" -I"D:\Program Files\Keil_V5\ARM\CMSIS\Include" -D__MICROLIB -D__UVISION_VERSION=528 -DCMSDK_CM0 --omf_browse=.\objects\spriteram.crf ..\DEVICE\spriteRam.c
    
    mygame.o
    
    Component: ARM Compiler 5.06 update 6 (build 750) Tool: ArmCC [4d3637]
    ArmCC --c99 --split_sections --debug -c --gnu -o.\objects\mygame.o --depend=.\objects\mygame.d --cpu=Cortex-M0 --apcs=interwork -O0 --diag_suppress=9931 -I..\CORE -I..\DEVICE -I..\USER -I.\RTE\_Target_1 -I"D:\Program Files\Keil_V5\Arm\Packs\Keil\V2M-MPS2_CMx_BSP\1.7.1\Device\CMSDK_CM0\Include" -I"D:\Program Files\Keil_V5\ARM\CMSIS\Include" -D__MICROLIB -D__UVISION_VERSION=528 -DCMSDK_CM0 --omf_browse=.\objects\mygame.crf ..\DEVICE\myGame.c
    
    
    
    

====================================

** Section #15

    Name        : .shstrtab
    Type        : SHT_STRTAB (0x00000003)
    Flags       : None (0x00000000)
    Addr        : 0x00000000
    File Offset : 89752 (0x15e98)
    Size        : 156 bytes (0x9c)
    Link        : SHN_UNDEF
    Info        : 0
    Alignment   : 1
    Entry Size  : 0


====================================

