
========================================================================

** ELF Header Information

    File Name: .\Objects\m0.axf

    Machine class: ELFCLASS32 (32-bit)
    Data encoding: ELFDATA2LSB (Little endian)
    Header version: EV_CURRENT (Current version)
    Operating System ABI: none
    ABI Version: 0
    File Type: ET_EXEC (Executable) (2)
    Machine: EM_ARM (ARM)

    Image Entry point: 0x00000065
    Flags: EF_ARM_HASENTRY + EF_ARM_ABI_FLOAT_SOFT (0x05000202)

    ARM ELF revision: 5 (ABI version 2)

    Conforms to Soft float procedure-call standard

    Built with
    Component: ARM Compiler 5.06 update 6 (build 750) Tool: armasm [4d35ec]
    Component: ARM Compiler 5.06 update 6 (build 750) Tool: armlink [4d35ed]

    Header size: 52 bytes (0x34)
    Program header entry size: 32 bytes (0x20)
    Section header entry size: 40 bytes (0x28)

    Program header entries: 1
    Section header entries: 16

    Program header offset: 146244 (0x00023b44)
    Section header offset: 146276 (0x00023b64)

    Section header string table index: 15

========================================================================

** Program header #0

    Type          : PT_LOAD (1)
    File Offset   : 52 (0x34)
    Virtual Addr  : 0x00000000
    Physical Addr : 0x00000000
    Size in file  : 22700 bytes (0x58ac)
    Size in memory: 33636 bytes (0x8364)
    Flags         : PF_X + PF_W + PF_R + PF_ARM_ENTRY (0x80000007)
    Alignment     : 8


========================================================================

** Section #1

    Name        : ER_IROM1
    Type        : SHT_PROGBITS (0x00000001)
    Flags       : SHF_ALLOC + SHF_EXECINSTR (0x00000006)
    Addr        : 0x00000000
    File Offset : 52 (0x34)
    Size        : 20316 bytes (0x4f5c)
    Link        : SHN_UNDEF
    Info        : 0
    Alignment   : 4
    Entry Size  : 0

    $d.realdata
    RESET
    __Vectors
        0x00000000:    20003408    .4.     DCD    536884232
        0x00000004:    00000079    y...    DCD    121
        0x00000008:    00000085    ....    DCD    133
        0x0000000c:    0000008d    ....    DCD    141
        0x00000010:    00000095    ....    DCD    149
        0x00000014:    0000009d    ....    DCD    157
        0x00000018:    000000a5    ....    DCD    165
        0x0000001c:    00000000    ....    DCD    0
        0x00000020:    00000000    ....    DCD    0
        0x00000024:    00000000    ....    DCD    0
        0x00000028:    00000000    ....    DCD    0
        0x0000002c:    000000ad    ....    DCD    173
        0x00000030:    000000b5    ....    DCD    181
        0x00000034:    00000000    ....    DCD    0
        0x00000038:    000000bd    ....    DCD    189
        0x0000003c:    000000c5    ....    DCD    197
        0x00000040:    000000d5    ....    DCD    213
        0x00000044:    000000cd    ....    DCD    205
        0x00000048:    000000dd    ....    DCD    221
        0x0000004c:    000000e5    ....    DCD    229
        0x00000050:    000000ed    ....    DCD    237
        0x00000054:    000000f5    ....    DCD    245
        0x00000058:    000000fd    ....    DCD    253
        0x0000005c:    00000105    ....    DCD    261
        0x00000060:    0000010d    ....    DCD    269
    $t
    .ARM.Collect$$$$00000000
    .ARM.Collect$$$$00000001
    __Vectors_End
    __main
    _main_stk
        0x00000064:    4803        .H      LDR      r0,__lit__00000000 ; [0x74] = 0x20003408
        0x00000066:    4685        .F      MOV      sp,r0
    .ARM.Collect$$$$00000004
    _main_scatterload
        0x00000068:    f000fa0a    ....    BL       __scatterload ; 0x480
    .ARM.Collect$$$$00000008
    .ARM.Collect$$$$0000000A
    .ARM.Collect$$$$0000000B
    __main_after_scatterload
    _main_clock
    _main_cpp_init
    _main_init
        0x0000006c:    4800        .H      LDR      r0,[pc,#0] ; [0x70] = 0x2049
        0x0000006e:    4700        .G      BX       r0
    $d
        0x00000070:    00002049    I ..    DCD    8265
    .ARM.Collect$$$$00002712
    __lit__00000000
    .ARM.Collect$$$$0000000D
    .ARM.Collect$$$$0000000F
    __rt_final_cpp
    __rt_final_exit
        0x00000074:    20003408    .4.     DCD    536884232
    $t
    .text
    Reset_Handler
        0x00000078:    4826        &H      LDR      r0,[pc,#152] ; [0x114] = 0xb81
        0x0000007a:    4680        .F      MOV      r8,r0
        0x0000007c:    46c1        .F      MOV      r9,r8
        0x0000007e:    4780        .G      BLX      r0
        0x00000080:    4825        %H      LDR      r0,[pc,#148] ; [0x118] = 0x65
        0x00000082:    4700        .G      BX       r0
    NMI_Handler
        0x00000084:    b500        ..      PUSH     {lr}
        0x00000086:    f000fba8    ....    BL       NMIHandler ; 0x7da
        0x0000008a:    bd00        ..      POP      {pc}
    HardFault_Handler
        0x0000008c:    b500        ..      PUSH     {lr}
        0x0000008e:    f000fa5c    ..\.    BL       HardFaultHandler ; 0x54a
        0x00000092:    bd00        ..      POP      {pc}
    MemManage_Handler
        0x00000094:    b500        ..      PUSH     {lr}
        0x00000096:    f000fb9f    ....    BL       MemManageHandler ; 0x7d8
        0x0000009a:    bd00        ..      POP      {pc}
    BusFault_Handler
        0x0000009c:    b500        ..      PUSH     {lr}
        0x0000009e:    f000fa52    ..R.    BL       BusFaultHandler ; 0x546
        0x000000a2:    bd00        ..      POP      {pc}
    UsageFault_Handler
        0x000000a4:    b500        ..      PUSH     {lr}
        0x000000a6:    f000fdb1    ....    BL       UsageFaultHandler ; 0xc0c
        0x000000aa:    bd00        ..      POP      {pc}
    SVC_Handler
        0x000000ac:    b500        ..      PUSH     {lr}
        0x000000ae:    f000fd45    ..E.    BL       SVCHandler ; 0xb3c
        0x000000b2:    bd00        ..      POP      {pc}
    DebugMon_Handler
        0x000000b4:    b500        ..      PUSH     {lr}
        0x000000b6:    f000fa47    ..G.    BL       DebugMonHandler ; 0x548
        0x000000ba:    bd00        ..      POP      {pc}
    PendSV_Handler
        0x000000bc:    b500        ..      PUSH     {lr}
        0x000000be:    f000fc6b    ..k.    BL       PendSVHandler ; 0x998
        0x000000c2:    bd00        ..      POP      {pc}
    SysTick_Handler
        0x000000c4:    b500        ..      PUSH     {lr}
        0x000000c6:    f000fd4d    ..M.    BL       SysTickHandler ; 0xb64
        0x000000ca:    bd00        ..      POP      {pc}
    UARTRX_Handler
        0x000000cc:    b500        ..      PUSH     {lr}
        0x000000ce:    f000fd67    ..g.    BL       UARTRXHandler ; 0xba0
        0x000000d2:    bd00        ..      POP      {pc}
    UARTTX_Handler
        0x000000d4:    b500        ..      PUSH     {lr}
        0x000000d6:    f000fd7b    ..{.    BL       UARTTXHandler ; 0xbd0
        0x000000da:    bd00        ..      POP      {pc}
    UARTOVR_Handler
        0x000000dc:    b500        ..      PUSH     {lr}
        0x000000de:    f000fd5e    ..^.    BL       UARTOVRHandler ; 0xb9e
        0x000000e2:    bd00        ..      POP      {pc}
    KEY0_Handler
        0x000000e4:    b507        ..      PUSH     {r0-r2,lr}
        0x000000e6:    f000fa37    ..7.    BL       KEY0 ; 0x558
        0x000000ea:    bd07        ..      POP      {r0-r2,pc}
    KEY1_Handler
        0x000000ec:    b507        ..      PUSH     {r0-r2,lr}
        0x000000ee:    f000fa38    ..8.    BL       KEY1 ; 0x562
        0x000000f2:    bd07        ..      POP      {r0-r2,pc}
    KEY2_Handler
        0x000000f4:    b507        ..      PUSH     {r0-r2,lr}
        0x000000f6:    f000fa39    ..9.    BL       KEY2 ; 0x56c
        0x000000fa:    bd07        ..      POP      {r0-r2,pc}
    KEY3_Handler
        0x000000fc:    b507        ..      PUSH     {r0-r2,lr}
        0x000000fe:    f000fa3a    ..:.    BL       KEY3 ; 0x576
        0x00000102:    bd07        ..      POP      {r0-r2,pc}
    TIMER_Handler
        0x00000104:    b507        ..      PUSH     {r0-r2,lr}
        0x00000106:    f000fd49    ..I.    BL       Timer_Handler ; 0xb9c
        0x0000010a:    bd07        ..      POP      {r0-r2,pc}
    VGA_Handler
        0x0000010c:    b507        ..      PUSH     {r0-r2,lr}
        0x0000010e:    f004fb93    ....    BL       vga_Handler ; 0x4838
        0x00000112:    bd07        ..      POP      {r0-r2,pc}
    $d
        0x00000114:    00000b81    ....    DCD    2945
        0x00000118:    00000065    e...    DCD    101
    $t
    .text
    __aeabi_uidiv
    __aeabi_uidivmod
        0x0000011c:    b530        0.      PUSH     {r4,r5,lr}
        0x0000011e:    460b        .F      MOV      r3,r1
        0x00000120:    4601        .F      MOV      r1,r0
        0x00000122:    2000        .       MOVS     r0,#0
        0x00000124:    2220         "      MOVS     r2,#0x20
        0x00000126:    2401        .$      MOVS     r4,#1
        0x00000128:    e009        ..      B        0x13e ; __aeabi_uidiv + 34
        0x0000012a:    460d        .F      MOV      r5,r1
        0x0000012c:    40d5        .@      LSRS     r5,r5,r2
        0x0000012e:    429d        .B      CMP      r5,r3
        0x00000130:    d305        ..      BCC      0x13e ; __aeabi_uidiv + 34
        0x00000132:    461d        .F      MOV      r5,r3
        0x00000134:    4095        .@      LSLS     r5,r5,r2
        0x00000136:    1b49        I.      SUBS     r1,r1,r5
        0x00000138:    4625        %F      MOV      r5,r4
        0x0000013a:    4095        .@      LSLS     r5,r5,r2
        0x0000013c:    1940        @.      ADDS     r0,r0,r5
        0x0000013e:    4615        .F      MOV      r5,r2
        0x00000140:    1e52        R.      SUBS     r2,r2,#1
        0x00000142:    2d00        .-      CMP      r5,#0
        0x00000144:    dcf1        ..      BGT      0x12a ; __aeabi_uidiv + 14
        0x00000146:    bd30        0.      POP      {r4,r5,pc}
    .text
    __aeabi_idiv
    __aeabi_idivmod
        0x00000148:    b570        p.      PUSH     {r4-r6,lr}
        0x0000014a:    2400        .$      MOVS     r4,#0
        0x0000014c:    4625        %F      MOV      r5,r4
        0x0000014e:    2800        .(      CMP      r0,#0
        0x00000150:    da01        ..      BGE      0x156 ; __aeabi_idiv + 14
        0x00000152:    2401        .$      MOVS     r4,#1
        0x00000154:    4240        @B      RSBS     r0,r0,#0
        0x00000156:    2900        .)      CMP      r1,#0
        0x00000158:    da01        ..      BGE      0x15e ; __aeabi_idiv + 22
        0x0000015a:    2501        .%      MOVS     r5,#1
        0x0000015c:    4249        IB      RSBS     r1,r1,#0
        0x0000015e:    f7ffffdd    ....    BL       __aeabi_uidiv ; 0x11c
        0x00000162:    42ac        .B      CMP      r4,r5
        0x00000164:    d000        ..      BEQ      0x168 ; __aeabi_idiv + 32
        0x00000166:    4240        @B      RSBS     r0,r0,#0
        0x00000168:    2c00        .,      CMP      r4,#0
        0x0000016a:    d000        ..      BEQ      0x16e ; __aeabi_idiv + 38
        0x0000016c:    4249        IB      RSBS     r1,r1,#0
        0x0000016e:    bd70        p.      POP      {r4-r6,pc}
    .text
    rand
        0x00000170:    4905        .I      LDR      r1,[pc,#20] ; [0x188] = 0x20001bf4
        0x00000172:    4a06        .J      LDR      r2,[pc,#24] ; [0x18c] = 0x41c64e6d
        0x00000174:    6808        .h      LDR      r0,[r1,#0]
        0x00000176:    4350        PC      MULS     r0,r2,r0
        0x00000178:    4a05        .J      LDR      r2,[pc,#20] ; [0x190] = 0x3039
        0x0000017a:    1880        ..      ADDS     r0,r0,r2
        0x0000017c:    6008        .`      STR      r0,[r1,#0]
        0x0000017e:    0840        @.      LSRS     r0,r0,#1
        0x00000180:    4770        pG      BX       lr
    srand
        0x00000182:    4901        .I      LDR      r1,[pc,#4] ; [0x188] = 0x20001bf4
        0x00000184:    6008        .`      STR      r0,[r1,#0]
        0x00000186:    4770        pG      BX       lr
    $d
        0x00000188:    20001bf4    ...     DCD    536878068
        0x0000018c:    41c64e6d    mN.A    DCD    1103515245
        0x00000190:    00003039    90..    DCD    12345
    $t
    .text
    __aeabi_fadd
        0x00000194:    b5f8        ..      PUSH     {r3-r7,lr}
        0x00000196:    4602        .F      MOV      r2,r0
        0x00000198:    404a        J@      EORS     r2,r2,r1
        0x0000019a:    0fd4        ..      LSRS     r4,r2,#31
        0x0000019c:    0042        B.      LSLS     r2,r0,#1
        0x0000019e:    004b        K.      LSLS     r3,r1,#1
        0x000001a0:    0852        R.      LSRS     r2,r2,#1
        0x000001a2:    085b        [.      LSRS     r3,r3,#1
        0x000001a4:    429a        .B      CMP      r2,r3
        0x000001a6:    d202        ..      BCS      0x1ae ; __aeabi_fadd + 26
        0x000001a8:    4602        .F      MOV      r2,r0
        0x000001aa:    4608        .F      MOV      r0,r1
        0x000001ac:    4611        .F      MOV      r1,r2
        0x000001ae:    004a        J.      LSLS     r2,r1,#1
        0x000001b0:    d023        #.      BEQ      0x1fa ; __aeabi_fadd + 102
        0x000001b2:    0dc3        ..      LSRS     r3,r0,#23
        0x000001b4:    004a        J.      LSLS     r2,r1,#1
        0x000001b6:    b2dd        ..      UXTB     r5,r3
        0x000001b8:    0e12        ..      LSRS     r2,r2,#24
        0x000001ba:    1aad        ..      SUBS     r5,r5,r2
        0x000001bc:    2d20         -      CMP      r5,#0x20
        0x000001be:    da35        5.      BGE      0x22c ; __aeabi_fadd + 152
        0x000001c0:    0249        I.      LSLS     r1,r1,#9
        0x000001c2:    2601        .&      MOVS     r6,#1
        0x000001c4:    0a49        I.      LSRS     r1,r1,#9
        0x000001c6:    05f6        ..      LSLS     r6,r6,#23
        0x000001c8:    198a        ..      ADDS     r2,r1,r6
        0x000001ca:    2c00        .,      CMP      r4,#0
        0x000001cc:    d000        ..      BEQ      0x1d0 ; __aeabi_fadd + 60
        0x000001ce:    4252        RB      RSBS     r2,r2,#0
        0x000001d0:    2120         !      MOVS     r1,#0x20
        0x000001d2:    1b4f        O.      SUBS     r7,r1,r5
        0x000001d4:    4611        .F      MOV      r1,r2
        0x000001d6:    40b9        .@      LSLS     r1,r1,r7
        0x000001d8:    412a        *A      ASRS     r2,r2,r5
        0x000001da:    1810        ..      ADDS     r0,r2,r0
        0x000001dc:    0dc2        ..      LSRS     r2,r0,#23
        0x000001de:    429a        .B      CMP      r2,r3
        0x000001e0:    d021        !.      BEQ      0x226 ; __aeabi_fadd + 146
        0x000001e2:    2c00        .,      CMP      r4,#0
        0x000001e4:    d017        ..      BEQ      0x216 ; __aeabi_fadd + 130
        0x000001e6:    2d01        .-      CMP      r5,#1
        0x000001e8:    dc08        ..      BGT      0x1fc ; __aeabi_fadd + 104
        0x000001ea:    05da        ..      LSLS     r2,r3,#23
        0x000001ec:    1a80        ..      SUBS     r0,r0,r2
        0x000001ee:    0fd2        ..      LSRS     r2,r2,#31
        0x000001f0:    1980        ..      ADDS     r0,r0,r6
        0x000001f2:    07d2        ..      LSLS     r2,r2,#31
        0x000001f4:    b2db        ..      UXTB     r3,r3
        0x000001f6:    f000f909    ....    BL       _float_epilogue ; 0x40c
        0x000001fa:    bdf8        ..      POP      {r3-r7,pc}
        0x000001fc:    05da        ..      LSLS     r2,r3,#23
        0x000001fe:    1a80        ..      SUBS     r0,r0,r2
        0x00000200:    2301        .#      MOVS     r3,#1
        0x00000202:    0040        @.      LSLS     r0,r0,#1
        0x00000204:    061b        ..      LSLS     r3,r3,#24
        0x00000206:    18c0        ..      ADDS     r0,r0,r3
        0x00000208:    1880        ..      ADDS     r0,r0,r2
        0x0000020a:    425a        ZB      RSBS     r2,r3,#0
        0x0000020c:    1880        ..      ADDS     r0,r0,r2
        0x0000020e:    0fca        ..      LSRS     r2,r1,#31
        0x00000210:    4310        .C      ORRS     r0,r0,r2
        0x00000212:    0049        I.      LSLS     r1,r1,#1
        0x00000214:    e007        ..      B        0x226 ; __aeabi_fadd + 146
        0x00000216:    0849        I.      LSRS     r1,r1,#1
        0x00000218:    07c2        ..      LSLS     r2,r0,#31
        0x0000021a:    4311        .C      ORRS     r1,r1,r2
        0x0000021c:    05da        ..      LSLS     r2,r3,#23
        0x0000021e:    1a80        ..      SUBS     r0,r0,r2
        0x00000220:    1980        ..      ADDS     r0,r0,r6
        0x00000222:    0840        @.      LSRS     r0,r0,#1
        0x00000224:    1880        ..      ADDS     r0,r0,r2
        0x00000226:    f000f8e9    ....    BL       __I$use$fp ; 0x3fc
        0x0000022a:    bdf8        ..      POP      {r3-r7,pc}
        0x0000022c:    0061        a.      LSLS     r1,r4,#1
        0x0000022e:    2201        ."      MOVS     r2,#1
        0x00000230:    1a51        Q.      SUBS     r1,r2,r1
        0x00000232:    1b00        ..      SUBS     r0,r0,r4
        0x00000234:    e7f7        ..      B        0x226 ; __aeabi_fadd + 146
    __aeabi_fsub
        0x00000236:    2201        ."      MOVS     r2,#1
        0x00000238:    07d2        ..      LSLS     r2,r2,#31
        0x0000023a:    4051        Q@      EORS     r1,r1,r2
        0x0000023c:    e7aa        ..      B        __aeabi_fadd ; 0x194
    __aeabi_frsub
        0x0000023e:    2201        ."      MOVS     r2,#1
        0x00000240:    07d2        ..      LSLS     r2,r2,#31
        0x00000242:    4050        P@      EORS     r0,r0,r2
        0x00000244:    e7a6        ..      B        __aeabi_fadd ; 0x194
    .text
    __aeabi_fmul
        0x00000246:    4602        .F      MOV      r2,r0
        0x00000248:    b570        p.      PUSH     {r4-r6,lr}
        0x0000024a:    404a        J@      EORS     r2,r2,r1
        0x0000024c:    0fd3        ..      LSRS     r3,r2,#31
        0x0000024e:    07db        ..      LSLS     r3,r3,#31
        0x00000250:    0040        @.      LSLS     r0,r0,#1
        0x00000252:    d02d        -.      BEQ      0x2b0 ; __aeabi_fmul + 106
        0x00000254:    004a        J.      LSLS     r2,r1,#1
        0x00000256:    d02a        *.      BEQ      0x2ae ; __aeabi_fmul + 104
        0x00000258:    0e01        ..      LSRS     r1,r0,#24
        0x0000025a:    0e14        ..      LSRS     r4,r2,#24
        0x0000025c:    0200        ..      LSLS     r0,r0,#8
        0x0000025e:    0212        ..      LSLS     r2,r2,#8
        0x00000260:    1909        ..      ADDS     r1,r1,r4
        0x00000262:    0a40        @.      LSRS     r0,r0,#9
        0x00000264:    0a52        R.      LSRS     r2,r2,#9
        0x00000266:    1884        ..      ADDS     r4,r0,r2
        0x00000268:    01e5        ..      LSLS     r5,r4,#7
        0x0000026a:    4604        .F      MOV      r4,r0
        0x0000026c:    4354        TC      MULS     r4,r2,r4
        0x0000026e:    0a00        ..      LSRS     r0,r0,#8
        0x00000270:    0a12        ..      LSRS     r2,r2,#8
        0x00000272:    042e        ..      LSLS     r6,r5,#16
        0x00000274:    4350        PC      MULS     r0,r2,r0
        0x00000276:    19a4        ..      ADDS     r4,r4,r6
        0x00000278:    1942        B.      ADDS     r2,r0,r5
        0x0000027a:    0c20         .      LSRS     r0,r4,#16
        0x0000027c:    43c5        .C      MVNS     r5,r0
        0x0000027e:    18aa        ..      ADDS     r2,r5,r2
        0x00000280:    0c12        ..      LSRS     r2,r2,#16
        0x00000282:    2501        .%      MOVS     r5,#1
        0x00000284:    03ad        ..      LSLS     r5,r5,#14
        0x00000286:    1c52        R.      ADDS     r2,r2,#1
        0x00000288:    1952        R.      ADDS     r2,r2,r5
        0x0000028a:    0412        ..      LSLS     r2,r2,#16
        0x0000028c:    397f        .9      SUBS     r1,r1,#0x7f
        0x0000028e:    0424        $.      LSLS     r4,r4,#16
        0x00000290:    d000        ..      BEQ      0x294 ; __aeabi_fmul + 78
        0x00000292:    1c52        R.      ADDS     r2,r2,#1
        0x00000294:    4310        .C      ORRS     r0,r0,r2
        0x00000296:    d401        ..      BMI      0x29c ; __aeabi_fmul + 86
        0x00000298:    0040        @.      LSLS     r0,r0,#1
        0x0000029a:    1e49        I.      SUBS     r1,r1,#1
        0x0000029c:    b2c2        ..      UXTB     r2,r0
        0x0000029e:    060c        ..      LSLS     r4,r1,#24
        0x000002a0:    09c0        ..      LSRS     r0,r0,#7
        0x000002a2:    1820         .      ADDS     r0,r4,r0
        0x000002a4:    1c40        @.      ADDS     r0,r0,#1
        0x000002a6:    0840        @.      LSRS     r0,r0,#1
        0x000002a8:    2a80        .*      CMP      r2,#0x80
        0x000002aa:    d002        ..      BEQ      0x2b2 ; __aeabi_fmul + 108
        0x000002ac:    e003        ..      B        0x2b6 ; __aeabi_fmul + 112
        0x000002ae:    2000        .       MOVS     r0,#0
        0x000002b0:    bd70        p.      POP      {r4-r6,pc}
        0x000002b2:    0840        @.      LSRS     r0,r0,#1
        0x000002b4:    0040        @.      LSLS     r0,r0,#1
        0x000002b6:    2900        .)      CMP      r1,#0
        0x000002b8:    da00        ..      BGE      0x2bc ; __aeabi_fmul + 118
        0x000002ba:    2000        .       MOVS     r0,#0
        0x000002bc:    4318        .C      ORRS     r0,r0,r3
        0x000002be:    bd70        p.      POP      {r4-r6,pc}
    .text
    __aeabi_fdiv
        0x000002c0:    b570        p.      PUSH     {r4-r6,lr}
        0x000002c2:    4602        .F      MOV      r2,r0
        0x000002c4:    404a        J@      EORS     r2,r2,r1
        0x000002c6:    0fd5        ..      LSRS     r5,r2,#31
        0x000002c8:    0040        @.      LSLS     r0,r0,#1
        0x000002ca:    004a        J.      LSLS     r2,r1,#1
        0x000002cc:    07ed        ..      LSLS     r5,r5,#31
        0x000002ce:    0840        @.      LSRS     r0,r0,#1
        0x000002d0:    0852        R.      LSRS     r2,r2,#1
        0x000002d2:    2800        .(      CMP      r0,#0
        0x000002d4:    d014        ..      BEQ      0x300 ; __aeabi_fdiv + 64
        0x000002d6:    2a00        .*      CMP      r2,#0
        0x000002d8:    d012        ..      BEQ      0x300 ; __aeabi_fdiv + 64
        0x000002da:    0dc4        ..      LSRS     r4,r0,#23
        0x000002dc:    0dd3        ..      LSRS     r3,r2,#23
        0x000002de:    0241        A.      LSLS     r1,r0,#9
        0x000002e0:    2001        .       MOVS     r0,#1
        0x000002e2:    05c0        ..      LSLS     r0,r0,#23
        0x000002e4:    0252        R.      LSLS     r2,r2,#9
        0x000002e6:    0a49        I.      LSRS     r1,r1,#9
        0x000002e8:    0a52        R.      LSRS     r2,r2,#9
        0x000002ea:    1ae4        ..      SUBS     r4,r4,r3
        0x000002ec:    1809        ..      ADDS     r1,r1,r0
        0x000002ee:    1812        ..      ADDS     r2,r2,r0
        0x000002f0:    347d        }4      ADDS     r4,r4,#0x7d
        0x000002f2:    4291        .B      CMP      r1,r2
        0x000002f4:    d301        ..      BCC      0x2fa ; __aeabi_fdiv + 58
        0x000002f6:    1c64        d.      ADDS     r4,r4,#1
        0x000002f8:    e000        ..      B        0x2fc ; __aeabi_fdiv + 60
        0x000002fa:    0049        I.      LSLS     r1,r1,#1
        0x000002fc:    2c00        .,      CMP      r4,#0
        0x000002fe:    da01        ..      BGE      0x304 ; __aeabi_fdiv + 68
        0x00000300:    2000        .       MOVS     r0,#0
        0x00000302:    bd70        p.      POP      {r4-r6,pc}
        0x00000304:    2300        .#      MOVS     r3,#0
        0x00000306:    4291        .B      CMP      r1,r2
        0x00000308:    d301        ..      BCC      0x30e ; __aeabi_fdiv + 78
        0x0000030a:    1a89        ..      SUBS     r1,r1,r2
        0x0000030c:    4303        .C      ORRS     r3,r3,r0
        0x0000030e:    0840        @.      LSRS     r0,r0,#1
        0x00000310:    0049        I.      LSLS     r1,r1,#1
        0x00000312:    2800        .(      CMP      r0,#0
        0x00000314:    d1f7        ..      BNE      0x306 ; __aeabi_fdiv + 70
        0x00000316:    2900        .)      CMP      r1,#0
        0x00000318:    d00a        ..      BEQ      0x330 ; __aeabi_fdiv + 112
        0x0000031a:    4291        .B      CMP      r1,r2
        0x0000031c:    d102        ..      BNE      0x324 ; __aeabi_fdiv + 100
        0x0000031e:    2101        .!      MOVS     r1,#1
        0x00000320:    07c9        ..      LSLS     r1,r1,#31
        0x00000322:    e005        ..      B        0x330 ; __aeabi_fdiv + 112
        0x00000324:    4291        .B      CMP      r1,r2
        0x00000326:    d201        ..      BCS      0x32c ; __aeabi_fdiv + 108
        0x00000328:    2101        .!      MOVS     r1,#1
        0x0000032a:    e001        ..      B        0x330 ; __aeabi_fdiv + 112
        0x0000032c:    2101        .!      MOVS     r1,#1
        0x0000032e:    43c9        .C      MVNS     r1,r1
        0x00000330:    05e0        ..      LSLS     r0,r4,#23
        0x00000332:    18c0        ..      ADDS     r0,r0,r3
        0x00000334:    1940        @.      ADDS     r0,r0,r5
        0x00000336:    f000f861    ..a.    BL       __I$use$fp ; 0x3fc
        0x0000033a:    bd70        p.      POP      {r4-r6,pc}
    .text
    __aeabi_i2f
        0x0000033c:    17c2        ..      ASRS     r2,r0,#31
        0x0000033e:    0fc1        ..      LSRS     r1,r0,#31
        0x00000340:    4050        P@      EORS     r0,r0,r2
        0x00000342:    b510        ..      PUSH     {r4,lr}
        0x00000344:    1840        @.      ADDS     r0,r0,r1
        0x00000346:    07ca        ..      LSLS     r2,r1,#31
        0x00000348:    2396        .#      MOVS     r3,#0x96
        0x0000034a:    2100        .!      MOVS     r1,#0
        0x0000034c:    f000f85e    ..^.    BL       _float_epilogue ; 0x40c
        0x00000350:    bd10        ..      POP      {r4,pc}
    .text
    __aeabi_ui2f
        0x00000352:    b510        ..      PUSH     {r4,lr}
        0x00000354:    2200        ."      MOVS     r2,#0
        0x00000356:    2396        .#      MOVS     r3,#0x96
        0x00000358:    4611        .F      MOV      r1,r2
        0x0000035a:    f000f857    ..W.    BL       _float_epilogue ; 0x40c
        0x0000035e:    bd10        ..      POP      {r4,pc}
    .text
    __aeabi_f2uiz
        0x00000360:    0041        A.      LSLS     r1,r0,#1
        0x00000362:    0240        @.      LSLS     r0,r0,#9
        0x00000364:    2201        ."      MOVS     r2,#1
        0x00000366:    0a40        @.      LSRS     r0,r0,#9
        0x00000368:    05d2        ..      LSLS     r2,r2,#23
        0x0000036a:    0e09        ..      LSRS     r1,r1,#24
        0x0000036c:    1880        ..      ADDS     r0,r0,r2
        0x0000036e:    297f        .)      CMP      r1,#0x7f
        0x00000370:    da01        ..      BGE      0x376 ; __aeabi_f2uiz + 22
        0x00000372:    2000        .       MOVS     r0,#0
        0x00000374:    4770        pG      BX       lr
        0x00000376:    2996        .)      CMP      r1,#0x96
        0x00000378:    dc03        ..      BGT      0x382 ; __aeabi_f2uiz + 34
        0x0000037a:    2296        ."      MOVS     r2,#0x96
        0x0000037c:    1a51        Q.      SUBS     r1,r2,r1
        0x0000037e:    40c8        .@      LSRS     r0,r0,r1
        0x00000380:    4770        pG      BX       lr
        0x00000382:    3996        .9      SUBS     r1,r1,#0x96
        0x00000384:    4088        .@      LSLS     r0,r0,r1
        0x00000386:    4770        pG      BX       lr
    .text
    __aeabi_cfrcmple
        0x00000388:    2201        ."      MOVS     r2,#1
        0x0000038a:    07d2        ..      LSLS     r2,r2,#31
        0x0000038c:    2800        .(      CMP      r0,#0
        0x0000038e:    db00        ..      BLT      0x392 ; __aeabi_cfrcmple + 10
        0x00000390:    1a10        ..      SUBS     r0,r2,r0
        0x00000392:    2900        .)      CMP      r1,#0
        0x00000394:    db00        ..      BLT      0x398 ; __aeabi_cfrcmple + 16
        0x00000396:    1a51        Q.      SUBS     r1,r2,r1
        0x00000398:    4288        .B      CMP      r0,r1
        0x0000039a:    4770        pG      BX       lr
    .text
    __aeabi_uldivmod
        0x0000039c:    b5f0        ..      PUSH     {r4-r7,lr}
        0x0000039e:    b41f        ..      PUSH     {r0-r4}
        0x000003a0:    4606        .F      MOV      r6,r0
        0x000003a2:    2000        .       MOVS     r0,#0
        0x000003a4:    b082        ..      SUB      sp,sp,#8
        0x000003a6:    4605        .F      MOV      r5,r0
        0x000003a8:    2440        @$      MOVS     r4,#0x40
        0x000003aa:    9101        ..      STR      r1,[sp,#4]
        0x000003ac:    9000        ..      STR      r0,[sp,#0]
        0x000003ae:    e01b        ..      B        0x3e8 ; __aeabi_uldivmod + 76
        0x000003b0:    9901        ..      LDR      r1,[sp,#4]
        0x000003b2:    4622        "F      MOV      r2,r4
        0x000003b4:    460f        .F      MOV      r7,r1
        0x000003b6:    4630        0F      MOV      r0,r6
        0x000003b8:    f000f884    ....    BL       __aeabi_llsr ; 0x4c4
        0x000003bc:    9a04        ..      LDR      r2,[sp,#0x10]
        0x000003be:    9b05        ..      LDR      r3,[sp,#0x14]
        0x000003c0:    1a80        ..      SUBS     r0,r0,r2
        0x000003c2:    4199        .A      SBCS     r1,r1,r3
        0x000003c4:    d310        ..      BCC      0x3e8 ; __aeabi_uldivmod + 76
        0x000003c6:    4610        .F      MOV      r0,r2
        0x000003c8:    4619        .F      MOV      r1,r3
        0x000003ca:    4622        "F      MOV      r2,r4
        0x000003cc:    f000f86a    ..j.    BL       __aeabi_llsl ; 0x4a4
        0x000003d0:    1a36        6.      SUBS     r6,r6,r0
        0x000003d2:    418f        .A      SBCS     r7,r7,r1
        0x000003d4:    9701        ..      STR      r7,[sp,#4]
        0x000003d6:    4622        "F      MOV      r2,r4
        0x000003d8:    2001        .       MOVS     r0,#1
        0x000003da:    2100        .!      MOVS     r1,#0
        0x000003dc:    9f00        ..      LDR      r7,[sp,#0]
        0x000003de:    f000f861    ..a.    BL       __aeabi_llsl ; 0x4a4
        0x000003e2:    1838        8.      ADDS     r0,r7,r0
        0x000003e4:    414d        MA      ADCS     r5,r5,r1
        0x000003e6:    9000        ..      STR      r0,[sp,#0]
        0x000003e8:    4620         F      MOV      r0,r4
        0x000003ea:    1e64        d.      SUBS     r4,r4,#1
        0x000003ec:    2800        .(      CMP      r0,#0
        0x000003ee:    dcdf        ..      BGT      0x3b0 ; __aeabi_uldivmod + 20
        0x000003f0:    9b01        ..      LDR      r3,[sp,#4]
        0x000003f2:    9800        ..      LDR      r0,[sp,#0]
        0x000003f4:    4629        )F      MOV      r1,r5
        0x000003f6:    4632        2F      MOV      r2,r6
        0x000003f8:    b007        ..      ADD      sp,sp,#0x1c
        0x000003fa:    bdf0        ..      POP      {r4-r7,pc}
    .text
    .text
    __I$use$fp
    _float_round
        0x000003fc:    2900        .)      CMP      r1,#0
        0x000003fe:    da04        ..      BGE      0x40a ; __I$use$fp + 14
        0x00000400:    1c40        @.      ADDS     r0,r0,#1
        0x00000402:    0049        I.      LSLS     r1,r1,#1
        0x00000404:    d101        ..      BNE      0x40a ; __I$use$fp + 14
        0x00000406:    0840        @.      LSRS     r0,r0,#1
        0x00000408:    0040        @.      LSLS     r0,r0,#1
        0x0000040a:    4770        pG      BX       lr
    _float_epilogue
        0x0000040c:    b470        p.      PUSH     {r4-r6}
        0x0000040e:    2400        .$      MOVS     r4,#0
        0x00000410:    0c05        ..      LSRS     r5,r0,#16
        0x00000412:    d105        ..      BNE      0x420 ; _float_epilogue + 20
        0x00000414:    2410        .$      MOVS     r4,#0x10
        0x00000416:    0400        ..      LSLS     r0,r0,#16
        0x00000418:    d102        ..      BNE      0x420 ; _float_epilogue + 20
        0x0000041a:    2900        .)      CMP      r1,#0
        0x0000041c:    d021        !.      BEQ      0x462 ; _float_epilogue + 86
        0x0000041e:    2411        .$      MOVS     r4,#0x11
        0x00000420:    0e05        ..      LSRS     r5,r0,#24
        0x00000422:    d101        ..      BNE      0x428 ; _float_epilogue + 28
        0x00000424:    0200        ..      LSLS     r0,r0,#8
        0x00000426:    3408        .4      ADDS     r4,r4,#8
        0x00000428:    0f05        ..      LSRS     r5,r0,#28
        0x0000042a:    d101        ..      BNE      0x430 ; _float_epilogue + 36
        0x0000042c:    0100        ..      LSLS     r0,r0,#4
        0x0000042e:    1d24        $.      ADDS     r4,r4,#4
        0x00000430:    0f85        ..      LSRS     r5,r0,#30
        0x00000432:    d101        ..      BNE      0x438 ; _float_epilogue + 44
        0x00000434:    0080        ..      LSLS     r0,r0,#2
        0x00000436:    1ca4        ..      ADDS     r4,r4,#2
        0x00000438:    2800        .(      CMP      r0,#0
        0x0000043a:    db01        ..      BLT      0x440 ; _float_epilogue + 52
        0x0000043c:    0040        @.      LSLS     r0,r0,#1
        0x0000043e:    1c64        d.      ADDS     r4,r4,#1
        0x00000440:    2900        .)      CMP      r1,#0
        0x00000442:    d008        ..      BEQ      0x456 ; _float_epilogue + 74
        0x00000444:    2520         %      MOVS     r5,#0x20
        0x00000446:    1b2e        ..      SUBS     r6,r5,r4
        0x00000448:    460d        .F      MOV      r5,r1
        0x0000044a:    40f5        .@      LSRS     r5,r5,r6
        0x0000044c:    40a1        .@      LSLS     r1,r1,r4
        0x0000044e:    d000        ..      BEQ      0x452 ; _float_epilogue + 70
        0x00000450:    2101        .!      MOVS     r1,#1
        0x00000452:    4329        )C      ORRS     r1,r1,r5
        0x00000454:    4308        .C      ORRS     r0,r0,r1
        0x00000456:    0601        ..      LSLS     r1,r0,#24
        0x00000458:    1b1b        ..      SUBS     r3,r3,r4
        0x0000045a:    0a00        ..      LSRS     r0,r0,#8
        0x0000045c:    1ddb        ..      ADDS     r3,r3,#7
        0x0000045e:    d502        ..      BPL      0x466 ; _float_epilogue + 90
        0x00000460:    2000        .       MOVS     r0,#0
        0x00000462:    bc70        p.      POP      {r4-r6}
        0x00000464:    4770        pG      BX       lr
        0x00000466:    05db        ..      LSLS     r3,r3,#23
        0x00000468:    1818        ..      ADDS     r0,r3,r0
        0x0000046a:    1880        ..      ADDS     r0,r0,r2
        0x0000046c:    2900        .)      CMP      r1,#0
        0x0000046e:    daf8        ..      BGE      0x462 ; _float_epilogue + 86
        0x00000470:    1c40        @.      ADDS     r0,r0,#1
        0x00000472:    0049        I.      LSLS     r1,r1,#1
        0x00000474:    d1f5        ..      BNE      0x462 ; _float_epilogue + 86
        0x00000476:    bc70        p.      POP      {r4-r6}
        0x00000478:    0840        @.      LSRS     r0,r0,#1
        0x0000047a:    0040        @.      LSLS     r0,r0,#1
        0x0000047c:    4770        pG      BX       lr
        0x0000047e:    0000        ..      MOVS     r0,r0
    .text
    __scatterload
    __scatterload_rt2
        0x00000480:    4c06        .L      LDR      r4,[pc,#24] ; [0x49c] = 0x4f3c
        0x00000482:    2501        .%      MOVS     r5,#1
        0x00000484:    4e06        .N      LDR      r6,[pc,#24] ; [0x4a0] = 0x4f5c
        0x00000486:    e005        ..      B        0x494 ; __scatterload + 20
        0x00000488:    68e3        .h      LDR      r3,[r4,#0xc]
        0x0000048a:    cc07        ..      LDM      r4!,{r0-r2}
        0x0000048c:    432b        +C      ORRS     r3,r3,r5
        0x0000048e:    3c0c        .<      SUBS     r4,r4,#0xc
        0x00000490:    4798        .G      BLX      r3
        0x00000492:    3410        .4      ADDS     r4,r4,#0x10
        0x00000494:    42b4        .B      CMP      r4,r6
        0x00000496:    d3f7        ..      BCC      0x488 ; __scatterload + 8
        0x00000498:    f7fffde8    ....    BL       __main_after_scatterload ; 0x6c
    $d
        0x0000049c:    00004f3c    <O..    DCD    20284
        0x000004a0:    00004f5c    \O..    DCD    20316
    $t
    .text
    __aeabi_llsl
    _ll_shift_l
        0x000004a4:    b510        ..      PUSH     {r4,lr}
        0x000004a6:    2a20         *      CMP      r2,#0x20
        0x000004a8:    db04        ..      BLT      0x4b4 ; __aeabi_llsl + 16
        0x000004aa:    4601        .F      MOV      r1,r0
        0x000004ac:    3a20         :      SUBS     r2,r2,#0x20
        0x000004ae:    4091        .@      LSLS     r1,r1,r2
        0x000004b0:    2000        .       MOVS     r0,#0
        0x000004b2:    bd10        ..      POP      {r4,pc}
        0x000004b4:    4091        .@      LSLS     r1,r1,r2
        0x000004b6:    2320         #      MOVS     r3,#0x20
        0x000004b8:    1a9c        ..      SUBS     r4,r3,r2
        0x000004ba:    4603        .F      MOV      r3,r0
        0x000004bc:    40e3        .@      LSRS     r3,r3,r4
        0x000004be:    4319        .C      ORRS     r1,r1,r3
        0x000004c0:    4090        .@      LSLS     r0,r0,r2
        0x000004c2:    bd10        ..      POP      {r4,pc}
    .text
    __aeabi_llsr
    _ll_ushift_r
        0x000004c4:    b510        ..      PUSH     {r4,lr}
        0x000004c6:    2a20         *      CMP      r2,#0x20
        0x000004c8:    db04        ..      BLT      0x4d4 ; __aeabi_llsr + 16
        0x000004ca:    4608        .F      MOV      r0,r1
        0x000004cc:    3a20         :      SUBS     r2,r2,#0x20
        0x000004ce:    40d0        .@      LSRS     r0,r0,r2
        0x000004d0:    2100        .!      MOVS     r1,#0
        0x000004d2:    bd10        ..      POP      {r4,pc}
        0x000004d4:    460b        .F      MOV      r3,r1
        0x000004d6:    40d3        .@      LSRS     r3,r3,r2
        0x000004d8:    40d0        .@      LSRS     r0,r0,r2
        0x000004da:    2420         $      MOVS     r4,#0x20
        0x000004dc:    1aa2        ..      SUBS     r2,r4,r2
        0x000004de:    4091        .@      LSLS     r1,r1,r2
        0x000004e0:    4308        .C      ORRS     r0,r0,r1
        0x000004e2:    4619        .F      MOV      r1,r3
        0x000004e4:    bd10        ..      POP      {r4,pc}
    .text
    __decompress
    __decompress2
        0x000004e6:    b570        p.      PUSH     {r4-r6,lr}
        0x000004e8:    188d        ..      ADDS     r5,r1,r2
        0x000004ea:    7804        .x      LDRB     r4,[r0,#0]
        0x000004ec:    1c40        @.      ADDS     r0,r0,#1
        0x000004ee:    07a2        ..      LSLS     r2,r4,#30
        0x000004f0:    0f92        ..      LSRS     r2,r2,#30
        0x000004f2:    d101        ..      BNE      0x4f8 ; __decompress + 18
        0x000004f4:    7802        .x      LDRB     r2,[r0,#0]
        0x000004f6:    1c40        @.      ADDS     r0,r0,#1
        0x000004f8:    1123        #.      ASRS     r3,r4,#4
        0x000004fa:    d106        ..      BNE      0x50a ; __decompress + 36
        0x000004fc:    7803        .x      LDRB     r3,[r0,#0]
        0x000004fe:    1c40        @.      ADDS     r0,r0,#1
        0x00000500:    e003        ..      B        0x50a ; __decompress + 36
        0x00000502:    7806        .x      LDRB     r6,[r0,#0]
        0x00000504:    700e        .p      STRB     r6,[r1,#0]
        0x00000506:    1c40        @.      ADDS     r0,r0,#1
        0x00000508:    1c49        I.      ADDS     r1,r1,#1
        0x0000050a:    1e52        R.      SUBS     r2,r2,#1
        0x0000050c:    d1f9        ..      BNE      0x502 ; __decompress + 28
        0x0000050e:    2b00        .+      CMP      r3,#0
        0x00000510:    d015        ..      BEQ      0x53e ; __decompress + 88
        0x00000512:    7802        .x      LDRB     r2,[r0,#0]
        0x00000514:    260c        .&      MOVS     r6,#0xc
        0x00000516:    1a8a        ..      SUBS     r2,r1,r2
        0x00000518:    4034        4@      ANDS     r4,r4,r6
        0x0000051a:    1c40        @.      ADDS     r0,r0,#1
        0x0000051c:    2c0c        .,      CMP      r4,#0xc
        0x0000051e:    d003        ..      BEQ      0x528 ; __decompress + 66
        0x00000520:    01a4        ..      LSLS     r4,r4,#6
        0x00000522:    1b12        ..      SUBS     r2,r2,r4
        0x00000524:    1c9b        ..      ADDS     r3,r3,#2
        0x00000526:    e008        ..      B        0x53a ; __decompress + 84
        0x00000528:    7804        .x      LDRB     r4,[r0,#0]
        0x0000052a:    0224        $.      LSLS     r4,r4,#8
        0x0000052c:    1b12        ..      SUBS     r2,r2,r4
        0x0000052e:    1c40        @.      ADDS     r0,r0,#1
        0x00000530:    e7f8        ..      B        0x524 ; __decompress + 62
        0x00000532:    7814        .x      LDRB     r4,[r2,#0]
        0x00000534:    700c        .p      STRB     r4,[r1,#0]
        0x00000536:    1c49        I.      ADDS     r1,r1,#1
        0x00000538:    1c52        R.      ADDS     r2,r2,#1
        0x0000053a:    1e5b        [.      SUBS     r3,r3,#1
        0x0000053c:    d5f9        ..      BPL      0x532 ; __decompress + 76
        0x0000053e:    42a9        .B      CMP      r1,r5
        0x00000540:    d3d3        ..      BCC      0x4ea ; __decompress + 4
        0x00000542:    2000        .       MOVS     r0,#0
        0x00000544:    bd70        p.      POP      {r4-r6,pc}
    i.BusFaultHandler
    BusFaultHandler
        0x00000546:    4770        pG      BX       lr
    i.DebugMonHandler
    DebugMonHandler
        0x00000548:    4770        pG      BX       lr
    i.HardFaultHandler
    HardFaultHandler
        0x0000054a:    4770        pG      BX       lr
    i.Is_SPI_Ready
    Is_SPI_Ready
        0x0000054c:    4801        .H      LDR      r0,[pc,#4] ; [0x554] = 0x40004000
        0x0000054e:    6940        @i      LDR      r0,[r0,#0x14]
        0x00000550:    b2c0        ..      UXTB     r0,r0
        0x00000552:    4770        pG      BX       lr
    $d
        0x00000554:    40004000    .@.@    DCD    1073758208
    $t
    i.KEY0
    KEY0
        0x00000558:    b510        ..      PUSH     {r4,lr}
        0x0000055a:    2000        .       MOVS     r0,#0
        0x0000055c:    f000f91c    ....    BL       LED_toggle ; 0x798
        0x00000560:    bd10        ..      POP      {r4,pc}
    i.KEY1
    KEY1
        0x00000562:    b510        ..      PUSH     {r4,lr}
        0x00000564:    2001        .       MOVS     r0,#1
        0x00000566:    f000f917    ....    BL       LED_toggle ; 0x798
        0x0000056a:    bd10        ..      POP      {r4,pc}
    i.KEY2
    KEY2
        0x0000056c:    b510        ..      PUSH     {r4,lr}
        0x0000056e:    2002        .       MOVS     r0,#2
        0x00000570:    f000f912    ....    BL       LED_toggle ; 0x798
        0x00000574:    bd10        ..      POP      {r4,pc}
    i.KEY3
    KEY3
        0x00000576:    b510        ..      PUSH     {r4,lr}
        0x00000578:    2003        .       MOVS     r0,#3
        0x0000057a:    f000f90d    ....    BL       LED_toggle ; 0x798
        0x0000057e:    bd10        ..      POP      {r4,pc}
    i.LCD_Fast_DrawPoint
    LCD_Fast_DrawPoint
        0x00000580:    b530        0.      PUSH     {r4,r5,lr}
        0x00000582:    4603        .F      MOV      r3,r0
        0x00000584:    460c        .F      MOV      r4,r1
        0x00000586:    4615        .F      MOV      r5,r2
        0x00000588:    4913        .I      LDR      r1,[pc,#76] ; [0x5d8] = 0x20001ee8
        0x0000058a:    8948        H.      LDRH     r0,[r1,#0xa]
        0x0000058c:    f000f8f2    ....    BL       LCD_WR_REG ; 0x774
        0x00000590:    1218        ..      ASRS     r0,r3,#8
        0x00000592:    f000f8dc    ....    BL       LCD_WR_DATA ; 0x74e
        0x00000596:    b2d8        ..      UXTB     r0,r3
        0x00000598:    f000f8d9    ....    BL       LCD_WR_DATA ; 0x74e
        0x0000059c:    490e        .I      LDR      r1,[pc,#56] ; [0x5d8] = 0x20001ee8
        0x0000059e:    8988        ..      LDRH     r0,[r1,#0xc]
        0x000005a0:    f000f8e8    ....    BL       LCD_WR_REG ; 0x774
        0x000005a4:    1220         .      ASRS     r0,r4,#8
        0x000005a6:    f000f8d2    ....    BL       LCD_WR_DATA ; 0x74e
        0x000005aa:    b2e0        ..      UXTB     r0,r4
        0x000005ac:    f000f8cf    ....    BL       LCD_WR_DATA ; 0x74e
        0x000005b0:    2000        .       MOVS     r0,#0
        0x000005b2:    2105        .!      MOVS     r1,#5
        0x000005b4:    0709        ..      LSLS     r1,r1,#28
        0x000005b6:    6048        H`      STR      r0,[r1,#4]
        0x000005b8:    6008        .`      STR      r0,[r1,#0]
        0x000005ba:    4907        .I      LDR      r1,[pc,#28] ; [0x5d8] = 0x20001ee8
        0x000005bc:    8908        ..      LDRH     r0,[r1,#8]
        0x000005be:    f000f907    ....    BL       MakeData ; 0x7d0
        0x000005c2:    2000        .       MOVS     r0,#0
        0x000005c4:    2105        .!      MOVS     r1,#5
        0x000005c6:    0709        ..      LSLS     r1,r1,#28
        0x000005c8:    6088        .`      STR      r0,[r1,#8]
        0x000005ca:    2001        .       MOVS     r0,#1
        0x000005cc:    6088        .`      STR      r0,[r1,#8]
        0x000005ce:    6008        .`      STR      r0,[r1,#0]
        0x000005d0:    4628        (F      MOV      r0,r5
        0x000005d2:    f000f8bc    ....    BL       LCD_WR_DATA ; 0x74e
        0x000005d6:    bd30        0.      POP      {r4,r5,pc}
    $d
        0x000005d8:    20001ee8    ...     DCD    536878824
    $t
    i.LCD_ShowChar
    LCD_ShowChar
        0x000005dc:    b5ff        ..      PUSH     {r0-r7,lr}
        0x000005de:    b085        ..      SUB      sp,sp,#0x14
        0x000005e0:    460e        .F      MOV      r6,r1
        0x000005e2:    4617        .F      MOV      r7,r2
        0x000005e4:    2410        .$      MOVS     r4,#0x10
        0x000005e6:    9602        ..      STR      r6,[sp,#8]
        0x000005e8:    4620         F      MOV      r0,r4
        0x000005ea:    17e2        ..      ASRS     r2,r4,#31
        0x000005ec:    0f52        R.      LSRS     r2,r2,#29
        0x000005ee:    1812        ..      ADDS     r2,r2,r0
        0x000005f0:    10d2        ..      ASRS     r2,r2,#3
        0x000005f2:    17e3        ..      ASRS     r3,r4,#31
        0x000005f4:    0f5b        [.      LSRS     r3,r3,#29
        0x000005f6:    181b        ..      ADDS     r3,r3,r0
        0x000005f8:    10db        ..      ASRS     r3,r3,#3
        0x000005fa:    00db        ..      LSLS     r3,r3,#3
        0x000005fc:    9400        ..      STR      r4,[sp,#0]
        0x000005fe:    1ae3        ..      SUBS     r3,r4,r3
        0x00000600:    d001        ..      BEQ      0x606 ; LCD_ShowChar + 42
        0x00000602:    2301        .#      MOVS     r3,#1
        0x00000604:    e000        ..      B        0x608 ; LCD_ShowChar + 44
        0x00000606:    2300        .#      MOVS     r3,#0
        0x00000608:    18d2        ..      ADDS     r2,r2,r3
        0x0000060a:    4621        !F      MOV      r1,r4
        0x0000060c:    0fe3        ..      LSRS     r3,r4,#31
        0x0000060e:    185b        [.      ADDS     r3,r3,r1
        0x00000610:    105b        [.      ASRS     r3,r3,#1
        0x00000612:    435a        ZC      MULS     r2,r3,r2
        0x00000614:    b2d2        ..      UXTB     r2,r2
        0x00000616:    9201        ..      STR      r2,[sp,#4]
        0x00000618:    4638        8F      MOV      r0,r7
        0x0000061a:    3820         8      SUBS     r0,r0,#0x20
        0x0000061c:    b2c7        ..      UXTB     r7,r0
        0x0000061e:    2500        .%      MOVS     r5,#0
        0x00000620:    e056        V.      B        0x6d0 ; LCD_ShowChar + 244
        0x00000622:    2c0c        .,      CMP      r4,#0xc
        0x00000624:    d105        ..      BNE      0x632 ; LCD_ShowChar + 86
        0x00000626:    0138        8.      LSLS     r0,r7,#4
        0x00000628:    492c        ,I      LDR      r1,[pc,#176] ; [0x6dc] = 0x48f7
        0x0000062a:    1840        @.      ADDS     r0,r0,r1
        0x0000062c:    5d40        @]      LDRB     r0,[r0,r5]
        0x0000062e:    9004        ..      STR      r0,[sp,#0x10]
        0x00000630:    e011        ..      B        0x656 ; LCD_ShowChar + 122
        0x00000632:    2c10        .,      CMP      r4,#0x10
        0x00000634:    d105        ..      BNE      0x642 ; LCD_ShowChar + 102
        0x00000636:    0138        8.      LSLS     r0,r7,#4
        0x00000638:    4928        (I      LDR      r1,[pc,#160] ; [0x6dc] = 0x48f7
        0x0000063a:    1840        @.      ADDS     r0,r0,r1
        0x0000063c:    5d40        @]      LDRB     r0,[r0,r5]
        0x0000063e:    9004        ..      STR      r0,[sp,#0x10]
        0x00000640:    e009        ..      B        0x656 ; LCD_ShowChar + 122
        0x00000642:    2c18        .,      CMP      r4,#0x18
        0x00000644:    d105        ..      BNE      0x652 ; LCD_ShowChar + 118
        0x00000646:    0138        8.      LSLS     r0,r7,#4
        0x00000648:    4924        $I      LDR      r1,[pc,#144] ; [0x6dc] = 0x48f7
        0x0000064a:    1840        @.      ADDS     r0,r0,r1
        0x0000064c:    5d40        @]      LDRB     r0,[r0,r5]
        0x0000064e:    9004        ..      STR      r0,[sp,#0x10]
        0x00000650:    e001        ..      B        0x656 ; LCD_ShowChar + 122
        0x00000652:    b009        ..      ADD      sp,sp,#0x24
        0x00000654:    bdf0        ..      POP      {r4-r7,pc}
        0x00000656:    2000        .       MOVS     r0,#0
        0x00000658:    9003        ..      STR      r0,[sp,#0xc]
        0x0000065a:    e033        3.      B        0x6c4 ; LCD_ShowChar + 232
        0x0000065c:    2180        .!      MOVS     r1,#0x80
        0x0000065e:    9804        ..      LDR      r0,[sp,#0x10]
        0x00000660:    4008        .@      ANDS     r0,r0,r1
        0x00000662:    2800        .(      CMP      r0,#0
        0x00000664:    d006        ..      BEQ      0x674 ; LCD_ShowChar + 152
        0x00000666:    481e        .H      LDR      r0,[pc,#120] ; [0x6e0] = 0x20001afc
        0x00000668:    8802        ..      LDRH     r2,[r0,#0]
        0x0000066a:    4631        1F      MOV      r1,r6
        0x0000066c:    9805        ..      LDR      r0,[sp,#0x14]
        0x0000066e:    f7ffff87    ....    BL       LCD_Fast_DrawPoint ; 0x580
        0x00000672:    e008        ..      B        0x686 ; LCD_ShowChar + 170
        0x00000674:    9808        ..      LDR      r0,[sp,#0x20]
        0x00000676:    2800        .(      CMP      r0,#0
        0x00000678:    d105        ..      BNE      0x686 ; LCD_ShowChar + 170
        0x0000067a:    481a        .H      LDR      r0,[pc,#104] ; [0x6e4] = 0x20001afe
        0x0000067c:    8802        ..      LDRH     r2,[r0,#0]
        0x0000067e:    4631        1F      MOV      r1,r6
        0x00000680:    9805        ..      LDR      r0,[sp,#0x14]
        0x00000682:    f7ffff7d    ..}.    BL       LCD_Fast_DrawPoint ; 0x580
        0x00000686:    9804        ..      LDR      r0,[sp,#0x10]
        0x00000688:    0640        @.      LSLS     r0,r0,#25
        0x0000068a:    0e00        ..      LSRS     r0,r0,#24
        0x0000068c:    9004        ..      STR      r0,[sp,#0x10]
        0x0000068e:    1c70        p.      ADDS     r0,r6,#1
        0x00000690:    b286        ..      UXTH     r6,r0
        0x00000692:    4815        .H      LDR      r0,[pc,#84] ; [0x6e8] = 0x20001ee8
        0x00000694:    8840        @.      LDRH     r0,[r0,#2]
        0x00000696:    42b0        .B      CMP      r0,r6
        0x00000698:    dc00        ..      BGT      0x69c ; LCD_ShowChar + 192
        0x0000069a:    e7da        ..      B        0x652 ; LCD_ShowChar + 118
        0x0000069c:    9802        ..      LDR      r0,[sp,#8]
        0x0000069e:    1a30        0.      SUBS     r0,r6,r0
        0x000006a0:    42a0        .B      CMP      r0,r4
        0x000006a2:    d10b        ..      BNE      0x6bc ; LCD_ShowChar + 224
        0x000006a4:    9e02        ..      LDR      r6,[sp,#8]
        0x000006a6:    9805        ..      LDR      r0,[sp,#0x14]
        0x000006a8:    1c40        @.      ADDS     r0,r0,#1
        0x000006aa:    b280        ..      UXTH     r0,r0
        0x000006ac:    9005        ..      STR      r0,[sp,#0x14]
        0x000006ae:    480e        .H      LDR      r0,[pc,#56] ; [0x6e8] = 0x20001ee8
        0x000006b0:    8801        ..      LDRH     r1,[r0,#0]
        0x000006b2:    9805        ..      LDR      r0,[sp,#0x14]
        0x000006b4:    4281        .B      CMP      r1,r0
        0x000006b6:    dc00        ..      BGT      0x6ba ; LCD_ShowChar + 222
        0x000006b8:    e7cb        ..      B        0x652 ; LCD_ShowChar + 118
        0x000006ba:    e006        ..      B        0x6ca ; LCD_ShowChar + 238
        0x000006bc:    9803        ..      LDR      r0,[sp,#0xc]
        0x000006be:    1c40        @.      ADDS     r0,r0,#1
        0x000006c0:    b2c0        ..      UXTB     r0,r0
        0x000006c2:    9003        ..      STR      r0,[sp,#0xc]
        0x000006c4:    9803        ..      LDR      r0,[sp,#0xc]
        0x000006c6:    2808        .(      CMP      r0,#8
        0x000006c8:    dbc8        ..      BLT      0x65c ; LCD_ShowChar + 128
        0x000006ca:    bf00        ..      NOP      
        0x000006cc:    1c68        h.      ADDS     r0,r5,#1
        0x000006ce:    b2c5        ..      UXTB     r5,r0
        0x000006d0:    9801        ..      LDR      r0,[sp,#4]
        0x000006d2:    4285        .B      CMP      r5,r0
        0x000006d4:    dba5        ..      BLT      0x622 ; LCD_ShowChar + 70
        0x000006d6:    bf00        ..      NOP      
        0x000006d8:    e7bb        ..      B        0x652 ; LCD_ShowChar + 118
    $d
        0x000006da:    0000        ..      DCW    0
        0x000006dc:    000048f7    .H..    DCD    18679
        0x000006e0:    20001afc    ...     DCD    536877820
        0x000006e4:    20001afe    ...     DCD    536877822
        0x000006e8:    20001ee8    ...     DCD    536878824
    $t
    i.LCD_ShowString
    LCD_ShowString
        0x000006ec:    b5ff        ..      PUSH     {r0-r7,lr}
        0x000006ee:    b081        ..      SUB      sp,sp,#4
        0x000006f0:    4604        .F      MOV      r4,r0
        0x000006f2:    460d        .F      MOV      r5,r1
        0x000006f4:    9e0a        ..      LDR      r6,[sp,#0x28]
        0x000006f6:    2710        .'      MOVS     r7,#0x10
        0x000006f8:    b2e0        ..      UXTB     r0,r4
        0x000006fa:    9000        ..      STR      r0,[sp,#0]
        0x000006fc:    9803        ..      LDR      r0,[sp,#0xc]
        0x000006fe:    1900        ..      ADDS     r0,r0,r4
        0x00000700:    b280        ..      UXTH     r0,r0
        0x00000702:    9003        ..      STR      r0,[sp,#0xc]
        0x00000704:    9804        ..      LDR      r0,[sp,#0x10]
        0x00000706:    1940        @.      ADDS     r0,r0,r5
        0x00000708:    b280        ..      UXTH     r0,r0
        0x0000070a:    9004        ..      STR      r0,[sp,#0x10]
        0x0000070c:    e016        ..      B        0x73c ; LCD_ShowString + 80
        0x0000070e:    9803        ..      LDR      r0,[sp,#0xc]
        0x00000710:    4284        .B      CMP      r4,r0
        0x00000712:    db02        ..      BLT      0x71a ; LCD_ShowString + 46
        0x00000714:    9c00        ..      LDR      r4,[sp,#0]
        0x00000716:    19e8        ..      ADDS     r0,r5,r7
        0x00000718:    b285        ..      UXTH     r5,r0
        0x0000071a:    9804        ..      LDR      r0,[sp,#0x10]
        0x0000071c:    4285        .B      CMP      r5,r0
        0x0000071e:    db00        ..      BLT      0x722 ; LCD_ShowString + 54
        0x00000720:    e012        ..      B        0x748 ; LCD_ShowString + 92
        0x00000722:    7832        2x      LDRB     r2,[r6,#0]
        0x00000724:    2300        .#      MOVS     r3,#0
        0x00000726:    4629        )F      MOV      r1,r5
        0x00000728:    4620         F      MOV      r0,r4
        0x0000072a:    f7ffff57    ..W.    BL       LCD_ShowChar ; 0x5dc
        0x0000072e:    4638        8F      MOV      r0,r7
        0x00000730:    0ff9        ..      LSRS     r1,r7,#31
        0x00000732:    1809        ..      ADDS     r1,r1,r0
        0x00000734:    1049        I.      ASRS     r1,r1,#1
        0x00000736:    1909        ..      ADDS     r1,r1,r4
        0x00000738:    b28c        ..      UXTH     r4,r1
        0x0000073a:    1c76        v.      ADDS     r6,r6,#1
        0x0000073c:    7830        0x      LDRB     r0,[r6,#0]
        0x0000073e:    287e        ~(      CMP      r0,#0x7e
        0x00000740:    dc02        ..      BGT      0x748 ; LCD_ShowString + 92
        0x00000742:    7830        0x      LDRB     r0,[r6,#0]
        0x00000744:    2820         (      CMP      r0,#0x20
        0x00000746:    dae2        ..      BGE      0x70e ; LCD_ShowString + 34
        0x00000748:    bf00        ..      NOP      
        0x0000074a:    b005        ..      ADD      sp,sp,#0x14
        0x0000074c:    bdf0        ..      POP      {r4-r7,pc}
    i.LCD_WR_DATA
    LCD_WR_DATA
        0x0000074e:    b500        ..      PUSH     {lr}
        0x00000750:    4602        .F      MOV      r2,r0
        0x00000752:    2001        .       MOVS     r0,#1
        0x00000754:    2105        .!      MOVS     r1,#5
        0x00000756:    0709        ..      LSLS     r1,r1,#28
        0x00000758:    6048        H`      STR      r0,[r1,#4]
        0x0000075a:    2000        .       MOVS     r0,#0
        0x0000075c:    6008        .`      STR      r0,[r1,#0]
        0x0000075e:    4610        .F      MOV      r0,r2
        0x00000760:    f000f836    ..6.    BL       MakeData ; 0x7d0
        0x00000764:    2000        .       MOVS     r0,#0
        0x00000766:    2105        .!      MOVS     r1,#5
        0x00000768:    0709        ..      LSLS     r1,r1,#28
        0x0000076a:    6088        .`      STR      r0,[r1,#8]
        0x0000076c:    2001        .       MOVS     r0,#1
        0x0000076e:    6088        .`      STR      r0,[r1,#8]
        0x00000770:    6008        .`      STR      r0,[r1,#0]
        0x00000772:    bd00        ..      POP      {pc}
    i.LCD_WR_REG
    LCD_WR_REG
        0x00000774:    b500        ..      PUSH     {lr}
        0x00000776:    4602        .F      MOV      r2,r0
        0x00000778:    2000        .       MOVS     r0,#0
        0x0000077a:    2105        .!      MOVS     r1,#5
        0x0000077c:    0709        ..      LSLS     r1,r1,#28
        0x0000077e:    6048        H`      STR      r0,[r1,#4]
        0x00000780:    6008        .`      STR      r0,[r1,#0]
        0x00000782:    4610        .F      MOV      r0,r2
        0x00000784:    f000f824    ..$.    BL       MakeData ; 0x7d0
        0x00000788:    2000        .       MOVS     r0,#0
        0x0000078a:    2105        .!      MOVS     r1,#5
        0x0000078c:    0709        ..      LSLS     r1,r1,#28
        0x0000078e:    6088        .`      STR      r0,[r1,#8]
        0x00000790:    2001        .       MOVS     r0,#1
        0x00000792:    6088        .`      STR      r0,[r1,#8]
        0x00000794:    6008        .`      STR      r0,[r1,#0]
        0x00000796:    bd00        ..      POP      {pc}
    i.LED_toggle
    LED_toggle
        0x00000798:    b530        0.      PUSH     {r4,r5,lr}
        0x0000079a:    4602        .F      MOV      r2,r0
        0x0000079c:    2000        .       MOVS     r0,#0
        0x0000079e:    2100        .!      MOVS     r1,#0
        0x000007a0:    2300        .#      MOVS     r3,#0
        0x000007a2:    4c0a        .L      LDR      r4,[pc,#40] ; [0x7cc] = 0x40001000
        0x000007a4:    6821        !h      LDR      r1,[r4,#0]
        0x000007a6:    2401        .$      MOVS     r4,#1
        0x000007a8:    4094        .@      LSLS     r4,r4,r2
        0x000007aa:    4620         F      MOV      r0,r4
        0x000007ac:    4604        .F      MOV      r4,r0
        0x000007ae:    400c        .@      ANDS     r4,r4,r1
        0x000007b0:    4623        #F      MOV      r3,r4
        0x000007b2:    2b00        .+      CMP      r3,#0
        0x000007b4:    d104        ..      BNE      0x7c0 ; LED_toggle + 40
        0x000007b6:    460c        .F      MOV      r4,r1
        0x000007b8:    4304        .C      ORRS     r4,r4,r0
        0x000007ba:    4d04        .M      LDR      r5,[pc,#16] ; [0x7cc] = 0x40001000
        0x000007bc:    602c        ,`      STR      r4,[r5,#0]
        0x000007be:    e003        ..      B        0x7c8 ; LED_toggle + 48
        0x000007c0:    460c        .F      MOV      r4,r1
        0x000007c2:    4384        .C      BICS     r4,r4,r0
        0x000007c4:    4d01        .M      LDR      r5,[pc,#4] ; [0x7cc] = 0x40001000
        0x000007c6:    602c        ,`      STR      r4,[r5,#0]
        0x000007c8:    bd30        0.      POP      {r4,r5,pc}
    $d
        0x000007ca:    0000        ..      DCW    0
        0x000007cc:    40001000    ...@    DCD    1073745920
    $t
    i.MakeData
    MakeData
        0x000007d0:    2105        .!      MOVS     r1,#5
        0x000007d2:    0709        ..      LSLS     r1,r1,#28
        0x000007d4:    6188        .a      STR      r0,[r1,#0x18]
        0x000007d6:    4770        pG      BX       lr
    i.MemManageHandler
    MemManageHandler
        0x000007d8:    4770        pG      BX       lr
    i.NMIHandler
    NMIHandler
        0x000007da:    4770        pG      BX       lr
    i.NVIC_EnableIRQ
    NVIC_EnableIRQ
        0x000007dc:    06c2        ..      LSLS     r2,r0,#27
        0x000007de:    0ed2        ..      LSRS     r2,r2,#27
        0x000007e0:    2101        .!      MOVS     r1,#1
        0x000007e2:    4091        .@      LSLS     r1,r1,r2
        0x000007e4:    4a01        .J      LDR      r2,[pc,#4] ; [0x7ec] = 0xe000e100
        0x000007e6:    6011        .`      STR      r1,[r2,#0]
        0x000007e8:    4770        pG      BX       lr
    $d
        0x000007ea:    0000        ..      DCW    0
        0x000007ec:    e000e100    ....    DCD    3758153984
    $t
    i.PS2_ClearData
    PS2_ClearData
        0x000007f0:    2000        .       MOVS     r0,#0
        0x000007f2:    e004        ..      B        0x7fe ; PS2_ClearData + 14
        0x000007f4:    2100        .!      MOVS     r1,#0
        0x000007f6:    4a03        .J      LDR      r2,[pc,#12] ; [0x804] = 0x20002ff8
        0x000007f8:    5411        .T      STRB     r1,[r2,r0]
        0x000007fa:    1c41        A.      ADDS     r1,r0,#1
        0x000007fc:    b2c8        ..      UXTB     r0,r1
        0x000007fe:    2809        .(      CMP      r0,#9
        0x00000800:    dbf8        ..      BLT      0x7f4 ; PS2_ClearData + 4
        0x00000802:    4770        pG      BX       lr
    $d
        0x00000804:    20002ff8    ./.     DCD    536883192
    $t
    i.PS2_Cmd
    PS2_Cmd
        0x00000808:    b538        8.      PUSH     {r3-r5,lr}
        0x0000080a:    4604        .F      MOV      r4,r0
        0x0000080c:    2101        .!      MOVS     r1,#1
        0x0000080e:    9100        ..      STR      r1,[sp,#0]
        0x00000810:    2000        .       MOVS     r0,#0
        0x00000812:    491c        .I      LDR      r1,[pc,#112] ; [0x884] = 0x20002ff8
        0x00000814:    7048        Hp      STRB     r0,[r1,#1]
        0x00000816:    2101        .!      MOVS     r1,#1
        0x00000818:    9100        ..      STR      r1,[sp,#0]
        0x0000081a:    e02a        *.      B        0x872 ; PS2_Cmd + 106
        0x0000081c:    4668        hF      MOV      r0,sp
        0x0000081e:    8800        ..      LDRH     r0,[r0,#0]
        0x00000820:    4020         @      ANDS     r0,r0,r4
        0x00000822:    2800        .(      CMP      r0,#0
        0x00000824:    d003        ..      BEQ      0x82e ; PS2_Cmd + 38
        0x00000826:    2001        .       MOVS     r0,#1
        0x00000828:    4917        .I      LDR      r1,[pc,#92] ; [0x888] = 0x40005000
        0x0000082a:    6088        .`      STR      r0,[r1,#8]
        0x0000082c:    e002        ..      B        0x834 ; PS2_Cmd + 44
        0x0000082e:    2000        .       MOVS     r0,#0
        0x00000830:    4915        .I      LDR      r1,[pc,#84] ; [0x888] = 0x40005000
        0x00000832:    6088        .`      STR      r0,[r1,#8]
        0x00000834:    2001        .       MOVS     r0,#1
        0x00000836:    4914        .I      LDR      r1,[pc,#80] ; [0x888] = 0x40005000
        0x00000838:    6048        H`      STR      r0,[r1,#4]
        0x0000083a:    2005        .       MOVS     r0,#5
        0x0000083c:    f000febc    ....    BL       delay_us ; 0x15b8
        0x00000840:    2000        .       MOVS     r0,#0
        0x00000842:    4911        .I      LDR      r1,[pc,#68] ; [0x888] = 0x40005000
        0x00000844:    6048        H`      STR      r0,[r1,#4]
        0x00000846:    2005        .       MOVS     r0,#5
        0x00000848:    f000feb6    ....    BL       delay_us ; 0x15b8
        0x0000084c:    2001        .       MOVS     r0,#1
        0x0000084e:    490e        .I      LDR      r1,[pc,#56] ; [0x888] = 0x40005000
        0x00000850:    6048        H`      STR      r0,[r1,#4]
        0x00000852:    f002fe59    ..Y.    BL       readPs2DI ; 0x3508
        0x00000856:    2800        .(      CMP      r0,#0
        0x00000858:    d006        ..      BEQ      0x868 ; PS2_Cmd + 96
        0x0000085a:    480a        .H      LDR      r0,[pc,#40] ; [0x884] = 0x20002ff8
        0x0000085c:    7840        @x      LDRB     r0,[r0,#1]
        0x0000085e:    4669        iF      MOV      r1,sp
        0x00000860:    8809        ..      LDRH     r1,[r1,#0]
        0x00000862:    4308        .C      ORRS     r0,r0,r1
        0x00000864:    4907        .I      LDR      r1,[pc,#28] ; [0x884] = 0x20002ff8
        0x00000866:    7048        Hp      STRB     r0,[r1,#1]
        0x00000868:    4668        hF      MOV      r0,sp
        0x0000086a:    8800        ..      LDRH     r0,[r0,#0]
        0x0000086c:    0440        @.      LSLS     r0,r0,#17
        0x0000086e:    0c01        ..      LSRS     r1,r0,#16
        0x00000870:    9100        ..      STR      r1,[sp,#0]
        0x00000872:    4668        hF      MOV      r0,sp
        0x00000874:    8800        ..      LDRH     r0,[r0,#0]
        0x00000876:    28ff        .(      CMP      r0,#0xff
        0x00000878:    ddd0        ..      BLE      0x81c ; PS2_Cmd + 20
        0x0000087a:    2010        .       MOVS     r0,#0x10
        0x0000087c:    f000fe9c    ....    BL       delay_us ; 0x15b8
        0x00000880:    bd38        8.      POP      {r3-r5,pc}
    $d
        0x00000882:    0000        ..      DCW    0
        0x00000884:    20002ff8    ./.     DCD    536883192
        0x00000888:    40005000    .P.@    DCD    1073762304
    $t
    i.PS2_DataKey
    PS2_DataKey
        0x0000088c:    b510        ..      PUSH     {r4,lr}
        0x0000088e:    f7ffffaf    ....    BL       PS2_ClearData ; 0x7f0
        0x00000892:    f000f82d    ..-.    BL       PS2_ReadData ; 0x8f0
        0x00000896:    480f        .H      LDR      r0,[pc,#60] ; [0x8d4] = 0x20002ff8
        0x00000898:    7900        .y      LDRB     r0,[r0,#4]
        0x0000089a:    0200        ..      LSLS     r0,r0,#8
        0x0000089c:    490d        .I      LDR      r1,[pc,#52] ; [0x8d4] = 0x20002ff8
        0x0000089e:    78c9        .x      LDRB     r1,[r1,#3]
        0x000008a0:    4308        .C      ORRS     r0,r0,r1
        0x000008a2:    490d        .I      LDR      r1,[pc,#52] ; [0x8d8] = 0x20001b1c
        0x000008a4:    8008        ..      STRH     r0,[r1,#0]
        0x000008a6:    2400        .$      MOVS     r4,#0
        0x000008a8:    e00f        ..      B        0x8ca ; PS2_DataKey + 62
        0x000008aa:    0060        `.      LSLS     r0,r4,#1
        0x000008ac:    490b        .I      LDR      r1,[pc,#44] ; [0x8dc] = 0x20001b20
        0x000008ae:    5c09        .\      LDRB     r1,[r1,r0]
        0x000008b0:    1e49        I.      SUBS     r1,r1,#1
        0x000008b2:    2001        .       MOVS     r0,#1
        0x000008b4:    4088        .@      LSLS     r0,r0,r1
        0x000008b6:    4908        .I      LDR      r1,[pc,#32] ; [0x8d8] = 0x20001b1c
        0x000008b8:    8809        ..      LDRH     r1,[r1,#0]
        0x000008ba:    4008        .@      ANDS     r0,r0,r1
        0x000008bc:    2800        .(      CMP      r0,#0
        0x000008be:    d102        ..      BNE      0x8c6 ; PS2_DataKey + 58
        0x000008c0:    1c60        `.      ADDS     r0,r4,#1
        0x000008c2:    b2c0        ..      UXTB     r0,r0
        0x000008c4:    bd10        ..      POP      {r4,pc}
        0x000008c6:    1c60        `.      ADDS     r0,r4,#1
        0x000008c8:    b2c4        ..      UXTB     r4,r0
        0x000008ca:    2c10        .,      CMP      r4,#0x10
        0x000008cc:    dbed        ..      BLT      0x8aa ; PS2_DataKey + 30
        0x000008ce:    2000        .       MOVS     r0,#0
        0x000008d0:    e7f8        ..      B        0x8c4 ; PS2_DataKey + 56
    $d
        0x000008d2:    0000        ..      DCW    0
        0x000008d4:    20002ff8    ./.     DCD    536883192
        0x000008d8:    20001b1c    ...     DCD    536877852
        0x000008dc:    20001b20     ..     DCD    536877856
    $t
    i.PS2_Init
    PS2_Init
        0x000008e0:    2000        .       MOVS     r0,#0
        0x000008e2:    4902        .I      LDR      r1,[pc,#8] ; [0x8ec] = 0x40005000
        0x000008e4:    6008        .`      STR      r0,[r1,#0]
        0x000008e6:    6048        H`      STR      r0,[r1,#4]
        0x000008e8:    6088        .`      STR      r0,[r1,#8]
        0x000008ea:    4770        pG      BX       lr
    $d
        0x000008ec:    40005000    .P.@    DCD    1073762304
    $t
    i.PS2_ReadData
    PS2_ReadData
        0x000008f0:    b51c        ..      PUSH     {r2-r4,lr}
        0x000008f2:    2100        .!      MOVS     r1,#0
        0x000008f4:    9101        ..      STR      r1,[sp,#4]
        0x000008f6:    2101        .!      MOVS     r1,#1
        0x000008f8:    9100        ..      STR      r1,[sp,#0]
        0x000008fa:    2000        .       MOVS     r0,#0
        0x000008fc:    4923        #I      LDR      r1,[pc,#140] ; [0x98c] = 0x40005000
        0x000008fe:    6008        .`      STR      r0,[r1,#0]
        0x00000900:    4923        #I      LDR      r1,[pc,#140] ; [0x990] = 0x20001b1e
        0x00000902:    7808        .x      LDRB     r0,[r1,#0]
        0x00000904:    f7ffff80    ....    BL       PS2_Cmd ; 0x808
        0x00000908:    4921        !I      LDR      r1,[pc,#132] ; [0x990] = 0x20001b1e
        0x0000090a:    7848        Hx      LDRB     r0,[r1,#1]
        0x0000090c:    f7ffff7c    ..|.    BL       PS2_Cmd ; 0x808
        0x00000910:    2102        .!      MOVS     r1,#2
        0x00000912:    9101        ..      STR      r1,[sp,#4]
        0x00000914:    e031        1.      B        0x97a ; PS2_ReadData + 138
        0x00000916:    2001        .       MOVS     r0,#1
        0x00000918:    9000        ..      STR      r0,[sp,#0]
        0x0000091a:    e022        ".      B        0x962 ; PS2_ReadData + 114
        0x0000091c:    2001        .       MOVS     r0,#1
        0x0000091e:    491b        .I      LDR      r1,[pc,#108] ; [0x98c] = 0x40005000
        0x00000920:    6048        H`      STR      r0,[r1,#4]
        0x00000922:    2005        .       MOVS     r0,#5
        0x00000924:    f000fe48    ..H.    BL       delay_us ; 0x15b8
        0x00000928:    2000        .       MOVS     r0,#0
        0x0000092a:    4918        .I      LDR      r1,[pc,#96] ; [0x98c] = 0x40005000
        0x0000092c:    6048        H`      STR      r0,[r1,#4]
        0x0000092e:    2005        .       MOVS     r0,#5
        0x00000930:    f000fe42    ..B.    BL       delay_us ; 0x15b8
        0x00000934:    2001        .       MOVS     r0,#1
        0x00000936:    4915        .I      LDR      r1,[pc,#84] ; [0x98c] = 0x40005000
        0x00000938:    6048        H`      STR      r0,[r1,#4]
        0x0000093a:    f002fde5    ....    BL       readPs2DI ; 0x3508
        0x0000093e:    2800        .(      CMP      r0,#0
        0x00000940:    d00a        ..      BEQ      0x958 ; PS2_ReadData + 104
        0x00000942:    4914        .I      LDR      r1,[pc,#80] ; [0x994] = 0x20002ff8
        0x00000944:    4668        hF      MOV      r0,sp
        0x00000946:    7900        .y      LDRB     r0,[r0,#4]
        0x00000948:    5c09        .\      LDRB     r1,[r1,r0]
        0x0000094a:    4668        hF      MOV      r0,sp
        0x0000094c:    8800        ..      LDRH     r0,[r0,#0]
        0x0000094e:    4301        .C      ORRS     r1,r1,r0
        0x00000950:    4a10        .J      LDR      r2,[pc,#64] ; [0x994] = 0x20002ff8
        0x00000952:    4668        hF      MOV      r0,sp
        0x00000954:    7900        .y      LDRB     r0,[r0,#4]
        0x00000956:    5411        .T      STRB     r1,[r2,r0]
        0x00000958:    4668        hF      MOV      r0,sp
        0x0000095a:    8800        ..      LDRH     r0,[r0,#0]
        0x0000095c:    0440        @.      LSLS     r0,r0,#17
        0x0000095e:    0c01        ..      LSRS     r1,r0,#16
        0x00000960:    9100        ..      STR      r1,[sp,#0]
        0x00000962:    4668        hF      MOV      r0,sp
        0x00000964:    8800        ..      LDRH     r0,[r0,#0]
        0x00000966:    28ff        .(      CMP      r0,#0xff
        0x00000968:    ddd8        ..      BLE      0x91c ; PS2_ReadData + 44
        0x0000096a:    2010        .       MOVS     r0,#0x10
        0x0000096c:    f000fe24    ..$.    BL       delay_us ; 0x15b8
        0x00000970:    4668        hF      MOV      r0,sp
        0x00000972:    7900        .y      LDRB     r0,[r0,#4]
        0x00000974:    1c40        @.      ADDS     r0,r0,#1
        0x00000976:    b2c1        ..      UXTB     r1,r0
        0x00000978:    9101        ..      STR      r1,[sp,#4]
        0x0000097a:    4668        hF      MOV      r0,sp
        0x0000097c:    7900        .y      LDRB     r0,[r0,#4]
        0x0000097e:    2809        .(      CMP      r0,#9
        0x00000980:    dbc9        ..      BLT      0x916 ; PS2_ReadData + 38
        0x00000982:    2001        .       MOVS     r0,#1
        0x00000984:    4901        .I      LDR      r1,[pc,#4] ; [0x98c] = 0x40005000
        0x00000986:    6008        .`      STR      r0,[r1,#0]
        0x00000988:    bd1c        ..      POP      {r2-r4,pc}
    $d
        0x0000098a:    0000        ..      DCW    0
        0x0000098c:    40005000    .P.@    DCD    1073762304
        0x00000990:    20001b1e    ...     DCD    536877854
        0x00000994:    20002ff8    ./.     DCD    536883192
    $t
    i.PendSVHandler
    PendSVHandler
        0x00000998:    4770        pG      BX       lr
        0x0000099a:    0000        ..      MOVS     r0,r0
    i.SPI_FLASH_Write_Enable
    SPI_FLASH_Write_Enable
        0x0000099c:    b500        ..      PUSH     {lr}
        0x0000099e:    2000        .       MOVS     r0,#0
        0x000009a0:    4904        .I      LDR      r1,[pc,#16] ; [0x9b4] = 0x40004000
        0x000009a2:    6008        .`      STR      r0,[r1,#0]
        0x000009a4:    2006        .       MOVS     r0,#6
        0x000009a6:    f000f89b    ....    BL       SPI_ReadWriteByte ; 0xae0
        0x000009aa:    2001        .       MOVS     r0,#1
        0x000009ac:    4901        .I      LDR      r1,[pc,#4] ; [0x9b4] = 0x40004000
        0x000009ae:    6008        .`      STR      r0,[r1,#0]
        0x000009b0:    bd00        ..      POP      {pc}
    $d
        0x000009b2:    0000        ..      DCW    0
        0x000009b4:    40004000    .@.@    DCD    1073758208
    $t
    i.SPI_Flash_Erase_Block
    SPI_Flash_Erase_Block
        0x000009b8:    b510        ..      PUSH     {r4,lr}
        0x000009ba:    4604        .F      MOV      r4,r0
        0x000009bc:    0424        $.      LSLS     r4,r4,#16
        0x000009be:    f7ffffed    ....    BL       SPI_FLASH_Write_Enable ; 0x99c
        0x000009c2:    f000f853    ..S.    BL       SPI_Flash_Wait_Busy ; 0xa6c
        0x000009c6:    2000        .       MOVS     r0,#0
        0x000009c8:    490a        .I      LDR      r1,[pc,#40] ; [0x9f4] = 0x40004000
        0x000009ca:    6008        .`      STR      r0,[r1,#0]
        0x000009cc:    20d8        .       MOVS     r0,#0xd8
        0x000009ce:    f000f887    ....    BL       SPI_ReadWriteByte ; 0xae0
        0x000009d2:    0221        !.      LSLS     r1,r4,#8
        0x000009d4:    0e08        ..      LSRS     r0,r1,#24
        0x000009d6:    f000f883    ....    BL       SPI_ReadWriteByte ; 0xae0
        0x000009da:    0421        !.      LSLS     r1,r4,#16
        0x000009dc:    0e08        ..      LSRS     r0,r1,#24
        0x000009de:    f000f87f    ....    BL       SPI_ReadWriteByte ; 0xae0
        0x000009e2:    b2e0        ..      UXTB     r0,r4
        0x000009e4:    f000f87c    ..|.    BL       SPI_ReadWriteByte ; 0xae0
        0x000009e8:    2001        .       MOVS     r0,#1
        0x000009ea:    4902        .I      LDR      r1,[pc,#8] ; [0x9f4] = 0x40004000
        0x000009ec:    6008        .`      STR      r0,[r1,#0]
        0x000009ee:    f000f83d    ..=.    BL       SPI_Flash_Wait_Busy ; 0xa6c
        0x000009f2:    bd10        ..      POP      {r4,pc}
    $d
        0x000009f4:    40004000    .@.@    DCD    1073758208
    $t
    i.SPI_Flash_Read
    SPI_Flash_Read
        0x000009f8:    b5f0        ..      PUSH     {r4-r7,lr}
        0x000009fa:    4606        .F      MOV      r6,r0
        0x000009fc:    460c        .F      MOV      r4,r1
        0x000009fe:    4617        .F      MOV      r7,r2
        0x00000a00:    2000        .       MOVS     r0,#0
        0x00000a02:    490f        .I      LDR      r1,[pc,#60] ; [0xa40] = 0x40004000
        0x00000a04:    6008        .`      STR      r0,[r1,#0]
        0x00000a06:    2003        .       MOVS     r0,#3
        0x00000a08:    f000f86a    ..j.    BL       SPI_ReadWriteByte ; 0xae0
        0x00000a0c:    0221        !.      LSLS     r1,r4,#8
        0x00000a0e:    0e08        ..      LSRS     r0,r1,#24
        0x00000a10:    f000f866    ..f.    BL       SPI_ReadWriteByte ; 0xae0
        0x00000a14:    0421        !.      LSLS     r1,r4,#16
        0x00000a16:    0e08        ..      LSRS     r0,r1,#24
        0x00000a18:    f000f862    ..b.    BL       SPI_ReadWriteByte ; 0xae0
        0x00000a1c:    b2e0        ..      UXTB     r0,r4
        0x00000a1e:    f000f85f    .._.    BL       SPI_ReadWriteByte ; 0xae0
        0x00000a22:    2500        .%      MOVS     r5,#0
        0x00000a24:    e005        ..      B        0xa32 ; SPI_Flash_Read + 58
        0x00000a26:    20ff        .       MOVS     r0,#0xff
        0x00000a28:    f000f85a    ..Z.    BL       SPI_ReadWriteByte ; 0xae0
        0x00000a2c:    5570        pU      STRB     r0,[r6,r5]
        0x00000a2e:    1c68        h.      ADDS     r0,r5,#1
        0x00000a30:    b285        ..      UXTH     r5,r0
        0x00000a32:    42bd        .B      CMP      r5,r7
        0x00000a34:    dbf7        ..      BLT      0xa26 ; SPI_Flash_Read + 46
        0x00000a36:    2001        .       MOVS     r0,#1
        0x00000a38:    4901        .I      LDR      r1,[pc,#4] ; [0xa40] = 0x40004000
        0x00000a3a:    6008        .`      STR      r0,[r1,#0]
        0x00000a3c:    bdf0        ..      POP      {r4-r7,pc}
    $d
        0x00000a3e:    0000        ..      DCW    0
        0x00000a40:    40004000    .@.@    DCD    1073758208
    $t
    i.SPI_Flash_ReadSR
    SPI_Flash_ReadSR
        0x00000a44:    b510        ..      PUSH     {r4,lr}
        0x00000a46:    2400        .$      MOVS     r4,#0
        0x00000a48:    2000        .       MOVS     r0,#0
        0x00000a4a:    4907        .I      LDR      r1,[pc,#28] ; [0xa68] = 0x40004000
        0x00000a4c:    6008        .`      STR      r0,[r1,#0]
        0x00000a4e:    2005        .       MOVS     r0,#5
        0x00000a50:    f000f846    ..F.    BL       SPI_ReadWriteByte ; 0xae0
        0x00000a54:    20ff        .       MOVS     r0,#0xff
        0x00000a56:    f000f843    ..C.    BL       SPI_ReadWriteByte ; 0xae0
        0x00000a5a:    4604        .F      MOV      r4,r0
        0x00000a5c:    2001        .       MOVS     r0,#1
        0x00000a5e:    4902        .I      LDR      r1,[pc,#8] ; [0xa68] = 0x40004000
        0x00000a60:    6008        .`      STR      r0,[r1,#0]
        0x00000a62:    4620         F      MOV      r0,r4
        0x00000a64:    bd10        ..      POP      {r4,pc}
    $d
        0x00000a66:    0000        ..      DCW    0
        0x00000a68:    40004000    .@.@    DCD    1073758208
    $t
    i.SPI_Flash_Wait_Busy
    SPI_Flash_Wait_Busy
        0x00000a6c:    b500        ..      PUSH     {lr}
        0x00000a6e:    bf00        ..      NOP      
        0x00000a70:    f7ffffe8    ....    BL       SPI_Flash_ReadSR ; 0xa44
        0x00000a74:    07c0        ..      LSLS     r0,r0,#31
        0x00000a76:    0fc0        ..      LSRS     r0,r0,#31
        0x00000a78:    2800        .(      CMP      r0,#0
        0x00000a7a:    d1f9        ..      BNE      0xa70 ; SPI_Flash_Wait_Busy + 4
        0x00000a7c:    bd00        ..      POP      {pc}
        0x00000a7e:    0000        ..      MOVS     r0,r0
    i.SPI_Flash_Write_Page
    SPI_Flash_Write_Page
        0x00000a80:    b5f0        ..      PUSH     {r4-r7,lr}
        0x00000a82:    4606        .F      MOV      r6,r0
        0x00000a84:    460c        .F      MOV      r4,r1
        0x00000a86:    4617        .F      MOV      r7,r2
        0x00000a88:    f7ffff88    ....    BL       SPI_FLASH_Write_Enable ; 0x99c
        0x00000a8c:    2000        .       MOVS     r0,#0
        0x00000a8e:    490f        .I      LDR      r1,[pc,#60] ; [0xacc] = 0x40004000
        0x00000a90:    6008        .`      STR      r0,[r1,#0]
        0x00000a92:    2002        .       MOVS     r0,#2
        0x00000a94:    f000f824    ..$.    BL       SPI_ReadWriteByte ; 0xae0
        0x00000a98:    0221        !.      LSLS     r1,r4,#8
        0x00000a9a:    0e08        ..      LSRS     r0,r1,#24
        0x00000a9c:    f000f820    .. .    BL       SPI_ReadWriteByte ; 0xae0
        0x00000aa0:    0421        !.      LSLS     r1,r4,#16
        0x00000aa2:    0e08        ..      LSRS     r0,r1,#24
        0x00000aa4:    f000f81c    ....    BL       SPI_ReadWriteByte ; 0xae0
        0x00000aa8:    b2e0        ..      UXTB     r0,r4
        0x00000aaa:    f000f819    ....    BL       SPI_ReadWriteByte ; 0xae0
        0x00000aae:    2500        .%      MOVS     r5,#0
        0x00000ab0:    e004        ..      B        0xabc ; SPI_Flash_Write_Page + 60
        0x00000ab2:    5d70        p]      LDRB     r0,[r6,r5]
        0x00000ab4:    f000f814    ....    BL       SPI_ReadWriteByte ; 0xae0
        0x00000ab8:    1c68        h.      ADDS     r0,r5,#1
        0x00000aba:    b285        ..      UXTH     r5,r0
        0x00000abc:    42bd        .B      CMP      r5,r7
        0x00000abe:    dbf8        ..      BLT      0xab2 ; SPI_Flash_Write_Page + 50
        0x00000ac0:    2001        .       MOVS     r0,#1
        0x00000ac2:    4902        .I      LDR      r1,[pc,#8] ; [0xacc] = 0x40004000
        0x00000ac4:    6008        .`      STR      r0,[r1,#0]
        0x00000ac6:    f7ffffd1    ....    BL       SPI_Flash_Wait_Busy ; 0xa6c
        0x00000aca:    bdf0        ..      POP      {r4-r7,pc}
    $d
        0x00000acc:    40004000    .@.@    DCD    1073758208
    $t
    i.SPI_Init
    SPI_Init
        0x00000ad0:    4902        .I      LDR      r1,[pc,#8] ; [0xadc] = 0x40004000
        0x00000ad2:    6048        H`      STR      r0,[r1,#4]
        0x00000ad4:    2101        .!      MOVS     r1,#1
        0x00000ad6:    4a01        .J      LDR      r2,[pc,#4] ; [0xadc] = 0x40004000
        0x00000ad8:    6011        .`      STR      r1,[r2,#0]
        0x00000ada:    4770        pG      BX       lr
    $d
        0x00000adc:    40004000    .@.@    DCD    1073758208
    $t
    i.SPI_ReadWriteByte
    SPI_ReadWriteByte
        0x00000ae0:    b510        ..      PUSH     {r4,lr}
        0x00000ae2:    4604        .F      MOV      r4,r0
        0x00000ae4:    2300        .#      MOVS     r3,#0
        0x00000ae6:    e005        ..      B        0xaf4 ; SPI_ReadWriteByte + 20
        0x00000ae8:    1c58        X.      ADDS     r0,r3,#1
        0x00000aea:    b2c3        ..      UXTB     r3,r0
        0x00000aec:    2bc8        .+      CMP      r3,#0xc8
        0x00000aee:    dd01        ..      BLE      0xaf4 ; SPI_ReadWriteByte + 20
        0x00000af0:    2000        .       MOVS     r0,#0
        0x00000af2:    bd10        ..      POP      {r4,pc}
        0x00000af4:    f7fffd2a    ..*.    BL       Is_SPI_Ready ; 0x54c
        0x00000af8:    2800        .(      CMP      r0,#0
        0x00000afa:    d0f5        ..      BEQ      0xae8 ; SPI_ReadWriteByte + 8
        0x00000afc:    4620         F      MOV      r0,r4
        0x00000afe:    f000f813    ....    BL       SPI_SendData ; 0xb28
        0x00000b02:    2300        .#      MOVS     r3,#0
        0x00000b04:    e005        ..      B        0xb12 ; SPI_ReadWriteByte + 50
        0x00000b06:    1c58        X.      ADDS     r0,r3,#1
        0x00000b08:    b2c3        ..      UXTB     r3,r0
        0x00000b0a:    2bc8        .+      CMP      r3,#0xc8
        0x00000b0c:    dd01        ..      BLE      0xb12 ; SPI_ReadWriteByte + 50
        0x00000b0e:    2000        .       MOVS     r0,#0
        0x00000b10:    e7ef        ..      B        0xaf2 ; SPI_ReadWriteByte + 18
        0x00000b12:    f7fffd1b    ....    BL       Is_SPI_Ready ; 0x54c
        0x00000b16:    2800        .(      CMP      r0,#0
        0x00000b18:    d0f5        ..      BEQ      0xb06 ; SPI_ReadWriteByte + 38
        0x00000b1a:    4802        .H      LDR      r0,[pc,#8] ; [0xb24] = 0x40004000
        0x00000b1c:    6900        .i      LDR      r0,[r0,#0x10]
        0x00000b1e:    b2c0        ..      UXTB     r0,r0
        0x00000b20:    e7e7        ..      B        0xaf2 ; SPI_ReadWriteByte + 18
    $d
        0x00000b22:    0000        ..      DCW    0
        0x00000b24:    40004000    .@.@    DCD    1073758208
    $t
    i.SPI_SendData
    SPI_SendData
        0x00000b28:    4903        .I      LDR      r1,[pc,#12] ; [0xb38] = 0x40004000
        0x00000b2a:    6088        .`      STR      r0,[r1,#8]
        0x00000b2c:    2101        .!      MOVS     r1,#1
        0x00000b2e:    4a02        .J      LDR      r2,[pc,#8] ; [0xb38] = 0x40004000
        0x00000b30:    60d1        .`      STR      r1,[r2,#0xc]
        0x00000b32:    2100        .!      MOVS     r1,#0
        0x00000b34:    60d1        .`      STR      r1,[r2,#0xc]
        0x00000b36:    4770        pG      BX       lr
    $d
        0x00000b38:    40004000    .@.@    DCD    1073758208
    $t
    i.SVCHandler
    SVCHandler
        0x00000b3c:    4770        pG      BX       lr
        0x00000b3e:    0000        ..      MOVS     r0,r0
    i.Set_SysTick_CTRL
    Set_SysTick_CTRL
        0x00000b40:    4901        .I      LDR      r1,[pc,#4] ; [0xb48] = 0xe000e000
        0x00000b42:    6108        .a      STR      r0,[r1,#0x10]
        0x00000b44:    4770        pG      BX       lr
    $d
        0x00000b46:    0000        ..      DCW    0
        0x00000b48:    e000e000    ....    DCD    3758153728
    $t
    i.Set_SysTick_LOAD
    Set_SysTick_LOAD
        0x00000b4c:    4901        .I      LDR      r1,[pc,#4] ; [0xb54] = 0xe000e000
        0x00000b4e:    6148        Ha      STR      r0,[r1,#0x14]
        0x00000b50:    4770        pG      BX       lr
    $d
        0x00000b52:    0000        ..      DCW    0
        0x00000b54:    e000e000    ....    DCD    3758153728
    $t
    i.Set_SysTick_VALUE
    Set_SysTick_VALUE
        0x00000b58:    4901        .I      LDR      r1,[pc,#4] ; [0xb60] = 0xe000e000
        0x00000b5a:    6188        .a      STR      r0,[r1,#0x18]
        0x00000b5c:    4770        pG      BX       lr
    $d
        0x00000b5e:    0000        ..      DCW    0
        0x00000b60:    e000e000    ....    DCD    3758153728
    $t
    i.SysTickHandler
    SysTickHandler
        0x00000b64:    b510        ..      PUSH     {r4,lr}
        0x00000b66:    2000        .       MOVS     r0,#0
        0x00000b68:    f7ffffea    ....    BL       Set_SysTick_CTRL ; 0xb40
        0x00000b6c:    4803        .H      LDR      r0,[pc,#12] ; [0xb7c] = 0xe000ed00
        0x00000b6e:    6840        @h      LDR      r0,[r0,#4]
        0x00000b70:    2101        .!      MOVS     r1,#1
        0x00000b72:    0649        I.      LSLS     r1,r1,#25
        0x00000b74:    4308        .C      ORRS     r0,r0,r1
        0x00000b76:    4901        .I      LDR      r1,[pc,#4] ; [0xb7c] = 0xe000ed00
        0x00000b78:    6048        H`      STR      r0,[r1,#4]
        0x00000b7a:    bd10        ..      POP      {r4,pc}
    $d
        0x00000b7c:    e000ed00    ....    DCD    3758157056
    $t
    i.SystemInit
    SystemInit
        0x00000b80:    b510        ..      PUSH     {r4,lr}
        0x00000b82:    2001        .       MOVS     r0,#1
        0x00000b84:    f7fffe2a    ..*.    BL       NVIC_EnableIRQ ; 0x7dc
        0x00000b88:    2000        .       MOVS     r0,#0
        0x00000b8a:    f7fffe27    ..'.    BL       NVIC_EnableIRQ ; 0x7dc
        0x00000b8e:    2007        .       MOVS     r0,#7
        0x00000b90:    f7fffe24    ..$.    BL       NVIC_EnableIRQ ; 0x7dc
        0x00000b94:    2008        .       MOVS     r0,#8
        0x00000b96:    f7fffe21    ..!.    BL       NVIC_EnableIRQ ; 0x7dc
        0x00000b9a:    bd10        ..      POP      {r4,pc}
    i.Timer_Handler
    Timer_Handler
        0x00000b9c:    4770        pG      BX       lr
    i.UARTOVRHandler
    UARTOVRHandler
        0x00000b9e:    4770        pG      BX       lr
    i.UARTRXHandler
    UARTRXHandler
        0x00000ba0:    b510        ..      PUSH     {r4,lr}
        0x00000ba2:    2001        .       MOVS     r0,#1
        0x00000ba4:    0780        ..      LSLS     r0,r0,#30
        0x00000ba6:    f003fda5    ....    BL       uart_ClearRxIRQ ; 0x46f4
        0x00000baa:    2001        .       MOVS     r0,#1
        0x00000bac:    f7fffdf4    ....    BL       LED_toggle ; 0x798
        0x00000bb0:    a001        ..      ADR      r0,{pc}+8 ; 0xbb8
        0x00000bb2:    f000f82d    ..-.    BL       __0printf$5 ; 0xc10
        0x00000bb6:    bd10        ..      POP      {r4,pc}
    $d
        0x00000bb8:    74726175    uart    DCD    1953653109
        0x00000bbc:    2078725f    _rx     DCD    544764511
        0x00000bc0:    20746e69    int     DCD    544501353
        0x00000bc4:    7563636f    occu    DCD    1969447791
        0x00000bc8:    21212172    r!!!    DCD    555819378
        0x00000bcc:    0000000a    ....    DCD    10
    $t
    i.UARTTXHandler
    UARTTXHandler
        0x00000bd0:    b508        ..      PUSH     {r3,lr}
        0x00000bd2:    2001        .       MOVS     r0,#1
        0x00000bd4:    0780        ..      LSLS     r0,r0,#30
        0x00000bd6:    f003fd90    ....    BL       uart_ClearTxIRQ ; 0x46fa
        0x00000bda:    2002        .       MOVS     r0,#2
        0x00000bdc:    f7fffddc    ....    BL       LED_toggle ; 0x798
        0x00000be0:    a004        ..      ADR      r0,{pc}+0x14 ; 0xbf4
        0x00000be2:    23ff        .#      MOVS     r3,#0xff
        0x00000be4:    3341        A3      ADDS     r3,r3,#0x41
        0x00000be6:    22f0        ."      MOVS     r2,#0xf0
        0x00000be8:    2100        .!      MOVS     r1,#0
        0x00000bea:    9000        ..      STR      r0,[sp,#0]
        0x00000bec:    4608        .F      MOV      r0,r1
        0x00000bee:    f7fffd7d    ..}.    BL       LCD_ShowString ; 0x6ec
        0x00000bf2:    bd08        ..      POP      {r3,pc}
    $d
        0x00000bf4:    54524155    UART    DCD    1414676821
        0x00000bf8:    495f5854    TX_I    DCD    1230985300
        0x00000bfc:    206e5152    RQn     DCD    544100690
        0x00000c00:    5543434f    OCCU    DCD    1430471503
        0x00000c04:    21444552    RED!    DCD    558122322
        0x00000c08:    00002121    !!..    DCD    8481
    $t
    i.UsageFaultHandler
    UsageFaultHandler
        0x00000c0c:    4770        pG      BX       lr
        0x00000c0e:    0000        ..      MOVS     r0,r0
    i.__0printf$5
    __0printf$5
    __1printf$5
    __2printf
        0x00000c10:    b40f        ..      PUSH     {r0-r3}
        0x00000c12:    b510        ..      PUSH     {r4,lr}
        0x00000c14:    a903        ..      ADD      r1,sp,#0xc
        0x00000c16:    4b04        .K      LDR      r3,[pc,#16] ; [0xc28] = 0x1855
        0x00000c18:    4a04        .J      LDR      r2,[pc,#16] ; [0xc2c] = 0x20001b00
        0x00000c1a:    9802        ..      LDR      r0,[sp,#8]
        0x00000c1c:    f000f826    ..&.    BL       _printf_core ; 0xc6c
        0x00000c20:    bc10        ..      POP      {r4}
        0x00000c22:    bc08        ..      POP      {r3}
        0x00000c24:    b004        ..      ADD      sp,sp,#0x10
        0x00000c26:    4718        .G      BX       r3
    $d
        0x00000c28:    00001855    U...    DCD    6229
        0x00000c2c:    20001b00    ...     DCD    536877824
    $t
    i.__ARM_common_switch8
    __ARM_common_switch8
        0x00000c30:    b430        0.      PUSH     {r4,r5}
        0x00000c32:    4674        tF      MOV      r4,lr
        0x00000c34:    1e64        d.      SUBS     r4,r4,#1
        0x00000c36:    7825        %x      LDRB     r5,[r4,#0]
        0x00000c38:    1c64        d.      ADDS     r4,r4,#1
        0x00000c3a:    42ab        .B      CMP      r3,r5
        0x00000c3c:    d304        ..      BCC      0xc48 ; __ARM_common_switch8 + 24
        0x00000c3e:    5d63        c]      LDRB     r3,[r4,r5]
        0x00000c40:    005b        [.      LSLS     r3,r3,#1
        0x00000c42:    18e3        ..      ADDS     r3,r4,r3
        0x00000c44:    bc30        0.      POP      {r4,r5}
        0x00000c46:    4718        .G      BX       r3
        0x00000c48:    461d        .F      MOV      r5,r3
        0x00000c4a:    e7f8        ..      B        0xc3e ; __ARM_common_switch8 + 14
    i.__scatterload_copy
    __scatterload_copy
        0x00000c4c:    e002        ..      B        0xc54 ; __scatterload_copy + 8
        0x00000c4e:    c808        ..      LDM      r0!,{r3}
        0x00000c50:    1f12        ..      SUBS     r2,r2,#4
        0x00000c52:    c108        ..      STM      r1!,{r3}
        0x00000c54:    2a00        .*      CMP      r2,#0
        0x00000c56:    d1fa        ..      BNE      0xc4e ; __scatterload_copy + 2
        0x00000c58:    4770        pG      BX       lr
    i.__scatterload_null
    __scatterload_null
        0x00000c5a:    4770        pG      BX       lr
    i.__scatterload_zeroinit
    __scatterload_zeroinit
        0x00000c5c:    2000        .       MOVS     r0,#0
        0x00000c5e:    e001        ..      B        0xc64 ; __scatterload_zeroinit + 8
        0x00000c60:    c101        ..      STM      r1!,{r0}
        0x00000c62:    1f12        ..      SUBS     r2,r2,#4
        0x00000c64:    2a00        .*      CMP      r2,#0
        0x00000c66:    d1fb        ..      BNE      0xc60 ; __scatterload_zeroinit + 4
        0x00000c68:    4770        pG      BX       lr
        0x00000c6a:    0000        ..      MOVS     r0,r0
    i._printf_core
    _printf_core
        0x00000c6c:    b5ff        ..      PUSH     {r0-r7,lr}
        0x00000c6e:    b08f        ..      SUB      sp,sp,#0x3c
        0x00000c70:    460f        .F      MOV      r7,r1
        0x00000c72:    4604        .F      MOV      r4,r0
        0x00000c74:    2600        .&      MOVS     r6,#0
        0x00000c76:    e006        ..      B        0xc86 ; _printf_core + 26
        0x00000c78:    2825        %(      CMP      r0,#0x25
        0x00000c7a:    d00a        ..      BEQ      0xc92 ; _printf_core + 38
        0x00000c7c:    9a12        ..      LDR      r2,[sp,#0x48]
        0x00000c7e:    9911        ..      LDR      r1,[sp,#0x44]
        0x00000c80:    4790        .G      BLX      r2
        0x00000c82:    1c64        d.      ADDS     r4,r4,#1
        0x00000c84:    1c76        v.      ADDS     r6,r6,#1
        0x00000c86:    7820         x      LDRB     r0,[r4,#0]
        0x00000c88:    2800        .(      CMP      r0,#0
        0x00000c8a:    d1f5        ..      BNE      0xc78 ; _printf_core + 12
        0x00000c8c:    4630        0F      MOV      r0,r6
        0x00000c8e:    b013        ..      ADD      sp,sp,#0x4c
        0x00000c90:    bdf0        ..      POP      {r4-r7,pc}
        0x00000c92:    2500        .%      MOVS     r5,#0
        0x00000c94:    2101        .!      MOVS     r1,#1
        0x00000c96:    4aa1        .J      LDR      r2,[pc,#644] ; [0xf1c] = 0x12809
        0x00000c98:    9500        ..      STR      r5,[sp,#0]
        0x00000c9a:    e000        ..      B        0xc9e ; _printf_core + 50
        0x00000c9c:    4305        .C      ORRS     r5,r5,r0
        0x00000c9e:    1c64        d.      ADDS     r4,r4,#1
        0x00000ca0:    7823        #x      LDRB     r3,[r4,#0]
        0x00000ca2:    4608        .F      MOV      r0,r1
        0x00000ca4:    3b20         ;      SUBS     r3,r3,#0x20
        0x00000ca6:    4098        .@      LSLS     r0,r0,r3
        0x00000ca8:    4210        .B      TST      r0,r2
        0x00000caa:    d1f7        ..      BNE      0xc9c ; _printf_core + 48
        0x00000cac:    7820         x      LDRB     r0,[r4,#0]
        0x00000cae:    282e        .(      CMP      r0,#0x2e
        0x00000cb0:    d115        ..      BNE      0xcde ; _printf_core + 114
        0x00000cb2:    2004        .       MOVS     r0,#4
        0x00000cb4:    4305        .C      ORRS     r5,r5,r0
        0x00000cb6:    7860        `x      LDRB     r0,[r4,#1]
        0x00000cb8:    1c64        d.      ADDS     r4,r4,#1
        0x00000cba:    282a        *(      CMP      r0,#0x2a
        0x00000cbc:    d10a        ..      BNE      0xcd4 ; _printf_core + 104
        0x00000cbe:    cf01        ..      LDM      r7!,{r0}
        0x00000cc0:    1c64        d.      ADDS     r4,r4,#1
        0x00000cc2:    9000        ..      STR      r0,[sp,#0]
        0x00000cc4:    e00b        ..      B        0xcde ; _printf_core + 114
        0x00000cc6:    9900        ..      LDR      r1,[sp,#0]
        0x00000cc8:    220a        ."      MOVS     r2,#0xa
        0x00000cca:    4351        QC      MULS     r1,r2,r1
        0x00000ccc:    3930        09      SUBS     r1,r1,#0x30
        0x00000cce:    1840        @.      ADDS     r0,r0,r1
        0x00000cd0:    1c64        d.      ADDS     r4,r4,#1
        0x00000cd2:    9000        ..      STR      r0,[sp,#0]
        0x00000cd4:    7820         x      LDRB     r0,[r4,#0]
        0x00000cd6:    4601        .F      MOV      r1,r0
        0x00000cd8:    3930        09      SUBS     r1,r1,#0x30
        0x00000cda:    2909        .)      CMP      r1,#9
        0x00000cdc:    d9f3        ..      BLS      0xcc6 ; _printf_core + 90
        0x00000cde:    7820         x      LDRB     r0,[r4,#0]
        0x00000ce0:    286c        l(      CMP      r0,#0x6c
        0x00000ce2:    d00e        ..      BEQ      0xd02 ; _printf_core + 150
        0x00000ce4:    dc04        ..      BGT      0xcf0 ; _printf_core + 132
        0x00000ce6:    284c        L(      CMP      r0,#0x4c
        0x00000ce8:    d013        ..      BEQ      0xd12 ; _printf_core + 166
        0x00000cea:    286a        j(      CMP      r0,#0x6a
        0x00000cec:    d112        ..      BNE      0xd14 ; _printf_core + 168
        0x00000cee:    e004        ..      B        0xcfa ; _printf_core + 142
        0x00000cf0:    2874        t(      CMP      r0,#0x74
        0x00000cf2:    d00e        ..      BEQ      0xd12 ; _printf_core + 166
        0x00000cf4:    287a        z(      CMP      r0,#0x7a
        0x00000cf6:    d10d        ..      BNE      0xd14 ; _printf_core + 168
        0x00000cf8:    e00b        ..      B        0xd12 ; _printf_core + 166
        0x00000cfa:    2001        .       MOVS     r0,#1
        0x00000cfc:    0540        @.      LSLS     r0,r0,#21
        0x00000cfe:    4305        .C      ORRS     r5,r5,r0
        0x00000d00:    e007        ..      B        0xd12 ; _printf_core + 166
        0x00000d02:    2101        .!      MOVS     r1,#1
        0x00000d04:    0509        ..      LSLS     r1,r1,#20
        0x00000d06:    7862        bx      LDRB     r2,[r4,#1]
        0x00000d08:    430d        .C      ORRS     r5,r5,r1
        0x00000d0a:    4282        .B      CMP      r2,r0
        0x00000d0c:    d101        ..      BNE      0xd12 ; _printf_core + 166
        0x00000d0e:    186d        m.      ADDS     r5,r5,r1
        0x00000d10:    1c64        d.      ADDS     r4,r4,#1
        0x00000d12:    1c64        d.      ADDS     r4,r4,#1
        0x00000d14:    7820         x      LDRB     r0,[r4,#0]
        0x00000d16:    4686        .F      MOV      lr,r0
        0x00000d18:    2869        i(      CMP      r0,#0x69
        0x00000d1a:    d04a        J.      BEQ      0xdb2 ; _printf_core + 326
        0x00000d1c:    dc08        ..      BGT      0xd30 ; _printf_core + 196
        0x00000d1e:    2800        .(      CMP      r0,#0
        0x00000d20:    d0b4        ..      BEQ      0xc8c ; _printf_core + 32
        0x00000d22:    2858        X(      CMP      r0,#0x58
        0x00000d24:    d06d        m.      BEQ      0xe02 ; _printf_core + 406
        0x00000d26:    2863        c(      CMP      r0,#0x63
        0x00000d28:    d010        ..      BEQ      0xd4c ; _printf_core + 224
        0x00000d2a:    2864        d(      CMP      r0,#0x64
        0x00000d2c:    d108        ..      BNE      0xd40 ; _printf_core + 212
        0x00000d2e:    e040        @.      B        0xdb2 ; _printf_core + 326
        0x00000d30:    2870        p(      CMP      r0,#0x70
        0x00000d32:    d06b        k.      BEQ      0xe0c ; _printf_core + 416
        0x00000d34:    2873        s(      CMP      r0,#0x73
        0x00000d36:    d012        ..      BEQ      0xd5e ; _printf_core + 242
        0x00000d38:    2875        u(      CMP      r0,#0x75
        0x00000d3a:    d060        `.      BEQ      0xdfe ; _printf_core + 402
        0x00000d3c:    2878        x(      CMP      r0,#0x78
        0x00000d3e:    d060        `.      BEQ      0xe02 ; _printf_core + 406
        0x00000d40:    9a12        ..      LDR      r2,[sp,#0x48]
        0x00000d42:    4670        pF      MOV      r0,lr
        0x00000d44:    9911        ..      LDR      r1,[sp,#0x44]
        0x00000d46:    4790        .G      BLX      r2
        0x00000d48:    1c76        v.      ADDS     r6,r6,#1
        0x00000d4a:    e0e5        ..      B        0xf18 ; _printf_core + 684
        0x00000d4c:    7838        8x      LDRB     r0,[r7,#0]
        0x00000d4e:    4669        iF      MOV      r1,sp
        0x00000d50:    7208        .r      STRB     r0,[r1,#8]
        0x00000d52:    2000        .       MOVS     r0,#0
        0x00000d54:    7248        Hr      STRB     r0,[r1,#9]
        0x00000d56:    a802        ..      ADD      r0,sp,#8
        0x00000d58:    9001        ..      STR      r0,[sp,#4]
        0x00000d5a:    2001        .       MOVS     r0,#1
        0x00000d5c:    e003        ..      B        0xd66 ; _printf_core + 250
        0x00000d5e:    6838        8h      LDR      r0,[r7,#0]
        0x00000d60:    9001        ..      STR      r0,[sp,#4]
        0x00000d62:    2000        .       MOVS     r0,#0
        0x00000d64:    43c0        .C      MVNS     r0,r0
        0x00000d66:    1d3f        ?.      ADDS     r7,r7,#4
        0x00000d68:    0769        i.      LSLS     r1,r5,#29
        0x00000d6a:    d50c        ..      BPL      0xd86 ; _printf_core + 282
        0x00000d6c:    2500        .%      MOVS     r5,#0
        0x00000d6e:    e000        ..      B        0xd72 ; _printf_core + 262
        0x00000d70:    1c6d        m.      ADDS     r5,r5,#1
        0x00000d72:    9900        ..      LDR      r1,[sp,#0]
        0x00000d74:    428d        .B      CMP      r5,r1
        0x00000d76:    da0f        ..      BGE      0xd98 ; _printf_core + 300
        0x00000d78:    4285        .B      CMP      r5,r0
        0x00000d7a:    dbf9        ..      BLT      0xd70 ; _printf_core + 260
        0x00000d7c:    9901        ..      LDR      r1,[sp,#4]
        0x00000d7e:    5d49        I]      LDRB     r1,[r1,r5]
        0x00000d80:    2900        .)      CMP      r1,#0
        0x00000d82:    d1f5        ..      BNE      0xd70 ; _printf_core + 260
        0x00000d84:    e008        ..      B        0xd98 ; _printf_core + 300
        0x00000d86:    2500        .%      MOVS     r5,#0
        0x00000d88:    e000        ..      B        0xd8c ; _printf_core + 288
        0x00000d8a:    1c6d        m.      ADDS     r5,r5,#1
        0x00000d8c:    4285        .B      CMP      r5,r0
        0x00000d8e:    dbfc        ..      BLT      0xd8a ; _printf_core + 286
        0x00000d90:    9901        ..      LDR      r1,[sp,#4]
        0x00000d92:    5d49        I]      LDRB     r1,[r1,r5]
        0x00000d94:    2900        .)      CMP      r1,#0
        0x00000d96:    d1f8        ..      BNE      0xd8a ; _printf_core + 286
        0x00000d98:    1976        v.      ADDS     r6,r6,r5
        0x00000d9a:    e007        ..      B        0xdac ; _printf_core + 320
        0x00000d9c:    9801        ..      LDR      r0,[sp,#4]
        0x00000d9e:    9901        ..      LDR      r1,[sp,#4]
        0x00000da0:    7800        .x      LDRB     r0,[r0,#0]
        0x00000da2:    1c49        I.      ADDS     r1,r1,#1
        0x00000da4:    9101        ..      STR      r1,[sp,#4]
        0x00000da6:    9a12        ..      LDR      r2,[sp,#0x48]
        0x00000da8:    9911        ..      LDR      r1,[sp,#0x44]
        0x00000daa:    4790        .G      BLX      r2
        0x00000dac:    1e6d        m.      SUBS     r5,r5,#1
        0x00000dae:    d2f5        ..      BCS      0xd9c ; _printf_core + 304
        0x00000db0:    e0b2        ..      B        0xf18 ; _printf_core + 684
        0x00000db2:    200a        .       MOVS     r0,#0xa
        0x00000db4:    9002        ..      STR      r0,[sp,#8]
        0x00000db6:    2100        .!      MOVS     r1,#0
        0x00000db8:    0268        h.      LSLS     r0,r5,#9
        0x00000dba:    0f40        @.      LSRS     r0,r0,#29
        0x00000dbc:    9103        ..      STR      r1,[sp,#0xc]
        0x00000dbe:    2802        .(      CMP      r0,#2
        0x00000dc0:    d00c        ..      BEQ      0xddc ; _printf_core + 368
        0x00000dc2:    cf01        ..      LDM      r7!,{r0}
        0x00000dc4:    17c1        ..      ASRS     r1,r0,#31
        0x00000dc6:    4684        .F      MOV      r12,r0
        0x00000dc8:    2900        .)      CMP      r1,#0
        0x00000dca:    da0d        ..      BGE      0xde8 ; _printf_core + 380
        0x00000dcc:    4662        bF      MOV      r2,r12
        0x00000dce:    4608        .F      MOV      r0,r1
        0x00000dd0:    4252        RB      RSBS     r2,r2,#0
        0x00000dd2:    2100        .!      MOVS     r1,#0
        0x00000dd4:    4181        .A      SBCS     r1,r1,r0
        0x00000dd6:    4694        .F      MOV      r12,r2
        0x00000dd8:    202d        -       MOVS     r0,#0x2d
        0x00000dda:    e008        ..      B        0xdee ; _printf_core + 386
        0x00000ddc:    1dff        ..      ADDS     r7,r7,#7
        0x00000dde:    08ff        ..      LSRS     r7,r7,#3
        0x00000de0:    00ff        ..      LSLS     r7,r7,#3
        0x00000de2:    cf03        ..      LDM      r7!,{r0,r1}
        0x00000de4:    4684        .F      MOV      r12,r0
        0x00000de6:    e7ef        ..      B        0xdc8 ; _printf_core + 348
        0x00000de8:    0528        (.      LSLS     r0,r5,#20
        0x00000dea:    d504        ..      BPL      0xdf6 ; _printf_core + 394
        0x00000dec:    202b        +       MOVS     r0,#0x2b
        0x00000dee:    466a        jF      MOV      r2,sp
        0x00000df0:    7410        .t      STRB     r0,[r2,#0x10]
        0x00000df2:    2001        .       MOVS     r0,#1
        0x00000df4:    e03c        <.      B        0xe70 ; _printf_core + 516
        0x00000df6:    07e8        ..      LSLS     r0,r5,#31
        0x00000df8:    d03a        :.      BEQ      0xe70 ; _printf_core + 516
        0x00000dfa:    2020                MOVS     r0,#0x20
        0x00000dfc:    e7f7        ..      B        0xdee ; _printf_core + 386
        0x00000dfe:    200a        .       MOVS     r0,#0xa
        0x00000e00:    e000        ..      B        0xe04 ; _printf_core + 408
        0x00000e02:    2010        .       MOVS     r0,#0x10
        0x00000e04:    2100        .!      MOVS     r1,#0
        0x00000e06:    9103        ..      STR      r1,[sp,#0xc]
        0x00000e08:    9002        ..      STR      r0,[sp,#8]
        0x00000e0a:    e007        ..      B        0xe1c ; _printf_core + 432
        0x00000e0c:    2010        .       MOVS     r0,#0x10
        0x00000e0e:    9002        ..      STR      r0,[sp,#8]
        0x00000e10:    2100        .!      MOVS     r1,#0
        0x00000e12:    2004        .       MOVS     r0,#4
        0x00000e14:    4305        .C      ORRS     r5,r5,r0
        0x00000e16:    2008        .       MOVS     r0,#8
        0x00000e18:    9103        ..      STR      r1,[sp,#0xc]
        0x00000e1a:    9000        ..      STR      r0,[sp,#0]
        0x00000e1c:    0268        h.      LSLS     r0,r5,#9
        0x00000e1e:    0f40        @.      LSRS     r0,r0,#29
        0x00000e20:    2802        .(      CMP      r0,#2
        0x00000e22:    d010        ..      BEQ      0xe46 ; _printf_core + 474
        0x00000e24:    cf01        ..      LDM      r7!,{r0}
        0x00000e26:    2100        .!      MOVS     r1,#0
        0x00000e28:    4684        .F      MOV      r12,r0
        0x00000e2a:    2000        .       MOVS     r0,#0
        0x00000e2c:    900d        ..      STR      r0,[sp,#0x34]
        0x00000e2e:    0728        (.      LSLS     r0,r5,#28
        0x00000e30:    d51f        ..      BPL      0xe72 ; _printf_core + 518
        0x00000e32:    4670        pF      MOV      r0,lr
        0x00000e34:    2870        p(      CMP      r0,#0x70
        0x00000e36:    d00c        ..      BEQ      0xe52 ; _printf_core + 486
        0x00000e38:    9a02        ..      LDR      r2,[sp,#8]
        0x00000e3a:    2010        .       MOVS     r0,#0x10
        0x00000e3c:    9b03        ..      LDR      r3,[sp,#0xc]
        0x00000e3e:    4042        B@      EORS     r2,r2,r0
        0x00000e40:    431a        .C      ORRS     r2,r2,r3
        0x00000e42:    d00c        ..      BEQ      0xe5e ; _printf_core + 498
        0x00000e44:    e015        ..      B        0xe72 ; _printf_core + 518
        0x00000e46:    1dff        ..      ADDS     r7,r7,#7
        0x00000e48:    08ff        ..      LSRS     r7,r7,#3
        0x00000e4a:    00ff        ..      LSLS     r7,r7,#3
        0x00000e4c:    cf03        ..      LDM      r7!,{r0,r1}
        0x00000e4e:    4684        .F      MOV      r12,r0
        0x00000e50:    e7eb        ..      B        0xe2a ; _printf_core + 446
        0x00000e52:    2040        @       MOVS     r0,#0x40
        0x00000e54:    466a        jF      MOV      r2,sp
        0x00000e56:    7410        .t      STRB     r0,[r2,#0x10]
        0x00000e58:    2001        .       MOVS     r0,#1
        0x00000e5a:    900d        ..      STR      r0,[sp,#0x34]
        0x00000e5c:    e00c        ..      B        0xe78 ; _printf_core + 524
        0x00000e5e:    4660        `F      MOV      r0,r12
        0x00000e60:    4308        .C      ORRS     r0,r0,r1
        0x00000e62:    d006        ..      BEQ      0xe72 ; _printf_core + 518
        0x00000e64:    2030        0       MOVS     r0,#0x30
        0x00000e66:    466a        jF      MOV      r2,sp
        0x00000e68:    7410        .t      STRB     r0,[r2,#0x10]
        0x00000e6a:    4670        pF      MOV      r0,lr
        0x00000e6c:    7450        Pt      STRB     r0,[r2,#0x11]
        0x00000e6e:    2002        .       MOVS     r0,#2
        0x00000e70:    900d        ..      STR      r0,[sp,#0x34]
        0x00000e72:    4670        pF      MOV      r0,lr
        0x00000e74:    2858        X(      CMP      r0,#0x58
        0x00000e76:    d004        ..      BEQ      0xe82 ; _printf_core + 534
        0x00000e78:    a029        ).      ADR      r0,{pc}+0xa8 ; 0xf20
        0x00000e7a:    9001        ..      STR      r0,[sp,#4]
        0x00000e7c:    a80d        ..      ADD      r0,sp,#0x34
        0x00000e7e:    900e        ..      STR      r0,[sp,#0x38]
        0x00000e80:    e00d        ..      B        0xe9e ; _printf_core + 562
        0x00000e82:    a02c        ,.      ADR      r0,{pc}+0xb2 ; 0xf34
        0x00000e84:    e7f9        ..      B        0xe7a ; _printf_core + 526
        0x00000e86:    4660        `F      MOV      r0,r12
        0x00000e88:    9b03        ..      LDR      r3,[sp,#0xc]
        0x00000e8a:    9a02        ..      LDR      r2,[sp,#8]
        0x00000e8c:    f7fffa86    ....    BL       __aeabi_uldivmod ; 0x39c
        0x00000e90:    9b01        ..      LDR      r3,[sp,#4]
        0x00000e92:    4684        .F      MOV      r12,r0
        0x00000e94:    5c9b        .\      LDRB     r3,[r3,r2]
        0x00000e96:    9a0e        ..      LDR      r2,[sp,#0x38]
        0x00000e98:    1e52        R.      SUBS     r2,r2,#1
        0x00000e9a:    920e        ..      STR      r2,[sp,#0x38]
        0x00000e9c:    7013        .p      STRB     r3,[r2,#0]
        0x00000e9e:    4660        `F      MOV      r0,r12
        0x00000ea0:    4308        .C      ORRS     r0,r0,r1
        0x00000ea2:    d1f0        ..      BNE      0xe86 ; _printf_core + 538
        0x00000ea4:    980e        ..      LDR      r0,[sp,#0x38]
        0x00000ea6:    a905        ..      ADD      r1,sp,#0x14
        0x00000ea8:    1a08        ..      SUBS     r0,r1,r0
        0x00000eaa:    3020         0      ADDS     r0,r0,#0x20
        0x00000eac:    9001        ..      STR      r0,[sp,#4]
        0x00000eae:    0768        h.      LSLS     r0,r5,#29
        0x00000eb0:    d501        ..      BPL      0xeb6 ; _printf_core + 586
        0x00000eb2:    9800        ..      LDR      r0,[sp,#0]
        0x00000eb4:    e001        ..      B        0xeba ; _printf_core + 590
        0x00000eb6:    2001        .       MOVS     r0,#1
        0x00000eb8:    9000        ..      STR      r0,[sp,#0]
        0x00000eba:    9901        ..      LDR      r1,[sp,#4]
        0x00000ebc:    4288        .B      CMP      r0,r1
        0x00000ebe:    dd03        ..      BLE      0xec8 ; _printf_core + 604
        0x00000ec0:    4601        .F      MOV      r1,r0
        0x00000ec2:    9801        ..      LDR      r0,[sp,#4]
        0x00000ec4:    1a08        ..      SUBS     r0,r1,r0
        0x00000ec6:    e000        ..      B        0xeca ; _printf_core + 606
        0x00000ec8:    2000        .       MOVS     r0,#0
        0x00000eca:    2500        .%      MOVS     r5,#0
        0x00000ecc:    9000        ..      STR      r0,[sp,#0]
        0x00000ece:    e006        ..      B        0xede ; _printf_core + 626
        0x00000ed0:    a804        ..      ADD      r0,sp,#0x10
        0x00000ed2:    9a12        ..      LDR      r2,[sp,#0x48]
        0x00000ed4:    5d40        @]      LDRB     r0,[r0,r5]
        0x00000ed6:    9911        ..      LDR      r1,[sp,#0x44]
        0x00000ed8:    4790        .G      BLX      r2
        0x00000eda:    1c6d        m.      ADDS     r5,r5,#1
        0x00000edc:    1c76        v.      ADDS     r6,r6,#1
        0x00000ede:    980d        ..      LDR      r0,[sp,#0x34]
        0x00000ee0:    4285        .B      CMP      r5,r0
        0x00000ee2:    dbf5        ..      BLT      0xed0 ; _printf_core + 612
        0x00000ee4:    e004        ..      B        0xef0 ; _printf_core + 644
        0x00000ee6:    9a12        ..      LDR      r2,[sp,#0x48]
        0x00000ee8:    2030        0       MOVS     r0,#0x30
        0x00000eea:    9911        ..      LDR      r1,[sp,#0x44]
        0x00000eec:    4790        .G      BLX      r2
        0x00000eee:    1c76        v.      ADDS     r6,r6,#1
        0x00000ef0:    9900        ..      LDR      r1,[sp,#0]
        0x00000ef2:    1e48        H.      SUBS     r0,r1,#1
        0x00000ef4:    9000        ..      STR      r0,[sp,#0]
        0x00000ef6:    2900        .)      CMP      r1,#0
        0x00000ef8:    dcf5        ..      BGT      0xee6 ; _printf_core + 634
        0x00000efa:    e008        ..      B        0xf0e ; _printf_core + 674
        0x00000efc:    980e        ..      LDR      r0,[sp,#0x38]
        0x00000efe:    990e        ..      LDR      r1,[sp,#0x38]
        0x00000f00:    7800        .x      LDRB     r0,[r0,#0]
        0x00000f02:    1c49        I.      ADDS     r1,r1,#1
        0x00000f04:    910e        ..      STR      r1,[sp,#0x38]
        0x00000f06:    9a12        ..      LDR      r2,[sp,#0x48]
        0x00000f08:    9911        ..      LDR      r1,[sp,#0x44]
        0x00000f0a:    4790        .G      BLX      r2
        0x00000f0c:    1c76        v.      ADDS     r6,r6,#1
        0x00000f0e:    9901        ..      LDR      r1,[sp,#4]
        0x00000f10:    1e48        H.      SUBS     r0,r1,#1
        0x00000f12:    9001        ..      STR      r0,[sp,#4]
        0x00000f14:    2900        .)      CMP      r1,#0
        0x00000f16:    dcf1        ..      BGT      0xefc ; _printf_core + 656
        0x00000f18:    1c64        d.      ADDS     r4,r4,#1
        0x00000f1a:    e6b4        ..      B        0xc86 ; _printf_core + 26
    $d
        0x00000f1c:    00012809    .(..    DCD    75785
        0x00000f20:    33323130    0123    DCD    858927408
        0x00000f24:    37363534    4567    DCD    926299444
        0x00000f28:    62613938    89ab    DCD    1650538808
        0x00000f2c:    66656463    cdef    DCD    1717920867
        0x00000f30:    00000000    ....    DCD    0
        0x00000f34:    33323130    0123    DCD    858927408
        0x00000f38:    37363534    4567    DCD    926299444
        0x00000f3c:    42413938    89AB    DCD    1111570744
        0x00000f40:    46454443    CDEF    DCD    1178944579
        0x00000f44:    00000000    ....    DCD    0
    $t
    i.b_green_createOnePlane
    b_green_createOnePlane
        0x00000f48:    4601        .F      MOV      r1,r0
        0x00000f4a:    2000        .       MOVS     r0,#0
        0x00000f4c:    e04e        N.      B        0xfec ; b_green_createOnePlane + 164
        0x00000f4e:    221a        ."      MOVS     r2,#0x1a
        0x00000f50:    4342        BC      MULS     r2,r0,r2
        0x00000f52:    5c8a        .\      LDRB     r2,[r1,r2]
        0x00000f54:    2a00        .*      CMP      r2,#0
        0x00000f56:    d148        H.      BNE      0xfea ; b_green_createOnePlane + 162
        0x00000f58:    2301        .#      MOVS     r3,#1
        0x00000f5a:    221a        ."      MOVS     r2,#0x1a
        0x00000f5c:    4342        BC      MULS     r2,r0,r2
        0x00000f5e:    548b        .T      STRB     r3,[r1,r2]
        0x00000f60:    2314        .#      MOVS     r3,#0x14
        0x00000f62:    221a        ."      MOVS     r2,#0x1a
        0x00000f64:    4342        BC      MULS     r2,r0,r2
        0x00000f66:    1852        R.      ADDS     r2,r2,r1
        0x00000f68:    7053        Sp      STRB     r3,[r2,#1]
        0x00000f6a:    2300        .#      MOVS     r3,#0
        0x00000f6c:    221a        ."      MOVS     r2,#0x1a
        0x00000f6e:    4342        BC      MULS     r2,r0,r2
        0x00000f70:    1852        R.      ADDS     r2,r2,r1
        0x00000f72:    7093        .p      STRB     r3,[r2,#2]
        0x00000f74:    2396        .#      MOVS     r3,#0x96
        0x00000f76:    221a        ."      MOVS     r2,#0x1a
        0x00000f78:    4342        BC      MULS     r2,r0,r2
        0x00000f7a:    1852        R.      ADDS     r2,r2,r1
        0x00000f7c:    8093        ..      STRH     r3,[r2,#4]
        0x00000f7e:    23b4        .#      MOVS     r3,#0xb4
        0x00000f80:    221a        ."      MOVS     r2,#0x1a
        0x00000f82:    4342        BC      MULS     r2,r0,r2
        0x00000f84:    1852        R.      ADDS     r2,r2,r1
        0x00000f86:    80d3        ..      STRH     r3,[r2,#6]
        0x00000f88:    2300        .#      MOVS     r3,#0
        0x00000f8a:    221a        ."      MOVS     r2,#0x1a
        0x00000f8c:    4342        BC      MULS     r2,r0,r2
        0x00000f8e:    1852        R.      ADDS     r2,r2,r1
        0x00000f90:    7213        .r      STRB     r3,[r2,#8]
        0x00000f92:    221a        ."      MOVS     r2,#0x1a
        0x00000f94:    4342        BC      MULS     r2,r0,r2
        0x00000f96:    1852        R.      ADDS     r2,r2,r1
        0x00000f98:    7253        Sr      STRB     r3,[r2,#9]
        0x00000f9a:    221a        ."      MOVS     r2,#0x1a
        0x00000f9c:    4342        BC      MULS     r2,r0,r2
        0x00000f9e:    1852        R.      ADDS     r2,r2,r1
        0x00000fa0:    7293        .r      STRB     r3,[r2,#0xa]
        0x00000fa2:    1e9b        ..      SUBS     r3,r3,#2
        0x00000fa4:    221a        ."      MOVS     r2,#0x1a
        0x00000fa6:    4342        BC      MULS     r2,r0,r2
        0x00000fa8:    1852        R.      ADDS     r2,r2,r1
        0x00000faa:    8193        ..      STRH     r3,[r2,#0xc]
        0x00000fac:    231e        .#      MOVS     r3,#0x1e
        0x00000fae:    221a        ."      MOVS     r2,#0x1a
        0x00000fb0:    4342        BC      MULS     r2,r0,r2
        0x00000fb2:    1852        R.      ADDS     r2,r2,r1
        0x00000fb4:    81d3        ..      STRH     r3,[r2,#0xe]
        0x00000fb6:    235a        Z#      MOVS     r3,#0x5a
        0x00000fb8:    221a        ."      MOVS     r2,#0x1a
        0x00000fba:    4342        BC      MULS     r2,r0,r2
        0x00000fbc:    1852        R.      ADDS     r2,r2,r1
        0x00000fbe:    8213        ..      STRH     r3,[r2,#0x10]
        0x00000fc0:    2328        (#      MOVS     r3,#0x28
        0x00000fc2:    221a        ."      MOVS     r2,#0x1a
        0x00000fc4:    4342        BC      MULS     r2,r0,r2
        0x00000fc6:    1852        R.      ADDS     r2,r2,r1
        0x00000fc8:    8253        S.      STRH     r3,[r2,#0x12]
        0x00000fca:    233c        <#      MOVS     r3,#0x3c
        0x00000fcc:    221a        ."      MOVS     r2,#0x1a
        0x00000fce:    4342        BC      MULS     r2,r0,r2
        0x00000fd0:    1852        R.      ADDS     r2,r2,r1
        0x00000fd2:    8293        ..      STRH     r3,[r2,#0x14]
        0x00000fd4:    23a0        .#      MOVS     r3,#0xa0
        0x00000fd6:    221a        ."      MOVS     r2,#0x1a
        0x00000fd8:    4342        BC      MULS     r2,r0,r2
        0x00000fda:    1852        R.      ADDS     r2,r2,r1
        0x00000fdc:    82d3        ..      STRH     r3,[r2,#0x16]
        0x00000fde:    23b4        .#      MOVS     r3,#0xb4
        0x00000fe0:    221a        ."      MOVS     r2,#0x1a
        0x00000fe2:    4342        BC      MULS     r2,r0,r2
        0x00000fe4:    1852        R.      ADDS     r2,r2,r1
        0x00000fe6:    8313        ..      STRH     r3,[r2,#0x18]
        0x00000fe8:    e004        ..      B        0xff4 ; b_green_createOnePlane + 172
        0x00000fea:    1c40        @.      ADDS     r0,r0,#1
        0x00000fec:    4a02        .J      LDR      r2,[pc,#8] ; [0xff8] = 0x48f4
        0x00000fee:    7812        .x      LDRB     r2,[r2,#0]
        0x00000ff0:    4290        .B      CMP      r0,r2
        0x00000ff2:    dbac        ..      BLT      0xf4e ; b_green_createOnePlane + 6
        0x00000ff4:    bf00        ..      NOP      
        0x00000ff6:    4770        pG      BX       lr
    $d
        0x00000ff8:    000048f4    .H..    DCD    18676
    $t
    i.b_green_drawPlane
    b_green_drawPlane
        0x00000ffc:    b5f8        ..      PUSH     {r3-r7,lr}
        0x00000ffe:    4605        .F      MOV      r5,r0
        0x00001000:    460e        .F      MOV      r6,r1
        0x00001002:    2400        .$      MOVS     r4,#0
        0x00001004:    e11b        ..      B        0x123e ; b_green_drawPlane + 578
        0x00001006:    201a        .       MOVS     r0,#0x1a
        0x00001008:    4360        `C      MULS     r0,r4,r0
        0x0000100a:    5c28        (\      LDRB     r0,[r5,r0]
        0x0000100c:    2800        .(      CMP      r0,#0
        0x0000100e:    d07d        }.      BEQ      0x110c ; b_green_drawPlane + 272
        0x00001010:    2020                MOVS     r0,#0x20
        0x00001012:    231a        .#      MOVS     r3,#0x1a
        0x00001014:    4363        cC      MULS     r3,r4,r3
        0x00001016:    195b        [.      ADDS     r3,r3,r5
        0x00001018:    9000        ..      STR      r0,[sp,#0]
        0x0000101a:    88db        ..      LDRH     r3,[r3,#6]
        0x0000101c:    b2da        ..      UXTB     r2,r3
        0x0000101e:    231a        .#      MOVS     r3,#0x1a
        0x00001020:    4363        cC      MULS     r3,r4,r3
        0x00001022:    195b        [.      ADDS     r3,r3,r5
        0x00001024:    889b        ..      LDRH     r3,[r3,#4]
        0x00001026:    b2d9        ..      UXTB     r1,r3
        0x00001028:    7830        0x      LDRB     r0,[r6,#0]
        0x0000102a:    23c0        .#      MOVS     r3,#0xc0
        0x0000102c:    f003fc4e    ..N.    BL       writeOneSprite ; 0x48cc
        0x00001030:    2020                MOVS     r0,#0x20
        0x00001032:    231a        .#      MOVS     r3,#0x1a
        0x00001034:    4363        cC      MULS     r3,r4,r3
        0x00001036:    195b        [.      ADDS     r3,r3,r5
        0x00001038:    9000        ..      STR      r0,[sp,#0]
        0x0000103a:    88db        ..      LDRH     r3,[r3,#6]
        0x0000103c:    1ddb        ..      ADDS     r3,r3,#7
        0x0000103e:    b2da        ..      UXTB     r2,r3
        0x00001040:    231a        .#      MOVS     r3,#0x1a
        0x00001042:    4363        cC      MULS     r3,r4,r3
        0x00001044:    195b        [.      ADDS     r3,r3,r5
        0x00001046:    889b        ..      LDRH     r3,[r3,#4]
        0x00001048:    b2d9        ..      UXTB     r1,r3
        0x0000104a:    7833        3x      LDRB     r3,[r6,#0]
        0x0000104c:    1c5b        [.      ADDS     r3,r3,#1
        0x0000104e:    b2d8        ..      UXTB     r0,r3
        0x00001050:    23c1        .#      MOVS     r3,#0xc1
        0x00001052:    f003fc3b    ..;.    BL       writeOneSprite ; 0x48cc
        0x00001056:    2020                MOVS     r0,#0x20
        0x00001058:    231a        .#      MOVS     r3,#0x1a
        0x0000105a:    4363        cC      MULS     r3,r4,r3
        0x0000105c:    195b        [.      ADDS     r3,r3,r5
        0x0000105e:    9000        ..      STR      r0,[sp,#0]
        0x00001060:    88db        ..      LDRH     r3,[r3,#6]
        0x00001062:    330e        .3      ADDS     r3,r3,#0xe
        0x00001064:    b2da        ..      UXTB     r2,r3
        0x00001066:    231a        .#      MOVS     r3,#0x1a
        0x00001068:    4363        cC      MULS     r3,r4,r3
        0x0000106a:    195b        [.      ADDS     r3,r3,r5
        0x0000106c:    889b        ..      LDRH     r3,[r3,#4]
        0x0000106e:    b2d9        ..      UXTB     r1,r3
        0x00001070:    7833        3x      LDRB     r3,[r6,#0]
        0x00001072:    1c9b        ..      ADDS     r3,r3,#2
        0x00001074:    b2d8        ..      UXTB     r0,r3
        0x00001076:    23c2        .#      MOVS     r3,#0xc2
        0x00001078:    f003fc28    ..(.    BL       writeOneSprite ; 0x48cc
        0x0000107c:    2020                MOVS     r0,#0x20
        0x0000107e:    231a        .#      MOVS     r3,#0x1a
        0x00001080:    4363        cC      MULS     r3,r4,r3
        0x00001082:    195b        [.      ADDS     r3,r3,r5
        0x00001084:    9000        ..      STR      r0,[sp,#0]
        0x00001086:    88db        ..      LDRH     r3,[r3,#6]
        0x00001088:    3315        .3      ADDS     r3,r3,#0x15
        0x0000108a:    b2da        ..      UXTB     r2,r3
        0x0000108c:    231a        .#      MOVS     r3,#0x1a
        0x0000108e:    4363        cC      MULS     r3,r4,r3
        0x00001090:    195b        [.      ADDS     r3,r3,r5
        0x00001092:    889b        ..      LDRH     r3,[r3,#4]
        0x00001094:    b2d9        ..      UXTB     r1,r3
        0x00001096:    7833        3x      LDRB     r3,[r6,#0]
        0x00001098:    1cdb        ..      ADDS     r3,r3,#3
        0x0000109a:    b2d8        ..      UXTB     r0,r3
        0x0000109c:    23c3        .#      MOVS     r3,#0xc3
        0x0000109e:    f003fc15    ....    BL       writeOneSprite ; 0x48cc
        0x000010a2:    2020                MOVS     r0,#0x20
        0x000010a4:    231a        .#      MOVS     r3,#0x1a
        0x000010a6:    4363        cC      MULS     r3,r4,r3
        0x000010a8:    195b        [.      ADDS     r3,r3,r5
        0x000010aa:    9000        ..      STR      r0,[sp,#0]
        0x000010ac:    88db        ..      LDRH     r3,[r3,#6]
        0x000010ae:    331c        .3      ADDS     r3,r3,#0x1c
        0x000010b0:    b2da        ..      UXTB     r2,r3
        0x000010b2:    231a        .#      MOVS     r3,#0x1a
        0x000010b4:    4363        cC      MULS     r3,r4,r3
        0x000010b6:    195b        [.      ADDS     r3,r3,r5
        0x000010b8:    889b        ..      LDRH     r3,[r3,#4]
        0x000010ba:    1f1b        ..      SUBS     r3,r3,#4
        0x000010bc:    b2d9        ..      UXTB     r1,r3
        0x000010be:    7833        3x      LDRB     r3,[r6,#0]
        0x000010c0:    1d1b        ..      ADDS     r3,r3,#4
        0x000010c2:    b2d8        ..      UXTB     r0,r3
        0x000010c4:    23c4        .#      MOVS     r3,#0xc4
        0x000010c6:    f003fc01    ....    BL       writeOneSprite ; 0x48cc
        0x000010ca:    2020                MOVS     r0,#0x20
        0x000010cc:    231a        .#      MOVS     r3,#0x1a
        0x000010ce:    4363        cC      MULS     r3,r4,r3
        0x000010d0:    195b        [.      ADDS     r3,r3,r5
        0x000010d2:    9000        ..      STR      r0,[sp,#0]
        0x000010d4:    88db        ..      LDRH     r3,[r3,#6]
        0x000010d6:    331c        .3      ADDS     r3,r3,#0x1c
        0x000010d8:    b2da        ..      UXTB     r2,r3
        0x000010da:    231a        .#      MOVS     r3,#0x1a
        0x000010dc:    4363        cC      MULS     r3,r4,r3
        0x000010de:    195b        [.      ADDS     r3,r3,r5
        0x000010e0:    889b        ..      LDRH     r3,[r3,#4]
        0x000010e2:    1d1b        ..      ADDS     r3,r3,#4
        0x000010e4:    b2d9        ..      UXTB     r1,r3
        0x000010e6:    7833        3x      LDRB     r3,[r6,#0]
        0x000010e8:    1d5b        [.      ADDS     r3,r3,#5
        0x000010ea:    b2d8        ..      UXTB     r0,r3
        0x000010ec:    23c5        .#      MOVS     r3,#0xc5
        0x000010ee:    f003fbed    ....    BL       writeOneSprite ; 0x48cc
        0x000010f2:    2060        `       MOVS     r0,#0x60
        0x000010f4:    231a        .#      MOVS     r3,#0x1a
        0x000010f6:    4363        cC      MULS     r3,r4,r3
        0x000010f8:    195b        [.      ADDS     r3,r3,r5
        0x000010fa:    9000        ..      STR      r0,[sp,#0]
        0x000010fc:    88db        ..      LDRH     r3,[r3,#6]
        0x000010fe:    1d5b        [.      ADDS     r3,r3,#5
        0x00001100:    b2da        ..      UXTB     r2,r3
        0x00001102:    231a        .#      MOVS     r3,#0x1a
        0x00001104:    4363        cC      MULS     r3,r4,r3
        0x00001106:    195b        [.      ADDS     r3,r3,r5
        0x00001108:    889b        ..      LDRH     r3,[r3,#4]
        0x0000110a:    e000        ..      B        0x110e ; b_green_drawPlane + 274
        0x0000110c:    e096        ..      B        0x123c ; b_green_drawPlane + 576
        0x0000110e:    1fdb        ..      SUBS     r3,r3,#7
        0x00001110:    b2d9        ..      UXTB     r1,r3
        0x00001112:    7833        3x      LDRB     r3,[r6,#0]
        0x00001114:    1d9b        ..      ADDS     r3,r3,#6
        0x00001116:    b2d8        ..      UXTB     r0,r3
        0x00001118:    23c6        .#      MOVS     r3,#0xc6
        0x0000111a:    f003fbd7    ....    BL       writeOneSprite ; 0x48cc
        0x0000111e:    2020                MOVS     r0,#0x20
        0x00001120:    231a        .#      MOVS     r3,#0x1a
        0x00001122:    4363        cC      MULS     r3,r4,r3
        0x00001124:    195b        [.      ADDS     r3,r3,r5
        0x00001126:    9000        ..      STR      r0,[sp,#0]
        0x00001128:    88db        ..      LDRH     r3,[r3,#6]
        0x0000112a:    1d5b        [.      ADDS     r3,r3,#5
        0x0000112c:    b2da        ..      UXTB     r2,r3
        0x0000112e:    231a        .#      MOVS     r3,#0x1a
        0x00001130:    4363        cC      MULS     r3,r4,r3
        0x00001132:    195b        [.      ADDS     r3,r3,r5
        0x00001134:    889b        ..      LDRH     r3,[r3,#4]
        0x00001136:    1ddb        ..      ADDS     r3,r3,#7
        0x00001138:    b2d9        ..      UXTB     r1,r3
        0x0000113a:    7833        3x      LDRB     r3,[r6,#0]
        0x0000113c:    1ddb        ..      ADDS     r3,r3,#7
        0x0000113e:    b2d8        ..      UXTB     r0,r3
        0x00001140:    23c6        .#      MOVS     r3,#0xc6
        0x00001142:    f003fbc3    ....    BL       writeOneSprite ; 0x48cc
        0x00001146:    2020                MOVS     r0,#0x20
        0x00001148:    231a        .#      MOVS     r3,#0x1a
        0x0000114a:    4363        cC      MULS     r3,r4,r3
        0x0000114c:    195b        [.      ADDS     r3,r3,r5
        0x0000114e:    9000        ..      STR      r0,[sp,#0]
        0x00001150:    88db        ..      LDRH     r3,[r3,#6]
        0x00001152:    330c        .3      ADDS     r3,r3,#0xc
        0x00001154:    b2da        ..      UXTB     r2,r3
        0x00001156:    231a        .#      MOVS     r3,#0x1a
        0x00001158:    4363        cC      MULS     r3,r4,r3
        0x0000115a:    195b        [.      ADDS     r3,r3,r5
        0x0000115c:    889b        ..      LDRH     r3,[r3,#4]
        0x0000115e:    1fdb        ..      SUBS     r3,r3,#7
        0x00001160:    b2d9        ..      UXTB     r1,r3
        0x00001162:    7833        3x      LDRB     r3,[r6,#0]
        0x00001164:    3308        .3      ADDS     r3,r3,#8
        0x00001166:    b2d8        ..      UXTB     r0,r3
        0x00001168:    23c9        .#      MOVS     r3,#0xc9
        0x0000116a:    f003fbaf    ....    BL       writeOneSprite ; 0x48cc
        0x0000116e:    2020                MOVS     r0,#0x20
        0x00001170:    231a        .#      MOVS     r3,#0x1a
        0x00001172:    4363        cC      MULS     r3,r4,r3
        0x00001174:    195b        [.      ADDS     r3,r3,r5
        0x00001176:    9000        ..      STR      r0,[sp,#0]
        0x00001178:    88db        ..      LDRH     r3,[r3,#6]
        0x0000117a:    330c        .3      ADDS     r3,r3,#0xc
        0x0000117c:    b2da        ..      UXTB     r2,r3
        0x0000117e:    231a        .#      MOVS     r3,#0x1a
        0x00001180:    4363        cC      MULS     r3,r4,r3
        0x00001182:    195b        [.      ADDS     r3,r3,r5
        0x00001184:    889b        ..      LDRH     r3,[r3,#4]
        0x00001186:    1ddb        ..      ADDS     r3,r3,#7
        0x00001188:    b2d9        ..      UXTB     r1,r3
        0x0000118a:    7833        3x      LDRB     r3,[r6,#0]
        0x0000118c:    3309        .3      ADDS     r3,r3,#9
        0x0000118e:    b2d8        ..      UXTB     r0,r3
        0x00001190:    23ca        .#      MOVS     r3,#0xca
        0x00001192:    f003fb9b    ....    BL       writeOneSprite ; 0x48cc
        0x00001196:    2020                MOVS     r0,#0x20
        0x00001198:    231a        .#      MOVS     r3,#0x1a
        0x0000119a:    4363        cC      MULS     r3,r4,r3
        0x0000119c:    195b        [.      ADDS     r3,r3,r5
        0x0000119e:    9000        ..      STR      r0,[sp,#0]
        0x000011a0:    88db        ..      LDRH     r3,[r3,#6]
        0x000011a2:    330a        .3      ADDS     r3,r3,#0xa
        0x000011a4:    b2da        ..      UXTB     r2,r3
        0x000011a6:    231a        .#      MOVS     r3,#0x1a
        0x000011a8:    4363        cC      MULS     r3,r4,r3
        0x000011aa:    195b        [.      ADDS     r3,r3,r5
        0x000011ac:    889b        ..      LDRH     r3,[r3,#4]
        0x000011ae:    3b0e        .;      SUBS     r3,r3,#0xe
        0x000011b0:    b2d9        ..      UXTB     r1,r3
        0x000011b2:    7833        3x      LDRB     r3,[r6,#0]
        0x000011b4:    330a        .3      ADDS     r3,r3,#0xa
        0x000011b6:    b2d8        ..      UXTB     r0,r3
        0x000011b8:    23c8        .#      MOVS     r3,#0xc8
        0x000011ba:    f003fb87    ....    BL       writeOneSprite ; 0x48cc
        0x000011be:    2060        `       MOVS     r0,#0x60
        0x000011c0:    231a        .#      MOVS     r3,#0x1a
        0x000011c2:    4363        cC      MULS     r3,r4,r3
        0x000011c4:    195b        [.      ADDS     r3,r3,r5
        0x000011c6:    9000        ..      STR      r0,[sp,#0]
        0x000011c8:    88db        ..      LDRH     r3,[r3,#6]
        0x000011ca:    330a        .3      ADDS     r3,r3,#0xa
        0x000011cc:    b2da        ..      UXTB     r2,r3
        0x000011ce:    231a        .#      MOVS     r3,#0x1a
        0x000011d0:    4363        cC      MULS     r3,r4,r3
        0x000011d2:    195b        [.      ADDS     r3,r3,r5
        0x000011d4:    889b        ..      LDRH     r3,[r3,#4]
        0x000011d6:    330e        .3      ADDS     r3,r3,#0xe
        0x000011d8:    b2d9        ..      UXTB     r1,r3
        0x000011da:    7833        3x      LDRB     r3,[r6,#0]
        0x000011dc:    330b        .3      ADDS     r3,r3,#0xb
        0x000011de:    b2d8        ..      UXTB     r0,r3
        0x000011e0:    23c8        .#      MOVS     r3,#0xc8
        0x000011e2:    f003fb73    ..s.    BL       writeOneSprite ; 0x48cc
        0x000011e6:    2020                MOVS     r0,#0x20
        0x000011e8:    231a        .#      MOVS     r3,#0x1a
        0x000011ea:    4363        cC      MULS     r3,r4,r3
        0x000011ec:    195b        [.      ADDS     r3,r3,r5
        0x000011ee:    9000        ..      STR      r0,[sp,#0]
        0x000011f0:    88db        ..      LDRH     r3,[r3,#6]
        0x000011f2:    330a        .3      ADDS     r3,r3,#0xa
        0x000011f4:    b2da        ..      UXTB     r2,r3
        0x000011f6:    231a        .#      MOVS     r3,#0x1a
        0x000011f8:    4363        cC      MULS     r3,r4,r3
        0x000011fa:    195b        [.      ADDS     r3,r3,r5
        0x000011fc:    889b        ..      LDRH     r3,[r3,#4]
        0x000011fe:    3b15        .;      SUBS     r3,r3,#0x15
        0x00001200:    b2d9        ..      UXTB     r1,r3
        0x00001202:    7833        3x      LDRB     r3,[r6,#0]
        0x00001204:    330c        .3      ADDS     r3,r3,#0xc
        0x00001206:    b2d8        ..      UXTB     r0,r3
        0x00001208:    23c7        .#      MOVS     r3,#0xc7
        0x0000120a:    f003fb5f    .._.    BL       writeOneSprite ; 0x48cc
        0x0000120e:    2060        `       MOVS     r0,#0x60
        0x00001210:    231a        .#      MOVS     r3,#0x1a
        0x00001212:    4363        cC      MULS     r3,r4,r3
        0x00001214:    195b        [.      ADDS     r3,r3,r5
        0x00001216:    9000        ..      STR      r0,[sp,#0]
        0x00001218:    88db        ..      LDRH     r3,[r3,#6]
        0x0000121a:    330a        .3      ADDS     r3,r3,#0xa
        0x0000121c:    b2da        ..      UXTB     r2,r3
        0x0000121e:    231a        .#      MOVS     r3,#0x1a
        0x00001220:    4363        cC      MULS     r3,r4,r3
        0x00001222:    195b        [.      ADDS     r3,r3,r5
        0x00001224:    889b        ..      LDRH     r3,[r3,#4]
        0x00001226:    3315        .3      ADDS     r3,r3,#0x15
        0x00001228:    b2d9        ..      UXTB     r1,r3
        0x0000122a:    7833        3x      LDRB     r3,[r6,#0]
        0x0000122c:    330d        .3      ADDS     r3,r3,#0xd
        0x0000122e:    b2d8        ..      UXTB     r0,r3
        0x00001230:    23c7        .#      MOVS     r3,#0xc7
        0x00001232:    f003fb4b    ..K.    BL       writeOneSprite ; 0x48cc
        0x00001236:    7830        0x      LDRB     r0,[r6,#0]
        0x00001238:    300e        .0      ADDS     r0,r0,#0xe
        0x0000123a:    7030        0p      STRB     r0,[r6,#0]
        0x0000123c:    1c64        d.      ADDS     r4,r4,#1
        0x0000123e:    4803        .H      LDR      r0,[pc,#12] ; [0x124c] = 0x48f4
        0x00001240:    7800        .x      LDRB     r0,[r0,#0]
        0x00001242:    4284        .B      CMP      r4,r0
        0x00001244:    da00        ..      BGE      0x1248 ; b_green_drawPlane + 588
        0x00001246:    e6de        ..      B        0x1006 ; b_green_drawPlane + 10
        0x00001248:    bdf8        ..      POP      {r3-r7,pc}
    $d
        0x0000124a:    0000        ..      DCW    0
        0x0000124c:    000048f4    .H..    DCD    18676
    $t
    i.b_green_movePlane
    b_green_movePlane
        0x00001250:    b570        p.      PUSH     {r4-r6,lr}
        0x00001252:    4605        .F      MOV      r5,r0
        0x00001254:    2400        .$      MOVS     r4,#0
        0x00001256:    e14f        O.      B        0x14f8 ; b_green_movePlane + 680
        0x00001258:    201a        .       MOVS     r0,#0x1a
        0x0000125a:    4360        `C      MULS     r0,r4,r0
        0x0000125c:    5c28        (\      LDRB     r0,[r5,r0]
        0x0000125e:    2800        .(      CMP      r0,#0
        0x00001260:    d02a        *.      BEQ      0x12b8 ; b_green_movePlane + 104
        0x00001262:    201a        .       MOVS     r0,#0x1a
        0x00001264:    4360        `C      MULS     r0,r4,r0
        0x00001266:    1940        @.      ADDS     r0,r0,r5
        0x00001268:    7880        .x      LDRB     r0,[r0,#2]
        0x0000126a:    2802        .(      CMP      r0,#2
        0x0000126c:    d17e        ~.      BNE      0x136c ; b_green_movePlane + 284
        0x0000126e:    2100        .!      MOVS     r1,#0
        0x00001270:    201a        .       MOVS     r0,#0x1a
        0x00001272:    4360        `C      MULS     r0,r4,r0
        0x00001274:    1940        @.      ADDS     r0,r0,r5
        0x00001276:    7081        .p      STRB     r1,[r0,#2]
        0x00001278:    201a        .       MOVS     r0,#0x1a
        0x0000127a:    4360        `C      MULS     r0,r4,r0
        0x0000127c:    1940        @.      ADDS     r0,r0,r5
        0x0000127e:    7a00        .z      LDRB     r0,[r0,#8]
        0x00001280:    2800        .(      CMP      r0,#0
        0x00001282:    d129        ).      BNE      0x12d8 ; b_green_movePlane + 136
        0x00001284:    201a        .       MOVS     r0,#0x1a
        0x00001286:    4360        `C      MULS     r0,r4,r0
        0x00001288:    1940        @.      ADDS     r0,r0,r5
        0x0000128a:    2106        .!      MOVS     r1,#6
        0x0000128c:    5e41        A^      LDRSH    r1,[r0,r1]
        0x0000128e:    201a        .       MOVS     r0,#0x1a
        0x00001290:    4360        `C      MULS     r0,r4,r0
        0x00001292:    1940        @.      ADDS     r0,r0,r5
        0x00001294:    2210        ."      MOVS     r2,#0x10
        0x00001296:    5e82        .^      LDRSH    r2,[r0,r2]
        0x00001298:    4291        .B      CMP      r1,r2
        0x0000129a:    dc0e        ..      BGT      0x12ba ; b_green_movePlane + 106
        0x0000129c:    2100        .!      MOVS     r1,#0
        0x0000129e:    201a        .       MOVS     r0,#0x1a
        0x000012a0:    4360        `C      MULS     r0,r4,r0
        0x000012a2:    1940        @.      ADDS     r0,r0,r5
        0x000012a4:    7281        .r      STRB     r1,[r0,#0xa]
        0x000012a6:    201a        .       MOVS     r0,#0x1a
        0x000012a8:    4360        `C      MULS     r0,r4,r0
        0x000012aa:    1940        @.      ADDS     r0,r0,r5
        0x000012ac:    7241        Ar      STRB     r1,[r0,#9]
        0x000012ae:    2101        .!      MOVS     r1,#1
        0x000012b0:    201a        .       MOVS     r0,#0x1a
        0x000012b2:    4360        `C      MULS     r0,r4,r0
        0x000012b4:    1940        @.      ADDS     r0,r0,r5
        0x000012b6:    7201        .r      STRB     r1,[r0,#8]
        0x000012b8:    e11d        ..      B        0x14f6 ; b_green_movePlane + 678
        0x000012ba:    201a        .       MOVS     r0,#0x1a
        0x000012bc:    4360        `C      MULS     r0,r4,r0
        0x000012be:    1940        @.      ADDS     r0,r0,r5
        0x000012c0:    88c1        ..      LDRH     r1,[r0,#6]
        0x000012c2:    201a        .       MOVS     r0,#0x1a
        0x000012c4:    4360        `C      MULS     r0,r4,r0
        0x000012c6:    1940        @.      ADDS     r0,r0,r5
        0x000012c8:    8980        ..      LDRH     r0,[r0,#0xc]
        0x000012ca:    1808        ..      ADDS     r0,r1,r0
        0x000012cc:    b201        ..      SXTH     r1,r0
        0x000012ce:    201a        .       MOVS     r0,#0x1a
        0x000012d0:    4360        `C      MULS     r0,r4,r0
        0x000012d2:    1940        @.      ADDS     r0,r0,r5
        0x000012d4:    80c1        ..      STRH     r1,[r0,#6]
        0x000012d6:    e10e        ..      B        0x14f6 ; b_green_movePlane + 678
        0x000012d8:    201a        .       MOVS     r0,#0x1a
        0x000012da:    4360        `C      MULS     r0,r4,r0
        0x000012dc:    1940        @.      ADDS     r0,r0,r5
        0x000012de:    7a00        .z      LDRB     r0,[r0,#8]
        0x000012e0:    2801        .(      CMP      r0,#1
        0x000012e2:    d17d        }.      BNE      0x13e0 ; b_green_movePlane + 400
        0x000012e4:    201a        .       MOVS     r0,#0x1a
        0x000012e6:    4360        `C      MULS     r0,r4,r0
        0x000012e8:    1940        @.      ADDS     r0,r0,r5
        0x000012ea:    7a40        @z      LDRB     r0,[r0,#9]
        0x000012ec:    2800        .(      CMP      r0,#0
        0x000012ee:    d12c        ,.      BNE      0x134a ; b_green_movePlane + 250
        0x000012f0:    201a        .       MOVS     r0,#0x1a
        0x000012f2:    4360        `C      MULS     r0,r4,r0
        0x000012f4:    1940        @.      ADDS     r0,r0,r5
        0x000012f6:    8880        ..      LDRH     r0,[r0,#4]
        0x000012f8:    1e80        ..      SUBS     r0,r0,#2
        0x000012fa:    b201        ..      SXTH     r1,r0
        0x000012fc:    201a        .       MOVS     r0,#0x1a
        0x000012fe:    4360        `C      MULS     r0,r4,r0
        0x00001300:    1940        @.      ADDS     r0,r0,r5
        0x00001302:    8081        ..      STRH     r1,[r0,#4]
        0x00001304:    f7feff34    ..4.    BL       rand ; 0x170
        0x00001308:    4606        .F      MOV      r6,r0
        0x0000130a:    2103        .!      MOVS     r1,#3
        0x0000130c:    f7feff1c    ....    BL       __aeabi_idiv ; 0x148
        0x00001310:    1e49        I.      SUBS     r1,r1,#1
        0x00001312:    201a        .       MOVS     r0,#0x1a
        0x00001314:    4360        `C      MULS     r0,r4,r0
        0x00001316:    1940        @.      ADDS     r0,r0,r5
        0x00001318:    88c0        ..      LDRH     r0,[r0,#6]
        0x0000131a:    1808        ..      ADDS     r0,r1,r0
        0x0000131c:    b201        ..      SXTH     r1,r0
        0x0000131e:    201a        .       MOVS     r0,#0x1a
        0x00001320:    4360        `C      MULS     r0,r4,r0
        0x00001322:    1940        @.      ADDS     r0,r0,r5
        0x00001324:    80c1        ..      STRH     r1,[r0,#6]
        0x00001326:    201a        .       MOVS     r0,#0x1a
        0x00001328:    4360        `C      MULS     r0,r4,r0
        0x0000132a:    1940        @.      ADDS     r0,r0,r5
        0x0000132c:    2104        .!      MOVS     r1,#4
        0x0000132e:    5e41        A^      LDRSH    r1,[r0,r1]
        0x00001330:    201a        .       MOVS     r0,#0x1a
        0x00001332:    4360        `C      MULS     r0,r4,r0
        0x00001334:    1940        @.      ADDS     r0,r0,r5
        0x00001336:    2212        ."      MOVS     r2,#0x12
        0x00001338:    5e82        .^      LDRSH    r2,[r0,r2]
        0x0000133a:    4291        .B      CMP      r1,r2
        0x0000133c:    dabc        ..      BGE      0x12b8 ; b_green_movePlane + 104
        0x0000133e:    2101        .!      MOVS     r1,#1
        0x00001340:    201a        .       MOVS     r0,#0x1a
        0x00001342:    4360        `C      MULS     r0,r4,r0
        0x00001344:    1940        @.      ADDS     r0,r0,r5
        0x00001346:    7241        Ar      STRB     r1,[r0,#9]
        0x00001348:    e0d5        ..      B        0x14f6 ; b_green_movePlane + 678
        0x0000134a:    201a        .       MOVS     r0,#0x1a
        0x0000134c:    4360        `C      MULS     r0,r4,r0
        0x0000134e:    1940        @.      ADDS     r0,r0,r5
        0x00001350:    7a40        @z      LDRB     r0,[r0,#9]
        0x00001352:    2801        .(      CMP      r0,#1
        0x00001354:    d12a        *.      BNE      0x13ac ; b_green_movePlane + 348
        0x00001356:    201a        .       MOVS     r0,#0x1a
        0x00001358:    4360        `C      MULS     r0,r4,r0
        0x0000135a:    1940        @.      ADDS     r0,r0,r5
        0x0000135c:    8880        ..      LDRH     r0,[r0,#4]
        0x0000135e:    1c80        ..      ADDS     r0,r0,#2
        0x00001360:    b201        ..      SXTH     r1,r0
        0x00001362:    201a        .       MOVS     r0,#0x1a
        0x00001364:    4360        `C      MULS     r0,r4,r0
        0x00001366:    1940        @.      ADDS     r0,r0,r5
        0x00001368:    8081        ..      STRH     r1,[r0,#4]
        0x0000136a:    e000        ..      B        0x136e ; b_green_movePlane + 286
        0x0000136c:    e0b9        ..      B        0x14e2 ; b_green_movePlane + 658
        0x0000136e:    201a        .       MOVS     r0,#0x1a
        0x00001370:    4360        `C      MULS     r0,r4,r0
        0x00001372:    1940        @.      ADDS     r0,r0,r5
        0x00001374:    88c0        ..      LDRH     r0,[r0,#6]
        0x00001376:    1e80        ..      SUBS     r0,r0,#2
        0x00001378:    b201        ..      SXTH     r1,r0
        0x0000137a:    201a        .       MOVS     r0,#0x1a
        0x0000137c:    4360        `C      MULS     r0,r4,r0
        0x0000137e:    1940        @.      ADDS     r0,r0,r5
        0x00001380:    80c1        ..      STRH     r1,[r0,#6]
        0x00001382:    201a        .       MOVS     r0,#0x1a
        0x00001384:    4360        `C      MULS     r0,r4,r0
        0x00001386:    1940        @.      ADDS     r0,r0,r5
        0x00001388:    2104        .!      MOVS     r1,#4
        0x0000138a:    5e41        A^      LDRSH    r1,[r0,r1]
        0x0000138c:    201a        .       MOVS     r0,#0x1a
        0x0000138e:    4360        `C      MULS     r0,r4,r0
        0x00001390:    1940        @.      ADDS     r0,r0,r5
        0x00001392:    2214        ."      MOVS     r2,#0x14
        0x00001394:    5e82        .^      LDRSH    r2,[r0,r2]
        0x00001396:    4291        .B      CMP      r1,r2
        0x00001398:    dd8e        ..      BLE      0x12b8 ; b_green_movePlane + 104
        0x0000139a:    2102        .!      MOVS     r1,#2
        0x0000139c:    201a        .       MOVS     r0,#0x1a
        0x0000139e:    4360        `C      MULS     r0,r4,r0
        0x000013a0:    1940        @.      ADDS     r0,r0,r5
        0x000013a2:    7241        Ar      STRB     r1,[r0,#9]
        0x000013a4:    2001        .       MOVS     r0,#1
        0x000013a6:    f7fff9f7    ....    BL       LED_toggle ; 0x798
        0x000013aa:    e0a4        ..      B        0x14f6 ; b_green_movePlane + 678
        0x000013ac:    201a        .       MOVS     r0,#0x1a
        0x000013ae:    4360        `C      MULS     r0,r4,r0
        0x000013b0:    1940        @.      ADDS     r0,r0,r5
        0x000013b2:    7a40        @z      LDRB     r0,[r0,#9]
        0x000013b4:    2802        .(      CMP      r0,#2
        0x000013b6:    d137        7.      BNE      0x1428 ; b_green_movePlane + 472
        0x000013b8:    f7fefeda    ....    BL       rand ; 0x170
        0x000013bc:    4606        .F      MOV      r6,r0
        0x000013be:    0fc0        ..      LSRS     r0,r0,#31
        0x000013c0:    1980        ..      ADDS     r0,r0,r6
        0x000013c2:    1040        @.      ASRS     r0,r0,#1
        0x000013c4:    0040        @.      LSLS     r0,r0,#1
        0x000013c6:    1a30        0.      SUBS     r0,r6,r0
        0x000013c8:    1c40        @.      ADDS     r0,r0,#1
        0x000013ca:    211a        .!      MOVS     r1,#0x1a
        0x000013cc:    4361        aC      MULS     r1,r4,r1
        0x000013ce:    1949        I.      ADDS     r1,r1,r5
        0x000013d0:    8889        ..      LDRH     r1,[r1,#4]
        0x000013d2:    1840        @.      ADDS     r0,r0,r1
        0x000013d4:    b201        ..      SXTH     r1,r0
        0x000013d6:    201a        .       MOVS     r0,#0x1a
        0x000013d8:    4360        `C      MULS     r0,r4,r0
        0x000013da:    1940        @.      ADDS     r0,r0,r5
        0x000013dc:    8081        ..      STRH     r1,[r0,#4]
        0x000013de:    e000        ..      B        0x13e2 ; b_green_movePlane + 402
        0x000013e0:    e063        c.      B        0x14aa ; b_green_movePlane + 602
        0x000013e2:    f7fefec5    ....    BL       rand ; 0x170
        0x000013e6:    4606        .F      MOV      r6,r0
        0x000013e8:    2103        .!      MOVS     r1,#3
        0x000013ea:    f7fefead    ....    BL       __aeabi_idiv ; 0x148
        0x000013ee:    1e49        I.      SUBS     r1,r1,#1
        0x000013f0:    201a        .       MOVS     r0,#0x1a
        0x000013f2:    4360        `C      MULS     r0,r4,r0
        0x000013f4:    1940        @.      ADDS     r0,r0,r5
        0x000013f6:    88c0        ..      LDRH     r0,[r0,#6]
        0x000013f8:    1808        ..      ADDS     r0,r1,r0
        0x000013fa:    b201        ..      SXTH     r1,r0
        0x000013fc:    201a        .       MOVS     r0,#0x1a
        0x000013fe:    4360        `C      MULS     r0,r4,r0
        0x00001400:    1940        @.      ADDS     r0,r0,r5
        0x00001402:    80c1        ..      STRH     r1,[r0,#6]
        0x00001404:    201a        .       MOVS     r0,#0x1a
        0x00001406:    4360        `C      MULS     r0,r4,r0
        0x00001408:    1940        @.      ADDS     r0,r0,r5
        0x0000140a:    2104        .!      MOVS     r1,#4
        0x0000140c:    5e41        A^      LDRSH    r1,[r0,r1]
        0x0000140e:    201a        .       MOVS     r0,#0x1a
        0x00001410:    4360        `C      MULS     r0,r4,r0
        0x00001412:    1940        @.      ADDS     r0,r0,r5
        0x00001414:    2218        ."      MOVS     r2,#0x18
        0x00001416:    5e82        .^      LDRSH    r2,[r0,r2]
        0x00001418:    4291        .B      CMP      r1,r2
        0x0000141a:    dd6c        l.      BLE      0x14f6 ; b_green_movePlane + 678
        0x0000141c:    2103        .!      MOVS     r1,#3
        0x0000141e:    201a        .       MOVS     r0,#0x1a
        0x00001420:    4360        `C      MULS     r0,r4,r0
        0x00001422:    1940        @.      ADDS     r0,r0,r5
        0x00001424:    7241        Ar      STRB     r1,[r0,#9]
        0x00001426:    e066        f.      B        0x14f6 ; b_green_movePlane + 678
        0x00001428:    201a        .       MOVS     r0,#0x1a
        0x0000142a:    4360        `C      MULS     r0,r4,r0
        0x0000142c:    1940        @.      ADDS     r0,r0,r5
        0x0000142e:    7a40        @z      LDRB     r0,[r0,#9]
        0x00001430:    2803        .(      CMP      r0,#3
        0x00001432:    d160        `.      BNE      0x14f6 ; b_green_movePlane + 678
        0x00001434:    201a        .       MOVS     r0,#0x1a
        0x00001436:    4360        `C      MULS     r0,r4,r0
        0x00001438:    1940        @.      ADDS     r0,r0,r5
        0x0000143a:    8880        ..      LDRH     r0,[r0,#4]
        0x0000143c:    1e80        ..      SUBS     r0,r0,#2
        0x0000143e:    b201        ..      SXTH     r1,r0
        0x00001440:    201a        .       MOVS     r0,#0x1a
        0x00001442:    4360        `C      MULS     r0,r4,r0
        0x00001444:    1940        @.      ADDS     r0,r0,r5
        0x00001446:    8081        ..      STRH     r1,[r0,#4]
        0x00001448:    201a        .       MOVS     r0,#0x1a
        0x0000144a:    4360        `C      MULS     r0,r4,r0
        0x0000144c:    1940        @.      ADDS     r0,r0,r5
        0x0000144e:    88c0        ..      LDRH     r0,[r0,#6]
        0x00001450:    1c80        ..      ADDS     r0,r0,#2
        0x00001452:    b201        ..      SXTH     r1,r0
        0x00001454:    201a        .       MOVS     r0,#0x1a
        0x00001456:    4360        `C      MULS     r0,r4,r0
        0x00001458:    1940        @.      ADDS     r0,r0,r5
        0x0000145a:    80c1        ..      STRH     r1,[r0,#6]
        0x0000145c:    201a        .       MOVS     r0,#0x1a
        0x0000145e:    4360        `C      MULS     r0,r4,r0
        0x00001460:    1940        @.      ADDS     r0,r0,r5
        0x00001462:    2104        .!      MOVS     r1,#4
        0x00001464:    5e41        A^      LDRSH    r1,[r0,r1]
        0x00001466:    201a        .       MOVS     r0,#0x1a
        0x00001468:    4360        `C      MULS     r0,r4,r0
        0x0000146a:    1940        @.      ADDS     r0,r0,r5
        0x0000146c:    2216        ."      MOVS     r2,#0x16
        0x0000146e:    5e82        .^      LDRSH    r2,[r0,r2]
        0x00001470:    4291        .B      CMP      r1,r2
        0x00001472:    da40        @.      BGE      0x14f6 ; b_green_movePlane + 678
        0x00001474:    2100        .!      MOVS     r1,#0
        0x00001476:    201a        .       MOVS     r0,#0x1a
        0x00001478:    4360        `C      MULS     r0,r4,r0
        0x0000147a:    1940        @.      ADDS     r0,r0,r5
        0x0000147c:    7241        Ar      STRB     r1,[r0,#9]
        0x0000147e:    201a        .       MOVS     r0,#0x1a
        0x00001480:    4360        `C      MULS     r0,r4,r0
        0x00001482:    1940        @.      ADDS     r0,r0,r5
        0x00001484:    7a80        .z      LDRB     r0,[r0,#0xa]
        0x00001486:    1c40        @.      ADDS     r0,r0,#1
        0x00001488:    b2c1        ..      UXTB     r1,r0
        0x0000148a:    201a        .       MOVS     r0,#0x1a
        0x0000148c:    4360        `C      MULS     r0,r4,r0
        0x0000148e:    1940        @.      ADDS     r0,r0,r5
        0x00001490:    7281        .r      STRB     r1,[r0,#0xa]
        0x00001492:    201a        .       MOVS     r0,#0x1a
        0x00001494:    4360        `C      MULS     r0,r4,r0
        0x00001496:    1940        @.      ADDS     r0,r0,r5
        0x00001498:    7a80        .z      LDRB     r0,[r0,#0xa]
        0x0000149a:    2802        .(      CMP      r0,#2
        0x0000149c:    d12b        +.      BNE      0x14f6 ; b_green_movePlane + 678
        0x0000149e:    2102        .!      MOVS     r1,#2
        0x000014a0:    201a        .       MOVS     r0,#0x1a
        0x000014a2:    4360        `C      MULS     r0,r4,r0
        0x000014a4:    1940        @.      ADDS     r0,r0,r5
        0x000014a6:    7201        .r      STRB     r1,[r0,#8]
        0x000014a8:    e025        %.      B        0x14f6 ; b_green_movePlane + 678
        0x000014aa:    201a        .       MOVS     r0,#0x1a
        0x000014ac:    4360        `C      MULS     r0,r4,r0
        0x000014ae:    1940        @.      ADDS     r0,r0,r5
        0x000014b0:    7a00        .z      LDRB     r0,[r0,#8]
        0x000014b2:    2802        .(      CMP      r0,#2
        0x000014b4:    d11f        ..      BNE      0x14f6 ; b_green_movePlane + 678
        0x000014b6:    201a        .       MOVS     r0,#0x1a
        0x000014b8:    4360        `C      MULS     r0,r4,r0
        0x000014ba:    1940        @.      ADDS     r0,r0,r5
        0x000014bc:    88c0        ..      LDRH     r0,[r0,#6]
        0x000014be:    1ec0        ..      SUBS     r0,r0,#3
        0x000014c0:    b201        ..      SXTH     r1,r0
        0x000014c2:    201a        .       MOVS     r0,#0x1a
        0x000014c4:    4360        `C      MULS     r0,r4,r0
        0x000014c6:    1940        @.      ADDS     r0,r0,r5
        0x000014c8:    80c1        ..      STRH     r1,[r0,#6]
        0x000014ca:    201a        .       MOVS     r0,#0x1a
        0x000014cc:    4360        `C      MULS     r0,r4,r0
        0x000014ce:    1940        @.      ADDS     r0,r0,r5
        0x000014d0:    2106        .!      MOVS     r1,#6
        0x000014d2:    5e41        A^      LDRSH    r1,[r0,r1]
        0x000014d4:    290a        .)      CMP      r1,#0xa
        0x000014d6:    da0e        ..      BGE      0x14f6 ; b_green_movePlane + 678
        0x000014d8:    2100        .!      MOVS     r1,#0
        0x000014da:    201a        .       MOVS     r0,#0x1a
        0x000014dc:    4360        `C      MULS     r0,r4,r0
        0x000014de:    5429        )T      STRB     r1,[r5,r0]
        0x000014e0:    e009        ..      B        0x14f6 ; b_green_movePlane + 678
        0x000014e2:    201a        .       MOVS     r0,#0x1a
        0x000014e4:    4360        `C      MULS     r0,r4,r0
        0x000014e6:    1940        @.      ADDS     r0,r0,r5
        0x000014e8:    7880        .x      LDRB     r0,[r0,#2]
        0x000014ea:    1c40        @.      ADDS     r0,r0,#1
        0x000014ec:    b2c1        ..      UXTB     r1,r0
        0x000014ee:    201a        .       MOVS     r0,#0x1a
        0x000014f0:    4360        `C      MULS     r0,r4,r0
        0x000014f2:    1940        @.      ADDS     r0,r0,r5
        0x000014f4:    7081        .p      STRB     r1,[r0,#2]
        0x000014f6:    1c64        d.      ADDS     r4,r4,#1
        0x000014f8:    4802        .H      LDR      r0,[pc,#8] ; [0x1504] = 0x48f4
        0x000014fa:    7800        .x      LDRB     r0,[r0,#0]
        0x000014fc:    4284        .B      CMP      r4,r0
        0x000014fe:    da00        ..      BGE      0x1502 ; b_green_movePlane + 690
        0x00001500:    e6aa        ..      B        0x1258 ; b_green_movePlane + 8
        0x00001502:    bd70        p.      POP      {r4-r6,pc}
    $d
        0x00001504:    000048f4    .H..    DCD    18676
    $t
    i.b_green_planeInit
    b_green_planeInit
        0x00001508:    4601        .F      MOV      r1,r0
        0x0000150a:    2000        .       MOVS     r0,#0
        0x0000150c:    e01a        ..      B        0x1544 ; b_green_planeInit + 60
        0x0000150e:    2300        .#      MOVS     r3,#0
        0x00001510:    221a        ."      MOVS     r2,#0x1a
        0x00001512:    4342        BC      MULS     r2,r0,r2
        0x00001514:    1852        R.      ADDS     r2,r2,r1
        0x00001516:    8093        ..      STRH     r3,[r2,#4]
        0x00001518:    221a        ."      MOVS     r2,#0x1a
        0x0000151a:    4342        BC      MULS     r2,r0,r2
        0x0000151c:    1852        R.      ADDS     r2,r2,r1
        0x0000151e:    80d3        ..      STRH     r3,[r2,#6]
        0x00001520:    221a        ."      MOVS     r2,#0x1a
        0x00001522:    4342        BC      MULS     r2,r0,r2
        0x00001524:    548b        .T      STRB     r3,[r1,r2]
        0x00001526:    2305        .#      MOVS     r3,#5
        0x00001528:    221a        ."      MOVS     r2,#0x1a
        0x0000152a:    4342        BC      MULS     r2,r0,r2
        0x0000152c:    1852        R.      ADDS     r2,r2,r1
        0x0000152e:    7053        Sp      STRB     r3,[r2,#1]
        0x00001530:    2300        .#      MOVS     r3,#0
        0x00001532:    221a        ."      MOVS     r2,#0x1a
        0x00001534:    4342        BC      MULS     r2,r0,r2
        0x00001536:    1852        R.      ADDS     r2,r2,r1
        0x00001538:    7093        .p      STRB     r3,[r2,#2]
        0x0000153a:    221a        ."      MOVS     r2,#0x1a
        0x0000153c:    4342        BC      MULS     r2,r0,r2
        0x0000153e:    1852        R.      ADDS     r2,r2,r1
        0x00001540:    7213        .r      STRB     r3,[r2,#8]
        0x00001542:    1c40        @.      ADDS     r0,r0,#1
        0x00001544:    4a02        .J      LDR      r2,[pc,#8] ; [0x1550] = 0x48f4
        0x00001546:    7812        .x      LDRB     r2,[r2,#0]
        0x00001548:    4290        .B      CMP      r0,r2
        0x0000154a:    dbe0        ..      BLT      0x150e ; b_green_planeInit + 6
        0x0000154c:    4770        pG      BX       lr
    $d
        0x0000154e:    0000        ..      DCW    0
        0x00001550:    000048f4    .H..    DCD    18676
    $t
    i.clearNameTableAll
    clearNameTableAll
        0x00001554:    b530        0.      PUSH     {r4,r5,lr}
        0x00001556:    2400        .$      MOVS     r4,#0
        0x00001558:    e00c        ..      B        0x1574 ; clearNameTableAll + 32
        0x0000155a:    2500        .%      MOVS     r5,#0
        0x0000155c:    e006        ..      B        0x156c ; clearNameTableAll + 24
        0x0000155e:    22ff        ."      MOVS     r2,#0xff
        0x00001560:    4621        !F      MOV      r1,r4
        0x00001562:    4628        (F      MOV      r0,r5
        0x00001564:    f003f9aa    ....    BL       writeOneNametable ; 0x48bc
        0x00001568:    1c68        h.      ADDS     r0,r5,#1
        0x0000156a:    b2c5        ..      UXTB     r5,r0
        0x0000156c:    2d20         -      CMP      r5,#0x20
        0x0000156e:    dbf6        ..      BLT      0x155e ; clearNameTableAll + 10
        0x00001570:    1c60        `.      ADDS     r0,r4,#1
        0x00001572:    b2c4        ..      UXTB     r4,r0
        0x00001574:    2c1e        .,      CMP      r4,#0x1e
        0x00001576:    dbf0        ..      BLT      0x155a ; clearNameTableAll + 6
        0x00001578:    bd30        0.      POP      {r4,r5,pc}
    i.delay
    delay
        0x0000157a:    b500        ..      PUSH     {lr}
        0x0000157c:    4602        .F      MOV      r2,r0
        0x0000157e:    2000        .       MOVS     r0,#0
        0x00001580:    f7fffade    ....    BL       Set_SysTick_CTRL ; 0xb40
        0x00001584:    4610        .F      MOV      r0,r2
        0x00001586:    f7fffae1    ....    BL       Set_SysTick_LOAD ; 0xb4c
        0x0000158a:    2000        .       MOVS     r0,#0
        0x0000158c:    f7fffae4    ....    BL       Set_SysTick_VALUE ; 0xb58
        0x00001590:    2007        .       MOVS     r0,#7
        0x00001592:    f7fffad5    ....    BL       Set_SysTick_CTRL ; 0xb40
        0x00001596:    bf30        0.      WFI      
        0x00001598:    bd00        ..      POP      {pc}
        0x0000159a:    0000        ..      MOVS     r0,r0
    i.delay_ms
    delay_ms
        0x0000159c:    b510        ..      PUSH     {r4,lr}
        0x0000159e:    4603        .F      MOV      r3,r0
        0x000015a0:    461c        .F      MOV      r4,r3
        0x000015a2:    e003        ..      B        0x15ac ; delay_ms + 16
        0x000015a4:    4803        .H      LDR      r0,[pc,#12] ; [0x15b4] = 0xc350
        0x000015a6:    f7ffffe8    ....    BL       delay ; 0x157a
        0x000015aa:    1e64        d.      SUBS     r4,r4,#1
        0x000015ac:    2c00        .,      CMP      r4,#0
        0x000015ae:    d1f9        ..      BNE      0x15a4 ; delay_ms + 8
        0x000015b0:    bd10        ..      POP      {r4,pc}
    $d
        0x000015b2:    0000        ..      DCW    0
        0x000015b4:    0000c350    P...    DCD    50000
    $t
    i.delay_us
    delay_us
        0x000015b8:    b510        ..      PUSH     {r4,lr}
        0x000015ba:    4603        .F      MOV      r3,r0
        0x000015bc:    461c        .F      MOV      r4,r3
        0x000015be:    e003        ..      B        0x15c8 ; delay_us + 16
        0x000015c0:    2032        2       MOVS     r0,#0x32
        0x000015c2:    f7ffffda    ....    BL       delay ; 0x157a
        0x000015c6:    1e64        d.      SUBS     r4,r4,#1
        0x000015c8:    2c00        .,      CMP      r4,#0
        0x000015ca:    d1f9        ..      BNE      0x15c0 ; delay_us + 8
        0x000015cc:    bd10        ..      POP      {r4,pc}
        0x000015ce:    0000        ..      MOVS     r0,r0
    i.endInterFaceDraw
    endInterFaceDraw
        0x000015d0:    b5f0        ..      PUSH     {r4-r7,lr}
        0x000015d2:    b089        ..      SUB      sp,sp,#0x24
        0x000015d4:    4605        .F      MOV      r5,r0
        0x000015d6:    460c        .F      MOV      r4,r1
        0x000015d8:    4616        .F      MOV      r6,r2
        0x000015da:    461f        .F      MOV      r7,r3
        0x000015dc:    210a        .!      MOVS     r1,#0xa
        0x000015de:    4630        0F      MOV      r0,r6
        0x000015e0:    f7fefd9c    ....    BL       __aeabi_uidiv ; 0x11c
        0x000015e4:    9108        ..      STR      r1,[sp,#0x20]
        0x000015e6:    210a        .!      MOVS     r1,#0xa
        0x000015e8:    4630        0F      MOV      r0,r6
        0x000015ea:    f7fefd97    ....    BL       __aeabi_uidiv ; 0x11c
        0x000015ee:    210a        .!      MOVS     r1,#0xa
        0x000015f0:    9003        ..      STR      r0,[sp,#0xc]
        0x000015f2:    f7fefd93    ....    BL       __aeabi_uidiv ; 0x11c
        0x000015f6:    9107        ..      STR      r1,[sp,#0x1c]
        0x000015f8:    2164        d!      MOVS     r1,#0x64
        0x000015fa:    4630        0F      MOV      r0,r6
        0x000015fc:    f7fefd8e    ....    BL       __aeabi_uidiv ; 0x11c
        0x00001600:    210a        .!      MOVS     r1,#0xa
        0x00001602:    9003        ..      STR      r0,[sp,#0xc]
        0x00001604:    f7fefd8a    ....    BL       __aeabi_uidiv ; 0x11c
        0x00001608:    9106        ..      STR      r1,[sp,#0x18]
        0x0000160a:    217d        }!      MOVS     r1,#0x7d
        0x0000160c:    00c9        ..      LSLS     r1,r1,#3
        0x0000160e:    4630        0F      MOV      r0,r6
        0x00001610:    f7fefd84    ....    BL       __aeabi_uidiv ; 0x11c
        0x00001614:    210a        .!      MOVS     r1,#0xa
        0x00001616:    9003        ..      STR      r0,[sp,#0xc]
        0x00001618:    f7fefd80    ....    BL       __aeabi_uidiv ; 0x11c
        0x0000161c:    9105        ..      STR      r1,[sp,#0x14]
        0x0000161e:    4927        'I      LDR      r1,[pc,#156] ; [0x16bc] = 0x20001bb6
        0x00001620:    9805        ..      LDR      r0,[sp,#0x14]
        0x00001622:    7388        .s      STRB     r0,[r1,#0xe]
        0x00001624:    9806        ..      LDR      r0,[sp,#0x18]
        0x00001626:    7448        Ht      STRB     r0,[r1,#0x11]
        0x00001628:    9807        ..      LDR      r0,[sp,#0x1c]
        0x0000162a:    7508        .u      STRB     r0,[r1,#0x14]
        0x0000162c:    9808        ..      LDR      r0,[sp,#0x20]
        0x0000162e:    75c8        .u      STRB     r0,[r1,#0x17]
        0x00001630:    4923        #I      LDR      r1,[pc,#140] ; [0x16c0] = 0x42c80000
        0x00001632:    4638        8F      MOV      r0,r7
        0x00001634:    f7fefe07    ....    BL       __aeabi_fmul ; 0x246
        0x00001638:    9003        ..      STR      r0,[sp,#0xc]
        0x0000163a:    f7fefe91    ....    BL       __aeabi_f2uiz ; 0x360
        0x0000163e:    b2c0        ..      UXTB     r0,r0
        0x00001640:    9004        ..      STR      r0,[sp,#0x10]
        0x00001642:    210a        .!      MOVS     r1,#0xa
        0x00001644:    9804        ..      LDR      r0,[sp,#0x10]
        0x00001646:    f7fefd7f    ....    BL       __aeabi_idiv ; 0x148
        0x0000164a:    b2c8        ..      UXTB     r0,r1
        0x0000164c:    9008        ..      STR      r0,[sp,#0x20]
        0x0000164e:    210a        .!      MOVS     r1,#0xa
        0x00001650:    9804        ..      LDR      r0,[sp,#0x10]
        0x00001652:    f7fefd79    ..y.    BL       __aeabi_idiv ; 0x148
        0x00001656:    210a        .!      MOVS     r1,#0xa
        0x00001658:    9003        ..      STR      r0,[sp,#0xc]
        0x0000165a:    f7fefd75    ..u.    BL       __aeabi_idiv ; 0x148
        0x0000165e:    b2c8        ..      UXTB     r0,r1
        0x00001660:    9007        ..      STR      r0,[sp,#0x1c]
        0x00001662:    4916        .I      LDR      r1,[pc,#88] ; [0x16bc] = 0x20001bb6
        0x00001664:    3127        '1      ADDS     r1,r1,#0x27
        0x00001666:    9807        ..      LDR      r0,[sp,#0x1c]
        0x00001668:    7088        .p      STRB     r0,[r1,#2]
        0x0000166a:    1cc9        ..      ADDS     r1,r1,#3
        0x0000166c:    9808        ..      LDR      r0,[sp,#0x20]
        0x0000166e:    7088        .p      STRB     r0,[r1,#2]
        0x00001670:    7828        (x      LDRB     r0,[r5,#0]
        0x00001672:    2801        .(      CMP      r0,#1
        0x00001674:    d120         .      BNE      0x16b8 ; endInterFaceDraw + 232
        0x00001676:    7820         x      LDRB     r0,[r4,#0]
        0x00001678:    2814        .(      CMP      r0,#0x14
        0x0000167a:    da1d        ..      BGE      0x16b8 ; endInterFaceDraw + 232
        0x0000167c:    2000        .       MOVS     r0,#0
        0x0000167e:    9000        ..      STR      r0,[sp,#0]
        0x00001680:    7820         x      LDRB     r0,[r4,#0]
        0x00001682:    0041        A.      LSLS     r1,r0,#1
        0x00001684:    1840        @.      ADDS     r0,r0,r1
        0x00001686:    490d        .I      LDR      r1,[pc,#52] ; [0x16bc] = 0x20001bb6
        0x00001688:    1840        @.      ADDS     r0,r0,r1
        0x0000168a:    7883        .x      LDRB     r3,[r0,#2]
        0x0000168c:    7820         x      LDRB     r0,[r4,#0]
        0x0000168e:    0041        A.      LSLS     r1,r0,#1
        0x00001690:    1840        @.      ADDS     r0,r0,r1
        0x00001692:    490a        .I      LDR      r1,[pc,#40] ; [0x16bc] = 0x20001bb6
        0x00001694:    1840        @.      ADDS     r0,r0,r1
        0x00001696:    7842        Bx      LDRB     r2,[r0,#1]
        0x00001698:    7820         x      LDRB     r0,[r4,#0]
        0x0000169a:    0041        A.      LSLS     r1,r0,#1
        0x0000169c:    1840        @.      ADDS     r0,r0,r1
        0x0000169e:    4907        .I      LDR      r1,[pc,#28] ; [0x16bc] = 0x20001bb6
        0x000016a0:    5c08        .\      LDRB     r0,[r1,r0]
        0x000016a2:    9003        ..      STR      r0,[sp,#0xc]
        0x000016a4:    7820         x      LDRB     r0,[r4,#0]
        0x000016a6:    9002        ..      STR      r0,[sp,#8]
        0x000016a8:    9903        ..      LDR      r1,[sp,#0xc]
        0x000016aa:    f003f90f    ....    BL       writeOneSprite ; 0x48cc
        0x000016ae:    7820         x      LDRB     r0,[r4,#0]
        0x000016b0:    1c40        @.      ADDS     r0,r0,#1
        0x000016b2:    7020         p      STRB     r0,[r4,#0]
        0x000016b4:    2000        .       MOVS     r0,#0
        0x000016b6:    7028        (p      STRB     r0,[r5,#0]
        0x000016b8:    b009        ..      ADD      sp,sp,#0x24
        0x000016ba:    bdf0        ..      POP      {r4-r7,pc}
    $d
        0x000016bc:    20001bb6    ...     DCD    536878006
        0x000016c0:    42c80000    ...B    DCD    1120403456
    $t
    i.enemyAndBulletMapCreate
    enemyAndBulletMapCreate
        0x000016c4:    b5ff        ..      PUSH     {r0-r7,lr}
        0x000016c6:    4605        .F      MOV      r5,r0
        0x000016c8:    460e        .F      MOV      r6,r1
        0x000016ca:    4617        .F      MOV      r7,r2
        0x000016cc:    2000        .       MOVS     r0,#0
        0x000016ce:    e004        ..      B        0x16da ; enemyAndBulletMapCreate + 22
        0x000016d0:    2200        ."      MOVS     r2,#0
        0x000016d2:    0083        ..      LSLS     r3,r0,#2
        0x000016d4:    9903        ..      LDR      r1,[sp,#0xc]
        0x000016d6:    50ca        .P      STR      r2,[r1,r3]
        0x000016d8:    1c40        @.      ADDS     r0,r0,#1
        0x000016da:    281e        .(      CMP      r0,#0x1e
        0x000016dc:    dbf8        ..      BLT      0x16d0 ; enemyAndBulletMapCreate + 12
        0x000016de:    2400        .$      MOVS     r4,#0
        0x000016e0:    e028        (.      B        0x1734 ; enemyAndBulletMapCreate + 112
        0x000016e2:    0120         .      LSLS     r0,r4,#4
        0x000016e4:    5c28        (\      LDRB     r0,[r5,r0]
        0x000016e6:    2800        .(      CMP      r0,#0
        0x000016e8:    d023        #.      BEQ      0x1732 ; enemyAndBulletMapCreate + 110
        0x000016ea:    0122        ".      LSLS     r2,r4,#4
        0x000016ec:    1952        R.      ADDS     r2,r2,r5
        0x000016ee:    88d2        ..      LDRH     r2,[r2,#6]
        0x000016f0:    b2d1        ..      UXTB     r1,r2
        0x000016f2:    0122        ".      LSLS     r2,r4,#4
        0x000016f4:    1952        R.      ADDS     r2,r2,r5
        0x000016f6:    8892        ..      LDRH     r2,[r2,#4]
        0x000016f8:    b2d0        ..      UXTB     r0,r2
        0x000016fa:    9a03        ..      LDR      r2,[sp,#0xc]
        0x000016fc:    f002ffee    ....    BL       tileMap ; 0x46dc
        0x00001700:    0122        ".      LSLS     r2,r4,#4
        0x00001702:    1952        R.      ADDS     r2,r2,r5
        0x00001704:    88d2        ..      LDRH     r2,[r2,#6]
        0x00001706:    b2d1        ..      UXTB     r1,r2
        0x00001708:    0122        ".      LSLS     r2,r4,#4
        0x0000170a:    1952        R.      ADDS     r2,r2,r5
        0x0000170c:    8892        ..      LDRH     r2,[r2,#4]
        0x0000170e:    3208        .2      ADDS     r2,r2,#8
        0x00001710:    b2d0        ..      UXTB     r0,r2
        0x00001712:    9a03        ..      LDR      r2,[sp,#0xc]
        0x00001714:    f002ffe2    ....    BL       tileMap ; 0x46dc
        0x00001718:    0122        ".      LSLS     r2,r4,#4
        0x0000171a:    1952        R.      ADDS     r2,r2,r5
        0x0000171c:    88d2        ..      LDRH     r2,[r2,#6]
        0x0000171e:    3a08        .:      SUBS     r2,r2,#8
        0x00001720:    b2d1        ..      UXTB     r1,r2
        0x00001722:    0122        ".      LSLS     r2,r4,#4
        0x00001724:    1952        R.      ADDS     r2,r2,r5
        0x00001726:    8892        ..      LDRH     r2,[r2,#4]
        0x00001728:    1d12        ..      ADDS     r2,r2,#4
        0x0000172a:    b2d0        ..      UXTB     r0,r2
        0x0000172c:    9a03        ..      LDR      r2,[sp,#0xc]
        0x0000172e:    f002ffd5    ....    BL       tileMap ; 0x46dc
        0x00001732:    1c64        d.      ADDS     r4,r4,#1
        0x00001734:    4829        )H      LDR      r0,[pc,#164] ; [0x17dc] = 0x48f1
        0x00001736:    7800        .x      LDRB     r0,[r0,#0]
        0x00001738:    4284        .B      CMP      r4,r0
        0x0000173a:    dbd2        ..      BLT      0x16e2 ; enemyAndBulletMapCreate + 30
        0x0000173c:    2400        .$      MOVS     r4,#0
        0x0000173e:    e02f        /.      B        0x17a0 ; enemyAndBulletMapCreate + 220
        0x00001740:    201c        .       MOVS     r0,#0x1c
        0x00001742:    4360        `C      MULS     r0,r4,r0
        0x00001744:    5c30        0\      LDRB     r0,[r6,r0]
        0x00001746:    2800        .(      CMP      r0,#0
        0x00001748:    d029        ).      BEQ      0x179e ; enemyAndBulletMapCreate + 218
        0x0000174a:    221c        ."      MOVS     r2,#0x1c
        0x0000174c:    4362        bC      MULS     r2,r4,r2
        0x0000174e:    1992        ..      ADDS     r2,r2,r6
        0x00001750:    8892        ..      LDRH     r2,[r2,#4]
        0x00001752:    b2d1        ..      UXTB     r1,r2
        0x00001754:    221c        ."      MOVS     r2,#0x1c
        0x00001756:    4362        bC      MULS     r2,r4,r2
        0x00001758:    1992        ..      ADDS     r2,r2,r6
        0x0000175a:    8852        R.      LDRH     r2,[r2,#2]
        0x0000175c:    b2d0        ..      UXTB     r0,r2
        0x0000175e:    9a03        ..      LDR      r2,[sp,#0xc]
        0x00001760:    f002ffbc    ....    BL       tileMap ; 0x46dc
        0x00001764:    221c        ."      MOVS     r2,#0x1c
        0x00001766:    4362        bC      MULS     r2,r4,r2
        0x00001768:    1992        ..      ADDS     r2,r2,r6
        0x0000176a:    8892        ..      LDRH     r2,[r2,#4]
        0x0000176c:    b2d1        ..      UXTB     r1,r2
        0x0000176e:    221c        ."      MOVS     r2,#0x1c
        0x00001770:    4362        bC      MULS     r2,r4,r2
        0x00001772:    1992        ..      ADDS     r2,r2,r6
        0x00001774:    8852        R.      LDRH     r2,[r2,#2]
        0x00001776:    3208        .2      ADDS     r2,r2,#8
        0x00001778:    b2d0        ..      UXTB     r0,r2
        0x0000177a:    9a03        ..      LDR      r2,[sp,#0xc]
        0x0000177c:    f002ffae    ....    BL       tileMap ; 0x46dc
        0x00001780:    221c        ."      MOVS     r2,#0x1c
        0x00001782:    4362        bC      MULS     r2,r4,r2
        0x00001784:    1992        ..      ADDS     r2,r2,r6
        0x00001786:    8892        ..      LDRH     r2,[r2,#4]
        0x00001788:    3a08        .:      SUBS     r2,r2,#8
        0x0000178a:    b2d1        ..      UXTB     r1,r2
        0x0000178c:    221c        ."      MOVS     r2,#0x1c
        0x0000178e:    4362        bC      MULS     r2,r4,r2
        0x00001790:    1992        ..      ADDS     r2,r2,r6
        0x00001792:    8852        R.      LDRH     r2,[r2,#2]
        0x00001794:    1d12        ..      ADDS     r2,r2,#4
        0x00001796:    b2d0        ..      UXTB     r0,r2
        0x00001798:    9a03        ..      LDR      r2,[sp,#0xc]
        0x0000179a:    f002ff9f    ....    BL       tileMap ; 0x46dc
        0x0000179e:    1c64        d.      ADDS     r4,r4,#1
        0x000017a0:    480f        .H      LDR      r0,[pc,#60] ; [0x17e0] = 0x48f2
        0x000017a2:    7800        .x      LDRB     r0,[r0,#0]
        0x000017a4:    4284        .B      CMP      r4,r0
        0x000017a6:    dbcb        ..      BLT      0x1740 ; enemyAndBulletMapCreate + 124
        0x000017a8:    2400        .$      MOVS     r4,#0
        0x000017aa:    e012        ..      B        0x17d2 ; enemyAndBulletMapCreate + 270
        0x000017ac:    200a        .       MOVS     r0,#0xa
        0x000017ae:    4360        `C      MULS     r0,r4,r0
        0x000017b0:    19c0        ..      ADDS     r0,r0,r7
        0x000017b2:    7900        .y      LDRB     r0,[r0,#4]
        0x000017b4:    2800        .(      CMP      r0,#0
        0x000017b6:    d00b        ..      BEQ      0x17d0 ; enemyAndBulletMapCreate + 268
        0x000017b8:    220a        ."      MOVS     r2,#0xa
        0x000017ba:    4362        bC      MULS     r2,r4,r2
        0x000017bc:    19d2        ..      ADDS     r2,r2,r7
        0x000017be:    8852        R.      LDRH     r2,[r2,#2]
        0x000017c0:    b2d1        ..      UXTB     r1,r2
        0x000017c2:    220a        ."      MOVS     r2,#0xa
        0x000017c4:    4362        bC      MULS     r2,r4,r2
        0x000017c6:    5aba        .Z      LDRH     r2,[r7,r2]
        0x000017c8:    b2d0        ..      UXTB     r0,r2
        0x000017ca:    9a03        ..      LDR      r2,[sp,#0xc]
        0x000017cc:    f002ff86    ....    BL       tileMap ; 0x46dc
        0x000017d0:    1c64        d.      ADDS     r4,r4,#1
        0x000017d2:    4804        .H      LDR      r0,[pc,#16] ; [0x17e4] = 0x48f5
        0x000017d4:    7800        .x      LDRB     r0,[r0,#0]
        0x000017d6:    4284        .B      CMP      r4,r0
        0x000017d8:    dbe8        ..      BLT      0x17ac ; enemyAndBulletMapCreate + 232
        0x000017da:    bdff        ..      POP      {r0-r7,pc}
    $d
        0x000017dc:    000048f1    .H..    DCD    18673
        0x000017e0:    000048f2    .H..    DCD    18674
        0x000017e4:    000048f5    .H..    DCD    18677
    $t
    i.enmeyBulletDraw
    enmeyBulletDraw
        0x000017e8:    b5f8        ..      PUSH     {r3-r7,lr}
        0x000017ea:    4605        .F      MOV      r5,r0
        0x000017ec:    460e        .F      MOV      r6,r1
        0x000017ee:    2400        .$      MOVS     r4,#0
        0x000017f0:    e018        ..      B        0x1824 ; enmeyBulletDraw + 60
        0x000017f2:    200a        .       MOVS     r0,#0xa
        0x000017f4:    4360        `C      MULS     r0,r4,r0
        0x000017f6:    1940        @.      ADDS     r0,r0,r5
        0x000017f8:    7900        .y      LDRB     r0,[r0,#4]
        0x000017fa:    2800        .(      CMP      r0,#0
        0x000017fc:    d011        ..      BEQ      0x1822 ; enmeyBulletDraw + 58
        0x000017fe:    2010        .       MOVS     r0,#0x10
        0x00001800:    230a        .#      MOVS     r3,#0xa
        0x00001802:    4363        cC      MULS     r3,r4,r3
        0x00001804:    195b        [.      ADDS     r3,r3,r5
        0x00001806:    9000        ..      STR      r0,[sp,#0]
        0x00001808:    885b        [.      LDRH     r3,[r3,#2]
        0x0000180a:    b2da        ..      UXTB     r2,r3
        0x0000180c:    230a        .#      MOVS     r3,#0xa
        0x0000180e:    4363        cC      MULS     r3,r4,r3
        0x00001810:    5aeb        .Z      LDRH     r3,[r5,r3]
        0x00001812:    b2d9        ..      UXTB     r1,r3
        0x00001814:    7830        0x      LDRB     r0,[r6,#0]
        0x00001816:    2330        0#      MOVS     r3,#0x30
        0x00001818:    f003f858    ..X.    BL       writeOneSprite ; 0x48cc
        0x0000181c:    7830        0x      LDRB     r0,[r6,#0]
        0x0000181e:    1c40        @.      ADDS     r0,r0,#1
        0x00001820:    7030        0p      STRB     r0,[r6,#0]
        0x00001822:    1c64        d.      ADDS     r4,r4,#1
        0x00001824:    4802        .H      LDR      r0,[pc,#8] ; [0x1830] = 0x48f5
        0x00001826:    7800        .x      LDRB     r0,[r0,#0]
        0x00001828:    4284        .B      CMP      r4,r0
        0x0000182a:    dbe2        ..      BLT      0x17f2 ; enmeyBulletDraw + 10
        0x0000182c:    bdf8        ..      POP      {r3-r7,pc}
    $d
        0x0000182e:    0000        ..      DCW    0
        0x00001830:    000048f5    .H..    DCD    18677
    $t
    i.enmey_BulletInit
    enmey_BulletInit
        0x00001834:    4601        .F      MOV      r1,r0
        0x00001836:    2000        .       MOVS     r0,#0
        0x00001838:    e005        ..      B        0x1846 ; enmey_BulletInit + 18
        0x0000183a:    2300        .#      MOVS     r3,#0
        0x0000183c:    220a        ."      MOVS     r2,#0xa
        0x0000183e:    4342        BC      MULS     r2,r0,r2
        0x00001840:    1852        R.      ADDS     r2,r2,r1
        0x00001842:    7113        .q      STRB     r3,[r2,#4]
        0x00001844:    1c40        @.      ADDS     r0,r0,#1
        0x00001846:    4a02        .J      LDR      r2,[pc,#8] ; [0x1850] = 0x48f5
        0x00001848:    7812        .x      LDRB     r2,[r2,#0]
        0x0000184a:    4290        .B      CMP      r0,r2
        0x0000184c:    dbf5        ..      BLT      0x183a ; enmey_BulletInit + 6
        0x0000184e:    4770        pG      BX       lr
    $d
        0x00001850:    000048f5    .H..    DCD    18677
    $t
    i.fputc
    fputc
        0x00001854:    b570        p.      PUSH     {r4-r6,lr}
        0x00001856:    4604        .F      MOV      r4,r0
        0x00001858:    460d        .F      MOV      r5,r1
        0x0000185a:    2c0a        .,      CMP      r4,#0xa
        0x0000185c:    d103        ..      BNE      0x1866 ; fputc + 18
        0x0000185e:    210d        .!      MOVS     r1,#0xd
        0x00001860:    0740        @.      LSLS     r0,r0,#29
        0x00001862:    f002ff4d    ..M.    BL       uart_SendChar ; 0x4700
        0x00001866:    b2e1        ..      UXTB     r1,r4
        0x00001868:    2001        .       MOVS     r0,#1
        0x0000186a:    0780        ..      LSLS     r0,r0,#30
        0x0000186c:    f002ff48    ..H.    BL       uart_SendChar ; 0x4700
        0x00001870:    4620         F      MOV      r0,r4
        0x00001872:    bd70        p.      POP      {r4-r6,pc}
    i.gameCursorDraw
    gameCursorDraw
        0x00001874:    b5f8        ..      PUSH     {r3-r7,lr}
        0x00001876:    4606        .F      MOV      r6,r0
        0x00001878:    2554        T%      MOVS     r5,#0x54
        0x0000187a:    2400        .$      MOVS     r4,#0
        0x0000187c:    7830        0x      LDRB     r0,[r6,#0]
        0x0000187e:    2800        .(      CMP      r0,#0
        0x00001880:    d002        ..      BEQ      0x1888 ; gameCursorDraw + 20
        0x00001882:    2801        .(      CMP      r0,#1
        0x00001884:    d104        ..      BNE      0x1890 ; gameCursorDraw + 28
        0x00001886:    e001        ..      B        0x188c ; gameCursorDraw + 24
        0x00001888:    2480        .$      MOVS     r4,#0x80
        0x0000188a:    e003        ..      B        0x1894 ; gameCursorDraw + 32
        0x0000188c:    2490        .$      MOVS     r4,#0x90
        0x0000188e:    e001        ..      B        0x1894 ; gameCursorDraw + 32
        0x00001890:    2480        .$      MOVS     r4,#0x80
        0x00001892:    bf00        ..      NOP      
        0x00001894:    bf00        ..      NOP      
        0x00001896:    20a0        .       MOVS     r0,#0xa0
        0x00001898:    b2e2        ..      UXTB     r2,r4
        0x0000189a:    b2e9        ..      UXTB     r1,r5
        0x0000189c:    2340        @#      MOVS     r3,#0x40
        0x0000189e:    9000        ..      STR      r0,[sp,#0]
        0x000018a0:    2000        .       MOVS     r0,#0
        0x000018a2:    f003f813    ....    BL       writeOneSprite ; 0x48cc
        0x000018a6:    20a0        .       MOVS     r0,#0xa0
        0x000018a8:    b2e2        ..      UXTB     r2,r4
        0x000018aa:    9000        ..      STR      r0,[sp,#0]
        0x000018ac:    4628        (F      MOV      r0,r5
        0x000018ae:    3008        .0      ADDS     r0,r0,#8
        0x000018b0:    b2c1        ..      UXTB     r1,r0
        0x000018b2:    2341        A#      MOVS     r3,#0x41
        0x000018b4:    2001        .       MOVS     r0,#1
        0x000018b6:    f003f809    ....    BL       writeOneSprite ; 0x48cc
        0x000018ba:    20a0        .       MOVS     r0,#0xa0
        0x000018bc:    9000        ..      STR      r0,[sp,#0]
        0x000018be:    4620         F      MOV      r0,r4
        0x000018c0:    3008        .0      ADDS     r0,r0,#8
        0x000018c2:    b2c2        ..      UXTB     r2,r0
        0x000018c4:    1d28        (.      ADDS     r0,r5,#4
        0x000018c6:    b2c1        ..      UXTB     r1,r0
        0x000018c8:    2342        B#      MOVS     r3,#0x42
        0x000018ca:    2002        .       MOVS     r0,#2
        0x000018cc:    f002fffe    ....    BL       writeOneSprite ; 0x48cc
        0x000018d0:    bdf8        ..      POP      {r3-r7,pc}
    i.gameScoreDraw
    gameScoreDraw
        0x000018d2:    b5f0        ..      PUSH     {r4-r7,lr}
        0x000018d4:    b085        ..      SUB      sp,sp,#0x14
        0x000018d6:    4605        .F      MOV      r5,r0
        0x000018d8:    460e        .F      MOV      r6,r1
        0x000018da:    4617        .F      MOV      r7,r2
        0x000018dc:    461c        .F      MOV      r4,r3
        0x000018de:    210a        .!      MOVS     r1,#0xa
        0x000018e0:    4638        8F      MOV      r0,r7
        0x000018e2:    f7fefc1b    ....    BL       __aeabi_uidiv ; 0x11c
        0x000018e6:    9104        ..      STR      r1,[sp,#0x10]
        0x000018e8:    210a        .!      MOVS     r1,#0xa
        0x000018ea:    4638        8F      MOV      r0,r7
        0x000018ec:    f7fefc16    ....    BL       __aeabi_uidiv ; 0x11c
        0x000018f0:    210a        .!      MOVS     r1,#0xa
        0x000018f2:    9000        ..      STR      r0,[sp,#0]
        0x000018f4:    f7fefc12    ....    BL       __aeabi_uidiv ; 0x11c
        0x000018f8:    9103        ..      STR      r1,[sp,#0xc]
        0x000018fa:    2164        d!      MOVS     r1,#0x64
        0x000018fc:    4638        8F      MOV      r0,r7
        0x000018fe:    f7fefc0d    ....    BL       __aeabi_uidiv ; 0x11c
        0x00001902:    210a        .!      MOVS     r1,#0xa
        0x00001904:    9000        ..      STR      r0,[sp,#0]
        0x00001906:    f7fefc09    ....    BL       __aeabi_uidiv ; 0x11c
        0x0000190a:    9102        ..      STR      r1,[sp,#8]
        0x0000190c:    217d        }!      MOVS     r1,#0x7d
        0x0000190e:    00c9        ..      LSLS     r1,r1,#3
        0x00001910:    4638        8F      MOV      r0,r7
        0x00001912:    f7fefc03    ....    BL       __aeabi_uidiv ; 0x11c
        0x00001916:    210a        .!      MOVS     r1,#0xa
        0x00001918:    9000        ..      STR      r0,[sp,#0]
        0x0000191a:    f7fefbff    ....    BL       __aeabi_uidiv ; 0x11c
        0x0000191e:    9101        ..      STR      r1,[sp,#4]
        0x00001920:    2030        0       MOVS     r0,#0x30
        0x00001922:    9000        ..      STR      r0,[sp,#0]
        0x00001924:    7820         x      LDRB     r0,[r4,#0]
        0x00001926:    4632        2F      MOV      r2,r6
        0x00001928:    4629        )F      MOV      r1,r5
        0x0000192a:    9b01        ..      LDR      r3,[sp,#4]
        0x0000192c:    f002ffce    ....    BL       writeOneSprite ; 0x48cc
        0x00001930:    2030        0       MOVS     r0,#0x30
        0x00001932:    462a        *F      MOV      r2,r5
        0x00001934:    3208        .2      ADDS     r2,r2,#8
        0x00001936:    b2d1        ..      UXTB     r1,r2
        0x00001938:    9000        ..      STR      r0,[sp,#0]
        0x0000193a:    7822        "x      LDRB     r2,[r4,#0]
        0x0000193c:    1c52        R.      ADDS     r2,r2,#1
        0x0000193e:    b2d0        ..      UXTB     r0,r2
        0x00001940:    4632        2F      MOV      r2,r6
        0x00001942:    9b02        ..      LDR      r3,[sp,#8]
        0x00001944:    f002ffc2    ....    BL       writeOneSprite ; 0x48cc
        0x00001948:    2030        0       MOVS     r0,#0x30
        0x0000194a:    462a        *F      MOV      r2,r5
        0x0000194c:    3210        .2      ADDS     r2,r2,#0x10
        0x0000194e:    b2d1        ..      UXTB     r1,r2
        0x00001950:    9000        ..      STR      r0,[sp,#0]
        0x00001952:    7822        "x      LDRB     r2,[r4,#0]
        0x00001954:    1c92        ..      ADDS     r2,r2,#2
        0x00001956:    b2d0        ..      UXTB     r0,r2
        0x00001958:    4632        2F      MOV      r2,r6
        0x0000195a:    9b03        ..      LDR      r3,[sp,#0xc]
        0x0000195c:    f002ffb6    ....    BL       writeOneSprite ; 0x48cc
        0x00001960:    2030        0       MOVS     r0,#0x30
        0x00001962:    462a        *F      MOV      r2,r5
        0x00001964:    3218        .2      ADDS     r2,r2,#0x18
        0x00001966:    b2d1        ..      UXTB     r1,r2
        0x00001968:    9000        ..      STR      r0,[sp,#0]
        0x0000196a:    7822        "x      LDRB     r2,[r4,#0]
        0x0000196c:    1cd2        ..      ADDS     r2,r2,#3
        0x0000196e:    b2d0        ..      UXTB     r0,r2
        0x00001970:    4632        2F      MOV      r2,r6
        0x00001972:    9b04        ..      LDR      r3,[sp,#0x10]
        0x00001974:    f002ffaa    ....    BL       writeOneSprite ; 0x48cc
        0x00001978:    7820         x      LDRB     r0,[r4,#0]
        0x0000197a:    1d00        ..      ADDS     r0,r0,#4
        0x0000197c:    7020         p      STRB     r0,[r4,#0]
        0x0000197e:    b005        ..      ADD      sp,sp,#0x14
        0x00001980:    bdf0        ..      POP      {r4-r7,pc}
        0x00001982:    0000        ..      MOVS     r0,r0
    i.gameStartInterfaceShow
    gameStartInterfaceShow
        0x00001984:    b5f3        ..      PUSH     {r0,r1,r4-r7,lr}
        0x00001986:    b087        ..      SUB      sp,sp,#0x1c
        0x00001988:    9f07        ..      LDR      r7,[sp,#0x1c]
        0x0000198a:    9808        ..      LDR      r0,[sp,#0x20]
        0x0000198c:    9006        ..      STR      r0,[sp,#0x18]
        0x0000198e:    2500        .%      MOVS     r5,#0
        0x00001990:    e020         .      B        0x19d4 ; gameStartInterfaceShow + 80
        0x00001992:    2600        .&      MOVS     r6,#0
        0x00001994:    e01a        ..      B        0x19cc ; gameStartInterfaceShow + 72
        0x00001996:    42bd        .B      CMP      r5,r7
        0x00001998:    db16        ..      BLT      0x19c8 ; gameStartInterfaceShow + 68
        0x0000199a:    4638        8F      MOV      r0,r7
        0x0000199c:    3012        .0      ADDS     r0,r0,#0x12
        0x0000199e:    4285        .B      CMP      r5,r0
        0x000019a0:    da12        ..      BGE      0x19c8 ; gameStartInterfaceShow + 68
        0x000019a2:    9806        ..      LDR      r0,[sp,#0x18]
        0x000019a4:    4286        .B      CMP      r6,r0
        0x000019a6:    db0f        ..      BLT      0x19c8 ; gameStartInterfaceShow + 68
        0x000019a8:    9806        ..      LDR      r0,[sp,#0x18]
        0x000019aa:    1d40        @.      ADDS     r0,r0,#5
        0x000019ac:    4286        .B      CMP      r6,r0
        0x000019ae:    da0b        ..      BGE      0x19c8 ; gameStartInterfaceShow + 68
        0x000019b0:    9806        ..      LDR      r0,[sp,#0x18]
        0x000019b2:    1a30        0.      SUBS     r0,r6,r0
        0x000019b4:    2112        .!      MOVS     r1,#0x12
        0x000019b6:    4348        HC      MULS     r0,r1,r0
        0x000019b8:    4947        GI      LDR      r1,[pc,#284] ; [0x1ad8] = 0x20001b40
        0x000019ba:    1840        @.      ADDS     r0,r0,r1
        0x000019bc:    1be9        ..      SUBS     r1,r5,r7
        0x000019be:    5c42        B\      LDRB     r2,[r0,r1]
        0x000019c0:    4631        1F      MOV      r1,r6
        0x000019c2:    4628        (F      MOV      r0,r5
        0x000019c4:    f002ff7a    ..z.    BL       writeOneNametable ; 0x48bc
        0x000019c8:    1c70        p.      ADDS     r0,r6,#1
        0x000019ca:    b2c6        ..      UXTB     r6,r0
        0x000019cc:    2e1e        ..      CMP      r6,#0x1e
        0x000019ce:    dbe2        ..      BLT      0x1996 ; gameStartInterfaceShow + 18
        0x000019d0:    1c68        h.      ADDS     r0,r5,#1
        0x000019d2:    b2c5        ..      UXTB     r5,r0
        0x000019d4:    2d20         -      CMP      r5,#0x20
        0x000019d6:    dbdc        ..      BLT      0x1992 ; gameStartInterfaceShow + 14
        0x000019d8:    1db8        ..      ADDS     r0,r7,#6
        0x000019da:    b2c4        ..      UXTB     r4,r0
        0x000019dc:    9806        ..      LDR      r0,[sp,#0x18]
        0x000019de:    3008        .0      ADDS     r0,r0,#8
        0x000019e0:    b2c0        ..      UXTB     r0,r0
        0x000019e2:    9005        ..      STR      r0,[sp,#0x14]
        0x000019e4:    2500        .%      MOVS     r5,#0
        0x000019e6:    e017        ..      B        0x1a18 ; gameStartInterfaceShow + 148
        0x000019e8:    2600        .&      MOVS     r6,#0
        0x000019ea:    e011        ..      B        0x1a10 ; gameStartInterfaceShow + 140
        0x000019ec:    42a5        .B      CMP      r5,r4
        0x000019ee:    db0d        ..      BLT      0x1a0c ; gameStartInterfaceShow + 136
        0x000019f0:    4620         F      MOV      r0,r4
        0x000019f2:    3008        .0      ADDS     r0,r0,#8
        0x000019f4:    4285        .B      CMP      r5,r0
        0x000019f6:    da09        ..      BGE      0x1a0c ; gameStartInterfaceShow + 136
        0x000019f8:    9805        ..      LDR      r0,[sp,#0x14]
        0x000019fa:    4286        .B      CMP      r6,r0
        0x000019fc:    d106        ..      BNE      0x1a0c ; gameStartInterfaceShow + 136
        0x000019fe:    1b28        (.      SUBS     r0,r5,r4
        0x00001a00:    4936        6I      LDR      r1,[pc,#216] ; [0x1adc] = 0x20001ba6
        0x00001a02:    5c0a        .\      LDRB     r2,[r1,r0]
        0x00001a04:    4631        1F      MOV      r1,r6
        0x00001a06:    4628        (F      MOV      r0,r5
        0x00001a08:    f002ff58    ..X.    BL       writeOneNametable ; 0x48bc
        0x00001a0c:    1c70        p.      ADDS     r0,r6,#1
        0x00001a0e:    b2c6        ..      UXTB     r6,r0
        0x00001a10:    2e1e        ..      CMP      r6,#0x1e
        0x00001a12:    dbeb        ..      BLT      0x19ec ; gameStartInterfaceShow + 104
        0x00001a14:    1c68        h.      ADDS     r0,r5,#1
        0x00001a16:    b2c5        ..      UXTB     r5,r0
        0x00001a18:    2d20         -      CMP      r5,#0x20
        0x00001a1a:    dbe5        ..      BLT      0x19e8 ; gameStartInterfaceShow + 100
        0x00001a1c:    9404        ..      STR      r4,[sp,#0x10]
        0x00001a1e:    9805        ..      LDR      r0,[sp,#0x14]
        0x00001a20:    1c80        ..      ADDS     r0,r0,#2
        0x00001a22:    b2c0        ..      UXTB     r0,r0
        0x00001a24:    9003        ..      STR      r0,[sp,#0xc]
        0x00001a26:    2500        .%      MOVS     r5,#0
        0x00001a28:    e019        ..      B        0x1a5e ; gameStartInterfaceShow + 218
        0x00001a2a:    2600        .&      MOVS     r6,#0
        0x00001a2c:    e013        ..      B        0x1a56 ; gameStartInterfaceShow + 210
        0x00001a2e:    9804        ..      LDR      r0,[sp,#0x10]
        0x00001a30:    4285        .B      CMP      r5,r0
        0x00001a32:    db0e        ..      BLT      0x1a52 ; gameStartInterfaceShow + 206
        0x00001a34:    9804        ..      LDR      r0,[sp,#0x10]
        0x00001a36:    3008        .0      ADDS     r0,r0,#8
        0x00001a38:    4285        .B      CMP      r5,r0
        0x00001a3a:    da0a        ..      BGE      0x1a52 ; gameStartInterfaceShow + 206
        0x00001a3c:    9803        ..      LDR      r0,[sp,#0xc]
        0x00001a3e:    4286        .B      CMP      r6,r0
        0x00001a40:    d107        ..      BNE      0x1a52 ; gameStartInterfaceShow + 206
        0x00001a42:    9804        ..      LDR      r0,[sp,#0x10]
        0x00001a44:    1a28        (.      SUBS     r0,r5,r0
        0x00001a46:    4926        &I      LDR      r1,[pc,#152] ; [0x1ae0] = 0x20001bae
        0x00001a48:    5c0a        .\      LDRB     r2,[r1,r0]
        0x00001a4a:    4631        1F      MOV      r1,r6
        0x00001a4c:    4628        (F      MOV      r0,r5
        0x00001a4e:    f002ff35    ..5.    BL       writeOneNametable ; 0x48bc
        0x00001a52:    1c70        p.      ADDS     r0,r6,#1
        0x00001a54:    b2c6        ..      UXTB     r6,r0
        0x00001a56:    2e1e        ..      CMP      r6,#0x1e
        0x00001a58:    dbe9        ..      BLT      0x1a2e ; gameStartInterfaceShow + 170
        0x00001a5a:    1c68        h.      ADDS     r0,r5,#1
        0x00001a5c:    b2c5        ..      UXTB     r5,r0
        0x00001a5e:    2d20         -      CMP      r5,#0x20
        0x00001a60:    dbe3        ..      BLT      0x1a2a ; gameStartInterfaceShow + 166
        0x00001a62:    1f20         .      SUBS     r0,r4,#4
        0x00001a64:    b2c0        ..      UXTB     r0,r0
        0x00001a66:    9002        ..      STR      r0,[sp,#8]
        0x00001a68:    9805        ..      LDR      r0,[sp,#0x14]
        0x00001a6a:    3008        .0      ADDS     r0,r0,#8
        0x00001a6c:    b2c0        ..      UXTB     r0,r0
        0x00001a6e:    9001        ..      STR      r0,[sp,#4]
        0x00001a70:    2500        .%      MOVS     r5,#0
        0x00001a72:    e019        ..      B        0x1aa8 ; gameStartInterfaceShow + 292
        0x00001a74:    2600        .&      MOVS     r6,#0
        0x00001a76:    e013        ..      B        0x1aa0 ; gameStartInterfaceShow + 284
        0x00001a78:    9802        ..      LDR      r0,[sp,#8]
        0x00001a7a:    4285        .B      CMP      r5,r0
        0x00001a7c:    db0e        ..      BLT      0x1a9c ; gameStartInterfaceShow + 280
        0x00001a7e:    9802        ..      LDR      r0,[sp,#8]
        0x00001a80:    300c        .0      ADDS     r0,r0,#0xc
        0x00001a82:    4285        .B      CMP      r5,r0
        0x00001a84:    da0a        ..      BGE      0x1a9c ; gameStartInterfaceShow + 280
        0x00001a86:    9801        ..      LDR      r0,[sp,#4]
        0x00001a88:    4286        .B      CMP      r6,r0
        0x00001a8a:    d107        ..      BNE      0x1a9c ; gameStartInterfaceShow + 280
        0x00001a8c:    9802        ..      LDR      r0,[sp,#8]
        0x00001a8e:    1a28        (.      SUBS     r0,r5,r0
        0x00001a90:    4914        .I      LDR      r1,[pc,#80] ; [0x1ae4] = 0x20001b9a
        0x00001a92:    5c0a        .\      LDRB     r2,[r1,r0]
        0x00001a94:    4631        1F      MOV      r1,r6
        0x00001a96:    4628        (F      MOV      r0,r5
        0x00001a98:    f002ff10    ....    BL       writeOneNametable ; 0x48bc
        0x00001a9c:    1c70        p.      ADDS     r0,r6,#1
        0x00001a9e:    b2c6        ..      UXTB     r6,r0
        0x00001aa0:    2e1e        ..      CMP      r6,#0x1e
        0x00001aa2:    dbe9        ..      BLT      0x1a78 ; gameStartInterfaceShow + 244
        0x00001aa4:    1c68        h.      ADDS     r0,r5,#1
        0x00001aa6:    b2c5        ..      UXTB     r5,r0
        0x00001aa8:    2d20         -      CMP      r5,#0x20
        0x00001aaa:    dbe3        ..      BLT      0x1a74 ; gameStartInterfaceShow + 240
        0x00001aac:    2500        .%      MOVS     r5,#0
        0x00001aae:    e00e        ..      B        0x1ace ; gameStartInterfaceShow + 330
        0x00001ab0:    2600        .&      MOVS     r6,#0
        0x00001ab2:    e009        ..      B        0x1ac8 ; gameStartInterfaceShow + 324
        0x00001ab4:    0168        h.      LSLS     r0,r5,#5
        0x00001ab6:    1980        ..      ADDS     r0,r0,r6
        0x00001ab8:    4b0b        .K      LDR      r3,[pc,#44] ; [0x1ae8] = 0x20000ad6
        0x00001aba:    5c1a        .\      LDRB     r2,[r3,r0]
        0x00001abc:    b2a9        ..      UXTH     r1,r5
        0x00001abe:    b2b0        ..      UXTH     r0,r6
        0x00001ac0:    9000        ..      STR      r0,[sp,#0]
        0x00001ac2:    f002fefb    ....    BL       writeOneNametable ; 0x48bc
        0x00001ac6:    1c76        v.      ADDS     r6,r6,#1
        0x00001ac8:    2e20         .      CMP      r6,#0x20
        0x00001aca:    dbf3        ..      BLT      0x1ab4 ; gameStartInterfaceShow + 304
        0x00001acc:    1c6d        m.      ADDS     r5,r5,#1
        0x00001ace:    2d20         -      CMP      r5,#0x20
        0x00001ad0:    dbee        ..      BLT      0x1ab0 ; gameStartInterfaceShow + 300
        0x00001ad2:    b009        ..      ADD      sp,sp,#0x24
        0x00001ad4:    bdf0        ..      POP      {r4-r7,pc}
    $d
        0x00001ad6:    0000        ..      DCW    0
        0x00001ad8:    20001b40    @..     DCD    536877888
        0x00001adc:    20001ba6    ...     DCD    536877990
        0x00001ae0:    20001bae    ...     DCD    536877998
        0x00001ae4:    20001b9a    ...     DCD    536877978
        0x00001ae8:    20000ad6    ...     DCD    536873686
    $t
    i.isHit_s_grey_EnemyPlane
    isHit_s_grey_EnemyPlane
        0x00001aec:    b5ff        ..      PUSH     {r0-r7,lr}
        0x00001aee:    b083        ..      SUB      sp,sp,#0xc
        0x00001af0:    4605        .F      MOV      r5,r0
        0x00001af2:    460e        .F      MOV      r6,r1
        0x00001af4:    4617        .F      MOV      r7,r2
        0x00001af6:    2400        .$      MOVS     r4,#0
        0x00001af8:    e04c        L.      B        0x1b94 ; isHit_s_grey_EnemyPlane + 168
        0x00001afa:    0120         .      LSLS     r0,r4,#4
        0x00001afc:    5c28        (\      LDRB     r0,[r5,r0]
        0x00001afe:    2800        .(      CMP      r0,#0
        0x00001b00:    d047        G.      BEQ      0x1b92 ; isHit_s_grey_EnemyPlane + 166
        0x00001b02:    0120         .      LSLS     r0,r4,#4
        0x00001b04:    1940        @.      ADDS     r0,r0,r5
        0x00001b06:    8880        ..      LDRH     r0,[r0,#4]
        0x00001b08:    0540        @.      LSLS     r0,r0,#21
        0x00001b0a:    0e00        ..      LSRS     r0,r0,#24
        0x00001b0c:    9002        ..      STR      r0,[sp,#8]
        0x00001b0e:    0120         .      LSLS     r0,r4,#4
        0x00001b10:    1940        @.      ADDS     r0,r0,r5
        0x00001b12:    88c0        ..      LDRH     r0,[r0,#6]
        0x00001b14:    0540        @.      LSLS     r0,r0,#21
        0x00001b16:    0e00        ..      LSRS     r0,r0,#24
        0x00001b18:    9001        ..      STR      r0,[sp,#4]
        0x00001b1a:    9801        ..      LDR      r0,[sp,#4]
        0x00001b1c:    0080        ..      LSLS     r0,r0,#2
        0x00001b1e:    5839        9X      LDR      r1,[r7,r0]
        0x00001b20:    2201        ."      MOVS     r2,#1
        0x00001b22:    9802        ..      LDR      r0,[sp,#8]
        0x00001b24:    4082        .@      LSLS     r2,r2,r0
        0x00001b26:    4608        .F      MOV      r0,r1
        0x00001b28:    4010        .@      ANDS     r0,r0,r2
        0x00001b2a:    9901        ..      LDR      r1,[sp,#4]
        0x00001b2c:    0089        ..      LSLS     r1,r1,#2
        0x00001b2e:    587a        zX      LDR      r2,[r7,r1]
        0x00001b30:    9902        ..      LDR      r1,[sp,#8]
        0x00001b32:    1c49        I.      ADDS     r1,r1,#1
        0x00001b34:    2301        .#      MOVS     r3,#1
        0x00001b36:    408b        .@      LSLS     r3,r3,r1
        0x00001b38:    401a        .@      ANDS     r2,r2,r3
        0x00001b3a:    4310        .C      ORRS     r0,r0,r2
        0x00001b3c:    9901        ..      LDR      r1,[sp,#4]
        0x00001b3e:    1e49        I.      SUBS     r1,r1,#1
        0x00001b40:    0089        ..      LSLS     r1,r1,#2
        0x00001b42:    587a        zX      LDR      r2,[r7,r1]
        0x00001b44:    9902        ..      LDR      r1,[sp,#8]
        0x00001b46:    1c49        I.      ADDS     r1,r1,#1
        0x00001b48:    2301        .#      MOVS     r3,#1
        0x00001b4a:    408b        .@      LSLS     r3,r3,r1
        0x00001b4c:    401a        .@      ANDS     r2,r2,r3
        0x00001b4e:    4310        .C      ORRS     r0,r0,r2
        0x00001b50:    9000        ..      STR      r0,[sp,#0]
        0x00001b52:    9800        ..      LDR      r0,[sp,#0]
        0x00001b54:    2800        .(      CMP      r0,#0
        0x00001b56:    d01b        ..      BEQ      0x1b90 ; isHit_s_grey_EnemyPlane + 164
        0x00001b58:    0120         .      LSLS     r0,r4,#4
        0x00001b5a:    1940        @.      ADDS     r0,r0,r5
        0x00001b5c:    2106        .!      MOVS     r1,#6
        0x00001b5e:    5e41        A^      LDRSH    r1,[r0,r1]
        0x00001b60:    0120         .      LSLS     r0,r4,#4
        0x00001b62:    1940        @.      ADDS     r0,r0,r5
        0x00001b64:    2304        .#      MOVS     r3,#4
        0x00001b66:    5ec3        .^      LDRSH    r3,[r0,r3]
        0x00001b68:    4618        .F      MOV      r0,r3
        0x00001b6a:    9a06        ..      LDR      r2,[sp,#0x18]
        0x00001b6c:    f001fc76    ..v.    BL       new_createOneBoom ; 0x345c
        0x00001b70:    2000        .       MOVS     r0,#0
        0x00001b72:    0121        !.      LSLS     r1,r4,#4
        0x00001b74:    5468        hT      STRB     r0,[r5,r1]
        0x00001b76:    20fd        .       MOVS     r0,#0xfd
        0x00001b78:    0121        !.      LSLS     r1,r4,#4
        0x00001b7a:    1949        I.      ADDS     r1,r1,r5
        0x00001b7c:    8088        ..      STRH     r0,[r1,#4]
        0x00001b7e:    20ef        .       MOVS     r0,#0xef
        0x00001b80:    0121        !.      LSLS     r1,r4,#4
        0x00001b82:    1949        I.      ADDS     r1,r1,r5
        0x00001b84:    80c8        ..      STRH     r0,[r1,#6]
        0x00001b86:    4834        4H      LDR      r0,[pc,#208] ; [0x1c58] = 0x20001adc
        0x00001b88:    6800        .h      LDR      r0,[r0,#0]
        0x00001b8a:    300a        .0      ADDS     r0,r0,#0xa
        0x00001b8c:    4932        2I      LDR      r1,[pc,#200] ; [0x1c58] = 0x20001adc
        0x00001b8e:    6008        .`      STR      r0,[r1,#0]
        0x00001b90:    bf00        ..      NOP      
        0x00001b92:    1c64        d.      ADDS     r4,r4,#1
        0x00001b94:    4831        1H      LDR      r0,[pc,#196] ; [0x1c5c] = 0x48f1
        0x00001b96:    7800        .x      LDRB     r0,[r0,#0]
        0x00001b98:    4284        .B      CMP      r4,r0
        0x00001b9a:    dbae        ..      BLT      0x1afa ; isHit_s_grey_EnemyPlane + 14
        0x00001b9c:    2400        .$      MOVS     r4,#0
        0x00001b9e:    e054        T.      B        0x1c4a ; isHit_s_grey_EnemyPlane + 350
        0x00001ba0:    201c        .       MOVS     r0,#0x1c
        0x00001ba2:    4360        `C      MULS     r0,r4,r0
        0x00001ba4:    5c30        0\      LDRB     r0,[r6,r0]
        0x00001ba6:    2800        .(      CMP      r0,#0
        0x00001ba8:    d04e        N.      BEQ      0x1c48 ; isHit_s_grey_EnemyPlane + 348
        0x00001baa:    201c        .       MOVS     r0,#0x1c
        0x00001bac:    4360        `C      MULS     r0,r4,r0
        0x00001bae:    1980        ..      ADDS     r0,r0,r6
        0x00001bb0:    8840        @.      LDRH     r0,[r0,#2]
        0x00001bb2:    0540        @.      LSLS     r0,r0,#21
        0x00001bb4:    0e00        ..      LSRS     r0,r0,#24
        0x00001bb6:    9002        ..      STR      r0,[sp,#8]
        0x00001bb8:    201c        .       MOVS     r0,#0x1c
        0x00001bba:    4360        `C      MULS     r0,r4,r0
        0x00001bbc:    1980        ..      ADDS     r0,r0,r6
        0x00001bbe:    8880        ..      LDRH     r0,[r0,#4]
        0x00001bc0:    0540        @.      LSLS     r0,r0,#21
        0x00001bc2:    0e00        ..      LSRS     r0,r0,#24
        0x00001bc4:    9001        ..      STR      r0,[sp,#4]
        0x00001bc6:    9801        ..      LDR      r0,[sp,#4]
        0x00001bc8:    0080        ..      LSLS     r0,r0,#2
        0x00001bca:    5839        9X      LDR      r1,[r7,r0]
        0x00001bcc:    2201        ."      MOVS     r2,#1
        0x00001bce:    9802        ..      LDR      r0,[sp,#8]
        0x00001bd0:    4082        .@      LSLS     r2,r2,r0
        0x00001bd2:    4608        .F      MOV      r0,r1
        0x00001bd4:    4010        .@      ANDS     r0,r0,r2
        0x00001bd6:    9901        ..      LDR      r1,[sp,#4]
        0x00001bd8:    0089        ..      LSLS     r1,r1,#2
        0x00001bda:    587a        zX      LDR      r2,[r7,r1]
        0x00001bdc:    9902        ..      LDR      r1,[sp,#8]
        0x00001bde:    1c49        I.      ADDS     r1,r1,#1
        0x00001be0:    2301        .#      MOVS     r3,#1
        0x00001be2:    408b        .@      LSLS     r3,r3,r1
        0x00001be4:    401a        .@      ANDS     r2,r2,r3
        0x00001be6:    4310        .C      ORRS     r0,r0,r2
        0x00001be8:    9901        ..      LDR      r1,[sp,#4]
        0x00001bea:    1e49        I.      SUBS     r1,r1,#1
        0x00001bec:    0089        ..      LSLS     r1,r1,#2
        0x00001bee:    587a        zX      LDR      r2,[r7,r1]
        0x00001bf0:    9902        ..      LDR      r1,[sp,#8]
        0x00001bf2:    1c49        I.      ADDS     r1,r1,#1
        0x00001bf4:    2301        .#      MOVS     r3,#1
        0x00001bf6:    408b        .@      LSLS     r3,r3,r1
        0x00001bf8:    401a        .@      ANDS     r2,r2,r3
        0x00001bfa:    4310        .C      ORRS     r0,r0,r2
        0x00001bfc:    9000        ..      STR      r0,[sp,#0]
        0x00001bfe:    9800        ..      LDR      r0,[sp,#0]
        0x00001c00:    2800        .(      CMP      r0,#0
        0x00001c02:    d020         .      BEQ      0x1c46 ; isHit_s_grey_EnemyPlane + 346
        0x00001c04:    201c        .       MOVS     r0,#0x1c
        0x00001c06:    4360        `C      MULS     r0,r4,r0
        0x00001c08:    1980        ..      ADDS     r0,r0,r6
        0x00001c0a:    2104        .!      MOVS     r1,#4
        0x00001c0c:    5e41        A^      LDRSH    r1,[r0,r1]
        0x00001c0e:    201c        .       MOVS     r0,#0x1c
        0x00001c10:    4360        `C      MULS     r0,r4,r0
        0x00001c12:    1980        ..      ADDS     r0,r0,r6
        0x00001c14:    2302        .#      MOVS     r3,#2
        0x00001c16:    5ec3        .^      LDRSH    r3,[r0,r3]
        0x00001c18:    4618        .F      MOV      r0,r3
        0x00001c1a:    9a06        ..      LDR      r2,[sp,#0x18]
        0x00001c1c:    f001fc1e    ....    BL       new_createOneBoom ; 0x345c
        0x00001c20:    2100        .!      MOVS     r1,#0
        0x00001c22:    201c        .       MOVS     r0,#0x1c
        0x00001c24:    4360        `C      MULS     r0,r4,r0
        0x00001c26:    5431        1T      STRB     r1,[r6,r0]
        0x00001c28:    21fd        .!      MOVS     r1,#0xfd
        0x00001c2a:    201c        .       MOVS     r0,#0x1c
        0x00001c2c:    4360        `C      MULS     r0,r4,r0
        0x00001c2e:    1980        ..      ADDS     r0,r0,r6
        0x00001c30:    8041        A.      STRH     r1,[r0,#2]
        0x00001c32:    21ef        .!      MOVS     r1,#0xef
        0x00001c34:    201c        .       MOVS     r0,#0x1c
        0x00001c36:    4360        `C      MULS     r0,r4,r0
        0x00001c38:    1980        ..      ADDS     r0,r0,r6
        0x00001c3a:    8081        ..      STRH     r1,[r0,#4]
        0x00001c3c:    4806        .H      LDR      r0,[pc,#24] ; [0x1c58] = 0x20001adc
        0x00001c3e:    6800        .h      LDR      r0,[r0,#0]
        0x00001c40:    300a        .0      ADDS     r0,r0,#0xa
        0x00001c42:    4905        .I      LDR      r1,[pc,#20] ; [0x1c58] = 0x20001adc
        0x00001c44:    6008        .`      STR      r0,[r1,#0]
        0x00001c46:    bf00        ..      NOP      
        0x00001c48:    1c64        d.      ADDS     r4,r4,#1
        0x00001c4a:    4805        .H      LDR      r0,[pc,#20] ; [0x1c60] = 0x48f2
        0x00001c4c:    7800        .x      LDRB     r0,[r0,#0]
        0x00001c4e:    4284        .B      CMP      r4,r0
        0x00001c50:    dba6        ..      BLT      0x1ba0 ; isHit_s_grey_EnemyPlane + 180
        0x00001c52:    b007        ..      ADD      sp,sp,#0x1c
        0x00001c54:    bdf0        ..      POP      {r4-r7,pc}
    $d
        0x00001c56:    0000        ..      DCW    0
        0x00001c58:    20001adc    ...     DCD    536877788
        0x00001c5c:    000048f1    .H..    DCD    18673
        0x00001c60:    000048f2    .H..    DCD    18674
    $t
    i.m_straight_createOnePlane
    m_straight_createOnePlane
        0x00001c64:    b5f8        ..      PUSH     {r3-r7,lr}
        0x00001c66:    4605        .F      MOV      r5,r0
        0x00001c68:    460f        .F      MOV      r7,r1
        0x00001c6a:    2400        .$      MOVS     r4,#0
        0x00001c6c:    e03c        <.      B        0x1ce8 ; m_straight_createOnePlane + 132
        0x00001c6e:    200c        .       MOVS     r0,#0xc
        0x00001c70:    4360        `C      MULS     r0,r4,r0
        0x00001c72:    5c28        (\      LDRB     r0,[r5,r0]
        0x00001c74:    2800        .(      CMP      r0,#0
        0x00001c76:    d136        6.      BNE      0x1ce6 ; m_straight_createOnePlane + 130
        0x00001c78:    2101        .!      MOVS     r1,#1
        0x00001c7a:    200c        .       MOVS     r0,#0xc
        0x00001c7c:    4360        `C      MULS     r0,r4,r0
        0x00001c7e:    5429        )T      STRB     r1,[r5,r0]
        0x00001c80:    2105        .!      MOVS     r1,#5
        0x00001c82:    200c        .       MOVS     r0,#0xc
        0x00001c84:    4360        `C      MULS     r0,r4,r0
        0x00001c86:    1940        @.      ADDS     r0,r0,r5
        0x00001c88:    7041        Ap      STRB     r1,[r0,#1]
        0x00001c8a:    2100        .!      MOVS     r1,#0
        0x00001c8c:    200c        .       MOVS     r0,#0xc
        0x00001c8e:    4360        `C      MULS     r0,r4,r0
        0x00001c90:    1940        @.      ADDS     r0,r0,r5
        0x00001c92:    7081        .p      STRB     r1,[r0,#2]
        0x00001c94:    200c        .       MOVS     r0,#0xc
        0x00001c96:    4360        `C      MULS     r0,r4,r0
        0x00001c98:    1940        @.      ADDS     r0,r0,r5
        0x00001c9a:    8087        ..      STRH     r7,[r0,#4]
        0x00001c9c:    21e1        .!      MOVS     r1,#0xe1
        0x00001c9e:    200c        .       MOVS     r0,#0xc
        0x00001ca0:    4360        `C      MULS     r0,r4,r0
        0x00001ca2:    1940        @.      ADDS     r0,r0,r5
        0x00001ca4:    80c1        ..      STRH     r1,[r0,#6]
        0x00001ca6:    2101        .!      MOVS     r1,#1
        0x00001ca8:    200c        .       MOVS     r0,#0xc
        0x00001caa:    4360        `C      MULS     r0,r4,r0
        0x00001cac:    1940        @.      ADDS     r0,r0,r5
        0x00001cae:    7201        .r      STRB     r1,[r0,#8]
        0x00001cb0:    f7fefa5e    ..^.    BL       rand ; 0x170
        0x00001cb4:    4606        .F      MOV      r6,r0
        0x00001cb6:    0fc0        ..      LSRS     r0,r0,#31
        0x00001cb8:    1980        ..      ADDS     r0,r0,r6
        0x00001cba:    1040        @.      ASRS     r0,r0,#1
        0x00001cbc:    0040        @.      LSLS     r0,r0,#1
        0x00001cbe:    1a30        0.      SUBS     r0,r6,r0
        0x00001cc0:    b2c1        ..      UXTB     r1,r0
        0x00001cc2:    200c        .       MOVS     r0,#0xc
        0x00001cc4:    4360        `C      MULS     r0,r4,r0
        0x00001cc6:    1940        @.      ADDS     r0,r0,r5
        0x00001cc8:    7241        Ar      STRB     r1,[r0,#9]
        0x00001cca:    f7fefa51    ..Q.    BL       rand ; 0x170
        0x00001cce:    4606        .F      MOV      r6,r0
        0x00001cd0:    0fc0        ..      LSRS     r0,r0,#31
        0x00001cd2:    1980        ..      ADDS     r0,r0,r6
        0x00001cd4:    1040        @.      ASRS     r0,r0,#1
        0x00001cd6:    0040        @.      LSLS     r0,r0,#1
        0x00001cd8:    1a30        0.      SUBS     r0,r6,r0
        0x00001cda:    b2c1        ..      UXTB     r1,r0
        0x00001cdc:    200c        .       MOVS     r0,#0xc
        0x00001cde:    4360        `C      MULS     r0,r4,r0
        0x00001ce0:    1940        @.      ADDS     r0,r0,r5
        0x00001ce2:    7281        .r      STRB     r1,[r0,#0xa]
        0x00001ce4:    e004        ..      B        0x1cf0 ; m_straight_createOnePlane + 140
        0x00001ce6:    1c64        d.      ADDS     r4,r4,#1
        0x00001ce8:    4802        .H      LDR      r0,[pc,#8] ; [0x1cf4] = 0x48f3
        0x00001cea:    7800        .x      LDRB     r0,[r0,#0]
        0x00001cec:    4284        .B      CMP      r4,r0
        0x00001cee:    dbbe        ..      BLT      0x1c6e ; m_straight_createOnePlane + 10
        0x00001cf0:    bf00        ..      NOP      
        0x00001cf2:    bdf8        ..      POP      {r3-r7,pc}
    $d
        0x00001cf4:    000048f3    .H..    DCD    18675
    $t
    i.m_straight_drawPlane
    m_straight_drawPlane
        0x00001cf8:    b5f8        ..      PUSH     {r3-r7,lr}
        0x00001cfa:    4605        .F      MOV      r5,r0
        0x00001cfc:    460f        .F      MOV      r7,r1
        0x00001cfe:    2400        .$      MOVS     r4,#0
        0x00001d00:    e113        ..      B        0x1f2a ; m_straight_drawPlane + 562
        0x00001d02:    200c        .       MOVS     r0,#0xc
        0x00001d04:    4360        `C      MULS     r0,r4,r0
        0x00001d06:    5c28        (\      LDRB     r0,[r5,r0]
        0x00001d08:    2800        .(      CMP      r0,#0
        0x00001d0a:    d07d        }.      BEQ      0x1e08 ; m_straight_drawPlane + 272
        0x00001d0c:    200c        .       MOVS     r0,#0xc
        0x00001d0e:    4360        `C      MULS     r0,r4,r0
        0x00001d10:    1940        @.      ADDS     r0,r0,r5
        0x00001d12:    7a80        .z      LDRB     r0,[r0,#0xa]
        0x00001d14:    2800        .(      CMP      r0,#0
        0x00001d16:    d101        ..      BNE      0x1d1c ; m_straight_drawPlane + 36
        0x00001d18:    2600        .&      MOVS     r6,#0
        0x00001d1a:    e000        ..      B        0x1d1e ; m_straight_drawPlane + 38
        0x00001d1c:    2620         &      MOVS     r6,#0x20
        0x00001d1e:    200c        .       MOVS     r0,#0xc
        0x00001d20:    4360        `C      MULS     r0,r4,r0
        0x00001d22:    1940        @.      ADDS     r0,r0,r5
        0x00001d24:    7a40        @z      LDRB     r0,[r0,#9]
        0x00001d26:    2800        .(      CMP      r0,#0
        0x00001d28:    d002        ..      BEQ      0x1d30 ; m_straight_drawPlane + 56
        0x00001d2a:    2801        .(      CMP      r0,#1
        0x00001d2c:    d16d        m.      BNE      0x1e0a ; m_straight_drawPlane + 274
        0x00001d2e:    e09a        ..      B        0x1e66 ; m_straight_drawPlane + 366
        0x00001d30:    230c        .#      MOVS     r3,#0xc
        0x00001d32:    4363        cC      MULS     r3,r4,r3
        0x00001d34:    195b        [.      ADDS     r3,r3,r5
        0x00001d36:    9600        ..      STR      r6,[sp,#0]
        0x00001d38:    88db        ..      LDRH     r3,[r3,#6]
        0x00001d3a:    b2da        ..      UXTB     r2,r3
        0x00001d3c:    230c        .#      MOVS     r3,#0xc
        0x00001d3e:    4363        cC      MULS     r3,r4,r3
        0x00001d40:    195b        [.      ADDS     r3,r3,r5
        0x00001d42:    889b        ..      LDRH     r3,[r3,#4]
        0x00001d44:    b2d9        ..      UXTB     r1,r3
        0x00001d46:    7838        8x      LDRB     r0,[r7,#0]
        0x00001d48:    2390        .#      MOVS     r3,#0x90
        0x00001d4a:    f002fdbf    ....    BL       writeOneSprite ; 0x48cc
        0x00001d4e:    230c        .#      MOVS     r3,#0xc
        0x00001d50:    4363        cC      MULS     r3,r4,r3
        0x00001d52:    195b        [.      ADDS     r3,r3,r5
        0x00001d54:    9600        ..      STR      r6,[sp,#0]
        0x00001d56:    88db        ..      LDRH     r3,[r3,#6]
        0x00001d58:    b2da        ..      UXTB     r2,r3
        0x00001d5a:    230c        .#      MOVS     r3,#0xc
        0x00001d5c:    4363        cC      MULS     r3,r4,r3
        0x00001d5e:    195b        [.      ADDS     r3,r3,r5
        0x00001d60:    889b        ..      LDRH     r3,[r3,#4]
        0x00001d62:    3308        .3      ADDS     r3,r3,#8
        0x00001d64:    b2d9        ..      UXTB     r1,r3
        0x00001d66:    783b        ;x      LDRB     r3,[r7,#0]
        0x00001d68:    1c5b        [.      ADDS     r3,r3,#1
        0x00001d6a:    b2d8        ..      UXTB     r0,r3
        0x00001d6c:    2391        .#      MOVS     r3,#0x91
        0x00001d6e:    f002fdad    ....    BL       writeOneSprite ; 0x48cc
        0x00001d72:    230c        .#      MOVS     r3,#0xc
        0x00001d74:    4363        cC      MULS     r3,r4,r3
        0x00001d76:    195b        [.      ADDS     r3,r3,r5
        0x00001d78:    9600        ..      STR      r6,[sp,#0]
        0x00001d7a:    88db        ..      LDRH     r3,[r3,#6]
        0x00001d7c:    3308        .3      ADDS     r3,r3,#8
        0x00001d7e:    b2da        ..      UXTB     r2,r3
        0x00001d80:    230c        .#      MOVS     r3,#0xc
        0x00001d82:    4363        cC      MULS     r3,r4,r3
        0x00001d84:    195b        [.      ADDS     r3,r3,r5
        0x00001d86:    889b        ..      LDRH     r3,[r3,#4]
        0x00001d88:    b2d9        ..      UXTB     r1,r3
        0x00001d8a:    783b        ;x      LDRB     r3,[r7,#0]
        0x00001d8c:    1c9b        ..      ADDS     r3,r3,#2
        0x00001d8e:    b2d8        ..      UXTB     r0,r3
        0x00001d90:    2392        .#      MOVS     r3,#0x92
        0x00001d92:    f002fd9b    ....    BL       writeOneSprite ; 0x48cc
        0x00001d96:    230c        .#      MOVS     r3,#0xc
        0x00001d98:    4363        cC      MULS     r3,r4,r3
        0x00001d9a:    195b        [.      ADDS     r3,r3,r5
        0x00001d9c:    9600        ..      STR      r6,[sp,#0]
        0x00001d9e:    88db        ..      LDRH     r3,[r3,#6]
        0x00001da0:    3308        .3      ADDS     r3,r3,#8
        0x00001da2:    b2da        ..      UXTB     r2,r3
        0x00001da4:    230c        .#      MOVS     r3,#0xc
        0x00001da6:    4363        cC      MULS     r3,r4,r3
        0x00001da8:    195b        [.      ADDS     r3,r3,r5
        0x00001daa:    889b        ..      LDRH     r3,[r3,#4]
        0x00001dac:    3308        .3      ADDS     r3,r3,#8
        0x00001dae:    b2d9        ..      UXTB     r1,r3
        0x00001db0:    783b        ;x      LDRB     r3,[r7,#0]
        0x00001db2:    1cdb        ..      ADDS     r3,r3,#3
        0x00001db4:    b2d8        ..      UXTB     r0,r3
        0x00001db6:    2393        .#      MOVS     r3,#0x93
        0x00001db8:    f002fd88    ....    BL       writeOneSprite ; 0x48cc
        0x00001dbc:    230c        .#      MOVS     r3,#0xc
        0x00001dbe:    4363        cC      MULS     r3,r4,r3
        0x00001dc0:    195b        [.      ADDS     r3,r3,r5
        0x00001dc2:    9600        ..      STR      r6,[sp,#0]
        0x00001dc4:    88db        ..      LDRH     r3,[r3,#6]
        0x00001dc6:    3310        .3      ADDS     r3,r3,#0x10
        0x00001dc8:    b2da        ..      UXTB     r2,r3
        0x00001dca:    230c        .#      MOVS     r3,#0xc
        0x00001dcc:    4363        cC      MULS     r3,r4,r3
        0x00001dce:    195b        [.      ADDS     r3,r3,r5
        0x00001dd0:    889b        ..      LDRH     r3,[r3,#4]
        0x00001dd2:    b2d9        ..      UXTB     r1,r3
        0x00001dd4:    783b        ;x      LDRB     r3,[r7,#0]
        0x00001dd6:    1d1b        ..      ADDS     r3,r3,#4
        0x00001dd8:    b2d8        ..      UXTB     r0,r3
        0x00001dda:    2394        .#      MOVS     r3,#0x94
        0x00001ddc:    f002fd76    ..v.    BL       writeOneSprite ; 0x48cc
        0x00001de0:    230c        .#      MOVS     r3,#0xc
        0x00001de2:    4363        cC      MULS     r3,r4,r3
        0x00001de4:    195b        [.      ADDS     r3,r3,r5
        0x00001de6:    9600        ..      STR      r6,[sp,#0]
        0x00001de8:    88db        ..      LDRH     r3,[r3,#6]
        0x00001dea:    3310        .3      ADDS     r3,r3,#0x10
        0x00001dec:    b2da        ..      UXTB     r2,r3
        0x00001dee:    230c        .#      MOVS     r3,#0xc
        0x00001df0:    4363        cC      MULS     r3,r4,r3
        0x00001df2:    195b        [.      ADDS     r3,r3,r5
        0x00001df4:    889b        ..      LDRH     r3,[r3,#4]
        0x00001df6:    3308        .3      ADDS     r3,r3,#8
        0x00001df8:    b2d9        ..      UXTB     r1,r3
        0x00001dfa:    783b        ;x      LDRB     r3,[r7,#0]
        0x00001dfc:    1d5b        [.      ADDS     r3,r3,#5
        0x00001dfe:    b2d8        ..      UXTB     r0,r3
        0x00001e00:    2395        .#      MOVS     r3,#0x95
        0x00001e02:    f002fd63    ..c.    BL       writeOneSprite ; 0x48cc
        0x00001e06:    e001        ..      B        0x1e0c ; m_straight_drawPlane + 276
        0x00001e08:    e08e        ..      B        0x1f28 ; m_straight_drawPlane + 560
        0x00001e0a:    e08a        ..      B        0x1f22 ; m_straight_drawPlane + 554
        0x00001e0c:    230c        .#      MOVS     r3,#0xc
        0x00001e0e:    4363        cC      MULS     r3,r4,r3
        0x00001e10:    195b        [.      ADDS     r3,r3,r5
        0x00001e12:    9600        ..      STR      r6,[sp,#0]
        0x00001e14:    88db        ..      LDRH     r3,[r3,#6]
        0x00001e16:    1cdb        ..      ADDS     r3,r3,#3
        0x00001e18:    b2da        ..      UXTB     r2,r3
        0x00001e1a:    230c        .#      MOVS     r3,#0xc
        0x00001e1c:    4363        cC      MULS     r3,r4,r3
        0x00001e1e:    195b        [.      ADDS     r3,r3,r5
        0x00001e20:    889b        ..      LDRH     r3,[r3,#4]
        0x00001e22:    3b08        .;      SUBS     r3,r3,#8
        0x00001e24:    b2d9        ..      UXTB     r1,r3
        0x00001e26:    783b        ;x      LDRB     r3,[r7,#0]
        0x00001e28:    1d9b        ..      ADDS     r3,r3,#6
        0x00001e2a:    b2d8        ..      UXTB     r0,r3
        0x00001e2c:    2396        .#      MOVS     r3,#0x96
        0x00001e2e:    f002fd4d    ..M.    BL       writeOneSprite ; 0x48cc
        0x00001e32:    4630        0F      MOV      r0,r6
        0x00001e34:    2140        @!      MOVS     r1,#0x40
        0x00001e36:    4308        .C      ORRS     r0,r0,r1
        0x00001e38:    230c        .#      MOVS     r3,#0xc
        0x00001e3a:    4363        cC      MULS     r3,r4,r3
        0x00001e3c:    195b        [.      ADDS     r3,r3,r5
        0x00001e3e:    9000        ..      STR      r0,[sp,#0]
        0x00001e40:    88db        ..      LDRH     r3,[r3,#6]
        0x00001e42:    1cdb        ..      ADDS     r3,r3,#3
        0x00001e44:    b2da        ..      UXTB     r2,r3
        0x00001e46:    230c        .#      MOVS     r3,#0xc
        0x00001e48:    4363        cC      MULS     r3,r4,r3
        0x00001e4a:    195b        [.      ADDS     r3,r3,r5
        0x00001e4c:    889b        ..      LDRH     r3,[r3,#4]
        0x00001e4e:    3310        .3      ADDS     r3,r3,#0x10
        0x00001e50:    b2d9        ..      UXTB     r1,r3
        0x00001e52:    783b        ;x      LDRB     r3,[r7,#0]
        0x00001e54:    1ddb        ..      ADDS     r3,r3,#7
        0x00001e56:    b2d8        ..      UXTB     r0,r3
        0x00001e58:    2396        .#      MOVS     r3,#0x96
        0x00001e5a:    f002fd37    ..7.    BL       writeOneSprite ; 0x48cc
        0x00001e5e:    7838        8x      LDRB     r0,[r7,#0]
        0x00001e60:    3008        .0      ADDS     r0,r0,#8
        0x00001e62:    7038        8p      STRB     r0,[r7,#0]
        0x00001e64:    e05e        ^.      B        0x1f24 ; m_straight_drawPlane + 556
        0x00001e66:    230c        .#      MOVS     r3,#0xc
        0x00001e68:    4363        cC      MULS     r3,r4,r3
        0x00001e6a:    195b        [.      ADDS     r3,r3,r5
        0x00001e6c:    9600        ..      STR      r6,[sp,#0]
        0x00001e6e:    88db        ..      LDRH     r3,[r3,#6]
        0x00001e70:    b2da        ..      UXTB     r2,r3
        0x00001e72:    230c        .#      MOVS     r3,#0xc
        0x00001e74:    4363        cC      MULS     r3,r4,r3
        0x00001e76:    195b        [.      ADDS     r3,r3,r5
        0x00001e78:    889b        ..      LDRH     r3,[r3,#4]
        0x00001e7a:    b2d9        ..      UXTB     r1,r3
        0x00001e7c:    7838        8x      LDRB     r0,[r7,#0]
        0x00001e7e:    23b3        .#      MOVS     r3,#0xb3
        0x00001e80:    f002fd24    ..$.    BL       writeOneSprite ; 0x48cc
        0x00001e84:    230c        .#      MOVS     r3,#0xc
        0x00001e86:    4363        cC      MULS     r3,r4,r3
        0x00001e88:    195b        [.      ADDS     r3,r3,r5
        0x00001e8a:    9600        ..      STR      r6,[sp,#0]
        0x00001e8c:    88db        ..      LDRH     r3,[r3,#6]
        0x00001e8e:    3b08        .;      SUBS     r3,r3,#8
        0x00001e90:    b2da        ..      UXTB     r2,r3
        0x00001e92:    230c        .#      MOVS     r3,#0xc
        0x00001e94:    4363        cC      MULS     r3,r4,r3
        0x00001e96:    195b        [.      ADDS     r3,r3,r5
        0x00001e98:    889b        ..      LDRH     r3,[r3,#4]
        0x00001e9a:    b2d9        ..      UXTB     r1,r3
        0x00001e9c:    783b        ;x      LDRB     r3,[r7,#0]
        0x00001e9e:    1c5b        [.      ADDS     r3,r3,#1
        0x00001ea0:    b2d8        ..      UXTB     r0,r3
        0x00001ea2:    23b1        .#      MOVS     r3,#0xb1
        0x00001ea4:    f002fd12    ....    BL       writeOneSprite ; 0x48cc
        0x00001ea8:    230c        .#      MOVS     r3,#0xc
        0x00001eaa:    4363        cC      MULS     r3,r4,r3
        0x00001eac:    195b        [.      ADDS     r3,r3,r5
        0x00001eae:    9600        ..      STR      r6,[sp,#0]
        0x00001eb0:    88db        ..      LDRH     r3,[r3,#6]
        0x00001eb2:    3308        .3      ADDS     r3,r3,#8
        0x00001eb4:    b2da        ..      UXTB     r2,r3
        0x00001eb6:    230c        .#      MOVS     r3,#0xc
        0x00001eb8:    4363        cC      MULS     r3,r4,r3
        0x00001eba:    195b        [.      ADDS     r3,r3,r5
        0x00001ebc:    889b        ..      LDRH     r3,[r3,#4]
        0x00001ebe:    b2d9        ..      UXTB     r1,r3
        0x00001ec0:    783b        ;x      LDRB     r3,[r7,#0]
        0x00001ec2:    1c9b        ..      ADDS     r3,r3,#2
        0x00001ec4:    b2d8        ..      UXTB     r0,r3
        0x00001ec6:    23b5        .#      MOVS     r3,#0xb5
        0x00001ec8:    f002fd00    ....    BL       writeOneSprite ; 0x48cc
        0x00001ecc:    230c        .#      MOVS     r3,#0xc
        0x00001ece:    4363        cC      MULS     r3,r4,r3
        0x00001ed0:    195b        [.      ADDS     r3,r3,r5
        0x00001ed2:    9600        ..      STR      r6,[sp,#0]
        0x00001ed4:    88db        ..      LDRH     r3,[r3,#6]
        0x00001ed6:    b2da        ..      UXTB     r2,r3
        0x00001ed8:    230c        .#      MOVS     r3,#0xc
        0x00001eda:    4363        cC      MULS     r3,r4,r3
        0x00001edc:    195b        [.      ADDS     r3,r3,r5
        0x00001ede:    889b        ..      LDRH     r3,[r3,#4]
        0x00001ee0:    3b08        .;      SUBS     r3,r3,#8
        0x00001ee2:    b2d9        ..      UXTB     r1,r3
        0x00001ee4:    783b        ;x      LDRB     r3,[r7,#0]
        0x00001ee6:    1cdb        ..      ADDS     r3,r3,#3
        0x00001ee8:    b2d8        ..      UXTB     r0,r3
        0x00001eea:    23b2        .#      MOVS     r3,#0xb2
        0x00001eec:    f002fcee    ....    BL       writeOneSprite ; 0x48cc
        0x00001ef0:    4630        0F      MOV      r0,r6
        0x00001ef2:    2140        @!      MOVS     r1,#0x40
        0x00001ef4:    4308        .C      ORRS     r0,r0,r1
        0x00001ef6:    230c        .#      MOVS     r3,#0xc
        0x00001ef8:    4363        cC      MULS     r3,r4,r3
        0x00001efa:    195b        [.      ADDS     r3,r3,r5
        0x00001efc:    9000        ..      STR      r0,[sp,#0]
        0x00001efe:    88db        ..      LDRH     r3,[r3,#6]
        0x00001f00:    b2da        ..      UXTB     r2,r3
        0x00001f02:    230c        .#      MOVS     r3,#0xc
        0x00001f04:    4363        cC      MULS     r3,r4,r3
        0x00001f06:    195b        [.      ADDS     r3,r3,r5
        0x00001f08:    889b        ..      LDRH     r3,[r3,#4]
        0x00001f0a:    3308        .3      ADDS     r3,r3,#8
        0x00001f0c:    b2d9        ..      UXTB     r1,r3
        0x00001f0e:    783b        ;x      LDRB     r3,[r7,#0]
        0x00001f10:    1d1b        ..      ADDS     r3,r3,#4
        0x00001f12:    b2d8        ..      UXTB     r0,r3
        0x00001f14:    23b2        .#      MOVS     r3,#0xb2
        0x00001f16:    f002fcd9    ....    BL       writeOneSprite ; 0x48cc
        0x00001f1a:    7838        8x      LDRB     r0,[r7,#0]
        0x00001f1c:    1d40        @.      ADDS     r0,r0,#5
        0x00001f1e:    7038        8p      STRB     r0,[r7,#0]
        0x00001f20:    e000        ..      B        0x1f24 ; m_straight_drawPlane + 556
        0x00001f22:    bf00        ..      NOP      
        0x00001f24:    bf00        ..      NOP      
        0x00001f26:    bf00        ..      NOP      
        0x00001f28:    1c64        d.      ADDS     r4,r4,#1
        0x00001f2a:    4803        .H      LDR      r0,[pc,#12] ; [0x1f38] = 0x48f3
        0x00001f2c:    7800        .x      LDRB     r0,[r0,#0]
        0x00001f2e:    4284        .B      CMP      r4,r0
        0x00001f30:    da00        ..      BGE      0x1f34 ; m_straight_drawPlane + 572
        0x00001f32:    e6e6        ..      B        0x1d02 ; m_straight_drawPlane + 10
        0x00001f34:    bdf8        ..      POP      {r3-r7,pc}
    $d
        0x00001f36:    0000        ..      DCW    0
        0x00001f38:    000048f3    .H..    DCD    18675
    $t
    i.m_straight_movePlane
    m_straight_movePlane
        0x00001f3c:    b510        ..      PUSH     {r4,lr}
        0x00001f3e:    4601        .F      MOV      r1,r0
        0x00001f40:    2000        .       MOVS     r0,#0
        0x00001f42:    e04c        L.      B        0x1fde ; m_straight_movePlane + 162
        0x00001f44:    220c        ."      MOVS     r2,#0xc
        0x00001f46:    4342        BC      MULS     r2,r0,r2
        0x00001f48:    5c8a        .\      LDRB     r2,[r1,r2]
        0x00001f4a:    2a00        .*      CMP      r2,#0
        0x00001f4c:    d046        F.      BEQ      0x1fdc ; m_straight_movePlane + 160
        0x00001f4e:    220c        ."      MOVS     r2,#0xc
        0x00001f50:    4342        BC      MULS     r2,r0,r2
        0x00001f52:    1852        R.      ADDS     r2,r2,r1
        0x00001f54:    7892        .x      LDRB     r2,[r2,#2]
        0x00001f56:    2a02        .*      CMP      r2,#2
        0x00001f58:    d136        6.      BNE      0x1fc8 ; m_straight_movePlane + 140
        0x00001f5a:    2300        .#      MOVS     r3,#0
        0x00001f5c:    220c        ."      MOVS     r2,#0xc
        0x00001f5e:    4342        BC      MULS     r2,r0,r2
        0x00001f60:    1852        R.      ADDS     r2,r2,r1
        0x00001f62:    7093        .p      STRB     r3,[r2,#2]
        0x00001f64:    220c        ."      MOVS     r2,#0xc
        0x00001f66:    4342        BC      MULS     r2,r0,r2
        0x00001f68:    1852        R.      ADDS     r2,r2,r1
        0x00001f6a:    2304        .#      MOVS     r3,#4
        0x00001f6c:    5ed3        .^      LDRSH    r3,[r2,r3]
        0x00001f6e:    2b05        .+      CMP      r3,#5
        0x00001f70:    db15        ..      BLT      0x1f9e ; m_straight_movePlane + 98
        0x00001f72:    220c        ."      MOVS     r2,#0xc
        0x00001f74:    4342        BC      MULS     r2,r0,r2
        0x00001f76:    1852        R.      ADDS     r2,r2,r1
        0x00001f78:    2304        .#      MOVS     r3,#4
        0x00001f7a:    5ed3        .^      LDRSH    r3,[r2,r3]
        0x00001f7c:    2bfb        .+      CMP      r3,#0xfb
        0x00001f7e:    dc0e        ..      BGT      0x1f9e ; m_straight_movePlane + 98
        0x00001f80:    220c        ."      MOVS     r2,#0xc
        0x00001f82:    4342        BC      MULS     r2,r0,r2
        0x00001f84:    1853        S.      ADDS     r3,r2,r1
        0x00001f86:    2206        ."      MOVS     r2,#6
        0x00001f88:    5e9a        .^      LDRSH    r2,[r3,r2]
        0x00001f8a:    3208        .2      ADDS     r2,r2,#8
        0x00001f8c:    2a0a        .*      CMP      r2,#0xa
        0x00001f8e:    db06        ..      BLT      0x1f9e ; m_straight_movePlane + 98
        0x00001f90:    220c        ."      MOVS     r2,#0xc
        0x00001f92:    4342        BC      MULS     r2,r0,r2
        0x00001f94:    1852        R.      ADDS     r2,r2,r1
        0x00001f96:    2306        .#      MOVS     r3,#6
        0x00001f98:    5ed3        .^      LDRSH    r3,[r2,r3]
        0x00001f9a:    2be6        .+      CMP      r3,#0xe6
        0x00001f9c:    dd04        ..      BLE      0x1fa8 ; m_straight_movePlane + 108
        0x00001f9e:    2300        .#      MOVS     r3,#0
        0x00001fa0:    220c        ."      MOVS     r2,#0xc
        0x00001fa2:    4342        BC      MULS     r2,r0,r2
        0x00001fa4:    548b        .T      STRB     r3,[r1,r2]
        0x00001fa6:    e019        ..      B        0x1fdc ; m_straight_movePlane + 160
        0x00001fa8:    220c        ."      MOVS     r2,#0xc
        0x00001faa:    4342        BC      MULS     r2,r0,r2
        0x00001fac:    1852        R.      ADDS     r2,r2,r1
        0x00001fae:    88d3        ..      LDRH     r3,[r2,#6]
        0x00001fb0:    220c        ."      MOVS     r2,#0xc
        0x00001fb2:    4342        BC      MULS     r2,r0,r2
        0x00001fb4:    1852        R.      ADDS     r2,r2,r1
        0x00001fb6:    2408        .$      MOVS     r4,#8
        0x00001fb8:    5714        .W      LDRSB    r4,[r2,r4]
        0x00001fba:    1b1a        ..      SUBS     r2,r3,r4
        0x00001fbc:    b213        ..      SXTH     r3,r2
        0x00001fbe:    220c        ."      MOVS     r2,#0xc
        0x00001fc0:    4342        BC      MULS     r2,r0,r2
        0x00001fc2:    1852        R.      ADDS     r2,r2,r1
        0x00001fc4:    80d3        ..      STRH     r3,[r2,#6]
        0x00001fc6:    e009        ..      B        0x1fdc ; m_straight_movePlane + 160
        0x00001fc8:    220c        ."      MOVS     r2,#0xc
        0x00001fca:    4342        BC      MULS     r2,r0,r2
        0x00001fcc:    1852        R.      ADDS     r2,r2,r1
        0x00001fce:    7892        .x      LDRB     r2,[r2,#2]
        0x00001fd0:    1c52        R.      ADDS     r2,r2,#1
        0x00001fd2:    b2d3        ..      UXTB     r3,r2
        0x00001fd4:    220c        ."      MOVS     r2,#0xc
        0x00001fd6:    4342        BC      MULS     r2,r0,r2
        0x00001fd8:    1852        R.      ADDS     r2,r2,r1
        0x00001fda:    7093        .p      STRB     r3,[r2,#2]
        0x00001fdc:    1c40        @.      ADDS     r0,r0,#1
        0x00001fde:    4a02        .J      LDR      r2,[pc,#8] ; [0x1fe8] = 0x48f3
        0x00001fe0:    7812        .x      LDRB     r2,[r2,#0]
        0x00001fe2:    4290        .B      CMP      r0,r2
        0x00001fe4:    dbae        ..      BLT      0x1f44 ; m_straight_movePlane + 8
        0x00001fe6:    bd10        ..      POP      {r4,pc}
    $d
        0x00001fe8:    000048f3    .H..    DCD    18675
    $t
    i.m_straight_planeInit
    m_straight_planeInit
        0x00001fec:    4601        .F      MOV      r1,r0
        0x00001fee:    2000        .       MOVS     r0,#0
        0x00001ff0:    e022        ".      B        0x2038 ; m_straight_planeInit + 76
        0x00001ff2:    2300        .#      MOVS     r3,#0
        0x00001ff4:    220c        ."      MOVS     r2,#0xc
        0x00001ff6:    4342        BC      MULS     r2,r0,r2
        0x00001ff8:    1852        R.      ADDS     r2,r2,r1
        0x00001ffa:    8093        ..      STRH     r3,[r2,#4]
        0x00001ffc:    220c        ."      MOVS     r2,#0xc
        0x00001ffe:    4342        BC      MULS     r2,r0,r2
        0x00002000:    1852        R.      ADDS     r2,r2,r1
        0x00002002:    80d3        ..      STRH     r3,[r2,#6]
        0x00002004:    220c        ."      MOVS     r2,#0xc
        0x00002006:    4342        BC      MULS     r2,r0,r2
        0x00002008:    1852        R.      ADDS     r2,r2,r1
        0x0000200a:    7213        .r      STRB     r3,[r2,#8]
        0x0000200c:    220c        ."      MOVS     r2,#0xc
        0x0000200e:    4342        BC      MULS     r2,r0,r2
        0x00002010:    548b        .T      STRB     r3,[r1,r2]
        0x00002012:    2305        .#      MOVS     r3,#5
        0x00002014:    220c        ."      MOVS     r2,#0xc
        0x00002016:    4342        BC      MULS     r2,r0,r2
        0x00002018:    1852        R.      ADDS     r2,r2,r1
        0x0000201a:    7053        Sp      STRB     r3,[r2,#1]
        0x0000201c:    2300        .#      MOVS     r3,#0
        0x0000201e:    220c        ."      MOVS     r2,#0xc
        0x00002020:    4342        BC      MULS     r2,r0,r2
        0x00002022:    1852        R.      ADDS     r2,r2,r1
        0x00002024:    7093        .p      STRB     r3,[r2,#2]
        0x00002026:    220c        ."      MOVS     r2,#0xc
        0x00002028:    4342        BC      MULS     r2,r0,r2
        0x0000202a:    1852        R.      ADDS     r2,r2,r1
        0x0000202c:    7253        Sr      STRB     r3,[r2,#9]
        0x0000202e:    220c        ."      MOVS     r2,#0xc
        0x00002030:    4342        BC      MULS     r2,r0,r2
        0x00002032:    1852        R.      ADDS     r2,r2,r1
        0x00002034:    7293        .r      STRB     r3,[r2,#0xa]
        0x00002036:    1c40        @.      ADDS     r0,r0,#1
        0x00002038:    4a02        .J      LDR      r2,[pc,#8] ; [0x2044] = 0x48f3
        0x0000203a:    7812        .x      LDRB     r2,[r2,#0]
        0x0000203c:    4290        .B      CMP      r0,r2
        0x0000203e:    dbd8        ..      BLT      0x1ff2 ; m_straight_planeInit + 6
        0x00002040:    4770        pG      BX       lr
    $d
        0x00002042:    0000        ..      DCW    0
        0x00002044:    000048f3    .H..    DCD    18675
    $t
    i.main
    main
        0x00002048:    b086        ..      SUB      sp,sp,#0x18
        0x0000204a:    2000        .       MOVS     r0,#0
        0x0000204c:    9000        ..      STR      r0,[sp,#0]
        0x0000204e:    9001        ..      STR      r0,[sp,#4]
        0x00002050:    9002        ..      STR      r0,[sp,#8]
        0x00002052:    2301        .#      MOVS     r3,#1
        0x00002054:    461a        .F      MOV      r2,r3
        0x00002056:    21ff        .!      MOVS     r1,#0xff
        0x00002058:    31b3        .1      ADDS     r1,r1,#0xb3
        0x0000205a:    9003        ..      STR      r0,[sp,#0xc]
        0x0000205c:    0748        H.      LSLS     r0,r1,#29
        0x0000205e:    f002fb5a    ..Z.    BL       uart_init ; 0x4716
        0x00002062:    f7fefc3d    ..=.    BL       PS2_Init ; 0x8e0
        0x00002066:    2064        d       MOVS     r0,#0x64
        0x00002068:    f7fefd32    ..2.    BL       SPI_Init ; 0xad0
        0x0000206c:    2000        .       MOVS     r0,#0
        0x0000206e:    49fd        .I      LDR      r1,[pc,#1012] ; [0x2464] = 0x50020800
        0x00002070:    6008        .`      STR      r0,[r1,#0]
        0x00002072:    f7fefca1    ....    BL       SPI_Flash_Erase_Block ; 0x9b8
        0x00002076:    2001        .       MOVS     r0,#1
        0x00002078:    0300        ..      LSLS     r0,r0,#12
        0x0000207a:    f7fefc9d    ....    BL       SPI_Flash_Erase_Block ; 0x9b8
        0x0000207e:    2001        .       MOVS     r0,#1
        0x00002080:    0340        @.      LSLS     r0,r0,#13
        0x00002082:    f7fefc99    ....    BL       SPI_Flash_Erase_Block ; 0x9b8
        0x00002086:    22ff        ."      MOVS     r2,#0xff
        0x00002088:    3201        .2      ADDS     r2,#1
        0x0000208a:    2100        .!      MOVS     r1,#0
        0x0000208c:    48f6        .H      LDR      r0,[pc,#984] ; [0x2468] = 0x20000ed6
        0x0000208e:    f7fefcf7    ....    BL       SPI_Flash_Write_Page ; 0xa80
        0x00002092:    22ff        ."      MOVS     r2,#0xff
        0x00002094:    3201        .2      ADDS     r2,#1
        0x00002096:    4611        .F      MOV      r1,r2
        0x00002098:    48f4        .H      LDR      r0,[pc,#976] ; [0x246c] = 0x20000fd6
        0x0000209a:    f7fefcf1    ....    BL       SPI_Flash_Write_Page ; 0xa80
        0x0000209e:    22ff        ."      MOVS     r2,#0xff
        0x000020a0:    3201        .2      ADDS     r2,#1
        0x000020a2:    0051        Q.      LSLS     r1,r2,#1
        0x000020a4:    48f2        .H      LDR      r0,[pc,#968] ; [0x2470] = 0x200010d6
        0x000020a6:    f7fefceb    ....    BL       SPI_Flash_Write_Page ; 0xa80
        0x000020aa:    22ff        ."      MOVS     r2,#0xff
        0x000020ac:    3201        .2      ADDS     r2,#1
        0x000020ae:    2103        .!      MOVS     r1,#3
        0x000020b0:    0209        ..      LSLS     r1,r1,#8
        0x000020b2:    48ed        .H      LDR      r0,[pc,#948] ; [0x2468] = 0x20000ed6
        0x000020b4:    1840        @.      ADDS     r0,r0,r1
        0x000020b6:    f7fefce3    ....    BL       SPI_Flash_Write_Page ; 0xa80
        0x000020ba:    2600        .&      MOVS     r6,#0
        0x000020bc:    2001        .       MOVS     r0,#1
        0x000020be:    0280        ..      LSLS     r0,r0,#10
        0x000020c0:    f001f93a    ..:.    BL       mymalloc ; 0x3338
        0x000020c4:    4606        .F      MOV      r6,r0
        0x000020c6:    2201        ."      MOVS     r2,#1
        0x000020c8:    0292        ..      LSLS     r2,r2,#10
        0x000020ca:    2100        .!      MOVS     r1,#0
        0x000020cc:    4630        0F      MOV      r0,r6
        0x000020ce:    f7fefc93    ....    BL       SPI_Flash_Read ; 0x9f8
        0x000020d2:    2400        .$      MOVS     r4,#0
        0x000020d4:    e005        ..      B        0x20e2 ; main + 154
        0x000020d6:    5d32        2]      LDRB     r2,[r6,r4]
        0x000020d8:    4621        !F      MOV      r1,r4
        0x000020da:    a0e6        ..      ADR      r0,{pc}+0x39a ; 0x2474
        0x000020dc:    f7fefd98    ....    BL       __0printf$5 ; 0xc10
        0x000020e0:    1c64        d.      ADDS     r4,r4,#1
        0x000020e2:    2001        .       MOVS     r0,#1
        0x000020e4:    0280        ..      LSLS     r0,r0,#10
        0x000020e6:    4284        .B      CMP      r4,r0
        0x000020e8:    d3f5        ..      BCC      0x20d6 ; main + 142
        0x000020ea:    4630        0F      MOV      r0,r6
        0x000020ec:    f001f914    ....    BL       myfree ; 0x3318
        0x000020f0:    22ff        ."      MOVS     r2,#0xff
        0x000020f2:    3201        .2      ADDS     r2,#1
        0x000020f4:    0091        ..      LSLS     r1,r2,#2
        0x000020f6:    48dc        .H      LDR      r0,[pc,#880] ; [0x2468] = 0x20000ed6
        0x000020f8:    f7fefcc2    ....    BL       SPI_Flash_Write_Page ; 0xa80
        0x000020fc:    22ff        ."      MOVS     r2,#0xff
        0x000020fe:    3201        .2      ADDS     r2,#1
        0x00002100:    2105        .!      MOVS     r1,#5
        0x00002102:    0209        ..      LSLS     r1,r1,#8
        0x00002104:    48d9        .H      LDR      r0,[pc,#868] ; [0x246c] = 0x20000fd6
        0x00002106:    f7fefcbb    ....    BL       SPI_Flash_Write_Page ; 0xa80
        0x0000210a:    22ff        ."      MOVS     r2,#0xff
        0x0000210c:    3201        .2      ADDS     r2,#1
        0x0000210e:    2103        .!      MOVS     r1,#3
        0x00002110:    0249        I.      LSLS     r1,r1,#9
        0x00002112:    48d7        .H      LDR      r0,[pc,#860] ; [0x2470] = 0x200010d6
        0x00002114:    f7fefcb4    ....    BL       SPI_Flash_Write_Page ; 0xa80
        0x00002118:    22ff        ."      MOVS     r2,#0xff
        0x0000211a:    3201        .2      ADDS     r2,#1
        0x0000211c:    2107        .!      MOVS     r1,#7
        0x0000211e:    0209        ..      LSLS     r1,r1,#8
        0x00002120:    48d9        .H      LDR      r0,[pc,#868] ; [0x2488] = 0x200011d6
        0x00002122:    f7fefcad    ....    BL       SPI_Flash_Write_Page ; 0xa80
        0x00002126:    22ff        ."      MOVS     r2,#0xff
        0x00002128:    3201        .2      ADDS     r2,#1
        0x0000212a:    00d1        ..      LSLS     r1,r2,#3
        0x0000212c:    48ce        .H      LDR      r0,[pc,#824] ; [0x2468] = 0x20000ed6
        0x0000212e:    f7fefca7    ....    BL       SPI_Flash_Write_Page ; 0xa80
        0x00002132:    22ff        ."      MOVS     r2,#0xff
        0x00002134:    3201        .2      ADDS     r2,#1
        0x00002136:    2109        .!      MOVS     r1,#9
        0x00002138:    0209        ..      LSLS     r1,r1,#8
        0x0000213a:    48cc        .H      LDR      r0,[pc,#816] ; [0x246c] = 0x20000fd6
        0x0000213c:    f7fefca0    ....    BL       SPI_Flash_Write_Page ; 0xa80
        0x00002140:    22ff        ."      MOVS     r2,#0xff
        0x00002142:    3201        .2      ADDS     r2,#1
        0x00002144:    2105        .!      MOVS     r1,#5
        0x00002146:    0249        I.      LSLS     r1,r1,#9
        0x00002148:    48c9        .H      LDR      r0,[pc,#804] ; [0x2470] = 0x200010d6
        0x0000214a:    f7fefc99    ....    BL       SPI_Flash_Write_Page ; 0xa80
        0x0000214e:    22ff        ."      MOVS     r2,#0xff
        0x00002150:    3201        .2      ADDS     r2,#1
        0x00002152:    210b        .!      MOVS     r1,#0xb
        0x00002154:    0209        ..      LSLS     r1,r1,#8
        0x00002156:    48cc        .H      LDR      r0,[pc,#816] ; [0x2488] = 0x200011d6
        0x00002158:    f7fefc92    ....    BL       SPI_Flash_Write_Page ; 0xa80
        0x0000215c:    22ff        ."      MOVS     r2,#0xff
        0x0000215e:    3201        .2      ADDS     r2,#1
        0x00002160:    2103        .!      MOVS     r1,#3
        0x00002162:    0289        ..      LSLS     r1,r1,#10
        0x00002164:    48c0        .H      LDR      r0,[pc,#768] ; [0x2468] = 0x20000ed6
        0x00002166:    f7fefc8b    ....    BL       SPI_Flash_Write_Page ; 0xa80
        0x0000216a:    22ff        ."      MOVS     r2,#0xff
        0x0000216c:    3201        .2      ADDS     r2,#1
        0x0000216e:    210d        .!      MOVS     r1,#0xd
        0x00002170:    0209        ..      LSLS     r1,r1,#8
        0x00002172:    48be        .H      LDR      r0,[pc,#760] ; [0x246c] = 0x20000fd6
        0x00002174:    f7fefc84    ....    BL       SPI_Flash_Write_Page ; 0xa80
        0x00002178:    22ff        ."      MOVS     r2,#0xff
        0x0000217a:    3201        .2      ADDS     r2,#1
        0x0000217c:    2107        .!      MOVS     r1,#7
        0x0000217e:    0249        I.      LSLS     r1,r1,#9
        0x00002180:    48bb        .H      LDR      r0,[pc,#748] ; [0x2470] = 0x200010d6
        0x00002182:    f7fefc7d    ..}.    BL       SPI_Flash_Write_Page ; 0xa80
        0x00002186:    22ff        ."      MOVS     r2,#0xff
        0x00002188:    3201        .2      ADDS     r2,#1
        0x0000218a:    210f        .!      MOVS     r1,#0xf
        0x0000218c:    0209        ..      LSLS     r1,r1,#8
        0x0000218e:    48be        .H      LDR      r0,[pc,#760] ; [0x2488] = 0x200011d6
        0x00002190:    f7fefc76    ..v.    BL       SPI_Flash_Write_Page ; 0xa80
        0x00002194:    22ff        ."      MOVS     r2,#0xff
        0x00002196:    3201        .2      ADDS     r2,#1
        0x00002198:    0111        ..      LSLS     r1,r2,#4
        0x0000219a:    48bc        .H      LDR      r0,[pc,#752] ; [0x248c] = 0x200016d6
        0x0000219c:    f7fefc70    ..p.    BL       SPI_Flash_Write_Page ; 0xa80
        0x000021a0:    22ff        ."      MOVS     r2,#0xff
        0x000021a2:    3201        .2      ADDS     r2,#1
        0x000021a4:    2111        .!      MOVS     r1,#0x11
        0x000021a6:    0209        ..      LSLS     r1,r1,#8
        0x000021a8:    48b9        .H      LDR      r0,[pc,#740] ; [0x2490] = 0x200017d6
        0x000021aa:    f7fefc69    ..i.    BL       SPI_Flash_Write_Page ; 0xa80
        0x000021ae:    22ff        ."      MOVS     r2,#0xff
        0x000021b0:    3201        .2      ADDS     r2,#1
        0x000021b2:    2109        .!      MOVS     r1,#9
        0x000021b4:    0249        I.      LSLS     r1,r1,#9
        0x000021b6:    48b7        .H      LDR      r0,[pc,#732] ; [0x2494] = 0x200018d6
        0x000021b8:    f7fefc62    ..b.    BL       SPI_Flash_Write_Page ; 0xa80
        0x000021bc:    22ff        ."      MOVS     r2,#0xff
        0x000021be:    3201        .2      ADDS     r2,#1
        0x000021c0:    2113        .!      MOVS     r1,#0x13
        0x000021c2:    0209        ..      LSLS     r1,r1,#8
        0x000021c4:    48b4        .H      LDR      r0,[pc,#720] ; [0x2498] = 0x200019d6
        0x000021c6:    f7fefc5b    ..[.    BL       SPI_Flash_Write_Page ; 0xa80
        0x000021ca:    22ff        ."      MOVS     r2,#0xff
        0x000021cc:    3201        .2      ADDS     r2,#1
        0x000021ce:    2105        .!      MOVS     r1,#5
        0x000021d0:    0289        ..      LSLS     r1,r1,#10
        0x000021d2:    48a5        .H      LDR      r0,[pc,#660] ; [0x2468] = 0x20000ed6
        0x000021d4:    f7fefc54    ..T.    BL       SPI_Flash_Write_Page ; 0xa80
        0x000021d8:    22ff        ."      MOVS     r2,#0xff
        0x000021da:    3201        .2      ADDS     r2,#1
        0x000021dc:    2115        .!      MOVS     r1,#0x15
        0x000021de:    0209        ..      LSLS     r1,r1,#8
        0x000021e0:    48a2        .H      LDR      r0,[pc,#648] ; [0x246c] = 0x20000fd6
        0x000021e2:    f7fefc4d    ..M.    BL       SPI_Flash_Write_Page ; 0xa80
        0x000021e6:    22ff        ."      MOVS     r2,#0xff
        0x000021e8:    3201        .2      ADDS     r2,#1
        0x000021ea:    210b        .!      MOVS     r1,#0xb
        0x000021ec:    0249        I.      LSLS     r1,r1,#9
        0x000021ee:    48a0        .H      LDR      r0,[pc,#640] ; [0x2470] = 0x200010d6
        0x000021f0:    f7fefc46    ..F.    BL       SPI_Flash_Write_Page ; 0xa80
        0x000021f4:    22ff        ."      MOVS     r2,#0xff
        0x000021f6:    3201        .2      ADDS     r2,#1
        0x000021f8:    2117        .!      MOVS     r1,#0x17
        0x000021fa:    0209        ..      LSLS     r1,r1,#8
        0x000021fc:    48a2        .H      LDR      r0,[pc,#648] ; [0x2488] = 0x200011d6
        0x000021fe:    f7fefc3f    ..?.    BL       SPI_Flash_Write_Page ; 0xa80
        0x00002202:    22ff        ."      MOVS     r2,#0xff
        0x00002204:    3201        .2      ADDS     r2,#1
        0x00002206:    2103        .!      MOVS     r1,#3
        0x00002208:    02c9        ..      LSLS     r1,r1,#11
        0x0000220a:    48a0        .H      LDR      r0,[pc,#640] ; [0x248c] = 0x200016d6
        0x0000220c:    f7fefc38    ..8.    BL       SPI_Flash_Write_Page ; 0xa80
        0x00002210:    22ff        ."      MOVS     r2,#0xff
        0x00002212:    3201        .2      ADDS     r2,#1
        0x00002214:    2119        .!      MOVS     r1,#0x19
        0x00002216:    0209        ..      LSLS     r1,r1,#8
        0x00002218:    489d        .H      LDR      r0,[pc,#628] ; [0x2490] = 0x200017d6
        0x0000221a:    f7fefc31    ..1.    BL       SPI_Flash_Write_Page ; 0xa80
        0x0000221e:    22ff        ."      MOVS     r2,#0xff
        0x00002220:    3201        .2      ADDS     r2,#1
        0x00002222:    210d        .!      MOVS     r1,#0xd
        0x00002224:    0249        I.      LSLS     r1,r1,#9
        0x00002226:    489b        .H      LDR      r0,[pc,#620] ; [0x2494] = 0x200018d6
        0x00002228:    f7fefc2a    ..*.    BL       SPI_Flash_Write_Page ; 0xa80
        0x0000222c:    22ff        ."      MOVS     r2,#0xff
        0x0000222e:    3201        .2      ADDS     r2,#1
        0x00002230:    211b        .!      MOVS     r1,#0x1b
        0x00002232:    0209        ..      LSLS     r1,r1,#8
        0x00002234:    4898        .H      LDR      r0,[pc,#608] ; [0x2498] = 0x200019d6
        0x00002236:    f7fefc23    ..#.    BL       SPI_Flash_Write_Page ; 0xa80
        0x0000223a:    22ff        ."      MOVS     r2,#0xff
        0x0000223c:    3201        .2      ADDS     r2,#1
        0x0000223e:    2107        .!      MOVS     r1,#7
        0x00002240:    0289        ..      LSLS     r1,r1,#10
        0x00002242:    4889        .H      LDR      r0,[pc,#548] ; [0x2468] = 0x20000ed6
        0x00002244:    f7fefc1c    ....    BL       SPI_Flash_Write_Page ; 0xa80
        0x00002248:    22ff        ."      MOVS     r2,#0xff
        0x0000224a:    3201        .2      ADDS     r2,#1
        0x0000224c:    211d        .!      MOVS     r1,#0x1d
        0x0000224e:    0209        ..      LSLS     r1,r1,#8
        0x00002250:    4886        .H      LDR      r0,[pc,#536] ; [0x246c] = 0x20000fd6
        0x00002252:    f7fefc15    ....    BL       SPI_Flash_Write_Page ; 0xa80
        0x00002256:    22ff        ."      MOVS     r2,#0xff
        0x00002258:    3201        .2      ADDS     r2,#1
        0x0000225a:    210f        .!      MOVS     r1,#0xf
        0x0000225c:    0249        I.      LSLS     r1,r1,#9
        0x0000225e:    4884        .H      LDR      r0,[pc,#528] ; [0x2470] = 0x200010d6
        0x00002260:    f7fefc0e    ....    BL       SPI_Flash_Write_Page ; 0xa80
        0x00002264:    22ff        ."      MOVS     r2,#0xff
        0x00002266:    3201        .2      ADDS     r2,#1
        0x00002268:    211f        .!      MOVS     r1,#0x1f
        0x0000226a:    0209        ..      LSLS     r1,r1,#8
        0x0000226c:    4886        .H      LDR      r0,[pc,#536] ; [0x2488] = 0x200011d6
        0x0000226e:    f7fefc07    ....    BL       SPI_Flash_Write_Page ; 0xa80
        0x00002272:    22ff        ."      MOVS     r2,#0xff
        0x00002274:    3201        .2      ADDS     r2,#1
        0x00002276:    0151        Q.      LSLS     r1,r2,#5
        0x00002278:    4888        .H      LDR      r0,[pc,#544] ; [0x249c] = 0x200012d6
        0x0000227a:    f7fefc01    ....    BL       SPI_Flash_Write_Page ; 0xa80
        0x0000227e:    22ff        ."      MOVS     r2,#0xff
        0x00002280:    3201        .2      ADDS     r2,#1
        0x00002282:    2121        !!      MOVS     r1,#0x21
        0x00002284:    0209        ..      LSLS     r1,r1,#8
        0x00002286:    4886        .H      LDR      r0,[pc,#536] ; [0x24a0] = 0x200013d6
        0x00002288:    f7fefbfa    ....    BL       SPI_Flash_Write_Page ; 0xa80
        0x0000228c:    22ff        ."      MOVS     r2,#0xff
        0x0000228e:    3201        .2      ADDS     r2,#1
        0x00002290:    2111        .!      MOVS     r1,#0x11
        0x00002292:    0249        I.      LSLS     r1,r1,#9
        0x00002294:    4883        .H      LDR      r0,[pc,#524] ; [0x24a4] = 0x200014d6
        0x00002296:    f7fefbf3    ....    BL       SPI_Flash_Write_Page ; 0xa80
        0x0000229a:    22ff        ."      MOVS     r2,#0xff
        0x0000229c:    3201        .2      ADDS     r2,#1
        0x0000229e:    2123        #!      MOVS     r1,#0x23
        0x000022a0:    0209        ..      LSLS     r1,r1,#8
        0x000022a2:    4881        .H      LDR      r0,[pc,#516] ; [0x24a8] = 0x200015d6
        0x000022a4:    f7fefbec    ....    BL       SPI_Flash_Write_Page ; 0xa80
        0x000022a8:    e2be        ..      B        0x2828 ; main + 2016
        0x000022aa:    4880        .H      LDR      r0,[pc,#512] ; [0x24ac] = 0x20001afa
        0x000022ac:    7800        .x      LDRB     r0,[r0,#0]
        0x000022ae:    2801        .(      CMP      r0,#1
        0x000022b0:    d120         .      BNE      0x22f4 ; main + 684
        0x000022b2:    2000        .       MOVS     r0,#0
        0x000022b4:    497d        }I      LDR      r1,[pc,#500] ; [0x24ac] = 0x20001afa
        0x000022b6:    7008        .p      STRB     r0,[r1,#0]
        0x000022b8:    487d        }H      LDR      r0,[pc,#500] ; [0x24b0] = 0x20001af4
        0x000022ba:    7800        .x      LDRB     r0,[r0,#0]
        0x000022bc:    2800        .(      CMP      r0,#0
        0x000022be:    d11a        ..      BNE      0x22f6 ; main + 686
        0x000022c0:    2400        .$      MOVS     r4,#0
        0x000022c2:    e009        ..      B        0x22d8 ; main + 656
        0x000022c4:    2000        .       MOVS     r0,#0
        0x000022c6:    23ff        .#      MOVS     r3,#0xff
        0x000022c8:    22e6        ."      MOVS     r2,#0xe6
        0x000022ca:    21fb        .!      MOVS     r1,#0xfb
        0x000022cc:    9000        ..      STR      r0,[sp,#0]
        0x000022ce:    4620         F      MOV      r0,r4
        0x000022d0:    f002fafc    ....    BL       writeOneSprite ; 0x48cc
        0x000022d4:    1c60        `.      ADDS     r0,r4,#1
        0x000022d6:    b2c4        ..      UXTB     r4,r0
        0x000022d8:    2c40        @,      CMP      r4,#0x40
        0x000022da:    dbf3        ..      BLT      0x22c4 ; main + 636
        0x000022dc:    f7fff93a    ..:.    BL       clearNameTableAll ; 0x1554
        0x000022e0:    2000        .       MOVS     r0,#0
        0x000022e2:    4974        tI      LDR      r1,[pc,#464] ; [0x24b4] = 0x20001ad9
        0x000022e4:    7008        .p      STRB     r0,[r1,#0]
        0x000022e6:    2108        .!      MOVS     r1,#8
        0x000022e8:    2007        .       MOVS     r0,#7
        0x000022ea:    f7fffb4b    ..K.    BL       gameStartInterfaceShow ; 0x1984
        0x000022ee:    4871        qH      LDR      r0,[pc,#452] ; [0x24b4] = 0x20001ad9
        0x000022f0:    f7fffac0    ....    BL       gameCursorDraw ; 0x1874
        0x000022f4:    e078        x.      B        0x23e8 ; main + 928
        0x000022f6:    486e        nH      LDR      r0,[pc,#440] ; [0x24b0] = 0x20001af4
        0x000022f8:    7800        .x      LDRB     r0,[r0,#0]
        0x000022fa:    2801        .(      CMP      r0,#1
        0x000022fc:    d154        T.      BNE      0x23a8 ; main + 864
        0x000022fe:    2000        .       MOVS     r0,#0
        0x00002300:    496d        mI      LDR      r1,[pc,#436] ; [0x24b8] = 0x20001ad6
        0x00002302:    7008        .p      STRB     r0,[r1,#0]
        0x00002304:    496d        mI      LDR      r1,[pc,#436] ; [0x24bc] = 0x20001ad7
        0x00002306:    7008        .p      STRB     r0,[r1,#0]
        0x00002308:    496d        mI      LDR      r1,[pc,#436] ; [0x24c0] = 0x20001afb
        0x0000230a:    7008        .p      STRB     r0,[r1,#0]
        0x0000230c:    496d        mI      LDR      r1,[pc,#436] ; [0x24c4] = 0x20001adc
        0x0000230e:    6008        .`      STR      r0,[r1,#0]
        0x00002310:    496d        mI      LDR      r1,[pc,#436] ; [0x24c8] = 0x20001ae0
        0x00002312:    6008        .`      STR      r0,[r1,#0]
        0x00002314:    496d        mI      LDR      r1,[pc,#436] ; [0x24cc] = 0x20001ae4
        0x00002316:    6008        .`      STR      r0,[r1,#0]
        0x00002318:    496d        mI      LDR      r1,[pc,#436] ; [0x24d0] = 0x20001af5
        0x0000231a:    7008        .p      STRB     r0,[r1,#0]
        0x0000231c:    496d        mI      LDR      r1,[pc,#436] ; [0x24d4] = 0x20001ae8
        0x0000231e:    6008        .`      STR      r0,[r1,#0]
        0x00002320:    486d        mH      LDR      r0,[pc,#436] ; [0x24d8] = 0x20001bf8
        0x00002322:    f000fec6    ....    BL       myPlane_Init ; 0x30b2
        0x00002326:    486d        mH      LDR      r0,[pc,#436] ; [0x24dc] = 0x20001c02
        0x00002328:    f000fef8    ....    BL       myPlane_bulletInit ; 0x311c
        0x0000232c:    486c        lH      LDR      r0,[pc,#432] ; [0x24e0] = 0x20001c7a
        0x0000232e:    f002f9b1    ....    BL       s_grey_planeInit ; 0x4694
        0x00002332:    486c        lH      LDR      r0,[pc,#432] ; [0x24e4] = 0x20001caa
        0x00002334:    f001fc9a    ....    BL       s_green_planeInit ; 0x3c6c
        0x00002338:    486b        kH      LDR      r0,[pc,#428] ; [0x24e8] = 0x20001cc6
        0x0000233a:    f7fffe57    ..W.    BL       m_straight_planeInit ; 0x1fec
        0x0000233e:    486b        kH      LDR      r0,[pc,#428] ; [0x24ec] = 0x20001cd2
        0x00002340:    f7fff8e2    ....    BL       b_green_planeInit ; 0x1508
        0x00002344:    486a        jH      LDR      r0,[pc,#424] ; [0x24f0] = 0x20001cec
        0x00002346:    f7fffa75    ..u.    BL       enmey_BulletInit ; 0x1834
        0x0000234a:    486a        jH      LDR      r0,[pc,#424] ; [0x24f4] = 0x20001e88
        0x0000234c:    f001f876    ..v.    BL       new_boomInit ; 0x343c
        0x00002350:    2400        .$      MOVS     r4,#0
        0x00002352:    e009        ..      B        0x2368 ; main + 800
        0x00002354:    2000        .       MOVS     r0,#0
        0x00002356:    23ff        .#      MOVS     r3,#0xff
        0x00002358:    22e6        ."      MOVS     r2,#0xe6
        0x0000235a:    21fb        .!      MOVS     r1,#0xfb
        0x0000235c:    9000        ..      STR      r0,[sp,#0]
        0x0000235e:    4620         F      MOV      r0,r4
        0x00002360:    f002fab4    ....    BL       writeOneSprite ; 0x48cc
        0x00002364:    1c60        `.      ADDS     r0,r4,#1
        0x00002366:    b2c4        ..      UXTB     r4,r0
        0x00002368:    2c40        @,      CMP      r4,#0x40
        0x0000236a:    dbf3        ..      BLT      0x2354 ; main + 780
        0x0000236c:    f7fff8f2    ....    BL       clearNameTableAll ; 0x1554
        0x00002370:    2400        .$      MOVS     r4,#0
        0x00002372:    e00d        ..      B        0x2390 ; main + 840
        0x00002374:    2500        .%      MOVS     r5,#0
        0x00002376:    e008        ..      B        0x238a ; main + 834
        0x00002378:    0163        c.      LSLS     r3,r4,#5
        0x0000237a:    195b        [.      ADDS     r3,r3,r5
        0x0000237c:    4f47        GO      LDR      r7,[pc,#284] ; [0x249c] = 0x200012d6
        0x0000237e:    5cfa        .\      LDRB     r2,[r7,r3]
        0x00002380:    b2a1        ..      UXTH     r1,r4
        0x00002382:    b2a8        ..      UXTH     r0,r5
        0x00002384:    f002fa9a    ....    BL       writeOneNametable ; 0x48bc
        0x00002388:    1c6d        m.      ADDS     r5,r5,#1
        0x0000238a:    2d20         -      CMP      r5,#0x20
        0x0000238c:    dbf4        ..      BLT      0x2378 ; main + 816
        0x0000238e:    1c64        d.      ADDS     r4,r4,#1
        0x00002390:    2c20         ,      CMP      r4,#0x20
        0x00002392:    dbef        ..      BLT      0x2374 ; main + 812
        0x00002394:    2001        .       MOVS     r0,#1
        0x00002396:    4933        3I      LDR      r1,[pc,#204] ; [0x2464] = 0x50020800
        0x00002398:    6048        H`      STR      r0,[r1,#4]
        0x0000239a:    2000        .       MOVS     r0,#0
        0x0000239c:    6088        .`      STR      r0,[r1,#8]
        0x0000239e:    2008        .       MOVS     r0,#8
        0x000023a0:    60c8        .`      STR      r0,[r1,#0xc]
        0x000023a2:    2001        .       MOVS     r0,#1
        0x000023a4:    6008        .`      STR      r0,[r1,#0]
        0x000023a6:    e01f        ..      B        0x23e8 ; main + 928
        0x000023a8:    4841        AH      LDR      r0,[pc,#260] ; [0x24b0] = 0x20001af4
        0x000023aa:    7800        .x      LDRB     r0,[r0,#0]
        0x000023ac:    2802        .(      CMP      r0,#2
        0x000023ae:    d11b        ..      BNE      0x23e8 ; main + 928
        0x000023b0:    2400        .$      MOVS     r4,#0
        0x000023b2:    e009        ..      B        0x23c8 ; main + 896
        0x000023b4:    2000        .       MOVS     r0,#0
        0x000023b6:    23ff        .#      MOVS     r3,#0xff
        0x000023b8:    22e6        ."      MOVS     r2,#0xe6
        0x000023ba:    21fb        .!      MOVS     r1,#0xfb
        0x000023bc:    9000        ..      STR      r0,[sp,#0]
        0x000023be:    4620         F      MOV      r0,r4
        0x000023c0:    f002fa84    ....    BL       writeOneSprite ; 0x48cc
        0x000023c4:    1c60        `.      ADDS     r0,r4,#1
        0x000023c6:    b2c4        ..      UXTB     r4,r0
        0x000023c8:    2c40        @,      CMP      r4,#0x40
        0x000023ca:    dbf3        ..      BLT      0x23b4 ; main + 876
        0x000023cc:    2000        .       MOVS     r0,#0
        0x000023ce:    4925        %I      LDR      r1,[pc,#148] ; [0x2464] = 0x50020800
        0x000023d0:    6008        .`      STR      r0,[r1,#0]
        0x000023d2:    f7fff8bf    ....    BL       clearNameTableAll ; 0x1554
        0x000023d6:    2000        .       MOVS     r0,#0
        0x000023d8:    4947        GI      LDR      r1,[pc,#284] ; [0x24f8] = 0x20001af9
        0x000023da:    7008        .p      STRB     r0,[r1,#0]
        0x000023dc:    4947        GI      LDR      r1,[pc,#284] ; [0x24fc] = 0x20001ad8
        0x000023de:    7008        .p      STRB     r0,[r1,#0]
        0x000023e0:    4947        GI      LDR      r1,[pc,#284] ; [0x2500] = 0x20001af6
        0x000023e2:    7008        .p      STRB     r0,[r1,#0]
        0x000023e4:    4947        GI      LDR      r1,[pc,#284] ; [0x2504] = 0x20001af8
        0x000023e6:    7008        .p      STRB     r0,[r1,#0]
        0x000023e8:    4831        1H      LDR      r0,[pc,#196] ; [0x24b0] = 0x20001af4
        0x000023ea:    7800        .x      LDRB     r0,[r0,#0]
        0x000023ec:    2800        .(      CMP      r0,#0
        0x000023ee:    d138        8.      BNE      0x2462 ; main + 1050
        0x000023f0:    482e        .H      LDR      r0,[pc,#184] ; [0x24ac] = 0x20001afa
        0x000023f2:    7800        .x      LDRB     r0,[r0,#0]
        0x000023f4:    2800        .(      CMP      r0,#0
        0x000023f6:    d134        4.      BNE      0x2462 ; main + 1050
        0x000023f8:    f7fefa48    ..H.    BL       PS2_DataKey ; 0x88c
        0x000023fc:    4942        BI      LDR      r1,[pc,#264] ; [0x2508] = 0x20001af0
        0x000023fe:    6008        .`      STR      r0,[r1,#0]
        0x00002400:    4608        .F      MOV      r0,r1
        0x00002402:    6800        .h      LDR      r0,[r0,#0]
        0x00002404:    2805        .(      CMP      r0,#5
        0x00002406:    d10c        ..      BNE      0x2422 ; main + 986
        0x00002408:    482a        *H      LDR      r0,[pc,#168] ; [0x24b4] = 0x20001ad9
        0x0000240a:    7800        .x      LDRB     r0,[r0,#0]
        0x0000240c:    2800        .(      CMP      r0,#0
        0x0000240e:    dd26        &.      BLE      0x245e ; main + 1046
        0x00002410:    4828        (H      LDR      r0,[pc,#160] ; [0x24b4] = 0x20001ad9
        0x00002412:    7800        .x      LDRB     r0,[r0,#0]
        0x00002414:    1e40        @.      SUBS     r0,r0,#1
        0x00002416:    4927        'I      LDR      r1,[pc,#156] ; [0x24b4] = 0x20001ad9
        0x00002418:    7008        .p      STRB     r0,[r1,#0]
        0x0000241a:    4608        .F      MOV      r0,r1
        0x0000241c:    f7fffa2a    ..*.    BL       gameCursorDraw ; 0x1874
        0x00002420:    e01d        ..      B        0x245e ; main + 1046
        0x00002422:    4839        9H      LDR      r0,[pc,#228] ; [0x2508] = 0x20001af0
        0x00002424:    6800        .h      LDR      r0,[r0,#0]
        0x00002426:    2807        .(      CMP      r0,#7
        0x00002428:    d10c        ..      BNE      0x2444 ; main + 1020
        0x0000242a:    4822        "H      LDR      r0,[pc,#136] ; [0x24b4] = 0x20001ad9
        0x0000242c:    7800        .x      LDRB     r0,[r0,#0]
        0x0000242e:    2801        .(      CMP      r0,#1
        0x00002430:    da15        ..      BGE      0x245e ; main + 1046
        0x00002432:    4820         H      LDR      r0,[pc,#128] ; [0x24b4] = 0x20001ad9
        0x00002434:    7800        .x      LDRB     r0,[r0,#0]
        0x00002436:    1c40        @.      ADDS     r0,r0,#1
        0x00002438:    491e        .I      LDR      r1,[pc,#120] ; [0x24b4] = 0x20001ad9
        0x0000243a:    7008        .p      STRB     r0,[r1,#0]
        0x0000243c:    4608        .F      MOV      r0,r1
        0x0000243e:    f7fffa19    ....    BL       gameCursorDraw ; 0x1874
        0x00002442:    e00c        ..      B        0x245e ; main + 1046
        0x00002444:    4830        0H      LDR      r0,[pc,#192] ; [0x2508] = 0x20001af0
        0x00002446:    6800        .h      LDR      r0,[r0,#0]
        0x00002448:    280d        .(      CMP      r0,#0xd
        0x0000244a:    d108        ..      BNE      0x245e ; main + 1046
        0x0000244c:    4819        .H      LDR      r0,[pc,#100] ; [0x24b4] = 0x20001ad9
        0x0000244e:    7800        .x      LDRB     r0,[r0,#0]
        0x00002450:    2800        .(      CMP      r0,#0
        0x00002452:    d104        ..      BNE      0x245e ; main + 1046
        0x00002454:    2001        .       MOVS     r0,#1
        0x00002456:    4915        .I      LDR      r1,[pc,#84] ; [0x24ac] = 0x20001afa
        0x00002458:    7008        .p      STRB     r0,[r1,#0]
        0x0000245a:    4915        .I      LDR      r1,[pc,#84] ; [0x24b0] = 0x20001af4
        0x0000245c:    7008        .p      STRB     r0,[r1,#0]
        0x0000245e:    2096        .       MOVS     r0,#0x96
        0x00002460:    e054        T.      B        0x250c ; main + 1220
        0x00002462:    e056        V.      B        0x2512 ; main + 1226
    $d
        0x00002464:    50020800    ...P    DCD    1342310400
        0x00002468:    20000ed6    ...     DCD    536874710
        0x0000246c:    20000fd6    ...     DCD    536874966
        0x00002470:    200010d6    ...     DCD    536875222
        0x00002474:    72646461    addr    DCD    1919181921
        0x00002478:    756c253d    =%lu    DCD    1970021693
        0x0000247c:    74616420     dat    DCD    1952539680
        0x00002480:    78253d61    a=%x    DCD    2015706465
        0x00002484:    0000000a    ....    DCD    10
        0x00002488:    200011d6    ...     DCD    536875478
        0x0000248c:    200016d6    ...     DCD    536876758
        0x00002490:    200017d6    ...     DCD    536877014
        0x00002494:    200018d6    ...     DCD    536877270
        0x00002498:    200019d6    ...     DCD    536877526
        0x0000249c:    200012d6    ...     DCD    536875734
        0x000024a0:    200013d6    ...     DCD    536875990
        0x000024a4:    200014d6    ...     DCD    536876246
        0x000024a8:    200015d6    ...     DCD    536876502
        0x000024ac:    20001afa    ...     DCD    536877818
        0x000024b0:    20001af4    ...     DCD    536877812
        0x000024b4:    20001ad9    ...     DCD    536877785
        0x000024b8:    20001ad6    ...     DCD    536877782
        0x000024bc:    20001ad7    ...     DCD    536877783
        0x000024c0:    20001afb    ...     DCD    536877819
        0x000024c4:    20001adc    ...     DCD    536877788
        0x000024c8:    20001ae0    ...     DCD    536877792
        0x000024cc:    20001ae4    ...     DCD    536877796
        0x000024d0:    20001af5    ...     DCD    536877813
        0x000024d4:    20001ae8    ...     DCD    536877800
        0x000024d8:    20001bf8    ...     DCD    536878072
        0x000024dc:    20001c02    ...     DCD    536878082
        0x000024e0:    20001c7a    z..     DCD    536878202
        0x000024e4:    20001caa    ...     DCD    536878250
        0x000024e8:    20001cc6    ...     DCD    536878278
        0x000024ec:    20001cd2    ...     DCD    536878290
        0x000024f0:    20001cec    ...     DCD    536878316
        0x000024f4:    20001e88    ...     DCD    536878728
        0x000024f8:    20001af9    ...     DCD    536877817
        0x000024fc:    20001ad8    ...     DCD    536877784
        0x00002500:    20001af6    ...     DCD    536877814
        0x00002504:    20001af8    ...     DCD    536877816
        0x00002508:    20001af0    ...     DCD    536877808
    $t
        0x0000250c:    f7fff846    ..F.    BL       delay_ms ; 0x159c
        0x00002510:    e18a        ..      B        0x2828 ; main + 2016
        0x00002512:    48c6        .H      LDR      r0,[pc,#792] ; [0x282c] = 0x20001af4
        0x00002514:    7800        .x      LDRB     r0,[r0,#0]
        0x00002516:    2801        .(      CMP      r0,#1
        0x00002518:    d17e        ~.      BNE      0x2618 ; main + 1488
        0x0000251a:    48c5        .H      LDR      r0,[pc,#788] ; [0x2830] = 0x20001afa
        0x0000251c:    7800        .x      LDRB     r0,[r0,#0]
        0x0000251e:    2800        .(      CMP      r0,#0
        0x00002520:    d1fa        ..      BNE      0x2518 ; main + 1232
        0x00002522:    48c4        .H      LDR      r0,[pc,#784] ; [0x2834] = 0x20001afb
        0x00002524:    7800        .x      LDRB     r0,[r0,#0]
        0x00002526:    2800        .(      CMP      r0,#0
        0x00002528:    d177        w.      BNE      0x261a ; main + 1490
        0x0000252a:    f7fdfe21    ..!.    BL       rand ; 0x170
        0x0000252e:    4604        .F      MOV      r4,r0
        0x00002530:    21c8        .!      MOVS     r1,#0xc8
        0x00002532:    f7fdfe09    ....    BL       __aeabi_idiv ; 0x148
        0x00002536:    310f        .1      ADDS     r1,r1,#0xf
        0x00002538:    b209        ..      SXTH     r1,r1
        0x0000253a:    4668        hF      MOV      r0,sp
        0x0000253c:    8181        ..      STRH     r1,[r0,#0xc]
        0x0000253e:    210c        .!      MOVS     r1,#0xc
        0x00002540:    5e41        A^      LDRSH    r1,[r0,r1]
        0x00002542:    48bd        .H      LDR      r0,[pc,#756] ; [0x2838] = 0x20001bf8
        0x00002544:    2200        ."      MOVS     r2,#0
        0x00002546:    5e82        .^      LDRSH    r2,[r0,r2]
        0x00002548:    4291        .B      CMP      r1,r2
        0x0000254a:    dd03        ..      BLE      0x2554 ; main + 1292
        0x0000254c:    2005        .       MOVS     r0,#5
        0x0000254e:    4669        iF      MOV      r1,sp
        0x00002550:    74c8        .t      STRB     r0,[r1,#0x13]
        0x00002552:    e002        ..      B        0x255a ; main + 1298
        0x00002554:    2006        .       MOVS     r0,#6
        0x00002556:    4669        iF      MOV      r1,sp
        0x00002558:    74c8        .t      STRB     r0,[r1,#0x13]
        0x0000255a:    f7fdfe09    ....    BL       rand ; 0x170
        0x0000255e:    4604        .F      MOV      r4,r0
        0x00002560:    0fc0        ..      LSRS     r0,r0,#31
        0x00002562:    1900        ..      ADDS     r0,r0,r4
        0x00002564:    1040        @.      ASRS     r0,r0,#1
        0x00002566:    0040        @.      LSLS     r0,r0,#1
        0x00002568:    1a20         .      SUBS     r0,r4,r0
        0x0000256a:    4669        iF      MOV      r1,sp
        0x0000256c:    7448        Ht      STRB     r0,[r1,#0x11]
        0x0000256e:    48b2        .H      LDR      r0,[pc,#712] ; [0x2838] = 0x20001bf8
        0x00002570:    2302        .#      MOVS     r3,#2
        0x00002572:    5ec3        .^      LDRSH    r3,[r0,r3]
        0x00002574:    2200        ."      MOVS     r2,#0
        0x00002576:    5e82        .^      LDRSH    r2,[r0,r2]
        0x00002578:    a902        ..      ADD      r1,sp,#8
        0x0000257a:    48b0        .H      LDR      r0,[pc,#704] ; [0x283c] = 0x20001c7a
        0x0000257c:    f001fc36    ..6.    BL       s_grey_createOnePlane ; 0x3dec
        0x00002580:    48af        .H      LDR      r0,[pc,#700] ; [0x2840] = 0x50020800
        0x00002582:    6940        @i      LDR      r0,[r0,#0x14]
        0x00002584:    2878        x(      CMP      r0,#0x78
        0x00002586:    d116        ..      BNE      0x25b6 ; main + 1390
        0x00002588:    48ab        .H      LDR      r0,[pc,#684] ; [0x2838] = 0x20001bf8
        0x0000258a:    2202        ."      MOVS     r2,#2
        0x0000258c:    5e82        .^      LDRSH    r2,[r0,r2]
        0x0000258e:    2100        .!      MOVS     r1,#0
        0x00002590:    5e41        A^      LDRSH    r1,[r0,r1]
        0x00002592:    48ac        .H      LDR      r0,[pc,#688] ; [0x2844] = 0x20001caa
        0x00002594:    f000ffbe    ....    BL       s_green_createOnePlane ; 0x3514
        0x00002598:    f7fdfdea    ....    BL       rand ; 0x170
        0x0000259c:    4605        .F      MOV      r5,r0
        0x0000259e:    2132        2!      MOVS     r1,#0x32
        0x000025a0:    f7fdfdd2    ....    BL       __aeabi_idiv ; 0x148
        0x000025a4:    3132        21      ADDS     r1,r1,#0x32
        0x000025a6:    b20c        ..      SXTH     r4,r1
        0x000025a8:    4621        !F      MOV      r1,r4
        0x000025aa:    48a7        .H      LDR      r0,[pc,#668] ; [0x2848] = 0x20001cc6
        0x000025ac:    f7fffb5a    ..Z.    BL       m_straight_createOnePlane ; 0x1c64
        0x000025b0:    48a6        .H      LDR      r0,[pc,#664] ; [0x284c] = 0x20001cd2
        0x000025b2:    f7fefcc9    ....    BL       b_green_createOnePlane ; 0xf48
        0x000025b6:    f7fef969    ..i.    BL       PS2_DataKey ; 0x88c
        0x000025ba:    49a5        .I      LDR      r1,[pc,#660] ; [0x2850] = 0x20001af0
        0x000025bc:    6008        .`      STR      r0,[r1,#0]
        0x000025be:    48a5        .H      LDR      r0,[pc,#660] ; [0x2854] = 0x20001ad6
        0x000025c0:    7800        .x      LDRB     r0,[r0,#0]
        0x000025c2:    1c40        @.      ADDS     r0,r0,#1
        0x000025c4:    49a3        .I      LDR      r1,[pc,#652] ; [0x2854] = 0x20001ad6
        0x000025c6:    7008        .p      STRB     r0,[r1,#0]
        0x000025c8:    4608        .F      MOV      r0,r1
        0x000025ca:    7800        .x      LDRB     r0,[r0,#0]
        0x000025cc:    2810        .(      CMP      r0,#0x10
        0x000025ce:    db17        ..      BLT      0x2600 ; main + 1464
        0x000025d0:    2000        .       MOVS     r0,#0
        0x000025d2:    7008        .p      STRB     r0,[r1,#0]
        0x000025d4:    48a0        .H      LDR      r0,[pc,#640] ; [0x2858] = 0x20002ff8
        0x000025d6:    7900        .y      LDRB     r0,[r0,#4]
        0x000025d8:    2110        .!      MOVS     r1,#0x10
        0x000025da:    4008        .@      ANDS     r0,r0,r1
        0x000025dc:    2800        .(      CMP      r0,#0
        0x000025de:    d108        ..      BNE      0x25f2 ; main + 1450
        0x000025e0:    4895        .H      LDR      r0,[pc,#596] ; [0x2838] = 0x20001bf8
        0x000025e2:    79c0        .y      LDRB     r0,[r0,#7]
        0x000025e4:    2800        .(      CMP      r0,#0
        0x000025e6:    d10b        ..      BNE      0x2600 ; main + 1464
        0x000025e8:    499c        .I      LDR      r1,[pc,#624] ; [0x285c] = 0x20001c02
        0x000025ea:    4893        .H      LDR      r0,[pc,#588] ; [0x2838] = 0x20001bf8
        0x000025ec:    f000fda6    ....    BL       myPlane_createOneBullet ; 0x313c
        0x000025f0:    e006        ..      B        0x2600 ; main + 1464
        0x000025f2:    4897        .H      LDR      r0,[pc,#604] ; [0x2850] = 0x20001af0
        0x000025f4:    6800        .h      LDR      r0,[r0,#0]
        0x000025f6:    280e        .(      CMP      r0,#0xe
        0x000025f8:    d102        ..      BNE      0x2600 ; main + 1464
        0x000025fa:    2001        .       MOVS     r0,#1
        0x000025fc:    4998        .I      LDR      r1,[pc,#608] ; [0x2860] = 0x20001ad7
        0x000025fe:    7008        .p      STRB     r0,[r1,#0]
        0x00002600:    2103        .!      MOVS     r1,#3
        0x00002602:    4894        .H      LDR      r0,[pc,#592] ; [0x2854] = 0x20001ad6
        0x00002604:    7800        .x      LDRB     r0,[r0,#0]
        0x00002606:    f7fdfd9f    ....    BL       __aeabi_idiv ; 0x148
        0x0000260a:    2901        .)      CMP      r1,#1
        0x0000260c:    d13d        =.      BNE      0x268a ; main + 1602
        0x0000260e:    4890        .H      LDR      r0,[pc,#576] ; [0x2850] = 0x20001af0
        0x00002610:    6800        .h      LDR      r0,[r0,#0]
        0x00002612:    2808        .(      CMP      r0,#8
        0x00002614:    d10d        ..      BNE      0x2632 ; main + 1514
        0x00002616:    e001        ..      B        0x261c ; main + 1492
        0x00002618:    e0cf        ..      B        0x27ba ; main + 1906
        0x0000261a:    e087        ..      B        0x272c ; main + 1764
        0x0000261c:    4886        .H      LDR      r0,[pc,#536] ; [0x2838] = 0x20001bf8
        0x0000261e:    2100        .!      MOVS     r1,#0
        0x00002620:    5e41        A^      LDRSH    r1,[r0,r1]
        0x00002622:    2919        .)      CMP      r1,#0x19
        0x00002624:    dd31        1.      BLE      0x268a ; main + 1602
        0x00002626:    8800        ..      LDRH     r0,[r0,#0]
        0x00002628:    1f40        @.      SUBS     r0,r0,#5
        0x0000262a:    b200        ..      SXTH     r0,r0
        0x0000262c:    4982        .I      LDR      r1,[pc,#520] ; [0x2838] = 0x20001bf8
        0x0000262e:    8008        ..      STRH     r0,[r1,#0]
        0x00002630:    e02b        +.      B        0x268a ; main + 1602
        0x00002632:    4887        .H      LDR      r0,[pc,#540] ; [0x2850] = 0x20001af0
        0x00002634:    6800        .h      LDR      r0,[r0,#0]
        0x00002636:    2806        .(      CMP      r0,#6
        0x00002638:    d10a        ..      BNE      0x2650 ; main + 1544
        0x0000263a:    487f        .H      LDR      r0,[pc,#508] ; [0x2838] = 0x20001bf8
        0x0000263c:    2100        .!      MOVS     r1,#0
        0x0000263e:    5e41        A^      LDRSH    r1,[r0,r1]
        0x00002640:    29e7        .)      CMP      r1,#0xe7
        0x00002642:    da22        ".      BGE      0x268a ; main + 1602
        0x00002644:    8800        ..      LDRH     r0,[r0,#0]
        0x00002646:    1d40        @.      ADDS     r0,r0,#5
        0x00002648:    b200        ..      SXTH     r0,r0
        0x0000264a:    497b        {I      LDR      r1,[pc,#492] ; [0x2838] = 0x20001bf8
        0x0000264c:    8008        ..      STRH     r0,[r1,#0]
        0x0000264e:    e01c        ..      B        0x268a ; main + 1602
        0x00002650:    487f        .H      LDR      r0,[pc,#508] ; [0x2850] = 0x20001af0
        0x00002652:    6800        .h      LDR      r0,[r0,#0]
        0x00002654:    2805        .(      CMP      r0,#5
        0x00002656:    d10a        ..      BNE      0x266e ; main + 1574
        0x00002658:    4877        wH      LDR      r0,[pc,#476] ; [0x2838] = 0x20001bf8
        0x0000265a:    2102        .!      MOVS     r1,#2
        0x0000265c:    5e41        A^      LDRSH    r1,[r0,r1]
        0x0000265e:    291e        .)      CMP      r1,#0x1e
        0x00002660:    dd13        ..      BLE      0x268a ; main + 1602
        0x00002662:    8840        @.      LDRH     r0,[r0,#2]
        0x00002664:    1f40        @.      SUBS     r0,r0,#5
        0x00002666:    b200        ..      SXTH     r0,r0
        0x00002668:    4973        sI      LDR      r1,[pc,#460] ; [0x2838] = 0x20001bf8
        0x0000266a:    8048        H.      STRH     r0,[r1,#2]
        0x0000266c:    e00d        ..      B        0x268a ; main + 1602
        0x0000266e:    4878        xH      LDR      r0,[pc,#480] ; [0x2850] = 0x20001af0
        0x00002670:    6800        .h      LDR      r0,[r0,#0]
        0x00002672:    2807        .(      CMP      r0,#7
        0x00002674:    d109        ..      BNE      0x268a ; main + 1602
        0x00002676:    4870        pH      LDR      r0,[pc,#448] ; [0x2838] = 0x20001bf8
        0x00002678:    2102        .!      MOVS     r1,#2
        0x0000267a:    5e41        A^      LDRSH    r1,[r0,r1]
        0x0000267c:    29d2        .)      CMP      r1,#0xd2
        0x0000267e:    da04        ..      BGE      0x268a ; main + 1602
        0x00002680:    8840        @.      LDRH     r0,[r0,#2]
        0x00002682:    1d40        @.      ADDS     r0,r0,#5
        0x00002684:    b200        ..      SXTH     r0,r0
        0x00002686:    496c        lI      LDR      r1,[pc,#432] ; [0x2838] = 0x20001bf8
        0x00002688:    8048        H.      STRH     r0,[r1,#2]
        0x0000268a:    4975        uI      LDR      r1,[pc,#468] ; [0x2860] = 0x20001ad7
        0x0000268c:    486a        jH      LDR      r0,[pc,#424] ; [0x2838] = 0x20001bf8
        0x0000268e:    f000f9b7    ....    BL       myPlane_Act ; 0x2a00
        0x00002692:    4872        rH      LDR      r0,[pc,#456] ; [0x285c] = 0x20001c02
        0x00002694:    f000fe18    ....    BL       myPlane_updateBulletData ; 0x32c8
        0x00002698:    4a72        rJ      LDR      r2,[pc,#456] ; [0x2864] = 0x20001cec
        0x0000269a:    4967        gI      LDR      r1,[pc,#412] ; [0x2838] = 0x20001bf8
        0x0000269c:    4867        gH      LDR      r0,[pc,#412] ; [0x283c] = 0x20001c7a
        0x0000269e:    f001fe07    ....    BL       s_grey_movePlane ; 0x42b0
        0x000026a2:    4a70        pJ      LDR      r2,[pc,#448] ; [0x2864] = 0x20001cec
        0x000026a4:    4964        dI      LDR      r1,[pc,#400] ; [0x2838] = 0x20001bf8
        0x000026a6:    4867        gH      LDR      r0,[pc,#412] ; [0x2844] = 0x20001caa
        0x000026a8:    f001f93c    ..<.    BL       s_green_movePlane ; 0x3924
        0x000026ac:    4866        fH      LDR      r0,[pc,#408] ; [0x2848] = 0x20001cc6
        0x000026ae:    f7fffc45    ..E.    BL       m_straight_movePlane ; 0x1f3c
        0x000026b2:    4866        fH      LDR      r0,[pc,#408] ; [0x284c] = 0x20001cd2
        0x000026b4:    f7fefdcc    ....    BL       b_green_movePlane ; 0x1250
        0x000026b8:    486a        jH      LDR      r0,[pc,#424] ; [0x2864] = 0x20001cec
        0x000026ba:    f002f859    ..Y.    BL       updateEnemyBulletData ; 0x4770
        0x000026be:    486a        jH      LDR      r0,[pc,#424] ; [0x2868] = 0x20001e88
        0x000026c0:    f000fef0    ....    BL       new_updateBoomData ; 0x34a4
        0x000026c4:    4969        iI      LDR      r1,[pc,#420] ; [0x286c] = 0x20001d98
        0x000026c6:    4865        eH      LDR      r0,[pc,#404] ; [0x285c] = 0x20001c02
        0x000026c8:    f000f972    ..r.    BL       myBulletsMapCreate ; 0x29b0
        0x000026cc:    4b68        hK      LDR      r3,[pc,#416] ; [0x2870] = 0x20001e10
        0x000026ce:    4a65        eJ      LDR      r2,[pc,#404] ; [0x2864] = 0x20001cec
        0x000026d0:    495c        \I      LDR      r1,[pc,#368] ; [0x2844] = 0x20001caa
        0x000026d2:    485a        ZH      LDR      r0,[pc,#360] ; [0x283c] = 0x20001c7a
        0x000026d4:    f7fefff6    ....    BL       enemyAndBulletMapCreate ; 0x16c4
        0x000026d8:    4b63        cK      LDR      r3,[pc,#396] ; [0x2868] = 0x20001e88
        0x000026da:    4a64        dJ      LDR      r2,[pc,#400] ; [0x286c] = 0x20001d98
        0x000026dc:    4959        YI      LDR      r1,[pc,#356] ; [0x2844] = 0x20001caa
        0x000026de:    4857        WH      LDR      r0,[pc,#348] ; [0x283c] = 0x20001c7a
        0x000026e0:    f7fffa04    ....    BL       isHit_s_grey_EnemyPlane ; 0x1aec
        0x000026e4:    4854        TH      LDR      r0,[pc,#336] ; [0x2838] = 0x20001bf8
        0x000026e6:    7900        .y      LDRB     r0,[r0,#4]
        0x000026e8:    2800        .(      CMP      r0,#0
        0x000026ea:    d003        ..      BEQ      0x26f4 ; main + 1708
        0x000026ec:    4854        TH      LDR      r0,[pc,#336] ; [0x2840] = 0x50020800
        0x000026ee:    6980        .i      LDR      r0,[r0,#0x18]
        0x000026f0:    2800        .(      CMP      r0,#0
        0x000026f2:    d117        ..      BNE      0x2724 ; main + 1756
        0x000026f4:    485f        _H      LDR      r0,[pc,#380] ; [0x2874] = 0x20001af5
        0x000026f6:    7800        .x      LDRB     r0,[r0,#0]
        0x000026f8:    28f0        .(      CMP      r0,#0xf0
        0x000026fa:    db13        ..      BLT      0x2724 ; main + 1756
        0x000026fc:    2001        .       MOVS     r0,#1
        0x000026fe:    494c        LI      LDR      r1,[pc,#304] ; [0x2830] = 0x20001afa
        0x00002700:    7008        .p      STRB     r0,[r1,#0]
        0x00002702:    2002        .       MOVS     r0,#2
        0x00002704:    4949        II      LDR      r1,[pc,#292] ; [0x282c] = 0x20001af4
        0x00002706:    7008        .p      STRB     r0,[r1,#0]
        0x00002708:    2400        .$      MOVS     r4,#0
        0x0000270a:    e009        ..      B        0x2720 ; main + 1752
        0x0000270c:    2000        .       MOVS     r0,#0
        0x0000270e:    23ff        .#      MOVS     r3,#0xff
        0x00002710:    22e6        ."      MOVS     r2,#0xe6
        0x00002712:    21fb        .!      MOVS     r1,#0xfb
        0x00002714:    9000        ..      STR      r0,[sp,#0]
        0x00002716:    4620         F      MOV      r0,r4
        0x00002718:    f002f8d8    ....    BL       writeOneSprite ; 0x48cc
        0x0000271c:    1c60        `.      ADDS     r0,r4,#1
        0x0000271e:    b2c4        ..      UXTB     r4,r0
        0x00002720:    2c40        @,      CMP      r4,#0x40
        0x00002722:    dbf3        ..      BLT      0x270c ; main + 1732
        0x00002724:    2001        .       MOVS     r0,#1
        0x00002726:    4943        CI      LDR      r1,[pc,#268] ; [0x2834] = 0x20001afb
        0x00002728:    7008        .p      STRB     r0,[r1,#0]
        0x0000272a:    e07d        }.      B        0x2828 ; main + 2016
        0x0000272c:    4841        AH      LDR      r0,[pc,#260] ; [0x2834] = 0x20001afb
        0x0000272e:    7800        .x      LDRB     r0,[r0,#0]
        0x00002730:    2802        .(      CMP      r0,#2
        0x00002732:    d179        y.      BNE      0x2828 ; main + 2016
        0x00002734:    2000        .       MOVS     r0,#0
        0x00002736:    4950        PI      LDR      r1,[pc,#320] ; [0x2878] = 0x20001ad8
        0x00002738:    7008        .p      STRB     r0,[r1,#0]
        0x0000273a:    460b        .F      MOV      r3,r1
        0x0000273c:    484f        OH      LDR      r0,[pc,#316] ; [0x287c] = 0x20001adc
        0x0000273e:    210a        .!      MOVS     r1,#0xa
        0x00002740:    6802        .h      LDR      r2,[r0,#0]
        0x00002742:    2003        .       MOVS     r0,#3
        0x00002744:    f7fff8c5    ....    BL       gameScoreDraw ; 0x18d2
        0x00002748:    494b        KI      LDR      r1,[pc,#300] ; [0x2878] = 0x20001ad8
        0x0000274a:    483b        ;H      LDR      r0,[pc,#236] ; [0x2838] = 0x20001bf8
        0x0000274c:    f000f992    ....    BL       myPlane_Draw ; 0x2a74
        0x00002750:    4949        II      LDR      r1,[pc,#292] ; [0x2878] = 0x20001ad8
        0x00002752:    4842        BH      LDR      r0,[pc,#264] ; [0x285c] = 0x20001c02
        0x00002754:    f000fcbc    ....    BL       myPlane_bulletDraw ; 0x30d0
        0x00002758:    4947        GI      LDR      r1,[pc,#284] ; [0x2878] = 0x20001ad8
        0x0000275a:    4838        8H      LDR      r0,[pc,#224] ; [0x283c] = 0x20001c7a
        0x0000275c:    f001fbc4    ....    BL       s_grey_drawPlane ; 0x3ee8
        0x00002760:    4945        EI      LDR      r1,[pc,#276] ; [0x2878] = 0x20001ad8
        0x00002762:    4838        8H      LDR      r0,[pc,#224] ; [0x2844] = 0x20001caa
        0x00002764:    f000ff68    ..h.    BL       s_green_drawPlane ; 0x3638
        0x00002768:    4943        CI      LDR      r1,[pc,#268] ; [0x2878] = 0x20001ad8
        0x0000276a:    4837        7H      LDR      r0,[pc,#220] ; [0x2848] = 0x20001cc6
        0x0000276c:    f7fffac4    ....    BL       m_straight_drawPlane ; 0x1cf8
        0x00002770:    4941        AI      LDR      r1,[pc,#260] ; [0x2878] = 0x20001ad8
        0x00002772:    4836        6H      LDR      r0,[pc,#216] ; [0x284c] = 0x20001cd2
        0x00002774:    f7fefc42    ..B.    BL       b_green_drawPlane ; 0xffc
        0x00002778:    493f        ?I      LDR      r1,[pc,#252] ; [0x2878] = 0x20001ad8
        0x0000277a:    483a        :H      LDR      r0,[pc,#232] ; [0x2864] = 0x20001cec
        0x0000277c:    f7fff834    ..4.    BL       enmeyBulletDraw ; 0x17e8
        0x00002780:    493d        =I      LDR      r1,[pc,#244] ; [0x2878] = 0x20001ad8
        0x00002782:    4839        9H      LDR      r0,[pc,#228] ; [0x2868] = 0x20001e88
        0x00002784:    f000fdf2    ....    BL       new_boomDraw ; 0x336c
        0x00002788:    483b        ;H      LDR      r0,[pc,#236] ; [0x2878] = 0x20001ad8
        0x0000278a:    7804        .x      LDRB     r4,[r0,#0]
        0x0000278c:    e00f        ..      B        0x27ae ; main + 1894
        0x0000278e:    2000        .       MOVS     r0,#0
        0x00002790:    23ff        .#      MOVS     r3,#0xff
        0x00002792:    22e6        ."      MOVS     r2,#0xe6
        0x00002794:    21fb        .!      MOVS     r1,#0xfb
        0x00002796:    9000        ..      STR      r0,[sp,#0]
        0x00002798:    4837        7H      LDR      r0,[pc,#220] ; [0x2878] = 0x20001ad8
        0x0000279a:    7800        .x      LDRB     r0,[r0,#0]
        0x0000279c:    f002f896    ....    BL       writeOneSprite ; 0x48cc
        0x000027a0:    4835        5H      LDR      r0,[pc,#212] ; [0x2878] = 0x20001ad8
        0x000027a2:    7800        .x      LDRB     r0,[r0,#0]
        0x000027a4:    1c40        @.      ADDS     r0,r0,#1
        0x000027a6:    4934        4I      LDR      r1,[pc,#208] ; [0x2878] = 0x20001ad8
        0x000027a8:    7008        .p      STRB     r0,[r1,#0]
        0x000027aa:    1c60        `.      ADDS     r0,r4,#1
        0x000027ac:    b2c4        ..      UXTB     r4,r0
        0x000027ae:    2c40        @,      CMP      r4,#0x40
        0x000027b0:    dbed        ..      BLT      0x278e ; main + 1862
        0x000027b2:    2000        .       MOVS     r0,#0
        0x000027b4:    491f        .I      LDR      r1,[pc,#124] ; [0x2834] = 0x20001afb
        0x000027b6:    7008        .p      STRB     r0,[r1,#0]
        0x000027b8:    e036        6.      B        0x2828 ; main + 2016
        0x000027ba:    481c        .H      LDR      r0,[pc,#112] ; [0x282c] = 0x20001af4
        0x000027bc:    7800        .x      LDRB     r0,[r0,#0]
        0x000027be:    2802        .(      CMP      r0,#2
        0x000027c0:    d132        2.      BNE      0x2828 ; main + 2016
        0x000027c2:    481b        .H      LDR      r0,[pc,#108] ; [0x2830] = 0x20001afa
        0x000027c4:    7800        .x      LDRB     r0,[r0,#0]
        0x000027c6:    2800        .(      CMP      r0,#0
        0x000027c8:    d12e        ..      BNE      0x2828 ; main + 2016
        0x000027ca:    482d        -H      LDR      r0,[pc,#180] ; [0x2880] = 0x20001ae0
        0x000027cc:    6800        .h      LDR      r0,[r0,#0]
        0x000027ce:    f7fdfdc0    ....    BL       __aeabi_ui2f ; 0x352
        0x000027d2:    4604        .F      MOV      r4,r0
        0x000027d4:    482b        +H      LDR      r0,[pc,#172] ; [0x2884] = 0x20001ae4
        0x000027d6:    6800        .h      LDR      r0,[r0,#0]
        0x000027d8:    f7fdfdbb    ....    BL       __aeabi_ui2f ; 0x352
        0x000027dc:    4605        .F      MOV      r5,r0
        0x000027de:    4621        !F      MOV      r1,r4
        0x000027e0:    f7fdfd6e    ..n.    BL       __aeabi_fdiv ; 0x2c0
        0x000027e4:    4928        (I      LDR      r1,[pc,#160] ; [0x2888] = 0x20001ae8
        0x000027e6:    6008        .`      STR      r0,[r1,#0]
        0x000027e8:    4608        .F      MOV      r0,r1
        0x000027ea:    6803        .h      LDR      r3,[r0,#0]
        0x000027ec:    4825        %H      LDR      r0,[pc,#148] ; [0x2884] = 0x20001ae4
        0x000027ee:    4927        'I      LDR      r1,[pc,#156] ; [0x288c] = 0x20001af8
        0x000027f0:    6802        .h      LDR      r2,[r0,#0]
        0x000027f2:    4827        'H      LDR      r0,[pc,#156] ; [0x2890] = 0x20001af9
        0x000027f4:    f7fefeec    ....    BL       endInterFaceDraw ; 0x15d0
        0x000027f8:    4824        $H      LDR      r0,[pc,#144] ; [0x288c] = 0x20001af8
        0x000027fa:    7800        .x      LDRB     r0,[r0,#0]
        0x000027fc:    2814        .(      CMP      r0,#0x14
        0x000027fe:    db13        ..      BLT      0x2828 ; main + 2016
        0x00002800:    f7fef844    ..D.    BL       PS2_DataKey ; 0x88c
        0x00002804:    4912        .I      LDR      r1,[pc,#72] ; [0x2850] = 0x20001af0
        0x00002806:    6008        .`      STR      r0,[r1,#0]
        0x00002808:    4608        .F      MOV      r0,r1
        0x0000280a:    6800        .h      LDR      r0,[r0,#0]
        0x0000280c:    2810        .(      CMP      r0,#0x10
        0x0000280e:    d108        ..      BNE      0x2822 ; main + 2010
        0x00002810:    2000        .       MOVS     r0,#0
        0x00002812:    4906        .I      LDR      r1,[pc,#24] ; [0x282c] = 0x20001af4
        0x00002814:    7008        .p      STRB     r0,[r1,#0]
        0x00002816:    2001        .       MOVS     r0,#1
        0x00002818:    4905        .I      LDR      r1,[pc,#20] ; [0x2830] = 0x20001afa
        0x0000281a:    7008        .p      STRB     r0,[r1,#0]
        0x0000281c:    2000        .       MOVS     r0,#0
        0x0000281e:    491b        .I      LDR      r1,[pc,#108] ; [0x288c] = 0x20001af8
        0x00002820:    7008        .p      STRB     r0,[r1,#0]
        0x00002822:    2064        d       MOVS     r0,#0x64
        0x00002824:    f7fefeba    ....    BL       delay_ms ; 0x159c
        0x00002828:    e53f        ?.      B        0x22aa ; main + 610
    $d
        0x0000282a:    0000        ..      DCW    0
        0x0000282c:    20001af4    ...     DCD    536877812
        0x00002830:    20001afa    ...     DCD    536877818
        0x00002834:    20001afb    ...     DCD    536877819
        0x00002838:    20001bf8    ...     DCD    536878072
        0x0000283c:    20001c7a    z..     DCD    536878202
        0x00002840:    50020800    ...P    DCD    1342310400
        0x00002844:    20001caa    ...     DCD    536878250
        0x00002848:    20001cc6    ...     DCD    536878278
        0x0000284c:    20001cd2    ...     DCD    536878290
        0x00002850:    20001af0    ...     DCD    536877808
        0x00002854:    20001ad6    ...     DCD    536877782
        0x00002858:    20002ff8    ./.     DCD    536883192
        0x0000285c:    20001c02    ...     DCD    536878082
        0x00002860:    20001ad7    ...     DCD    536877783
        0x00002864:    20001cec    ...     DCD    536878316
        0x00002868:    20001e88    ...     DCD    536878728
        0x0000286c:    20001d98    ...     DCD    536878488
        0x00002870:    20001e10    ...     DCD    536878608
        0x00002874:    20001af5    ...     DCD    536877813
        0x00002878:    20001ad8    ...     DCD    536877784
        0x0000287c:    20001adc    ...     DCD    536877788
        0x00002880:    20001ae0    ...     DCD    536877792
        0x00002884:    20001ae4    ...     DCD    536877796
        0x00002888:    20001ae8    ...     DCD    536877800
        0x0000288c:    20001af8    ...     DCD    536877816
        0x00002890:    20001af9    ...     DCD    536877817
    $t
    i.mem_free
    mem_free
        0x00002894:    b570        p.      PUSH     {r4-r6,lr}
        0x00002896:    4605        .F      MOV      r5,r0
        0x00002898:    4810        .H      LDR      r0,[pc,#64] ; [0x28dc] = 0x20001b08
        0x0000289a:    7c00        .|      LDRB     r0,[r0,#0x10]
        0x0000289c:    2800        .(      CMP      r0,#0
        0x0000289e:    d104        ..      BNE      0x28aa ; mem_free + 22
        0x000028a0:    490e        .I      LDR      r1,[pc,#56] ; [0x28dc] = 0x20001b08
        0x000028a2:    6808        .h      LDR      r0,[r1,#0]
        0x000028a4:    4780        .G      BLX      r0
        0x000028a6:    2001        .       MOVS     r0,#1
        0x000028a8:    bd70        p.      POP      {r4-r6,pc}
        0x000028aa:    2001        .       MOVS     r0,#1
        0x000028ac:    0300        ..      LSLS     r0,r0,#12
        0x000028ae:    4285        .B      CMP      r5,r0
        0x000028b0:    d211        ..      BCS      0x28d6 ; mem_free + 66
        0x000028b2:    0969        i.      LSRS     r1,r5,#5
        0x000028b4:    4809        .H      LDR      r0,[pc,#36] ; [0x28dc] = 0x20001b08
        0x000028b6:    68c0        .h      LDR      r0,[r0,#0xc]
        0x000028b8:    004b        K.      LSLS     r3,r1,#1
        0x000028ba:    5ac2        .Z      LDRH     r2,[r0,r3]
        0x000028bc:    2400        .$      MOVS     r4,#0
        0x000028be:    e006        ..      B        0x28ce ; mem_free + 58
        0x000028c0:    2000        .       MOVS     r0,#0
        0x000028c2:    4b06        .K      LDR      r3,[pc,#24] ; [0x28dc] = 0x20001b08
        0x000028c4:    68db        .h      LDR      r3,[r3,#0xc]
        0x000028c6:    190e        ..      ADDS     r6,r1,r4
        0x000028c8:    0076        v.      LSLS     r6,r6,#1
        0x000028ca:    5398        .S      STRH     r0,[r3,r6]
        0x000028cc:    1c64        d.      ADDS     r4,r4,#1
        0x000028ce:    4294        .B      CMP      r4,r2
        0x000028d0:    dbf6        ..      BLT      0x28c0 ; mem_free + 44
        0x000028d2:    2000        .       MOVS     r0,#0
        0x000028d4:    e7e8        ..      B        0x28a8 ; mem_free + 20
        0x000028d6:    2002        .       MOVS     r0,#2
        0x000028d8:    e7e6        ..      B        0x28a8 ; mem_free + 20
    $d
        0x000028da:    0000        ..      DCW    0
        0x000028dc:    20001b08    ...     DCD    536877832
    $t
    i.mem_init
    mem_init
        0x000028e0:    b500        ..      PUSH     {lr}
        0x000028e2:    4909        .I      LDR      r1,[pc,#36] ; [0x2908] = 0x20001b08
        0x000028e4:    22ff        ."      MOVS     r2,#0xff
        0x000028e6:    3201        .2      ADDS     r2,#1
        0x000028e8:    68c8        .h      LDR      r0,[r1,#0xc]
        0x000028ea:    2100        .!      MOVS     r1,#0
        0x000028ec:    f000fd34    ..4.    BL       mymemset ; 0x3358
        0x000028f0:    4905        .I      LDR      r1,[pc,#20] ; [0x2908] = 0x20001b08
        0x000028f2:    2201        ."      MOVS     r2,#1
        0x000028f4:    0312        ..      LSLS     r2,r2,#12
        0x000028f6:    6888        .h      LDR      r0,[r1,#8]
        0x000028f8:    2100        .!      MOVS     r1,#0
        0x000028fa:    f000fd2d    ..-.    BL       mymemset ; 0x3358
        0x000028fe:    2001        .       MOVS     r0,#1
        0x00002900:    4901        .I      LDR      r1,[pc,#4] ; [0x2908] = 0x20001b08
        0x00002902:    7408        .t      STRB     r0,[r1,#0x10]
        0x00002904:    bd00        ..      POP      {pc}
    $d
        0x00002906:    0000        ..      DCW    0
        0x00002908:    20001b08    ...     DCD    536877832
    $t
    i.mem_malloc
    mem_malloc
        0x0000290c:    b5f8        ..      PUSH     {r3-r7,lr}
        0x0000290e:    4606        .F      MOV      r6,r0
        0x00002910:    2400        .$      MOVS     r4,#0
        0x00002912:    2000        .       MOVS     r0,#0
        0x00002914:    9000        ..      STR      r0,[sp,#0]
        0x00002916:    481b        .H      LDR      r0,[pc,#108] ; [0x2984] = 0x20001b08
        0x00002918:    7c00        .|      LDRB     r0,[r0,#0x10]
        0x0000291a:    2800        .(      CMP      r0,#0
        0x0000291c:    d102        ..      BNE      0x2924 ; mem_malloc + 24
        0x0000291e:    4919        .I      LDR      r1,[pc,#100] ; [0x2984] = 0x20001b08
        0x00002920:    6808        .h      LDR      r0,[r1,#0]
        0x00002922:    4780        .G      BLX      r0
        0x00002924:    2e00        ..      CMP      r6,#0
        0x00002926:    d101        ..      BNE      0x292c ; mem_malloc + 32
        0x00002928:    1e70        p.      SUBS     r0,r6,#1
        0x0000292a:    bdf8        ..      POP      {r3-r7,pc}
        0x0000292c:    02f0        ..      LSLS     r0,r6,#11
        0x0000292e:    0c05        ..      LSRS     r5,r0,#16
        0x00002930:    06f0        ..      LSLS     r0,r6,#27
        0x00002932:    0ec0        ..      LSRS     r0,r0,#27
        0x00002934:    2800        .(      CMP      r0,#0
        0x00002936:    d001        ..      BEQ      0x293c ; mem_malloc + 48
        0x00002938:    1c68        h.      ADDS     r0,r5,#1
        0x0000293a:    b285        ..      UXTH     r5,r0
        0x0000293c:    247f        .$      MOVS     r4,#0x7f
        0x0000293e:    e01c        ..      B        0x297a ; mem_malloc + 110
        0x00002940:    4810        .H      LDR      r0,[pc,#64] ; [0x2984] = 0x20001b08
        0x00002942:    68c0        .h      LDR      r0,[r0,#0xc]
        0x00002944:    0061        a.      LSLS     r1,r4,#1
        0x00002946:    5a40        @Z      LDRH     r0,[r0,r1]
        0x00002948:    2800        .(      CMP      r0,#0
        0x0000294a:    d104        ..      BNE      0x2956 ; mem_malloc + 74
        0x0000294c:    9800        ..      LDR      r0,[sp,#0]
        0x0000294e:    1c40        @.      ADDS     r0,r0,#1
        0x00002950:    b280        ..      UXTH     r0,r0
        0x00002952:    9000        ..      STR      r0,[sp,#0]
        0x00002954:    e001        ..      B        0x295a ; mem_malloc + 78
        0x00002956:    2000        .       MOVS     r0,#0
        0x00002958:    9000        ..      STR      r0,[sp,#0]
        0x0000295a:    9800        ..      LDR      r0,[sp,#0]
        0x0000295c:    42a8        .B      CMP      r0,r5
        0x0000295e:    d10b        ..      BNE      0x2978 ; mem_malloc + 108
        0x00002960:    2700        .'      MOVS     r7,#0
        0x00002962:    e005        ..      B        0x2970 ; mem_malloc + 100
        0x00002964:    4807        .H      LDR      r0,[pc,#28] ; [0x2984] = 0x20001b08
        0x00002966:    68c0        .h      LDR      r0,[r0,#0xc]
        0x00002968:    19e1        ..      ADDS     r1,r4,r7
        0x0000296a:    0049        I.      LSLS     r1,r1,#1
        0x0000296c:    5245        ER      STRH     r5,[r0,r1]
        0x0000296e:    1c7f        ..      ADDS     r7,r7,#1
        0x00002970:    42af        .B      CMP      r7,r5
        0x00002972:    d3f7        ..      BCC      0x2964 ; mem_malloc + 88
        0x00002974:    0160        `.      LSLS     r0,r4,#5
        0x00002976:    e7d8        ..      B        0x292a ; mem_malloc + 30
        0x00002978:    1e64        d.      SUBS     r4,r4,#1
        0x0000297a:    2c00        .,      CMP      r4,#0
        0x0000297c:    dae0        ..      BGE      0x2940 ; mem_malloc + 52
        0x0000297e:    2000        .       MOVS     r0,#0
        0x00002980:    43c0        .C      MVNS     r0,r0
        0x00002982:    e7d2        ..      B        0x292a ; mem_malloc + 30
    $d
        0x00002984:    20001b08    ...     DCD    536877832
    $t
    i.mem_perused
    mem_perused
        0x00002988:    2200        ."      MOVS     r2,#0
        0x0000298a:    2100        .!      MOVS     r1,#0
        0x0000298c:    e007        ..      B        0x299e ; mem_perused + 22
        0x0000298e:    4807        .H      LDR      r0,[pc,#28] ; [0x29ac] = 0x20001b08
        0x00002990:    68c0        .h      LDR      r0,[r0,#0xc]
        0x00002992:    004b        K.      LSLS     r3,r1,#1
        0x00002994:    5ac0        .Z      LDRH     r0,[r0,r3]
        0x00002996:    2800        .(      CMP      r0,#0
        0x00002998:    d000        ..      BEQ      0x299c ; mem_perused + 20
        0x0000299a:    1c52        R.      ADDS     r2,r2,#1
        0x0000299c:    1c49        I.      ADDS     r1,r1,#1
        0x0000299e:    2980        .)      CMP      r1,#0x80
        0x000029a0:    d3f5        ..      BCC      0x298e ; mem_perused + 6
        0x000029a2:    2064        d       MOVS     r0,#0x64
        0x000029a4:    4350        PC      MULS     r0,r2,r0
        0x000029a6:    0440        @.      LSLS     r0,r0,#17
        0x000029a8:    0e00        ..      LSRS     r0,r0,#24
        0x000029aa:    4770        pG      BX       lr
    $d
        0x000029ac:    20001b08    ...     DCD    536877832
    $t
    i.myBulletsMapCreate
    myBulletsMapCreate
        0x000029b0:    b570        p.      PUSH     {r4-r6,lr}
        0x000029b2:    4605        .F      MOV      r5,r0
        0x000029b4:    460e        .F      MOV      r6,r1
        0x000029b6:    2000        .       MOVS     r0,#0
        0x000029b8:    e003        ..      B        0x29c2 ; myBulletsMapCreate + 18
        0x000029ba:    2100        .!      MOVS     r1,#0
        0x000029bc:    0082        ..      LSLS     r2,r0,#2
        0x000029be:    50b1        .P      STR      r1,[r6,r2]
        0x000029c0:    1c40        @.      ADDS     r0,r0,#1
        0x000029c2:    281e        .(      CMP      r0,#0x1e
        0x000029c4:    dbf9        ..      BLT      0x29ba ; myBulletsMapCreate + 10
        0x000029c6:    2400        .$      MOVS     r4,#0
        0x000029c8:    e012        ..      B        0x29f0 ; myBulletsMapCreate + 64
        0x000029ca:    200a        .       MOVS     r0,#0xa
        0x000029cc:    4360        `C      MULS     r0,r4,r0
        0x000029ce:    1940        @.      ADDS     r0,r0,r5
        0x000029d0:    7900        .y      LDRB     r0,[r0,#4]
        0x000029d2:    2800        .(      CMP      r0,#0
        0x000029d4:    d00b        ..      BEQ      0x29ee ; myBulletsMapCreate + 62
        0x000029d6:    220a        ."      MOVS     r2,#0xa
        0x000029d8:    4362        bC      MULS     r2,r4,r2
        0x000029da:    1952        R.      ADDS     r2,r2,r5
        0x000029dc:    8852        R.      LDRH     r2,[r2,#2]
        0x000029de:    b2d1        ..      UXTB     r1,r2
        0x000029e0:    220a        ."      MOVS     r2,#0xa
        0x000029e2:    4362        bC      MULS     r2,r4,r2
        0x000029e4:    5aaa        .Z      LDRH     r2,[r5,r2]
        0x000029e6:    b2d0        ..      UXTB     r0,r2
        0x000029e8:    4632        2F      MOV      r2,r6
        0x000029ea:    f001fe77    ..w.    BL       tileMap ; 0x46dc
        0x000029ee:    1c64        d.      ADDS     r4,r4,#1
        0x000029f0:    4802        .H      LDR      r0,[pc,#8] ; [0x29fc] = 0x48f0
        0x000029f2:    7800        .x      LDRB     r0,[r0,#0]
        0x000029f4:    4284        .B      CMP      r4,r0
        0x000029f6:    dbe8        ..      BLT      0x29ca ; myBulletsMapCreate + 26
        0x000029f8:    bd70        p.      POP      {r4-r6,pc}
    $d
        0x000029fa:    0000        ..      DCW    0
        0x000029fc:    000048f0    .H..    DCD    18672
    $t
    i.myPlane_Act
    myPlane_Act
        0x00002a00:    b570        p.      PUSH     {r4-r6,lr}
        0x00002a02:    4604        .F      MOV      r4,r0
        0x00002a04:    460d        .F      MOV      r5,r1
        0x00002a06:    79e0        .y      LDRB     r0,[r4,#7]
        0x00002a08:    2800        .(      CMP      r0,#0
        0x00002a0a:    d10d        ..      BNE      0x2a28 ; myPlane_Act + 40
        0x00002a0c:    7828        (x      LDRB     r0,[r5,#0]
        0x00002a0e:    2801        .(      CMP      r0,#1
        0x00002a10:    d12f        /.      BNE      0x2a72 ; myPlane_Act + 114
        0x00002a12:    71e0        .q      STRB     r0,[r4,#7]
        0x00002a14:    2000        .       MOVS     r0,#0
        0x00002a16:    7220         r      STRB     r0,[r4,#8]
        0x00002a18:    2001        .       MOVS     r0,#1
        0x00002a1a:    7260        `r      STRB     r0,[r4,#9]
        0x00002a1c:    2000        .       MOVS     r0,#0
        0x00002a1e:    7028        (p      STRB     r0,[r5,#0]
        0x00002a20:    2003        .       MOVS     r0,#3
        0x00002a22:    f7fdfeb9    ....    BL       LED_toggle ; 0x798
        0x00002a26:    e024        $.      B        0x2a72 ; myPlane_Act + 114
        0x00002a28:    7a20         z      LDRB     r0,[r4,#8]
        0x00002a2a:    2805        .(      CMP      r0,#5
        0x00002a2c:    d002        ..      BEQ      0x2a34 ; myPlane_Act + 52
        0x00002a2e:    7a20         z      LDRB     r0,[r4,#8]
        0x00002a30:    280a        .(      CMP      r0,#0xa
        0x00002a32:    d10b        ..      BNE      0x2a4c ; myPlane_Act + 76
        0x00002a34:    7a60        `z      LDRB     r0,[r4,#9]
        0x00002a36:    2804        .(      CMP      r0,#4
        0x00002a38:    dc04        ..      BGT      0x2a44 ; myPlane_Act + 68
        0x00002a3a:    8860        `.      LDRH     r0,[r4,#2]
        0x00002a3c:    1ec0        ..      SUBS     r0,r0,#3
        0x00002a3e:    b200        ..      SXTH     r0,r0
        0x00002a40:    8060        `.      STRH     r0,[r4,#2]
        0x00002a42:    e003        ..      B        0x2a4c ; myPlane_Act + 76
        0x00002a44:    8860        `.      LDRH     r0,[r4,#2]
        0x00002a46:    1cc0        ..      ADDS     r0,r0,#3
        0x00002a48:    b200        ..      SXTH     r0,r0
        0x00002a4a:    8060        `.      STRH     r0,[r4,#2]
        0x00002a4c:    7a20         z      LDRB     r0,[r4,#8]
        0x00002a4e:    280a        .(      CMP      r0,#0xa
        0x00002a50:    db0c        ..      BLT      0x2a6c ; myPlane_Act + 108
        0x00002a52:    2000        .       MOVS     r0,#0
        0x00002a54:    7220         r      STRB     r0,[r4,#8]
        0x00002a56:    7a60        `z      LDRB     r0,[r4,#9]
        0x00002a58:    2807        .(      CMP      r0,#7
        0x00002a5a:    db03        ..      BLT      0x2a64 ; myPlane_Act + 100
        0x00002a5c:    2000        .       MOVS     r0,#0
        0x00002a5e:    71e0        .q      STRB     r0,[r4,#7]
        0x00002a60:    7260        `r      STRB     r0,[r4,#9]
        0x00002a62:    e006        ..      B        0x2a72 ; myPlane_Act + 114
        0x00002a64:    7a60        `z      LDRB     r0,[r4,#9]
        0x00002a66:    1c40        @.      ADDS     r0,r0,#1
        0x00002a68:    7260        `r      STRB     r0,[r4,#9]
        0x00002a6a:    e002        ..      B        0x2a72 ; myPlane_Act + 114
        0x00002a6c:    7a20         z      LDRB     r0,[r4,#8]
        0x00002a6e:    1c40        @.      ADDS     r0,r0,#1
        0x00002a70:    7220         r      STRB     r0,[r4,#8]
        0x00002a72:    bd70        p.      POP      {r4-r6,pc}
    i.myPlane_Draw
    myPlane_Draw
        0x00002a74:    b503        ..      PUSH     {r0,r1,lr}
        0x00002a76:    b087        ..      SUB      sp,sp,#0x1c
        0x00002a78:    9808        ..      LDR      r0,[sp,#0x20]
        0x00002a7a:    7800        .x      LDRB     r0,[r0,#0]
        0x00002a7c:    9006        ..      STR      r0,[sp,#0x18]
        0x00002a7e:    9807        ..      LDR      r0,[sp,#0x1c]
        0x00002a80:    7900        .y      LDRB     r0,[r0,#4]
        0x00002a82:    2800        .(      CMP      r0,#0
        0x00002a84:    d070        p.      BEQ      0x2b68 ; myPlane_Draw + 244
        0x00002a86:    9807        ..      LDR      r0,[sp,#0x1c]
        0x00002a88:    7a40        @z      LDRB     r0,[r0,#9]
        0x00002a8a:    0003        ..      MOVS     r3,r0
        0x00002a8c:    f7fef8d0    ....    BL       __ARM_common_switch8 ; 0xc30
    $d
        0x00002a90:    d46d0508    ..m.    DCD    3563914504
        0x00002a94:    fafbfcfd    ....    DCD    4210818301
        0x00002a98:    f8f9        ..      DCW    63737
    $t
        0x00002a9a:    2005        .       MOVS     r0,#5
        0x00002a9c:    9005        ..      STR      r0,[sp,#0x14]
        0x00002a9e:    2030        0       MOVS     r0,#0x30
        0x00002aa0:    9000        ..      STR      r0,[sp,#0]
        0x00002aa2:    9807        ..      LDR      r0,[sp,#0x1c]
        0x00002aa4:    8840        @.      LDRH     r0,[r0,#2]
        0x00002aa6:    b2c0        ..      UXTB     r0,r0
        0x00002aa8:    9004        ..      STR      r0,[sp,#0x10]
        0x00002aaa:    9807        ..      LDR      r0,[sp,#0x1c]
        0x00002aac:    8800        ..      LDRH     r0,[r0,#0]
        0x00002aae:    b2c0        ..      UXTB     r0,r0
        0x00002ab0:    9003        ..      STR      r0,[sp,#0xc]
        0x00002ab2:    9806        ..      LDR      r0,[sp,#0x18]
        0x00002ab4:    b2c0        ..      UXTB     r0,r0
        0x00002ab6:    2333        3#      MOVS     r3,#0x33
        0x00002ab8:    9002        ..      STR      r0,[sp,#8]
        0x00002aba:    9a04        ..      LDR      r2,[sp,#0x10]
        0x00002abc:    9903        ..      LDR      r1,[sp,#0xc]
        0x00002abe:    f001ff05    ....    BL       writeOneSprite ; 0x48cc
        0x00002ac2:    2030        0       MOVS     r0,#0x30
        0x00002ac4:    9000        ..      STR      r0,[sp,#0]
        0x00002ac6:    9807        ..      LDR      r0,[sp,#0x1c]
        0x00002ac8:    8840        @.      LDRH     r0,[r0,#2]
        0x00002aca:    b2c0        ..      UXTB     r0,r0
        0x00002acc:    9004        ..      STR      r0,[sp,#0x10]
        0x00002ace:    9807        ..      LDR      r0,[sp,#0x1c]
        0x00002ad0:    8800        ..      LDRH     r0,[r0,#0]
        0x00002ad2:    3008        .0      ADDS     r0,r0,#8
        0x00002ad4:    b2c0        ..      UXTB     r0,r0
        0x00002ad6:    9003        ..      STR      r0,[sp,#0xc]
        0x00002ad8:    9806        ..      LDR      r0,[sp,#0x18]
        0x00002ada:    1c40        @.      ADDS     r0,r0,#1
        0x00002adc:    b2c0        ..      UXTB     r0,r0
        0x00002ade:    2334        4#      MOVS     r3,#0x34
        0x00002ae0:    9002        ..      STR      r0,[sp,#8]
        0x00002ae2:    9a04        ..      LDR      r2,[sp,#0x10]
        0x00002ae4:    9903        ..      LDR      r1,[sp,#0xc]
        0x00002ae6:    f001fef1    ....    BL       writeOneSprite ; 0x48cc
        0x00002aea:    2070        p       MOVS     r0,#0x70
        0x00002aec:    9000        ..      STR      r0,[sp,#0]
        0x00002aee:    9807        ..      LDR      r0,[sp,#0x1c]
        0x00002af0:    8840        @.      LDRH     r0,[r0,#2]
        0x00002af2:    b2c0        ..      UXTB     r0,r0
        0x00002af4:    9004        ..      STR      r0,[sp,#0x10]
        0x00002af6:    9807        ..      LDR      r0,[sp,#0x1c]
        0x00002af8:    8800        ..      LDRH     r0,[r0,#0]
        0x00002afa:    3010        .0      ADDS     r0,r0,#0x10
        0x00002afc:    b2c0        ..      UXTB     r0,r0
        0x00002afe:    9003        ..      STR      r0,[sp,#0xc]
        0x00002b00:    9806        ..      LDR      r0,[sp,#0x18]
        0x00002b02:    1c80        ..      ADDS     r0,r0,#2
        0x00002b04:    b2c0        ..      UXTB     r0,r0
        0x00002b06:    2333        3#      MOVS     r3,#0x33
        0x00002b08:    9002        ..      STR      r0,[sp,#8]
        0x00002b0a:    9a04        ..      LDR      r2,[sp,#0x10]
        0x00002b0c:    9903        ..      LDR      r1,[sp,#0xc]
        0x00002b0e:    f001fedd    ....    BL       writeOneSprite ; 0x48cc
        0x00002b12:    2030        0       MOVS     r0,#0x30
        0x00002b14:    9000        ..      STR      r0,[sp,#0]
        0x00002b16:    9807        ..      LDR      r0,[sp,#0x1c]
        0x00002b18:    8840        @.      LDRH     r0,[r0,#2]
        0x00002b1a:    3008        .0      ADDS     r0,r0,#8
        0x00002b1c:    b2c0        ..      UXTB     r0,r0
        0x00002b1e:    9004        ..      STR      r0,[sp,#0x10]
        0x00002b20:    9807        ..      LDR      r0,[sp,#0x1c]
        0x00002b22:    8800        ..      LDRH     r0,[r0,#0]
        0x00002b24:    1d00        ..      ADDS     r0,r0,#4
        0x00002b26:    b2c0        ..      UXTB     r0,r0
        0x00002b28:    9003        ..      STR      r0,[sp,#0xc]
        0x00002b2a:    9806        ..      LDR      r0,[sp,#0x18]
        0x00002b2c:    1cc0        ..      ADDS     r0,r0,#3
        0x00002b2e:    b2c0        ..      UXTB     r0,r0
        0x00002b30:    2335        5#      MOVS     r3,#0x35
        0x00002b32:    9002        ..      STR      r0,[sp,#8]
        0x00002b34:    9a04        ..      LDR      r2,[sp,#0x10]
        0x00002b36:    9903        ..      LDR      r1,[sp,#0xc]
        0x00002b38:    f001fec8    ....    BL       writeOneSprite ; 0x48cc
        0x00002b3c:    2030        0       MOVS     r0,#0x30
        0x00002b3e:    9000        ..      STR      r0,[sp,#0]
        0x00002b40:    9807        ..      LDR      r0,[sp,#0x1c]
        0x00002b42:    8840        @.      LDRH     r0,[r0,#2]
        0x00002b44:    3008        .0      ADDS     r0,r0,#8
        0x00002b46:    b2c0        ..      UXTB     r0,r0
        0x00002b48:    9004        ..      STR      r0,[sp,#0x10]
        0x00002b4a:    9807        ..      LDR      r0,[sp,#0x1c]
        0x00002b4c:    8800        ..      LDRH     r0,[r0,#0]
        0x00002b4e:    300c        .0      ADDS     r0,r0,#0xc
        0x00002b50:    b2c0        ..      UXTB     r0,r0
        0x00002b52:    9003        ..      STR      r0,[sp,#0xc]
        0x00002b54:    9806        ..      LDR      r0,[sp,#0x18]
        0x00002b56:    1d00        ..      ADDS     r0,r0,#4
        0x00002b58:    b2c0        ..      UXTB     r0,r0
        0x00002b5a:    2336        6#      MOVS     r3,#0x36
        0x00002b5c:    9002        ..      STR      r0,[sp,#8]
        0x00002b5e:    9a04        ..      LDR      r2,[sp,#0x10]
        0x00002b60:    9903        ..      LDR      r1,[sp,#0xc]
        0x00002b62:    f001feb3    ....    BL       writeOneSprite ; 0x48cc
        0x00002b66:    e29a        ..      B        0x309e ; myPlane_Draw + 1578
        0x00002b68:    e2a1        ..      B        0x30ae ; myPlane_Draw + 1594
        0x00002b6a:    2005        .       MOVS     r0,#5
        0x00002b6c:    9005        ..      STR      r0,[sp,#0x14]
        0x00002b6e:    2030        0       MOVS     r0,#0x30
        0x00002b70:    9000        ..      STR      r0,[sp,#0]
        0x00002b72:    9807        ..      LDR      r0,[sp,#0x1c]
        0x00002b74:    8840        @.      LDRH     r0,[r0,#2]
        0x00002b76:    b2c0        ..      UXTB     r0,r0
        0x00002b78:    9004        ..      STR      r0,[sp,#0x10]
        0x00002b7a:    9807        ..      LDR      r0,[sp,#0x1c]
        0x00002b7c:    8800        ..      LDRH     r0,[r0,#0]
        0x00002b7e:    b2c0        ..      UXTB     r0,r0
        0x00002b80:    9003        ..      STR      r0,[sp,#0xc]
        0x00002b82:    9806        ..      LDR      r0,[sp,#0x18]
        0x00002b84:    b2c0        ..      UXTB     r0,r0
        0x00002b86:    2337        7#      MOVS     r3,#0x37
        0x00002b88:    9002        ..      STR      r0,[sp,#8]
        0x00002b8a:    9a04        ..      LDR      r2,[sp,#0x10]
        0x00002b8c:    9903        ..      LDR      r1,[sp,#0xc]
        0x00002b8e:    f001fe9d    ....    BL       writeOneSprite ; 0x48cc
        0x00002b92:    2030        0       MOVS     r0,#0x30
        0x00002b94:    9000        ..      STR      r0,[sp,#0]
        0x00002b96:    9807        ..      LDR      r0,[sp,#0x1c]
        0x00002b98:    8840        @.      LDRH     r0,[r0,#2]
        0x00002b9a:    b2c0        ..      UXTB     r0,r0
        0x00002b9c:    9004        ..      STR      r0,[sp,#0x10]
        0x00002b9e:    9807        ..      LDR      r0,[sp,#0x1c]
        0x00002ba0:    8800        ..      LDRH     r0,[r0,#0]
        0x00002ba2:    3008        .0      ADDS     r0,r0,#8
        0x00002ba4:    b2c0        ..      UXTB     r0,r0
        0x00002ba6:    9003        ..      STR      r0,[sp,#0xc]
        0x00002ba8:    9806        ..      LDR      r0,[sp,#0x18]
        0x00002baa:    1c40        @.      ADDS     r0,r0,#1
        0x00002bac:    b2c0        ..      UXTB     r0,r0
        0x00002bae:    2338        8#      MOVS     r3,#0x38
        0x00002bb0:    9002        ..      STR      r0,[sp,#8]
        0x00002bb2:    9a04        ..      LDR      r2,[sp,#0x10]
        0x00002bb4:    9903        ..      LDR      r1,[sp,#0xc]
        0x00002bb6:    f001fe89    ....    BL       writeOneSprite ; 0x48cc
        0x00002bba:    2070        p       MOVS     r0,#0x70
        0x00002bbc:    9000        ..      STR      r0,[sp,#0]
        0x00002bbe:    9807        ..      LDR      r0,[sp,#0x1c]
        0x00002bc0:    8840        @.      LDRH     r0,[r0,#2]
        0x00002bc2:    b2c0        ..      UXTB     r0,r0
        0x00002bc4:    9004        ..      STR      r0,[sp,#0x10]
        0x00002bc6:    9807        ..      LDR      r0,[sp,#0x1c]
        0x00002bc8:    8800        ..      LDRH     r0,[r0,#0]
        0x00002bca:    3010        .0      ADDS     r0,r0,#0x10
        0x00002bcc:    b2c0        ..      UXTB     r0,r0
        0x00002bce:    9003        ..      STR      r0,[sp,#0xc]
        0x00002bd0:    9806        ..      LDR      r0,[sp,#0x18]
        0x00002bd2:    1c80        ..      ADDS     r0,r0,#2
        0x00002bd4:    b2c0        ..      UXTB     r0,r0
        0x00002bd6:    2337        7#      MOVS     r3,#0x37
        0x00002bd8:    9002        ..      STR      r0,[sp,#8]
        0x00002bda:    9a04        ..      LDR      r2,[sp,#0x10]
        0x00002bdc:    9903        ..      LDR      r1,[sp,#0xc]
        0x00002bde:    f001fe75    ..u.    BL       writeOneSprite ; 0x48cc
        0x00002be2:    2030        0       MOVS     r0,#0x30
        0x00002be4:    9000        ..      STR      r0,[sp,#0]
        0x00002be6:    9807        ..      LDR      r0,[sp,#0x1c]
        0x00002be8:    8840        @.      LDRH     r0,[r0,#2]
        0x00002bea:    3008        .0      ADDS     r0,r0,#8
        0x00002bec:    b2c0        ..      UXTB     r0,r0
        0x00002bee:    9004        ..      STR      r0,[sp,#0x10]
        0x00002bf0:    9807        ..      LDR      r0,[sp,#0x1c]
        0x00002bf2:    8800        ..      LDRH     r0,[r0,#0]
        0x00002bf4:    1d00        ..      ADDS     r0,r0,#4
        0x00002bf6:    b2c0        ..      UXTB     r0,r0
        0x00002bf8:    9003        ..      STR      r0,[sp,#0xc]
        0x00002bfa:    9806        ..      LDR      r0,[sp,#0x18]
        0x00002bfc:    1cc0        ..      ADDS     r0,r0,#3
        0x00002bfe:    b2c0        ..      UXTB     r0,r0
        0x00002c00:    2339        9#      MOVS     r3,#0x39
        0x00002c02:    9002        ..      STR      r0,[sp,#8]
        0x00002c04:    9a04        ..      LDR      r2,[sp,#0x10]
        0x00002c06:    9903        ..      LDR      r1,[sp,#0xc]
        0x00002c08:    f001fe60    ..`.    BL       writeOneSprite ; 0x48cc
        0x00002c0c:    2030        0       MOVS     r0,#0x30
        0x00002c0e:    9000        ..      STR      r0,[sp,#0]
        0x00002c10:    9807        ..      LDR      r0,[sp,#0x1c]
        0x00002c12:    8840        @.      LDRH     r0,[r0,#2]
        0x00002c14:    3008        .0      ADDS     r0,r0,#8
        0x00002c16:    b2c0        ..      UXTB     r0,r0
        0x00002c18:    9004        ..      STR      r0,[sp,#0x10]
        0x00002c1a:    9807        ..      LDR      r0,[sp,#0x1c]
        0x00002c1c:    8800        ..      LDRH     r0,[r0,#0]
        0x00002c1e:    300c        .0      ADDS     r0,r0,#0xc
        0x00002c20:    b2c0        ..      UXTB     r0,r0
        0x00002c22:    9003        ..      STR      r0,[sp,#0xc]
        0x00002c24:    9806        ..      LDR      r0,[sp,#0x18]
        0x00002c26:    1d00        ..      ADDS     r0,r0,#4
        0x00002c28:    b2c0        ..      UXTB     r0,r0
        0x00002c2a:    2339        9#      MOVS     r3,#0x39
        0x00002c2c:    9002        ..      STR      r0,[sp,#8]
        0x00002c2e:    9a04        ..      LDR      r2,[sp,#0x10]
        0x00002c30:    9903        ..      LDR      r1,[sp,#0xc]
        0x00002c32:    f001fe4b    ..K.    BL       writeOneSprite ; 0x48cc
        0x00002c36:    e232        2.      B        0x309e ; myPlane_Draw + 1578
        0x00002c38:    2003        .       MOVS     r0,#3
        0x00002c3a:    9005        ..      STR      r0,[sp,#0x14]
        0x00002c3c:    2030        0       MOVS     r0,#0x30
        0x00002c3e:    9000        ..      STR      r0,[sp,#0]
        0x00002c40:    9807        ..      LDR      r0,[sp,#0x1c]
        0x00002c42:    8840        @.      LDRH     r0,[r0,#2]
        0x00002c44:    b2c0        ..      UXTB     r0,r0
        0x00002c46:    9004        ..      STR      r0,[sp,#0x10]
        0x00002c48:    9807        ..      LDR      r0,[sp,#0x1c]
        0x00002c4a:    8800        ..      LDRH     r0,[r0,#0]
        0x00002c4c:    b2c0        ..      UXTB     r0,r0
        0x00002c4e:    9003        ..      STR      r0,[sp,#0xc]
        0x00002c50:    9806        ..      LDR      r0,[sp,#0x18]
        0x00002c52:    b2c0        ..      UXTB     r0,r0
        0x00002c54:    233a        :#      MOVS     r3,#0x3a
        0x00002c56:    9002        ..      STR      r0,[sp,#8]
        0x00002c58:    9a04        ..      LDR      r2,[sp,#0x10]
        0x00002c5a:    9903        ..      LDR      r1,[sp,#0xc]
        0x00002c5c:    f001fe36    ..6.    BL       writeOneSprite ; 0x48cc
        0x00002c60:    2030        0       MOVS     r0,#0x30
        0x00002c62:    9000        ..      STR      r0,[sp,#0]
        0x00002c64:    9807        ..      LDR      r0,[sp,#0x1c]
        0x00002c66:    8840        @.      LDRH     r0,[r0,#2]
        0x00002c68:    b2c0        ..      UXTB     r0,r0
        0x00002c6a:    9004        ..      STR      r0,[sp,#0x10]
        0x00002c6c:    9807        ..      LDR      r0,[sp,#0x1c]
        0x00002c6e:    8800        ..      LDRH     r0,[r0,#0]
        0x00002c70:    3008        .0      ADDS     r0,r0,#8
        0x00002c72:    b2c0        ..      UXTB     r0,r0
        0x00002c74:    9003        ..      STR      r0,[sp,#0xc]
        0x00002c76:    9806        ..      LDR      r0,[sp,#0x18]
        0x00002c78:    1c40        @.      ADDS     r0,r0,#1
        0x00002c7a:    b2c0        ..      UXTB     r0,r0
        0x00002c7c:    233b        ;#      MOVS     r3,#0x3b
        0x00002c7e:    e005        ..      B        0x2c8c ; myPlane_Draw + 536
        0x00002c80:    e20c        ..      B        0x309c ; myPlane_Draw + 1576
        0x00002c82:    e1a4        ..      B        0x2fce ; myPlane_Draw + 1370
        0x00002c84:    e166        f.      B        0x2f54 ; myPlane_Draw + 1248
        0x00002c86:    e0fe        ..      B        0x2e86 ; myPlane_Draw + 1042
        0x00002c88:    e06c        l.      B        0x2d64 ; myPlane_Draw + 752
        0x00002c8a:    e019        ..      B        0x2cc0 ; myPlane_Draw + 588
        0x00002c8c:    9002        ..      STR      r0,[sp,#8]
        0x00002c8e:    9a04        ..      LDR      r2,[sp,#0x10]
        0x00002c90:    9903        ..      LDR      r1,[sp,#0xc]
        0x00002c92:    f001fe1b    ....    BL       writeOneSprite ; 0x48cc
        0x00002c96:    2070        p       MOVS     r0,#0x70
        0x00002c98:    9000        ..      STR      r0,[sp,#0]
        0x00002c9a:    9807        ..      LDR      r0,[sp,#0x1c]
        0x00002c9c:    8840        @.      LDRH     r0,[r0,#2]
        0x00002c9e:    b2c0        ..      UXTB     r0,r0
        0x00002ca0:    9004        ..      STR      r0,[sp,#0x10]
        0x00002ca2:    9807        ..      LDR      r0,[sp,#0x1c]
        0x00002ca4:    8800        ..      LDRH     r0,[r0,#0]
        0x00002ca6:    3010        .0      ADDS     r0,r0,#0x10
        0x00002ca8:    b2c0        ..      UXTB     r0,r0
        0x00002caa:    9003        ..      STR      r0,[sp,#0xc]
        0x00002cac:    9806        ..      LDR      r0,[sp,#0x18]
        0x00002cae:    1c80        ..      ADDS     r0,r0,#2
        0x00002cb0:    b2c0        ..      UXTB     r0,r0
        0x00002cb2:    233a        :#      MOVS     r3,#0x3a
        0x00002cb4:    9002        ..      STR      r0,[sp,#8]
        0x00002cb6:    9a04        ..      LDR      r2,[sp,#0x10]
        0x00002cb8:    9903        ..      LDR      r1,[sp,#0xc]
        0x00002cba:    f001fe07    ....    BL       writeOneSprite ; 0x48cc
        0x00002cbe:    e1ee        ..      B        0x309e ; myPlane_Draw + 1578
        0x00002cc0:    2004        .       MOVS     r0,#4
        0x00002cc2:    9005        ..      STR      r0,[sp,#0x14]
        0x00002cc4:    2030        0       MOVS     r0,#0x30
        0x00002cc6:    9000        ..      STR      r0,[sp,#0]
        0x00002cc8:    9807        ..      LDR      r0,[sp,#0x1c]
        0x00002cca:    8840        @.      LDRH     r0,[r0,#2]
        0x00002ccc:    b2c0        ..      UXTB     r0,r0
        0x00002cce:    9004        ..      STR      r0,[sp,#0x10]
        0x00002cd0:    9807        ..      LDR      r0,[sp,#0x1c]
        0x00002cd2:    8800        ..      LDRH     r0,[r0,#0]
        0x00002cd4:    b2c0        ..      UXTB     r0,r0
        0x00002cd6:    9003        ..      STR      r0,[sp,#0xc]
        0x00002cd8:    9806        ..      LDR      r0,[sp,#0x18]
        0x00002cda:    b2c0        ..      UXTB     r0,r0
        0x00002cdc:    233d        =#      MOVS     r3,#0x3d
        0x00002cde:    9002        ..      STR      r0,[sp,#8]
        0x00002ce0:    9a04        ..      LDR      r2,[sp,#0x10]
        0x00002ce2:    9903        ..      LDR      r1,[sp,#0xc]
        0x00002ce4:    f001fdf2    ....    BL       writeOneSprite ; 0x48cc
        0x00002ce8:    2030        0       MOVS     r0,#0x30
        0x00002cea:    9000        ..      STR      r0,[sp,#0]
        0x00002cec:    9807        ..      LDR      r0,[sp,#0x1c]
        0x00002cee:    8840        @.      LDRH     r0,[r0,#2]
        0x00002cf0:    b2c0        ..      UXTB     r0,r0
        0x00002cf2:    9004        ..      STR      r0,[sp,#0x10]
        0x00002cf4:    9807        ..      LDR      r0,[sp,#0x1c]
        0x00002cf6:    8800        ..      LDRH     r0,[r0,#0]
        0x00002cf8:    3008        .0      ADDS     r0,r0,#8
        0x00002cfa:    b2c0        ..      UXTB     r0,r0
        0x00002cfc:    9003        ..      STR      r0,[sp,#0xc]
        0x00002cfe:    9806        ..      LDR      r0,[sp,#0x18]
        0x00002d00:    1c40        @.      ADDS     r0,r0,#1
        0x00002d02:    b2c0        ..      UXTB     r0,r0
        0x00002d04:    233e        >#      MOVS     r3,#0x3e
        0x00002d06:    9002        ..      STR      r0,[sp,#8]
        0x00002d08:    9a04        ..      LDR      r2,[sp,#0x10]
        0x00002d0a:    9903        ..      LDR      r1,[sp,#0xc]
        0x00002d0c:    f001fdde    ....    BL       writeOneSprite ; 0x48cc
        0x00002d10:    2070        p       MOVS     r0,#0x70
        0x00002d12:    9000        ..      STR      r0,[sp,#0]
        0x00002d14:    9807        ..      LDR      r0,[sp,#0x1c]
        0x00002d16:    8840        @.      LDRH     r0,[r0,#2]
        0x00002d18:    b2c0        ..      UXTB     r0,r0
        0x00002d1a:    9004        ..      STR      r0,[sp,#0x10]
        0x00002d1c:    9807        ..      LDR      r0,[sp,#0x1c]
        0x00002d1e:    8800        ..      LDRH     r0,[r0,#0]
        0x00002d20:    3010        .0      ADDS     r0,r0,#0x10
        0x00002d22:    b2c0        ..      UXTB     r0,r0
        0x00002d24:    9003        ..      STR      r0,[sp,#0xc]
        0x00002d26:    9806        ..      LDR      r0,[sp,#0x18]
        0x00002d28:    1c80        ..      ADDS     r0,r0,#2
        0x00002d2a:    b2c0        ..      UXTB     r0,r0
        0x00002d2c:    233d        =#      MOVS     r3,#0x3d
        0x00002d2e:    9002        ..      STR      r0,[sp,#8]
        0x00002d30:    9a04        ..      LDR      r2,[sp,#0x10]
        0x00002d32:    9903        ..      LDR      r1,[sp,#0xc]
        0x00002d34:    f001fdca    ....    BL       writeOneSprite ; 0x48cc
        0x00002d38:    2070        p       MOVS     r0,#0x70
        0x00002d3a:    9000        ..      STR      r0,[sp,#0]
        0x00002d3c:    9807        ..      LDR      r0,[sp,#0x1c]
        0x00002d3e:    8840        @.      LDRH     r0,[r0,#2]
        0x00002d40:    3808        .8      SUBS     r0,r0,#8
        0x00002d42:    b2c0        ..      UXTB     r0,r0
        0x00002d44:    9004        ..      STR      r0,[sp,#0x10]
        0x00002d46:    9807        ..      LDR      r0,[sp,#0x1c]
        0x00002d48:    8800        ..      LDRH     r0,[r0,#0]
        0x00002d4a:    3008        .0      ADDS     r0,r0,#8
        0x00002d4c:    b2c0        ..      UXTB     r0,r0
        0x00002d4e:    9003        ..      STR      r0,[sp,#0xc]
        0x00002d50:    9806        ..      LDR      r0,[sp,#0x18]
        0x00002d52:    1cc0        ..      ADDS     r0,r0,#3
        0x00002d54:    b2c0        ..      UXTB     r0,r0
        0x00002d56:    233c        <#      MOVS     r3,#0x3c
        0x00002d58:    9002        ..      STR      r0,[sp,#8]
        0x00002d5a:    9a04        ..      LDR      r2,[sp,#0x10]
        0x00002d5c:    9903        ..      LDR      r1,[sp,#0xc]
        0x00002d5e:    f001fdb5    ....    BL       writeOneSprite ; 0x48cc
        0x00002d62:    e19c        ..      B        0x309e ; myPlane_Draw + 1578
        0x00002d64:    2007        .       MOVS     r0,#7
        0x00002d66:    9005        ..      STR      r0,[sp,#0x14]
        0x00002d68:    2030        0       MOVS     r0,#0x30
        0x00002d6a:    9000        ..      STR      r0,[sp,#0]
        0x00002d6c:    9807        ..      LDR      r0,[sp,#0x1c]
        0x00002d6e:    8840        @.      LDRH     r0,[r0,#2]
        0x00002d70:    3810        .8      SUBS     r0,r0,#0x10
        0x00002d72:    b2c0        ..      UXTB     r0,r0
        0x00002d74:    9004        ..      STR      r0,[sp,#0x10]
        0x00002d76:    9807        ..      LDR      r0,[sp,#0x1c]
        0x00002d78:    8800        ..      LDRH     r0,[r0,#0]
        0x00002d7a:    1d00        ..      ADDS     r0,r0,#4
        0x00002d7c:    b2c0        ..      UXTB     r0,r0
        0x00002d7e:    9003        ..      STR      r0,[sp,#0xc]
        0x00002d80:    9806        ..      LDR      r0,[sp,#0x18]
        0x00002d82:    b2c0        ..      UXTB     r0,r0
        0x00002d84:    233f        ?#      MOVS     r3,#0x3f
        0x00002d86:    9002        ..      STR      r0,[sp,#8]
        0x00002d88:    9a04        ..      LDR      r2,[sp,#0x10]
        0x00002d8a:    9903        ..      LDR      r1,[sp,#0xc]
        0x00002d8c:    f001fd9e    ....    BL       writeOneSprite ; 0x48cc
        0x00002d90:    2030        0       MOVS     r0,#0x30
        0x00002d92:    9000        ..      STR      r0,[sp,#0]
        0x00002d94:    9807        ..      LDR      r0,[sp,#0x1c]
        0x00002d96:    8840        @.      LDRH     r0,[r0,#2]
        0x00002d98:    3810        .8      SUBS     r0,r0,#0x10
        0x00002d9a:    b2c0        ..      UXTB     r0,r0
        0x00002d9c:    9004        ..      STR      r0,[sp,#0x10]
        0x00002d9e:    9807        ..      LDR      r0,[sp,#0x1c]
        0x00002da0:    8800        ..      LDRH     r0,[r0,#0]
        0x00002da2:    300c        .0      ADDS     r0,r0,#0xc
        0x00002da4:    b2c0        ..      UXTB     r0,r0
        0x00002da6:    9003        ..      STR      r0,[sp,#0xc]
        0x00002da8:    9806        ..      LDR      r0,[sp,#0x18]
        0x00002daa:    1c40        @.      ADDS     r0,r0,#1
        0x00002dac:    b2c0        ..      UXTB     r0,r0
        0x00002dae:    23f0        .#      MOVS     r3,#0xf0
        0x00002db0:    9002        ..      STR      r0,[sp,#8]
        0x00002db2:    9a04        ..      LDR      r2,[sp,#0x10]
        0x00002db4:    9903        ..      LDR      r1,[sp,#0xc]
        0x00002db6:    f001fd89    ....    BL       writeOneSprite ; 0x48cc
        0x00002dba:    2030        0       MOVS     r0,#0x30
        0x00002dbc:    9000        ..      STR      r0,[sp,#0]
        0x00002dbe:    9807        ..      LDR      r0,[sp,#0x1c]
        0x00002dc0:    8840        @.      LDRH     r0,[r0,#2]
        0x00002dc2:    3808        .8      SUBS     r0,r0,#8
        0x00002dc4:    b2c0        ..      UXTB     r0,r0
        0x00002dc6:    9004        ..      STR      r0,[sp,#0x10]
        0x00002dc8:    9807        ..      LDR      r0,[sp,#0x1c]
        0x00002dca:    8800        ..      LDRH     r0,[r0,#0]
        0x00002dcc:    1d00        ..      ADDS     r0,r0,#4
        0x00002dce:    b2c0        ..      UXTB     r0,r0
        0x00002dd0:    9003        ..      STR      r0,[sp,#0xc]
        0x00002dd2:    9806        ..      LDR      r0,[sp,#0x18]
        0x00002dd4:    1c80        ..      ADDS     r0,r0,#2
        0x00002dd6:    b2c0        ..      UXTB     r0,r0
        0x00002dd8:    23f1        .#      MOVS     r3,#0xf1
        0x00002dda:    9002        ..      STR      r0,[sp,#8]
        0x00002ddc:    9a04        ..      LDR      r2,[sp,#0x10]
        0x00002dde:    9903        ..      LDR      r1,[sp,#0xc]
        0x00002de0:    f001fd74    ..t.    BL       writeOneSprite ; 0x48cc
        0x00002de4:    2030        0       MOVS     r0,#0x30
        0x00002de6:    9000        ..      STR      r0,[sp,#0]
        0x00002de8:    9807        ..      LDR      r0,[sp,#0x1c]
        0x00002dea:    8840        @.      LDRH     r0,[r0,#2]
        0x00002dec:    3808        .8      SUBS     r0,r0,#8
        0x00002dee:    b2c0        ..      UXTB     r0,r0
        0x00002df0:    9004        ..      STR      r0,[sp,#0x10]
        0x00002df2:    9807        ..      LDR      r0,[sp,#0x1c]
        0x00002df4:    8800        ..      LDRH     r0,[r0,#0]
        0x00002df6:    300c        .0      ADDS     r0,r0,#0xc
        0x00002df8:    b2c0        ..      UXTB     r0,r0
        0x00002dfa:    9003        ..      STR      r0,[sp,#0xc]
        0x00002dfc:    9806        ..      LDR      r0,[sp,#0x18]
        0x00002dfe:    1cc0        ..      ADDS     r0,r0,#3
        0x00002e00:    b2c0        ..      UXTB     r0,r0
        0x00002e02:    23f2        .#      MOVS     r3,#0xf2
        0x00002e04:    9002        ..      STR      r0,[sp,#8]
        0x00002e06:    9a04        ..      LDR      r2,[sp,#0x10]
        0x00002e08:    9903        ..      LDR      r1,[sp,#0xc]
        0x00002e0a:    f001fd5f    .._.    BL       writeOneSprite ; 0x48cc
        0x00002e0e:    2030        0       MOVS     r0,#0x30
        0x00002e10:    9000        ..      STR      r0,[sp,#0]
        0x00002e12:    9807        ..      LDR      r0,[sp,#0x1c]
        0x00002e14:    8840        @.      LDRH     r0,[r0,#2]
        0x00002e16:    b2c0        ..      UXTB     r0,r0
        0x00002e18:    9004        ..      STR      r0,[sp,#0x10]
        0x00002e1a:    9807        ..      LDR      r0,[sp,#0x1c]
        0x00002e1c:    8800        ..      LDRH     r0,[r0,#0]
        0x00002e1e:    b2c0        ..      UXTB     r0,r0
        0x00002e20:    9003        ..      STR      r0,[sp,#0xc]
        0x00002e22:    9806        ..      LDR      r0,[sp,#0x18]
        0x00002e24:    1d00        ..      ADDS     r0,r0,#4
        0x00002e26:    b2c0        ..      UXTB     r0,r0
        0x00002e28:    23f3        .#      MOVS     r3,#0xf3
        0x00002e2a:    9002        ..      STR      r0,[sp,#8]
        0x00002e2c:    9a04        ..      LDR      r2,[sp,#0x10]
        0x00002e2e:    9903        ..      LDR      r1,[sp,#0xc]
        0x00002e30:    f001fd4c    ..L.    BL       writeOneSprite ; 0x48cc
        0x00002e34:    2030        0       MOVS     r0,#0x30
        0x00002e36:    9000        ..      STR      r0,[sp,#0]
        0x00002e38:    9807        ..      LDR      r0,[sp,#0x1c]
        0x00002e3a:    8840        @.      LDRH     r0,[r0,#2]
        0x00002e3c:    b2c0        ..      UXTB     r0,r0
        0x00002e3e:    9004        ..      STR      r0,[sp,#0x10]
        0x00002e40:    9807        ..      LDR      r0,[sp,#0x1c]
        0x00002e42:    8800        ..      LDRH     r0,[r0,#0]
        0x00002e44:    3008        .0      ADDS     r0,r0,#8
        0x00002e46:    b2c0        ..      UXTB     r0,r0
        0x00002e48:    9003        ..      STR      r0,[sp,#0xc]
        0x00002e4a:    9806        ..      LDR      r0,[sp,#0x18]
        0x00002e4c:    1d40        @.      ADDS     r0,r0,#5
        0x00002e4e:    b2c0        ..      UXTB     r0,r0
        0x00002e50:    23f4        .#      MOVS     r3,#0xf4
        0x00002e52:    9002        ..      STR      r0,[sp,#8]
        0x00002e54:    9a04        ..      LDR      r2,[sp,#0x10]
        0x00002e56:    9903        ..      LDR      r1,[sp,#0xc]
        0x00002e58:    f001fd38    ..8.    BL       writeOneSprite ; 0x48cc
        0x00002e5c:    2030        0       MOVS     r0,#0x30
        0x00002e5e:    9000        ..      STR      r0,[sp,#0]
        0x00002e60:    9807        ..      LDR      r0,[sp,#0x1c]
        0x00002e62:    8840        @.      LDRH     r0,[r0,#2]
        0x00002e64:    b2c0        ..      UXTB     r0,r0
        0x00002e66:    9004        ..      STR      r0,[sp,#0x10]
        0x00002e68:    9807        ..      LDR      r0,[sp,#0x1c]
        0x00002e6a:    8800        ..      LDRH     r0,[r0,#0]
        0x00002e6c:    3010        .0      ADDS     r0,r0,#0x10
        0x00002e6e:    b2c0        ..      UXTB     r0,r0
        0x00002e70:    9003        ..      STR      r0,[sp,#0xc]
        0x00002e72:    9806        ..      LDR      r0,[sp,#0x18]
        0x00002e74:    1d80        ..      ADDS     r0,r0,#6
        0x00002e76:    b2c0        ..      UXTB     r0,r0
        0x00002e78:    23f5        .#      MOVS     r3,#0xf5
        0x00002e7a:    9002        ..      STR      r0,[sp,#8]
        0x00002e7c:    9a04        ..      LDR      r2,[sp,#0x10]
        0x00002e7e:    9903        ..      LDR      r1,[sp,#0xc]
        0x00002e80:    f001fd24    ..$.    BL       writeOneSprite ; 0x48cc
        0x00002e84:    e10b        ..      B        0x309e ; myPlane_Draw + 1578
        0x00002e86:    2006        .       MOVS     r0,#6
        0x00002e88:    9005        ..      STR      r0,[sp,#0x14]
        0x00002e8a:    2030        0       MOVS     r0,#0x30
        0x00002e8c:    9000        ..      STR      r0,[sp,#0]
        0x00002e8e:    9807        ..      LDR      r0,[sp,#0x1c]
        0x00002e90:    8840        @.      LDRH     r0,[r0,#2]
        0x00002e92:    3808        .8      SUBS     r0,r0,#8
        0x00002e94:    b2c0        ..      UXTB     r0,r0
        0x00002e96:    9004        ..      STR      r0,[sp,#0x10]
        0x00002e98:    9807        ..      LDR      r0,[sp,#0x1c]
        0x00002e9a:    8800        ..      LDRH     r0,[r0,#0]
        0x00002e9c:    1d00        ..      ADDS     r0,r0,#4
        0x00002e9e:    b2c0        ..      UXTB     r0,r0
        0x00002ea0:    9003        ..      STR      r0,[sp,#0xc]
        0x00002ea2:    9806        ..      LDR      r0,[sp,#0x18]
        0x00002ea4:    b2c0        ..      UXTB     r0,r0
        0x00002ea6:    23f6        .#      MOVS     r3,#0xf6
        0x00002ea8:    9002        ..      STR      r0,[sp,#8]
        0x00002eaa:    9a04        ..      LDR      r2,[sp,#0x10]
        0x00002eac:    9903        ..      LDR      r1,[sp,#0xc]
        0x00002eae:    f001fd0d    ....    BL       writeOneSprite ; 0x48cc
        0x00002eb2:    2070        p       MOVS     r0,#0x70
        0x00002eb4:    9000        ..      STR      r0,[sp,#0]
        0x00002eb6:    9807        ..      LDR      r0,[sp,#0x1c]
        0x00002eb8:    8840        @.      LDRH     r0,[r0,#2]
        0x00002eba:    3808        .8      SUBS     r0,r0,#8
        0x00002ebc:    b2c0        ..      UXTB     r0,r0
        0x00002ebe:    9004        ..      STR      r0,[sp,#0x10]
        0x00002ec0:    9807        ..      LDR      r0,[sp,#0x1c]
        0x00002ec2:    8800        ..      LDRH     r0,[r0,#0]
        0x00002ec4:    300c        .0      ADDS     r0,r0,#0xc
        0x00002ec6:    b2c0        ..      UXTB     r0,r0
        0x00002ec8:    9003        ..      STR      r0,[sp,#0xc]
        0x00002eca:    9806        ..      LDR      r0,[sp,#0x18]
        0x00002ecc:    1c40        @.      ADDS     r0,r0,#1
        0x00002ece:    b2c0        ..      UXTB     r0,r0
        0x00002ed0:    23f6        .#      MOVS     r3,#0xf6
        0x00002ed2:    9002        ..      STR      r0,[sp,#8]
        0x00002ed4:    9a04        ..      LDR      r2,[sp,#0x10]
        0x00002ed6:    9903        ..      LDR      r1,[sp,#0xc]
        0x00002ed8:    f001fcf8    ....    BL       writeOneSprite ; 0x48cc
        0x00002edc:    2030        0       MOVS     r0,#0x30
        0x00002ede:    9000        ..      STR      r0,[sp,#0]
        0x00002ee0:    9807        ..      LDR      r0,[sp,#0x1c]
        0x00002ee2:    8840        @.      LDRH     r0,[r0,#2]
        0x00002ee4:    b2c0        ..      UXTB     r0,r0
        0x00002ee6:    9004        ..      STR      r0,[sp,#0x10]
        0x00002ee8:    9807        ..      LDR      r0,[sp,#0x1c]
        0x00002eea:    8800        ..      LDRH     r0,[r0,#0]
        0x00002eec:    b2c0        ..      UXTB     r0,r0
        0x00002eee:    9003        ..      STR      r0,[sp,#0xc]
        0x00002ef0:    9806        ..      LDR      r0,[sp,#0x18]
        0x00002ef2:    1c80        ..      ADDS     r0,r0,#2
        0x00002ef4:    b2c0        ..      UXTB     r0,r0
        0x00002ef6:    23f7        .#      MOVS     r3,#0xf7
        0x00002ef8:    9002        ..      STR      r0,[sp,#8]
        0x00002efa:    9a04        ..      LDR      r2,[sp,#0x10]
        0x00002efc:    9903        ..      LDR      r1,[sp,#0xc]
        0x00002efe:    f001fce5    ....    BL       writeOneSprite ; 0x48cc
        0x00002f02:    2030        0       MOVS     r0,#0x30
        0x00002f04:    9000        ..      STR      r0,[sp,#0]
        0x00002f06:    9807        ..      LDR      r0,[sp,#0x1c]
        0x00002f08:    8840        @.      LDRH     r0,[r0,#2]
        0x00002f0a:    b2c0        ..      UXTB     r0,r0
        0x00002f0c:    9004        ..      STR      r0,[sp,#0x10]
        0x00002f0e:    9807        ..      LDR      r0,[sp,#0x1c]
        0x00002f10:    8800        ..      LDRH     r0,[r0,#0]
        0x00002f12:    3008        .0      ADDS     r0,r0,#8
        0x00002f14:    b2c0        ..      UXTB     r0,r0
        0x00002f16:    9003        ..      STR      r0,[sp,#0xc]
        0x00002f18:    9806        ..      LDR      r0,[sp,#0x18]
        0x00002f1a:    1cc0        ..      ADDS     r0,r0,#3
        0x00002f1c:    b2c0        ..      UXTB     r0,r0
        0x00002f1e:    23f8        .#      MOVS     r3,#0xf8
        0x00002f20:    9002        ..      STR      r0,[sp,#8]
        0x00002f22:    9a04        ..      LDR      r2,[sp,#0x10]
        0x00002f24:    9903        ..      LDR      r1,[sp,#0xc]
        0x00002f26:    f001fcd1    ....    BL       writeOneSprite ; 0x48cc
        0x00002f2a:    2070        p       MOVS     r0,#0x70
        0x00002f2c:    9000        ..      STR      r0,[sp,#0]
        0x00002f2e:    9807        ..      LDR      r0,[sp,#0x1c]
        0x00002f30:    8840        @.      LDRH     r0,[r0,#2]
        0x00002f32:    b2c0        ..      UXTB     r0,r0
        0x00002f34:    9004        ..      STR      r0,[sp,#0x10]
        0x00002f36:    9807        ..      LDR      r0,[sp,#0x1c]
        0x00002f38:    8800        ..      LDRH     r0,[r0,#0]
        0x00002f3a:    3010        .0      ADDS     r0,r0,#0x10
        0x00002f3c:    b2c0        ..      UXTB     r0,r0
        0x00002f3e:    9003        ..      STR      r0,[sp,#0xc]
        0x00002f40:    9806        ..      LDR      r0,[sp,#0x18]
        0x00002f42:    1d00        ..      ADDS     r0,r0,#4
        0x00002f44:    b2c0        ..      UXTB     r0,r0
        0x00002f46:    23f7        .#      MOVS     r3,#0xf7
        0x00002f48:    9002        ..      STR      r0,[sp,#8]
        0x00002f4a:    9a04        ..      LDR      r2,[sp,#0x10]
        0x00002f4c:    9903        ..      LDR      r1,[sp,#0xc]
        0x00002f4e:    f001fcbd    ....    BL       writeOneSprite ; 0x48cc
        0x00002f52:    e0a4        ..      B        0x309e ; myPlane_Draw + 1578
        0x00002f54:    2003        .       MOVS     r0,#3
        0x00002f56:    9005        ..      STR      r0,[sp,#0x14]
        0x00002f58:    2030        0       MOVS     r0,#0x30
        0x00002f5a:    9000        ..      STR      r0,[sp,#0]
        0x00002f5c:    9807        ..      LDR      r0,[sp,#0x1c]
        0x00002f5e:    8840        @.      LDRH     r0,[r0,#2]
        0x00002f60:    b2c0        ..      UXTB     r0,r0
        0x00002f62:    9004        ..      STR      r0,[sp,#0x10]
        0x00002f64:    9807        ..      LDR      r0,[sp,#0x1c]
        0x00002f66:    8800        ..      LDRH     r0,[r0,#0]
        0x00002f68:    b2c0        ..      UXTB     r0,r0
        0x00002f6a:    9003        ..      STR      r0,[sp,#0xc]
        0x00002f6c:    9806        ..      LDR      r0,[sp,#0x18]
        0x00002f6e:    b2c0        ..      UXTB     r0,r0
        0x00002f70:    233a        :#      MOVS     r3,#0x3a
        0x00002f72:    9002        ..      STR      r0,[sp,#8]
        0x00002f74:    9a04        ..      LDR      r2,[sp,#0x10]
        0x00002f76:    9903        ..      LDR      r1,[sp,#0xc]
        0x00002f78:    f001fca8    ....    BL       writeOneSprite ; 0x48cc
        0x00002f7c:    2030        0       MOVS     r0,#0x30
        0x00002f7e:    9000        ..      STR      r0,[sp,#0]
        0x00002f80:    9807        ..      LDR      r0,[sp,#0x1c]
        0x00002f82:    8840        @.      LDRH     r0,[r0,#2]
        0x00002f84:    b2c0        ..      UXTB     r0,r0
        0x00002f86:    9004        ..      STR      r0,[sp,#0x10]
        0x00002f88:    9807        ..      LDR      r0,[sp,#0x1c]
        0x00002f8a:    8800        ..      LDRH     r0,[r0,#0]
        0x00002f8c:    3008        .0      ADDS     r0,r0,#8
        0x00002f8e:    b2c0        ..      UXTB     r0,r0
        0x00002f90:    9003        ..      STR      r0,[sp,#0xc]
        0x00002f92:    9806        ..      LDR      r0,[sp,#0x18]
        0x00002f94:    1c40        @.      ADDS     r0,r0,#1
        0x00002f96:    b2c0        ..      UXTB     r0,r0
        0x00002f98:    233b        ;#      MOVS     r3,#0x3b
        0x00002f9a:    9002        ..      STR      r0,[sp,#8]
        0x00002f9c:    9a04        ..      LDR      r2,[sp,#0x10]
        0x00002f9e:    9903        ..      LDR      r1,[sp,#0xc]
        0x00002fa0:    f001fc94    ....    BL       writeOneSprite ; 0x48cc
        0x00002fa4:    2070        p       MOVS     r0,#0x70
        0x00002fa6:    9000        ..      STR      r0,[sp,#0]
        0x00002fa8:    9807        ..      LDR      r0,[sp,#0x1c]
        0x00002faa:    8840        @.      LDRH     r0,[r0,#2]
        0x00002fac:    b2c0        ..      UXTB     r0,r0
        0x00002fae:    9004        ..      STR      r0,[sp,#0x10]
        0x00002fb0:    9807        ..      LDR      r0,[sp,#0x1c]
        0x00002fb2:    8800        ..      LDRH     r0,[r0,#0]
        0x00002fb4:    3010        .0      ADDS     r0,r0,#0x10
        0x00002fb6:    b2c0        ..      UXTB     r0,r0
        0x00002fb8:    9003        ..      STR      r0,[sp,#0xc]
        0x00002fba:    9806        ..      LDR      r0,[sp,#0x18]
        0x00002fbc:    1c80        ..      ADDS     r0,r0,#2
        0x00002fbe:    b2c0        ..      UXTB     r0,r0
        0x00002fc0:    233a        :#      MOVS     r3,#0x3a
        0x00002fc2:    9002        ..      STR      r0,[sp,#8]
        0x00002fc4:    9a04        ..      LDR      r2,[sp,#0x10]
        0x00002fc6:    9903        ..      LDR      r1,[sp,#0xc]
        0x00002fc8:    f001fc80    ....    BL       writeOneSprite ; 0x48cc
        0x00002fcc:    e067        g.      B        0x309e ; myPlane_Draw + 1578
        0x00002fce:    2005        .       MOVS     r0,#5
        0x00002fd0:    9005        ..      STR      r0,[sp,#0x14]
        0x00002fd2:    2030        0       MOVS     r0,#0x30
        0x00002fd4:    9000        ..      STR      r0,[sp,#0]
        0x00002fd6:    9807        ..      LDR      r0,[sp,#0x1c]
        0x00002fd8:    8840        @.      LDRH     r0,[r0,#2]
        0x00002fda:    b2c0        ..      UXTB     r0,r0
        0x00002fdc:    9004        ..      STR      r0,[sp,#0x10]
        0x00002fde:    9807        ..      LDR      r0,[sp,#0x1c]
        0x00002fe0:    8800        ..      LDRH     r0,[r0,#0]
        0x00002fe2:    b2c0        ..      UXTB     r0,r0
        0x00002fe4:    9003        ..      STR      r0,[sp,#0xc]
        0x00002fe6:    9806        ..      LDR      r0,[sp,#0x18]
        0x00002fe8:    b2c0        ..      UXTB     r0,r0
        0x00002fea:    2333        3#      MOVS     r3,#0x33
        0x00002fec:    9002        ..      STR      r0,[sp,#8]
        0x00002fee:    9a04        ..      LDR      r2,[sp,#0x10]
        0x00002ff0:    9903        ..      LDR      r1,[sp,#0xc]
        0x00002ff2:    f001fc6b    ..k.    BL       writeOneSprite ; 0x48cc
        0x00002ff6:    2030        0       MOVS     r0,#0x30
        0x00002ff8:    9000        ..      STR      r0,[sp,#0]
        0x00002ffa:    9807        ..      LDR      r0,[sp,#0x1c]
        0x00002ffc:    8840        @.      LDRH     r0,[r0,#2]
        0x00002ffe:    b2c0        ..      UXTB     r0,r0
        0x00003000:    9004        ..      STR      r0,[sp,#0x10]
        0x00003002:    9807        ..      LDR      r0,[sp,#0x1c]
        0x00003004:    8800        ..      LDRH     r0,[r0,#0]
        0x00003006:    3008        .0      ADDS     r0,r0,#8
        0x00003008:    b2c0        ..      UXTB     r0,r0
        0x0000300a:    9003        ..      STR      r0,[sp,#0xc]
        0x0000300c:    9806        ..      LDR      r0,[sp,#0x18]
        0x0000300e:    1c40        @.      ADDS     r0,r0,#1
        0x00003010:    b2c0        ..      UXTB     r0,r0
        0x00003012:    2334        4#      MOVS     r3,#0x34
        0x00003014:    9002        ..      STR      r0,[sp,#8]
        0x00003016:    9a04        ..      LDR      r2,[sp,#0x10]
        0x00003018:    9903        ..      LDR      r1,[sp,#0xc]
        0x0000301a:    f001fc57    ..W.    BL       writeOneSprite ; 0x48cc
        0x0000301e:    2070        p       MOVS     r0,#0x70
        0x00003020:    9000        ..      STR      r0,[sp,#0]
        0x00003022:    9807        ..      LDR      r0,[sp,#0x1c]
        0x00003024:    8840        @.      LDRH     r0,[r0,#2]
        0x00003026:    b2c0        ..      UXTB     r0,r0
        0x00003028:    9004        ..      STR      r0,[sp,#0x10]
        0x0000302a:    9807        ..      LDR      r0,[sp,#0x1c]
        0x0000302c:    8800        ..      LDRH     r0,[r0,#0]
        0x0000302e:    3010        .0      ADDS     r0,r0,#0x10
        0x00003030:    b2c0        ..      UXTB     r0,r0
        0x00003032:    9003        ..      STR      r0,[sp,#0xc]
        0x00003034:    9806        ..      LDR      r0,[sp,#0x18]
        0x00003036:    1c80        ..      ADDS     r0,r0,#2
        0x00003038:    b2c0        ..      UXTB     r0,r0
        0x0000303a:    2333        3#      MOVS     r3,#0x33
        0x0000303c:    9002        ..      STR      r0,[sp,#8]
        0x0000303e:    9a04        ..      LDR      r2,[sp,#0x10]
        0x00003040:    9903        ..      LDR      r1,[sp,#0xc]
        0x00003042:    f001fc43    ..C.    BL       writeOneSprite ; 0x48cc
        0x00003046:    2030        0       MOVS     r0,#0x30
        0x00003048:    9000        ..      STR      r0,[sp,#0]
        0x0000304a:    9807        ..      LDR      r0,[sp,#0x1c]
        0x0000304c:    8840        @.      LDRH     r0,[r0,#2]
        0x0000304e:    3008        .0      ADDS     r0,r0,#8
        0x00003050:    b2c0        ..      UXTB     r0,r0
        0x00003052:    9004        ..      STR      r0,[sp,#0x10]
        0x00003054:    9807        ..      LDR      r0,[sp,#0x1c]
        0x00003056:    8800        ..      LDRH     r0,[r0,#0]
        0x00003058:    1d00        ..      ADDS     r0,r0,#4
        0x0000305a:    b2c0        ..      UXTB     r0,r0
        0x0000305c:    9003        ..      STR      r0,[sp,#0xc]
        0x0000305e:    9806        ..      LDR      r0,[sp,#0x18]
        0x00003060:    1cc0        ..      ADDS     r0,r0,#3
        0x00003062:    b2c0        ..      UXTB     r0,r0
        0x00003064:    2335        5#      MOVS     r3,#0x35
        0x00003066:    9002        ..      STR      r0,[sp,#8]
        0x00003068:    9a04        ..      LDR      r2,[sp,#0x10]
        0x0000306a:    9903        ..      LDR      r1,[sp,#0xc]
        0x0000306c:    f001fc2e    ....    BL       writeOneSprite ; 0x48cc
        0x00003070:    2030        0       MOVS     r0,#0x30
        0x00003072:    9000        ..      STR      r0,[sp,#0]
        0x00003074:    9807        ..      LDR      r0,[sp,#0x1c]
        0x00003076:    8840        @.      LDRH     r0,[r0,#2]
        0x00003078:    3008        .0      ADDS     r0,r0,#8
        0x0000307a:    b2c0        ..      UXTB     r0,r0
        0x0000307c:    9004        ..      STR      r0,[sp,#0x10]
        0x0000307e:    9807        ..      LDR      r0,[sp,#0x1c]
        0x00003080:    8800        ..      LDRH     r0,[r0,#0]
        0x00003082:    300c        .0      ADDS     r0,r0,#0xc
        0x00003084:    b2c0        ..      UXTB     r0,r0
        0x00003086:    9003        ..      STR      r0,[sp,#0xc]
        0x00003088:    9806        ..      LDR      r0,[sp,#0x18]
        0x0000308a:    1d00        ..      ADDS     r0,r0,#4
        0x0000308c:    b2c0        ..      UXTB     r0,r0
        0x0000308e:    2336        6#      MOVS     r3,#0x36
        0x00003090:    9002        ..      STR      r0,[sp,#8]
        0x00003092:    9a04        ..      LDR      r2,[sp,#0x10]
        0x00003094:    9903        ..      LDR      r1,[sp,#0xc]
        0x00003096:    f001fc19    ....    BL       writeOneSprite ; 0x48cc
        0x0000309a:    e000        ..      B        0x309e ; myPlane_Draw + 1578
        0x0000309c:    bf00        ..      NOP      
        0x0000309e:    bf00        ..      NOP      
        0x000030a0:    9808        ..      LDR      r0,[sp,#0x20]
        0x000030a2:    7801        .x      LDRB     r1,[r0,#0]
        0x000030a4:    9805        ..      LDR      r0,[sp,#0x14]
        0x000030a6:    1808        ..      ADDS     r0,r1,r0
        0x000030a8:    b2c1        ..      UXTB     r1,r0
        0x000030aa:    9808        ..      LDR      r0,[sp,#0x20]
        0x000030ac:    7001        .p      STRB     r1,[r0,#0]
        0x000030ae:    b009        ..      ADD      sp,sp,#0x24
        0x000030b0:    bd00        ..      POP      {pc}
    i.myPlane_Init
    myPlane_Init
        0x000030b2:    2178        x!      MOVS     r1,#0x78
        0x000030b4:    8001        ..      STRH     r1,[r0,#0]
        0x000030b6:    21b4        .!      MOVS     r1,#0xb4
        0x000030b8:    8041        A.      STRH     r1,[r0,#2]
        0x000030ba:    2101        .!      MOVS     r1,#1
        0x000030bc:    7101        .q      STRB     r1,[r0,#4]
        0x000030be:    2100        .!      MOVS     r1,#0
        0x000030c0:    71c1        .q      STRB     r1,[r0,#7]
        0x000030c2:    7201        .r      STRB     r1,[r0,#8]
        0x000030c4:    7241        Ar      STRB     r1,[r0,#9]
        0x000030c6:    2101        .!      MOVS     r1,#1
        0x000030c8:    7181        .q      STRB     r1,[r0,#6]
        0x000030ca:    7141        Aq      STRB     r1,[r0,#5]
        0x000030cc:    4770        pG      BX       lr
        0x000030ce:    0000        ..      MOVS     r0,r0
    i.myPlane_bulletDraw
    myPlane_bulletDraw
        0x000030d0:    b5f8        ..      PUSH     {r3-r7,lr}
        0x000030d2:    4605        .F      MOV      r5,r0
        0x000030d4:    460e        .F      MOV      r6,r1
        0x000030d6:    2400        .$      MOVS     r4,#0
        0x000030d8:    e018        ..      B        0x310c ; myPlane_bulletDraw + 60
        0x000030da:    200a        .       MOVS     r0,#0xa
        0x000030dc:    4360        `C      MULS     r0,r4,r0
        0x000030de:    1940        @.      ADDS     r0,r0,r5
        0x000030e0:    7900        .y      LDRB     r0,[r0,#4]
        0x000030e2:    2800        .(      CMP      r0,#0
        0x000030e4:    d011        ..      BEQ      0x310a ; myPlane_bulletDraw + 58
        0x000030e6:    2010        .       MOVS     r0,#0x10
        0x000030e8:    230a        .#      MOVS     r3,#0xa
        0x000030ea:    4363        cC      MULS     r3,r4,r3
        0x000030ec:    195b        [.      ADDS     r3,r3,r5
        0x000030ee:    9000        ..      STR      r0,[sp,#0]
        0x000030f0:    885b        [.      LDRH     r3,[r3,#2]
        0x000030f2:    b2da        ..      UXTB     r2,r3
        0x000030f4:    230a        .#      MOVS     r3,#0xa
        0x000030f6:    4363        cC      MULS     r3,r4,r3
        0x000030f8:    5aeb        .Z      LDRH     r3,[r5,r3]
        0x000030fa:    b2d9        ..      UXTB     r1,r3
        0x000030fc:    7830        0x      LDRB     r0,[r6,#0]
        0x000030fe:    2331        1#      MOVS     r3,#0x31
        0x00003100:    f001fbe4    ....    BL       writeOneSprite ; 0x48cc
        0x00003104:    7830        0x      LDRB     r0,[r6,#0]
        0x00003106:    1c40        @.      ADDS     r0,r0,#1
        0x00003108:    7030        0p      STRB     r0,[r6,#0]
        0x0000310a:    1c64        d.      ADDS     r4,r4,#1
        0x0000310c:    4802        .H      LDR      r0,[pc,#8] ; [0x3118] = 0x48f0
        0x0000310e:    7800        .x      LDRB     r0,[r0,#0]
        0x00003110:    4284        .B      CMP      r4,r0
        0x00003112:    dbe2        ..      BLT      0x30da ; myPlane_bulletDraw + 10
        0x00003114:    bdf8        ..      POP      {r3-r7,pc}
    $d
        0x00003116:    0000        ..      DCW    0
        0x00003118:    000048f0    .H..    DCD    18672
    $t
    i.myPlane_bulletInit
    myPlane_bulletInit
        0x0000311c:    4601        .F      MOV      r1,r0
        0x0000311e:    2000        .       MOVS     r0,#0
        0x00003120:    e005        ..      B        0x312e ; myPlane_bulletInit + 18
        0x00003122:    2300        .#      MOVS     r3,#0
        0x00003124:    220a        ."      MOVS     r2,#0xa
        0x00003126:    4342        BC      MULS     r2,r0,r2
        0x00003128:    1852        R.      ADDS     r2,r2,r1
        0x0000312a:    7113        .q      STRB     r3,[r2,#4]
        0x0000312c:    1c40        @.      ADDS     r0,r0,#1
        0x0000312e:    4a02        .J      LDR      r2,[pc,#8] ; [0x3138] = 0x48f0
        0x00003130:    7812        .x      LDRB     r2,[r2,#0]
        0x00003132:    4290        .B      CMP      r0,r2
        0x00003134:    dbf5        ..      BLT      0x3122 ; myPlane_bulletInit + 6
        0x00003136:    4770        pG      BX       lr
    $d
        0x00003138:    000048f0    .H..    DCD    18672
    $t
    i.myPlane_createOneBullet
    myPlane_createOneBullet
        0x0000313c:    b510        ..      PUSH     {r4,lr}
        0x0000313e:    7902        .y      LDRB     r2,[r0,#4]
        0x00003140:    2a00        .*      CMP      r2,#0
        0x00003142:    d020         .      BEQ      0x3186 ; myPlane_createOneBullet + 74
        0x00003144:    7982        .y      LDRB     r2,[r0,#6]
        0x00003146:    2a00        .*      CMP      r2,#0
        0x00003148:    d11e        ..      BNE      0x3188 ; myPlane_createOneBullet + 76
        0x0000314a:    bf00        ..      NOP      
        0x0000314c:    e019        ..      B        0x3182 ; myPlane_createOneBullet + 70
        0x0000314e:    230a        .#      MOVS     r3,#0xa
        0x00003150:    4353        SC      MULS     r3,r2,r3
        0x00003152:    185b        [.      ADDS     r3,r3,r1
        0x00003154:    791b        .y      LDRB     r3,[r3,#4]
        0x00003156:    2b00        .+      CMP      r3,#0
        0x00003158:    d112        ..      BNE      0x3180 ; myPlane_createOneBullet + 68
        0x0000315a:    8803        ..      LDRH     r3,[r0,#0]
        0x0000315c:    3308        .3      ADDS     r3,r3,#8
        0x0000315e:    b21c        ..      SXTH     r4,r3
        0x00003160:    230a        .#      MOVS     r3,#0xa
        0x00003162:    4353        SC      MULS     r3,r2,r3
        0x00003164:    52cc        .R      STRH     r4,[r1,r3]
        0x00003166:    8843        C.      LDRH     r3,[r0,#2]
        0x00003168:    3b08        .;      SUBS     r3,r3,#8
        0x0000316a:    b21c        ..      SXTH     r4,r3
        0x0000316c:    230a        .#      MOVS     r3,#0xa
        0x0000316e:    4353        SC      MULS     r3,r2,r3
        0x00003170:    185b        [.      ADDS     r3,r3,r1
        0x00003172:    805c        \.      STRH     r4,[r3,#2]
        0x00003174:    2401        .$      MOVS     r4,#1
        0x00003176:    230a        .#      MOVS     r3,#0xa
        0x00003178:    4353        SC      MULS     r3,r2,r3
        0x0000317a:    185b        [.      ADDS     r3,r3,r1
        0x0000317c:    711c        .q      STRB     r4,[r3,#4]
        0x0000317e:    e002        ..      B        0x3186 ; myPlane_createOneBullet + 74
        0x00003180:    1c52        R.      ADDS     r2,r2,#1
        0x00003182:    2a04        .*      CMP      r2,#4
        0x00003184:    dbe3        ..      BLT      0x314e ; myPlane_createOneBullet + 18
        0x00003186:    e09e        ..      B        0x32c6 ; myPlane_createOneBullet + 394
        0x00003188:    7982        .y      LDRB     r2,[r0,#6]
        0x0000318a:    2a01        .*      CMP      r2,#1
        0x0000318c:    d137        7.      BNE      0x31fe ; myPlane_createOneBullet + 194
        0x0000318e:    2200        ."      MOVS     r2,#0
        0x00003190:    e032        2.      B        0x31f8 ; myPlane_createOneBullet + 188
        0x00003192:    230a        .#      MOVS     r3,#0xa
        0x00003194:    4353        SC      MULS     r3,r2,r3
        0x00003196:    185b        [.      ADDS     r3,r3,r1
        0x00003198:    791b        .y      LDRB     r3,[r3,#4]
        0x0000319a:    2b00        .+      CMP      r3,#0
        0x0000319c:    d12b        +.      BNE      0x31f6 ; myPlane_createOneBullet + 186
        0x0000319e:    230a        .#      MOVS     r3,#0xa
        0x000031a0:    4353        SC      MULS     r3,r2,r3
        0x000031a2:    185b        [.      ADDS     r3,r3,r1
        0x000031a4:    7b9b        .{      LDRB     r3,[r3,#0xe]
        0x000031a6:    2b00        .+      CMP      r3,#0
        0x000031a8:    d125        %.      BNE      0x31f6 ; myPlane_createOneBullet + 186
        0x000031aa:    8803        ..      LDRH     r3,[r0,#0]
        0x000031ac:    1d1b        ..      ADDS     r3,r3,#4
        0x000031ae:    b21c        ..      SXTH     r4,r3
        0x000031b0:    230a        .#      MOVS     r3,#0xa
        0x000031b2:    4353        SC      MULS     r3,r2,r3
        0x000031b4:    52cc        .R      STRH     r4,[r1,r3]
        0x000031b6:    8843        C.      LDRH     r3,[r0,#2]
        0x000031b8:    3b08        .;      SUBS     r3,r3,#8
        0x000031ba:    b21c        ..      SXTH     r4,r3
        0x000031bc:    230a        .#      MOVS     r3,#0xa
        0x000031be:    4353        SC      MULS     r3,r2,r3
        0x000031c0:    185b        [.      ADDS     r3,r3,r1
        0x000031c2:    805c        \.      STRH     r4,[r3,#2]
        0x000031c4:    2401        .$      MOVS     r4,#1
        0x000031c6:    230a        .#      MOVS     r3,#0xa
        0x000031c8:    4353        SC      MULS     r3,r2,r3
        0x000031ca:    185b        [.      ADDS     r3,r3,r1
        0x000031cc:    711c        .q      STRB     r4,[r3,#4]
        0x000031ce:    8803        ..      LDRH     r3,[r0,#0]
        0x000031d0:    330c        .3      ADDS     r3,r3,#0xc
        0x000031d2:    b21c        ..      SXTH     r4,r3
        0x000031d4:    230a        .#      MOVS     r3,#0xa
        0x000031d6:    4353        SC      MULS     r3,r2,r3
        0x000031d8:    185b        [.      ADDS     r3,r3,r1
        0x000031da:    815c        \.      STRH     r4,[r3,#0xa]
        0x000031dc:    8843        C.      LDRH     r3,[r0,#2]
        0x000031de:    3b08        .;      SUBS     r3,r3,#8
        0x000031e0:    b21c        ..      SXTH     r4,r3
        0x000031e2:    230a        .#      MOVS     r3,#0xa
        0x000031e4:    4353        SC      MULS     r3,r2,r3
        0x000031e6:    185b        [.      ADDS     r3,r3,r1
        0x000031e8:    819c        ..      STRH     r4,[r3,#0xc]
        0x000031ea:    2401        .$      MOVS     r4,#1
        0x000031ec:    230a        .#      MOVS     r3,#0xa
        0x000031ee:    4353        SC      MULS     r3,r2,r3
        0x000031f0:    185b        [.      ADDS     r3,r3,r1
        0x000031f2:    739c        .s      STRB     r4,[r3,#0xe]
        0x000031f4:    e002        ..      B        0x31fc ; myPlane_createOneBullet + 192
        0x000031f6:    1c52        R.      ADDS     r2,r2,#1
        0x000031f8:    2a08        .*      CMP      r2,#8
        0x000031fa:    dbca        ..      BLT      0x3192 ; myPlane_createOneBullet + 86
        0x000031fc:    e063        c.      B        0x32c6 ; myPlane_createOneBullet + 394
        0x000031fe:    7982        .y      LDRB     r2,[r0,#6]
        0x00003200:    2a02        .*      CMP      r2,#2
        0x00003202:    d160        `.      BNE      0x32c6 ; myPlane_createOneBullet + 394
        0x00003204:    2200        ."      MOVS     r2,#0
        0x00003206:    e05b        [.      B        0x32c0 ; myPlane_createOneBullet + 388
        0x00003208:    790b        .y      LDRB     r3,[r1,#4]
        0x0000320a:    2b00        .+      CMP      r3,#0
        0x0000320c:    d157        W.      BNE      0x32be ; myPlane_createOneBullet + 386
        0x0000320e:    230a        .#      MOVS     r3,#0xa
        0x00003210:    4353        SC      MULS     r3,r2,r3
        0x00003212:    185b        [.      ADDS     r3,r3,r1
        0x00003214:    7b9b        .{      LDRB     r3,[r3,#0xe]
        0x00003216:    2b00        .+      CMP      r3,#0
        0x00003218:    d151        Q.      BNE      0x32be ; myPlane_createOneBullet + 386
        0x0000321a:    230a        .#      MOVS     r3,#0xa
        0x0000321c:    4353        SC      MULS     r3,r2,r3
        0x0000321e:    185b        [.      ADDS     r3,r3,r1
        0x00003220:    7e1b        .~      LDRB     r3,[r3,#0x18]
        0x00003222:    2b00        .+      CMP      r3,#0
        0x00003224:    d14b        K.      BNE      0x32be ; myPlane_createOneBullet + 386
        0x00003226:    230a        .#      MOVS     r3,#0xa
        0x00003228:    4353        SC      MULS     r3,r2,r3
        0x0000322a:    185b        [.      ADDS     r3,r3,r1
        0x0000322c:    331e        .3      ADDS     r3,r3,#0x1e
        0x0000322e:    791b        .y      LDRB     r3,[r3,#4]
        0x00003230:    2b00        .+      CMP      r3,#0
        0x00003232:    d144        D.      BNE      0x32be ; myPlane_createOneBullet + 386
        0x00003234:    8803        ..      LDRH     r3,[r0,#0]
        0x00003236:    1f1b        ..      SUBS     r3,r3,#4
        0x00003238:    b21b        ..      SXTH     r3,r3
        0x0000323a:    800b        ..      STRH     r3,[r1,#0]
        0x0000323c:    8843        C.      LDRH     r3,[r0,#2]
        0x0000323e:    3b08        .;      SUBS     r3,r3,#8
        0x00003240:    b21b        ..      SXTH     r3,r3
        0x00003242:    804b        K.      STRH     r3,[r1,#2]
        0x00003244:    2301        .#      MOVS     r3,#1
        0x00003246:    710b        .q      STRB     r3,[r1,#4]
        0x00003248:    8803        ..      LDRH     r3,[r0,#0]
        0x0000324a:    1d1b        ..      ADDS     r3,r3,#4
        0x0000324c:    b21c        ..      SXTH     r4,r3
        0x0000324e:    230a        .#      MOVS     r3,#0xa
        0x00003250:    4353        SC      MULS     r3,r2,r3
        0x00003252:    185b        [.      ADDS     r3,r3,r1
        0x00003254:    815c        \.      STRH     r4,[r3,#0xa]
        0x00003256:    8843        C.      LDRH     r3,[r0,#2]
        0x00003258:    3b08        .;      SUBS     r3,r3,#8
        0x0000325a:    b21c        ..      SXTH     r4,r3
        0x0000325c:    230a        .#      MOVS     r3,#0xa
        0x0000325e:    4353        SC      MULS     r3,r2,r3
        0x00003260:    185b        [.      ADDS     r3,r3,r1
        0x00003262:    819c        ..      STRH     r4,[r3,#0xc]
        0x00003264:    2401        .$      MOVS     r4,#1
        0x00003266:    230a        .#      MOVS     r3,#0xa
        0x00003268:    4353        SC      MULS     r3,r2,r3
        0x0000326a:    185b        [.      ADDS     r3,r3,r1
        0x0000326c:    739c        .s      STRB     r4,[r3,#0xe]
        0x0000326e:    8803        ..      LDRH     r3,[r0,#0]
        0x00003270:    330c        .3      ADDS     r3,r3,#0xc
        0x00003272:    b21c        ..      SXTH     r4,r3
        0x00003274:    230a        .#      MOVS     r3,#0xa
        0x00003276:    4353        SC      MULS     r3,r2,r3
        0x00003278:    185b        [.      ADDS     r3,r3,r1
        0x0000327a:    829c        ..      STRH     r4,[r3,#0x14]
        0x0000327c:    8843        C.      LDRH     r3,[r0,#2]
        0x0000327e:    3b08        .;      SUBS     r3,r3,#8
        0x00003280:    b21c        ..      SXTH     r4,r3
        0x00003282:    230a        .#      MOVS     r3,#0xa
        0x00003284:    4353        SC      MULS     r3,r2,r3
        0x00003286:    185b        [.      ADDS     r3,r3,r1
        0x00003288:    82dc        ..      STRH     r4,[r3,#0x16]
        0x0000328a:    2401        .$      MOVS     r4,#1
        0x0000328c:    230a        .#      MOVS     r3,#0xa
        0x0000328e:    4353        SC      MULS     r3,r2,r3
        0x00003290:    185b        [.      ADDS     r3,r3,r1
        0x00003292:    761c        .v      STRB     r4,[r3,#0x18]
        0x00003294:    8803        ..      LDRH     r3,[r0,#0]
        0x00003296:    3314        .3      ADDS     r3,r3,#0x14
        0x00003298:    b21c        ..      SXTH     r4,r3
        0x0000329a:    230a        .#      MOVS     r3,#0xa
        0x0000329c:    4353        SC      MULS     r3,r2,r3
        0x0000329e:    185b        [.      ADDS     r3,r3,r1
        0x000032a0:    83dc        ..      STRH     r4,[r3,#0x1e]
        0x000032a2:    8843        C.      LDRH     r3,[r0,#2]
        0x000032a4:    3b08        .;      SUBS     r3,r3,#8
        0x000032a6:    b21c        ..      SXTH     r4,r3
        0x000032a8:    230a        .#      MOVS     r3,#0xa
        0x000032aa:    4353        SC      MULS     r3,r2,r3
        0x000032ac:    185b        [.      ADDS     r3,r3,r1
        0x000032ae:    841c        ..      STRH     r4,[r3,#0x20]
        0x000032b0:    2401        .$      MOVS     r4,#1
        0x000032b2:    230a        .#      MOVS     r3,#0xa
        0x000032b4:    4353        SC      MULS     r3,r2,r3
        0x000032b6:    185b        [.      ADDS     r3,r3,r1
        0x000032b8:    331e        .3      ADDS     r3,r3,#0x1e
        0x000032ba:    711c        .q      STRB     r4,[r3,#4]
        0x000032bc:    e002        ..      B        0x32c4 ; myPlane_createOneBullet + 392
        0x000032be:    1c52        R.      ADDS     r2,r2,#1
        0x000032c0:    2a10        .*      CMP      r2,#0x10
        0x000032c2:    dba1        ..      BLT      0x3208 ; myPlane_createOneBullet + 204
        0x000032c4:    bf00        ..      NOP      
        0x000032c6:    bd10        ..      POP      {r4,pc}
    i.myPlane_updateBulletData
    myPlane_updateBulletData
        0x000032c8:    4601        .F      MOV      r1,r0
        0x000032ca:    2000        .       MOVS     r0,#0
        0x000032cc:    e01c        ..      B        0x3308 ; myPlane_updateBulletData + 64
        0x000032ce:    220a        ."      MOVS     r2,#0xa
        0x000032d0:    4342        BC      MULS     r2,r0,r2
        0x000032d2:    1852        R.      ADDS     r2,r2,r1
        0x000032d4:    7912        .y      LDRB     r2,[r2,#4]
        0x000032d6:    2a00        .*      CMP      r2,#0
        0x000032d8:    d015        ..      BEQ      0x3306 ; myPlane_updateBulletData + 62
        0x000032da:    220a        ."      MOVS     r2,#0xa
        0x000032dc:    4342        BC      MULS     r2,r0,r2
        0x000032de:    1852        R.      ADDS     r2,r2,r1
        0x000032e0:    8852        R.      LDRH     r2,[r2,#2]
        0x000032e2:    1ed2        ..      SUBS     r2,r2,#3
        0x000032e4:    b213        ..      SXTH     r3,r2
        0x000032e6:    220a        ."      MOVS     r2,#0xa
        0x000032e8:    4342        BC      MULS     r2,r0,r2
        0x000032ea:    1852        R.      ADDS     r2,r2,r1
        0x000032ec:    8053        S.      STRH     r3,[r2,#2]
        0x000032ee:    220a        ."      MOVS     r2,#0xa
        0x000032f0:    4342        BC      MULS     r2,r0,r2
        0x000032f2:    1852        R.      ADDS     r2,r2,r1
        0x000032f4:    2302        .#      MOVS     r3,#2
        0x000032f6:    5ed3        .^      LDRSH    r3,[r2,r3]
        0x000032f8:    2b05        .+      CMP      r3,#5
        0x000032fa:    da04        ..      BGE      0x3306 ; myPlane_updateBulletData + 62
        0x000032fc:    2300        .#      MOVS     r3,#0
        0x000032fe:    220a        ."      MOVS     r2,#0xa
        0x00003300:    4342        BC      MULS     r2,r0,r2
        0x00003302:    1852        R.      ADDS     r2,r2,r1
        0x00003304:    7113        .q      STRB     r3,[r2,#4]
        0x00003306:    1c40        @.      ADDS     r0,r0,#1
        0x00003308:    4a02        .J      LDR      r2,[pc,#8] ; [0x3314] = 0x48f0
        0x0000330a:    7812        .x      LDRB     r2,[r2,#0]
        0x0000330c:    4290        .B      CMP      r0,r2
        0x0000330e:    dbde        ..      BLT      0x32ce ; myPlane_updateBulletData + 6
        0x00003310:    4770        pG      BX       lr
    $d
        0x00003312:    0000        ..      DCW    0
        0x00003314:    000048f0    .H..    DCD    18672
    $t
    i.myfree
    myfree
        0x00003318:    b570        p.      PUSH     {r4-r6,lr}
        0x0000331a:    4604        .F      MOV      r4,r0
        0x0000331c:    2c00        .,      CMP      r4,#0
        0x0000331e:    d100        ..      BNE      0x3322 ; myfree + 10
        0x00003320:    bd70        p.      POP      {r4-r6,pc}
        0x00003322:    4804        .H      LDR      r0,[pc,#16] ; [0x3334] = 0x20001b08
        0x00003324:    6880        .h      LDR      r0,[r0,#8]
        0x00003326:    1a25        %.      SUBS     r5,r4,r0
        0x00003328:    4628        (F      MOV      r0,r5
        0x0000332a:    f7fffab3    ....    BL       mem_free ; 0x2894
        0x0000332e:    bf00        ..      NOP      
        0x00003330:    e7f6        ..      B        0x3320 ; myfree + 8
    $d
        0x00003332:    0000        ..      DCW    0
        0x00003334:    20001b08    ...     DCD    536877832
    $t
    i.mymalloc
    mymalloc
        0x00003338:    b570        p.      PUSH     {r4-r6,lr}
        0x0000333a:    4605        .F      MOV      r5,r0
        0x0000333c:    4628        (F      MOV      r0,r5
        0x0000333e:    f7fffae5    ....    BL       mem_malloc ; 0x290c
        0x00003342:    4604        .F      MOV      r4,r0
        0x00003344:    1c60        `.      ADDS     r0,r4,#1
        0x00003346:    2800        .(      CMP      r0,#0
        0x00003348:    d100        ..      BNE      0x334c ; mymalloc + 20
        0x0000334a:    bd70        p.      POP      {r4-r6,pc}
        0x0000334c:    4801        .H      LDR      r0,[pc,#4] ; [0x3354] = 0x20001b08
        0x0000334e:    6880        .h      LDR      r0,[r0,#8]
        0x00003350:    1900        ..      ADDS     r0,r0,r4
        0x00003352:    e7fa        ..      B        0x334a ; mymalloc + 18
    $d
        0x00003354:    20001b08    ...     DCD    536877832
    $t
    i.mymemset
    mymemset
        0x00003358:    b530        0.      PUSH     {r4,r5,lr}
        0x0000335a:    4603        .F      MOV      r3,r0
        0x0000335c:    e001        ..      B        0x3362 ; mymemset + 10
        0x0000335e:    7019        .p      STRB     r1,[r3,#0]
        0x00003360:    1c5b        [.      ADDS     r3,r3,#1
        0x00003362:    4614        .F      MOV      r4,r2
        0x00003364:    1e52        R.      SUBS     r2,r2,#1
        0x00003366:    2c00        .,      CMP      r4,#0
        0x00003368:    d1f9        ..      BNE      0x335e ; mymemset + 6
        0x0000336a:    bd30        0.      POP      {r4,r5,pc}
    i.new_boomDraw
    new_boomDraw
        0x0000336c:    b5fe        ..      PUSH     {r1-r7,lr}
        0x0000336e:    4605        .F      MOV      r5,r0
        0x00003370:    460e        .F      MOV      r6,r1
        0x00003372:    2400        .$      MOVS     r4,#0
        0x00003374:    e05a        Z.      B        0x342c ; new_boomDraw + 192
        0x00003376:    00e0        ..      LSLS     r0,r4,#3
        0x00003378:    1940        @.      ADDS     r0,r0,r5
        0x0000337a:    7900        .y      LDRB     r0,[r0,#4]
        0x0000337c:    2800        .(      CMP      r0,#0
        0x0000337e:    d054        T.      BEQ      0x342a ; new_boomDraw + 190
        0x00003380:    00e0        ..      LSLS     r0,r4,#3
        0x00003382:    1940        @.      ADDS     r0,r0,r5
        0x00003384:    7940        @y      LDRB     r0,[r0,#5]
        0x00003386:    0640        @.      LSLS     r0,r0,#25
        0x00003388:    0e07        ..      LSRS     r7,r0,#24
        0x0000338a:    2010        .       MOVS     r0,#0x10
        0x0000338c:    4639        9F      MOV      r1,r7
        0x0000338e:    31e0        .1      ADDS     r1,r1,#0xe0
        0x00003390:    b2cb        ..      UXTB     r3,r1
        0x00003392:    00e1        ..      LSLS     r1,r4,#3
        0x00003394:    1949        I.      ADDS     r1,r1,r5
        0x00003396:    9000        ..      STR      r0,[sp,#0]
        0x00003398:    8849        I.      LDRH     r1,[r1,#2]
        0x0000339a:    b2ca        ..      UXTB     r2,r1
        0x0000339c:    00e1        ..      LSLS     r1,r4,#3
        0x0000339e:    5a69        iZ      LDRH     r1,[r5,r1]
        0x000033a0:    b2c9        ..      UXTB     r1,r1
        0x000033a2:    9101        ..      STR      r1,[sp,#4]
        0x000033a4:    7830        0x      LDRB     r0,[r6,#0]
        0x000033a6:    f001fa91    ....    BL       writeOneSprite ; 0x48cc
        0x000033aa:    2010        .       MOVS     r0,#0x10
        0x000033ac:    463b        ;F      MOV      r3,r7
        0x000033ae:    33e1        .3      ADDS     r3,r3,#0xe1
        0x000033b0:    b2db        ..      UXTB     r3,r3
        0x000033b2:    9301        ..      STR      r3,[sp,#4]
        0x000033b4:    9000        ..      STR      r0,[sp,#0]
        0x000033b6:    00e3        ..      LSLS     r3,r4,#3
        0x000033b8:    195b        [.      ADDS     r3,r3,r5
        0x000033ba:    885b        [.      LDRH     r3,[r3,#2]
        0x000033bc:    b2da        ..      UXTB     r2,r3
        0x000033be:    00e3        ..      LSLS     r3,r4,#3
        0x000033c0:    5aeb        .Z      LDRH     r3,[r5,r3]
        0x000033c2:    3308        .3      ADDS     r3,r3,#8
        0x000033c4:    b2d9        ..      UXTB     r1,r3
        0x000033c6:    7833        3x      LDRB     r3,[r6,#0]
        0x000033c8:    1c5b        [.      ADDS     r3,r3,#1
        0x000033ca:    b2d8        ..      UXTB     r0,r3
        0x000033cc:    9b01        ..      LDR      r3,[sp,#4]
        0x000033ce:    f001fa7d    ..}.    BL       writeOneSprite ; 0x48cc
        0x000033d2:    20d0        .       MOVS     r0,#0xd0
        0x000033d4:    4639        9F      MOV      r1,r7
        0x000033d6:    31e1        .1      ADDS     r1,r1,#0xe1
        0x000033d8:    b2cb        ..      UXTB     r3,r1
        0x000033da:    00e1        ..      LSLS     r1,r4,#3
        0x000033dc:    1949        I.      ADDS     r1,r1,r5
        0x000033de:    9000        ..      STR      r0,[sp,#0]
        0x000033e0:    8849        I.      LDRH     r1,[r1,#2]
        0x000033e2:    1dc9        ..      ADDS     r1,r1,#7
        0x000033e4:    b2ca        ..      UXTB     r2,r1
        0x000033e6:    00e1        ..      LSLS     r1,r4,#3
        0x000033e8:    5a69        iZ      LDRH     r1,[r5,r1]
        0x000033ea:    b2c9        ..      UXTB     r1,r1
        0x000033ec:    9101        ..      STR      r1,[sp,#4]
        0x000033ee:    7831        1x      LDRB     r1,[r6,#0]
        0x000033f0:    1c89        ..      ADDS     r1,r1,#2
        0x000033f2:    b2c8        ..      UXTB     r0,r1
        0x000033f4:    9901        ..      LDR      r1,[sp,#4]
        0x000033f6:    f001fa69    ..i.    BL       writeOneSprite ; 0x48cc
        0x000033fa:    20d0        .       MOVS     r0,#0xd0
        0x000033fc:    9000        ..      STR      r0,[sp,#0]
        0x000033fe:    4638        8F      MOV      r0,r7
        0x00003400:    30e0        .0      ADDS     r0,r0,#0xe0
        0x00003402:    b2c3        ..      UXTB     r3,r0
        0x00003404:    00e0        ..      LSLS     r0,r4,#3
        0x00003406:    1940        @.      ADDS     r0,r0,r5
        0x00003408:    8840        @.      LDRH     r0,[r0,#2]
        0x0000340a:    1dc0        ..      ADDS     r0,r0,#7
        0x0000340c:    b2c2        ..      UXTB     r2,r0
        0x0000340e:    00e0        ..      LSLS     r0,r4,#3
        0x00003410:    5a28        (Z      LDRH     r0,[r5,r0]
        0x00003412:    3008        .0      ADDS     r0,r0,#8
        0x00003414:    b2c1        ..      UXTB     r1,r0
        0x00003416:    7830        0x      LDRB     r0,[r6,#0]
        0x00003418:    1cc0        ..      ADDS     r0,r0,#3
        0x0000341a:    b2c0        ..      UXTB     r0,r0
        0x0000341c:    9001        ..      STR      r0,[sp,#4]
        0x0000341e:    f001fa55    ..U.    BL       writeOneSprite ; 0x48cc
        0x00003422:    7830        0x      LDRB     r0,[r6,#0]
        0x00003424:    1d00        ..      ADDS     r0,r0,#4
        0x00003426:    7030        0p      STRB     r0,[r6,#0]
        0x00003428:    bf00        ..      NOP      
        0x0000342a:    1c64        d.      ADDS     r4,r4,#1
        0x0000342c:    4802        .H      LDR      r0,[pc,#8] ; [0x3438] = 0x48f6
        0x0000342e:    7800        .x      LDRB     r0,[r0,#0]
        0x00003430:    4284        .B      CMP      r4,r0
        0x00003432:    dba0        ..      BLT      0x3376 ; new_boomDraw + 10
        0x00003434:    bdfe        ..      POP      {r1-r7,pc}
    $d
        0x00003436:    0000        ..      DCW    0
        0x00003438:    000048f6    .H..    DCD    18678
    $t
    i.new_boomInit
    new_boomInit
        0x0000343c:    4601        .F      MOV      r1,r0
        0x0000343e:    2000        .       MOVS     r0,#0
        0x00003440:    e004        ..      B        0x344c ; new_boomInit + 16
        0x00003442:    2200        ."      MOVS     r2,#0
        0x00003444:    00c3        ..      LSLS     r3,r0,#3
        0x00003446:    185b        [.      ADDS     r3,r3,r1
        0x00003448:    711a        .q      STRB     r2,[r3,#4]
        0x0000344a:    1c40        @.      ADDS     r0,r0,#1
        0x0000344c:    4a02        .J      LDR      r2,[pc,#8] ; [0x3458] = 0x48f6
        0x0000344e:    7812        .x      LDRB     r2,[r2,#0]
        0x00003450:    4290        .B      CMP      r0,r2
        0x00003452:    dbf6        ..      BLT      0x3442 ; new_boomInit + 6
        0x00003454:    4770        pG      BX       lr
    $d
        0x00003456:    0000        ..      DCW    0
        0x00003458:    000048f6    .H..    DCD    18678
    $t
    i.new_createOneBoom
    new_createOneBoom
        0x0000345c:    b530        0.      PUSH     {r4,r5,lr}
        0x0000345e:    4603        .F      MOV      r3,r0
        0x00003460:    2000        .       MOVS     r0,#0
        0x00003462:    e016        ..      B        0x3492 ; new_createOneBoom + 54
        0x00003464:    00c4        ..      LSLS     r4,r0,#3
        0x00003466:    18a4        ..      ADDS     r4,r4,r2
        0x00003468:    7924        $y      LDRB     r4,[r4,#4]
        0x0000346a:    2c00        .,      CMP      r4,#0
        0x0000346c:    d110        ..      BNE      0x3490 ; new_createOneBoom + 52
        0x0000346e:    00c5        ..      LSLS     r5,r0,#3
        0x00003470:    18ad        ..      ADDS     r5,r5,r2
        0x00003472:    716c        lq      STRB     r4,[r5,#5]
        0x00003474:    00c4        ..      LSLS     r4,r0,#3
        0x00003476:    5313        .S      STRH     r3,[r2,r4]
        0x00003478:    00c4        ..      LSLS     r4,r0,#3
        0x0000347a:    18a4        ..      ADDS     r4,r4,r2
        0x0000347c:    8061        a.      STRH     r1,[r4,#2]
        0x0000347e:    2401        .$      MOVS     r4,#1
        0x00003480:    00c5        ..      LSLS     r5,r0,#3
        0x00003482:    18ad        ..      ADDS     r5,r5,r2
        0x00003484:    712c        ,q      STRB     r4,[r5,#4]
        0x00003486:    2400        .$      MOVS     r4,#0
        0x00003488:    00c5        ..      LSLS     r5,r0,#3
        0x0000348a:    18ad        ..      ADDS     r5,r5,r2
        0x0000348c:    71ac        .q      STRB     r4,[r5,#6]
        0x0000348e:    e004        ..      B        0x349a ; new_createOneBoom + 62
        0x00003490:    1c40        @.      ADDS     r0,r0,#1
        0x00003492:    4c03        .L      LDR      r4,[pc,#12] ; [0x34a0] = 0x48f6
        0x00003494:    7824        $x      LDRB     r4,[r4,#0]
        0x00003496:    42a0        .B      CMP      r0,r4
        0x00003498:    dbe4        ..      BLT      0x3464 ; new_createOneBoom + 8
        0x0000349a:    bf00        ..      NOP      
        0x0000349c:    bd30        0.      POP      {r4,r5,pc}
    $d
        0x0000349e:    0000        ..      DCW    0
        0x000034a0:    000048f6    .H..    DCD    18678
    $t
    i.new_updateBoomData
    new_updateBoomData
        0x000034a4:    4601        .F      MOV      r1,r0
        0x000034a6:    2000        .       MOVS     r0,#0
        0x000034a8:    e026        &.      B        0x34f8 ; new_updateBoomData + 84
        0x000034aa:    00c2        ..      LSLS     r2,r0,#3
        0x000034ac:    1852        R.      ADDS     r2,r2,r1
        0x000034ae:    7912        .y      LDRB     r2,[r2,#4]
        0x000034b0:    2a00        .*      CMP      r2,#0
        0x000034b2:    d020         .      BEQ      0x34f6 ; new_updateBoomData + 82
        0x000034b4:    00c2        ..      LSLS     r2,r0,#3
        0x000034b6:    1852        R.      ADDS     r2,r2,r1
        0x000034b8:    7992        .y      LDRB     r2,[r2,#6]
        0x000034ba:    2a0a        .*      CMP      r2,#0xa
        0x000034bc:    da07        ..      BGE      0x34ce ; new_updateBoomData + 42
        0x000034be:    00c2        ..      LSLS     r2,r0,#3
        0x000034c0:    1852        R.      ADDS     r2,r2,r1
        0x000034c2:    7992        .y      LDRB     r2,[r2,#6]
        0x000034c4:    1c52        R.      ADDS     r2,r2,#1
        0x000034c6:    00c3        ..      LSLS     r3,r0,#3
        0x000034c8:    185b        [.      ADDS     r3,r3,r1
        0x000034ca:    719a        .q      STRB     r2,[r3,#6]
        0x000034cc:    e013        ..      B        0x34f6 ; new_updateBoomData + 82
        0x000034ce:    2200        ."      MOVS     r2,#0
        0x000034d0:    00c3        ..      LSLS     r3,r0,#3
        0x000034d2:    185b        [.      ADDS     r3,r3,r1
        0x000034d4:    719a        .q      STRB     r2,[r3,#6]
        0x000034d6:    00c2        ..      LSLS     r2,r0,#3
        0x000034d8:    1852        R.      ADDS     r2,r2,r1
        0x000034da:    7952        Ry      LDRB     r2,[r2,#5]
        0x000034dc:    1c52        R.      ADDS     r2,r2,#1
        0x000034de:    00c3        ..      LSLS     r3,r0,#3
        0x000034e0:    185b        [.      ADDS     r3,r3,r1
        0x000034e2:    715a        Zq      STRB     r2,[r3,#5]
        0x000034e4:    00c2        ..      LSLS     r2,r0,#3
        0x000034e6:    1852        R.      ADDS     r2,r2,r1
        0x000034e8:    7952        Ry      LDRB     r2,[r2,#5]
        0x000034ea:    2a04        .*      CMP      r2,#4
        0x000034ec:    db03        ..      BLT      0x34f6 ; new_updateBoomData + 82
        0x000034ee:    2200        ."      MOVS     r2,#0
        0x000034f0:    00c3        ..      LSLS     r3,r0,#3
        0x000034f2:    185b        [.      ADDS     r3,r3,r1
        0x000034f4:    711a        .q      STRB     r2,[r3,#4]
        0x000034f6:    1c40        @.      ADDS     r0,r0,#1
        0x000034f8:    4a02        .J      LDR      r2,[pc,#8] ; [0x3504] = 0x48f6
        0x000034fa:    7812        .x      LDRB     r2,[r2,#0]
        0x000034fc:    4290        .B      CMP      r0,r2
        0x000034fe:    dbd4        ..      BLT      0x34aa ; new_updateBoomData + 6
        0x00003500:    4770        pG      BX       lr
    $d
        0x00003502:    0000        ..      DCW    0
        0x00003504:    000048f6    .H..    DCD    18678
    $t
    i.readPs2DI
    readPs2DI
        0x00003508:    4801        .H      LDR      r0,[pc,#4] ; [0x3510] = 0x40005000
        0x0000350a:    68c0        .h      LDR      r0,[r0,#0xc]
        0x0000350c:    4770        pG      BX       lr
    $d
        0x0000350e:    0000        ..      DCW    0
        0x00003510:    40005000    .P.@    DCD    1073762304
    $t
    i.s_green_createOnePlane
    s_green_createOnePlane
        0x00003514:    b5f7        ..      PUSH     {r0-r2,r4-r7,lr}
        0x00003516:    4605        .F      MOV      r5,r0
        0x00003518:    4616        .F      MOV      r6,r2
        0x0000351a:    2400        .$      MOVS     r4,#0
        0x0000351c:    e082        ..      B        0x3624 ; s_green_createOnePlane + 272
        0x0000351e:    201c        .       MOVS     r0,#0x1c
        0x00003520:    4360        `C      MULS     r0,r4,r0
        0x00003522:    5c28        (\      LDRB     r0,[r5,r0]
        0x00003524:    2800        .(      CMP      r0,#0
        0x00003526:    d17c        |.      BNE      0x3622 ; s_green_createOnePlane + 270
        0x00003528:    2101        .!      MOVS     r1,#1
        0x0000352a:    201c        .       MOVS     r0,#0x1c
        0x0000352c:    4360        `C      MULS     r0,r4,r0
        0x0000352e:    5429        )T      STRB     r1,[r5,r0]
        0x00003530:    2100        .!      MOVS     r1,#0
        0x00003532:    201c        .       MOVS     r0,#0x1c
        0x00003534:    4360        `C      MULS     r0,r4,r0
        0x00003536:    1940        @.      ADDS     r0,r0,r5
        0x00003538:    7041        Ap      STRB     r1,[r0,#1]
        0x0000353a:    210f        .!      MOVS     r1,#0xf
        0x0000353c:    201c        .       MOVS     r0,#0x1c
        0x0000353e:    4360        `C      MULS     r0,r4,r0
        0x00003540:    1940        @.      ADDS     r0,r0,r5
        0x00003542:    8041        A.      STRH     r1,[r0,#2]
        0x00003544:    f7fcfe14    ....    BL       rand ; 0x170
        0x00003548:    4607        .F      MOV      r7,r0
        0x0000354a:    211e        .!      MOVS     r1,#0x1e
        0x0000354c:    f7fcfdfc    ....    BL       __aeabi_idiv ; 0x148
        0x00003550:    4630        0F      MOV      r0,r6
        0x00003552:    383c        <8      SUBS     r0,r0,#0x3c
        0x00003554:    1a40        @.      SUBS     r0,r0,r1
        0x00003556:    b201        ..      SXTH     r1,r0
        0x00003558:    201c        .       MOVS     r0,#0x1c
        0x0000355a:    4360        `C      MULS     r0,r4,r0
        0x0000355c:    1940        @.      ADDS     r0,r0,r5
        0x0000355e:    8081        ..      STRH     r1,[r0,#4]
        0x00003560:    2100        .!      MOVS     r1,#0
        0x00003562:    201c        .       MOVS     r0,#0x1c
        0x00003564:    4360        `C      MULS     r0,r4,r0
        0x00003566:    1940        @.      ADDS     r0,r0,r5
        0x00003568:    7181        .q      STRB     r1,[r0,#6]
        0x0000356a:    f7fcfe01    ....    BL       rand ; 0x170
        0x0000356e:    4607        .F      MOV      r7,r0
        0x00003570:    0fc0        ..      LSRS     r0,r0,#31
        0x00003572:    19c0        ..      ADDS     r0,r0,r7
        0x00003574:    1040        @.      ASRS     r0,r0,#1
        0x00003576:    0040        @.      LSLS     r0,r0,#1
        0x00003578:    1a38        8.      SUBS     r0,r7,r0
        0x0000357a:    1c80        ..      ADDS     r0,r0,#2
        0x0000357c:    b241        A.      SXTB     r1,r0
        0x0000357e:    201c        .       MOVS     r0,#0x1c
        0x00003580:    4360        `C      MULS     r0,r4,r0
        0x00003582:    1940        @.      ADDS     r0,r0,r5
        0x00003584:    71c1        .q      STRB     r1,[r0,#7]
        0x00003586:    f7fcfdf3    ....    BL       rand ; 0x170
        0x0000358a:    4607        .F      MOV      r7,r0
        0x0000358c:    0fc0        ..      LSRS     r0,r0,#31
        0x0000358e:    19c0        ..      ADDS     r0,r0,r7
        0x00003590:    1040        @.      ASRS     r0,r0,#1
        0x00003592:    0040        @.      LSLS     r0,r0,#1
        0x00003594:    1a38        8.      SUBS     r0,r7,r0
        0x00003596:    b241        A.      SXTB     r1,r0
        0x00003598:    201c        .       MOVS     r0,#0x1c
        0x0000359a:    4360        `C      MULS     r0,r4,r0
        0x0000359c:    1940        @.      ADDS     r0,r0,r5
        0x0000359e:    7201        .r      STRB     r1,[r0,#8]
        0x000035a0:    f7fcfde6    ....    BL       rand ; 0x170
        0x000035a4:    4607        .F      MOV      r7,r0
        0x000035a6:    2114        .!      MOVS     r1,#0x14
        0x000035a8:    f7fcfdce    ....    BL       __aeabi_idiv ; 0x148
        0x000035ac:    9801        ..      LDR      r0,[sp,#4]
        0x000035ae:    3832        28      SUBS     r0,r0,#0x32
        0x000035b0:    1808        ..      ADDS     r0,r1,r0
        0x000035b2:    b201        ..      SXTH     r1,r0
        0x000035b4:    201c        .       MOVS     r0,#0x1c
        0x000035b6:    4360        `C      MULS     r0,r4,r0
        0x000035b8:    1940        @.      ADDS     r0,r0,r5
        0x000035ba:    8141        A.      STRH     r1,[r0,#0xa]
        0x000035bc:    201c        .       MOVS     r0,#0x1c
        0x000035be:    4360        `C      MULS     r0,r4,r0
        0x000035c0:    1940        @.      ADDS     r0,r0,r5
        0x000035c2:    8940        @.      LDRH     r0,[r0,#0xa]
        0x000035c4:    303c        <0      ADDS     r0,r0,#0x3c
        0x000035c6:    b201        ..      SXTH     r1,r0
        0x000035c8:    201c        .       MOVS     r0,#0x1c
        0x000035ca:    4360        `C      MULS     r0,r4,r0
        0x000035cc:    1940        @.      ADDS     r0,r0,r5
        0x000035ce:    8181        ..      STRH     r1,[r0,#0xc]
        0x000035d0:    4630        0F      MOV      r0,r6
        0x000035d2:    3814        .8      SUBS     r0,r0,#0x14
        0x000035d4:    b201        ..      SXTH     r1,r0
        0x000035d6:    201c        .       MOVS     r0,#0x1c
        0x000035d8:    4360        `C      MULS     r0,r4,r0
        0x000035da:    1940        @.      ADDS     r0,r0,r5
        0x000035dc:    81c1        ..      STRH     r1,[r0,#0xe]
        0x000035de:    f7fcfdc7    ....    BL       rand ; 0x170
        0x000035e2:    4607        .F      MOV      r7,r0
        0x000035e4:    211e        .!      MOVS     r1,#0x1e
        0x000035e6:    f7fcfdaf    ....    BL       __aeabi_idiv ; 0x148
        0x000035ea:    201c        .       MOVS     r0,#0x1c
        0x000035ec:    4360        `C      MULS     r0,r4,r0
        0x000035ee:    1940        @.      ADDS     r0,r0,r5
        0x000035f0:    89c0        ..      LDRH     r0,[r0,#0xe]
        0x000035f2:    3014        .0      ADDS     r0,r0,#0x14
        0x000035f4:    1808        ..      ADDS     r0,r1,r0
        0x000035f6:    b201        ..      SXTH     r1,r0
        0x000035f8:    201c        .       MOVS     r0,#0x1c
        0x000035fa:    4360        `C      MULS     r0,r4,r0
        0x000035fc:    1940        @.      ADDS     r0,r0,r5
        0x000035fe:    8201        ..      STRH     r1,[r0,#0x10]
        0x00003600:    201c        .       MOVS     r0,#0x1c
        0x00003602:    4360        `C      MULS     r0,r4,r0
        0x00003604:    1940        @.      ADDS     r0,r0,r5
        0x00003606:    8980        ..      LDRH     r0,[r0,#0xc]
        0x00003608:    381e        .8      SUBS     r0,r0,#0x1e
        0x0000360a:    b201        ..      SXTH     r1,r0
        0x0000360c:    201c        .       MOVS     r0,#0x1c
        0x0000360e:    4360        `C      MULS     r0,r4,r0
        0x00003610:    1940        @.      ADDS     r0,r0,r5
        0x00003612:    8241        A.      STRH     r1,[r0,#0x12]
        0x00003614:    2100        .!      MOVS     r1,#0
        0x00003616:    201c        .       MOVS     r0,#0x1c
        0x00003618:    4360        `C      MULS     r0,r4,r0
        0x0000361a:    1940        @.      ADDS     r0,r0,r5
        0x0000361c:    7681        .v      STRB     r1,[r0,#0x1a]
        0x0000361e:    e006        ..      B        0x362e ; s_green_createOnePlane + 282
        0x00003620:    e7ff        ..      B        0x3622 ; s_green_createOnePlane + 270
        0x00003622:    1c64        d.      ADDS     r4,r4,#1
        0x00003624:    4803        .H      LDR      r0,[pc,#12] ; [0x3634] = 0x48f2
        0x00003626:    7800        .x      LDRB     r0,[r0,#0]
        0x00003628:    4284        .B      CMP      r4,r0
        0x0000362a:    da00        ..      BGE      0x362e ; s_green_createOnePlane + 282
        0x0000362c:    e777        w.      B        0x351e ; s_green_createOnePlane + 10
        0x0000362e:    bf00        ..      NOP      
        0x00003630:    bdfe        ..      POP      {r1-r7,pc}
    $d
        0x00003632:    0000        ..      DCW    0
        0x00003634:    000048f2    .H..    DCD    18674
    $t
    i.s_green_drawPlane
    s_green_drawPlane
        0x00003638:    b5f8        ..      PUSH     {r3-r7,lr}
        0x0000363a:    4605        .F      MOV      r5,r0
        0x0000363c:    460e        .F      MOV      r6,r1
        0x0000363e:    2400        .$      MOVS     r4,#0
        0x00003640:    e167        g.      B        0x3912 ; s_green_drawPlane + 730
        0x00003642:    201c        .       MOVS     r0,#0x1c
        0x00003644:    4360        `C      MULS     r0,r4,r0
        0x00003646:    5c28        (\      LDRB     r0,[r5,r0]
        0x00003648:    2800        .(      CMP      r0,#0
        0x0000364a:    d07d        }.      BEQ      0x3748 ; s_green_drawPlane + 272
        0x0000364c:    201c        .       MOVS     r0,#0x1c
        0x0000364e:    4360        `C      MULS     r0,r4,r0
        0x00003650:    1940        @.      ADDS     r0,r0,r5
        0x00003652:    7e80        .~      LDRB     r0,[r0,#0x1a]
        0x00003654:    0003        ..      MOVS     r3,r0
        0x00003656:    f7fdfaeb    ....    BL       __ARM_common_switch8 ; 0xc30
    $d
        0x0000365a:    0405        ..      DCW    1029
        0x0000365c:    fecd923f    ?...    DCD    4274885183
        0x00003660:    00fd        ..      DCW    253
    $t
        0x00003662:    2060        `       MOVS     r0,#0x60
        0x00003664:    231c        .#      MOVS     r3,#0x1c
        0x00003666:    4363        cC      MULS     r3,r4,r3
        0x00003668:    195b        [.      ADDS     r3,r3,r5
        0x0000366a:    9000        ..      STR      r0,[sp,#0]
        0x0000366c:    889b        ..      LDRH     r3,[r3,#4]
        0x0000366e:    b2da        ..      UXTB     r2,r3
        0x00003670:    231c        .#      MOVS     r3,#0x1c
        0x00003672:    4363        cC      MULS     r3,r4,r3
        0x00003674:    195b        [.      ADDS     r3,r3,r5
        0x00003676:    885b        [.      LDRH     r3,[r3,#2]
        0x00003678:    b2d9        ..      UXTB     r1,r3
        0x0000367a:    7830        0x      LDRB     r0,[r6,#0]
        0x0000367c:    2359        Y#      MOVS     r3,#0x59
        0x0000367e:    f001f925    ..%.    BL       writeOneSprite ; 0x48cc
        0x00003682:    2060        `       MOVS     r0,#0x60
        0x00003684:    231c        .#      MOVS     r3,#0x1c
        0x00003686:    4363        cC      MULS     r3,r4,r3
        0x00003688:    195b        [.      ADDS     r3,r3,r5
        0x0000368a:    9000        ..      STR      r0,[sp,#0]
        0x0000368c:    889b        ..      LDRH     r3,[r3,#4]
        0x0000368e:    1ddb        ..      ADDS     r3,r3,#7
        0x00003690:    b2da        ..      UXTB     r2,r3
        0x00003692:    231c        .#      MOVS     r3,#0x1c
        0x00003694:    4363        cC      MULS     r3,r4,r3
        0x00003696:    195b        [.      ADDS     r3,r3,r5
        0x00003698:    885b        [.      LDRH     r3,[r3,#2]
        0x0000369a:    b2d9        ..      UXTB     r1,r3
        0x0000369c:    7833        3x      LDRB     r3,[r6,#0]
        0x0000369e:    1c5b        [.      ADDS     r3,r3,#1
        0x000036a0:    b2d8        ..      UXTB     r0,r3
        0x000036a2:    235a        Z#      MOVS     r3,#0x5a
        0x000036a4:    f001f912    ....    BL       writeOneSprite ; 0x48cc
        0x000036a8:    2060        `       MOVS     r0,#0x60
        0x000036aa:    231c        .#      MOVS     r3,#0x1c
        0x000036ac:    4363        cC      MULS     r3,r4,r3
        0x000036ae:    195b        [.      ADDS     r3,r3,r5
        0x000036b0:    9000        ..      STR      r0,[sp,#0]
        0x000036b2:    889b        ..      LDRH     r3,[r3,#4]
        0x000036b4:    1cdb        ..      ADDS     r3,r3,#3
        0x000036b6:    b2da        ..      UXTB     r2,r3
        0x000036b8:    231c        .#      MOVS     r3,#0x1c
        0x000036ba:    4363        cC      MULS     r3,r4,r3
        0x000036bc:    195b        [.      ADDS     r3,r3,r5
        0x000036be:    885b        [.      LDRH     r3,[r3,#2]
        0x000036c0:    3b08        .;      SUBS     r3,r3,#8
        0x000036c2:    b2d9        ..      UXTB     r1,r3
        0x000036c4:    7833        3x      LDRB     r3,[r6,#0]
        0x000036c6:    1c9b        ..      ADDS     r3,r3,#2
        0x000036c8:    b2d8        ..      UXTB     r0,r3
        0x000036ca:    235b        [#      MOVS     r3,#0x5b
        0x000036cc:    f001f8fe    ....    BL       writeOneSprite ; 0x48cc
        0x000036d0:    7830        0x      LDRB     r0,[r6,#0]
        0x000036d2:    1cc0        ..      ADDS     r0,r0,#3
        0x000036d4:    7030        0p      STRB     r0,[r6,#0]
        0x000036d6:    e11a        ..      B        0x390e ; s_green_drawPlane + 726
        0x000036d8:    20a0        .       MOVS     r0,#0xa0
        0x000036da:    231c        .#      MOVS     r3,#0x1c
        0x000036dc:    4363        cC      MULS     r3,r4,r3
        0x000036de:    195b        [.      ADDS     r3,r3,r5
        0x000036e0:    9000        ..      STR      r0,[sp,#0]
        0x000036e2:    889b        ..      LDRH     r3,[r3,#4]
        0x000036e4:    1c5b        [.      ADDS     r3,r3,#1
        0x000036e6:    b2da        ..      UXTB     r2,r3
        0x000036e8:    231c        .#      MOVS     r3,#0x1c
        0x000036ea:    4363        cC      MULS     r3,r4,r3
        0x000036ec:    195b        [.      ADDS     r3,r3,r5
        0x000036ee:    885b        [.      LDRH     r3,[r3,#2]
        0x000036f0:    1c5b        [.      ADDS     r3,r3,#1
        0x000036f2:    b2d9        ..      UXTB     r1,r3
        0x000036f4:    7830        0x      LDRB     r0,[r6,#0]
        0x000036f6:    235e        ^#      MOVS     r3,#0x5e
        0x000036f8:    f001f8e8    ....    BL       writeOneSprite ; 0x48cc
        0x000036fc:    20a0        .       MOVS     r0,#0xa0
        0x000036fe:    231c        .#      MOVS     r3,#0x1c
        0x00003700:    4363        cC      MULS     r3,r4,r3
        0x00003702:    195b        [.      ADDS     r3,r3,r5
        0x00003704:    9000        ..      STR      r0,[sp,#0]
        0x00003706:    889b        ..      LDRH     r3,[r3,#4]
        0x00003708:    1c5b        [.      ADDS     r3,r3,#1
        0x0000370a:    b2da        ..      UXTB     r2,r3
        0x0000370c:    231c        .#      MOVS     r3,#0x1c
        0x0000370e:    4363        cC      MULS     r3,r4,r3
        0x00003710:    195b        [.      ADDS     r3,r3,r5
        0x00003712:    885b        [.      LDRH     r3,[r3,#2]
        0x00003714:    3308        .3      ADDS     r3,r3,#8
        0x00003716:    b2d9        ..      UXTB     r1,r3
        0x00003718:    7833        3x      LDRB     r3,[r6,#0]
        0x0000371a:    1c5b        [.      ADDS     r3,r3,#1
        0x0000371c:    b2d8        ..      UXTB     r0,r3
        0x0000371e:    235f        _#      MOVS     r3,#0x5f
        0x00003720:    f001f8d4    ....    BL       writeOneSprite ; 0x48cc
        0x00003724:    20a0        .       MOVS     r0,#0xa0
        0x00003726:    231c        .#      MOVS     r3,#0x1c
        0x00003728:    4363        cC      MULS     r3,r4,r3
        0x0000372a:    195b        [.      ADDS     r3,r3,r5
        0x0000372c:    9000        ..      STR      r0,[sp,#0]
        0x0000372e:    889b        ..      LDRH     r3,[r3,#4]
        0x00003730:    3308        .3      ADDS     r3,r3,#8
        0x00003732:    b2da        ..      UXTB     r2,r3
        0x00003734:    231c        .#      MOVS     r3,#0x1c
        0x00003736:    4363        cC      MULS     r3,r4,r3
        0x00003738:    195b        [.      ADDS     r3,r3,r5
        0x0000373a:    885b        [.      LDRH     r3,[r3,#2]
        0x0000373c:    b2d9        ..      UXTB     r1,r3
        0x0000373e:    7833        3x      LDRB     r3,[r6,#0]
        0x00003740:    1c9b        ..      ADDS     r3,r3,#2
        0x00003742:    b2d8        ..      UXTB     r0,r3
        0x00003744:    235c        \#      MOVS     r3,#0x5c
        0x00003746:    e000        ..      B        0x374a ; s_green_drawPlane + 274
        0x00003748:    e0e2        ..      B        0x3910 ; s_green_drawPlane + 728
        0x0000374a:    f001f8bf    ....    BL       writeOneSprite ; 0x48cc
        0x0000374e:    20a0        .       MOVS     r0,#0xa0
        0x00003750:    231c        .#      MOVS     r3,#0x1c
        0x00003752:    4363        cC      MULS     r3,r4,r3
        0x00003754:    195b        [.      ADDS     r3,r3,r5
        0x00003756:    9000        ..      STR      r0,[sp,#0]
        0x00003758:    889b        ..      LDRH     r3,[r3,#4]
        0x0000375a:    3308        .3      ADDS     r3,r3,#8
        0x0000375c:    b2da        ..      UXTB     r2,r3
        0x0000375e:    231c        .#      MOVS     r3,#0x1c
        0x00003760:    4363        cC      MULS     r3,r4,r3
        0x00003762:    195b        [.      ADDS     r3,r3,r5
        0x00003764:    885b        [.      LDRH     r3,[r3,#2]
        0x00003766:    3308        .3      ADDS     r3,r3,#8
        0x00003768:    b2d9        ..      UXTB     r1,r3
        0x0000376a:    7833        3x      LDRB     r3,[r6,#0]
        0x0000376c:    1cdb        ..      ADDS     r3,r3,#3
        0x0000376e:    b2d8        ..      UXTB     r0,r3
        0x00003770:    235d        ]#      MOVS     r3,#0x5d
        0x00003772:    f001f8ab    ....    BL       writeOneSprite ; 0x48cc
        0x00003776:    7830        0x      LDRB     r0,[r6,#0]
        0x00003778:    1d00        ..      ADDS     r0,r0,#4
        0x0000377a:    7030        0p      STRB     r0,[r6,#0]
        0x0000377c:    e0c7        ..      B        0x390e ; s_green_drawPlane + 726
        0x0000377e:    2020                MOVS     r0,#0x20
        0x00003780:    231c        .#      MOVS     r3,#0x1c
        0x00003782:    4363        cC      MULS     r3,r4,r3
        0x00003784:    195b        [.      ADDS     r3,r3,r5
        0x00003786:    9000        ..      STR      r0,[sp,#0]
        0x00003788:    889b        ..      LDRH     r3,[r3,#4]
        0x0000378a:    b2da        ..      UXTB     r2,r3
        0x0000378c:    231c        .#      MOVS     r3,#0x1c
        0x0000378e:    4363        cC      MULS     r3,r4,r3
        0x00003790:    195b        [.      ADDS     r3,r3,r5
        0x00003792:    885b        [.      LDRH     r3,[r3,#2]
        0x00003794:    b2d9        ..      UXTB     r1,r3
        0x00003796:    7830        0x      LDRB     r0,[r6,#0]
        0x00003798:    2340        @#      MOVS     r3,#0x40
        0x0000379a:    f001f897    ....    BL       writeOneSprite ; 0x48cc
        0x0000379e:    2020                MOVS     r0,#0x20
        0x000037a0:    231c        .#      MOVS     r3,#0x1c
        0x000037a2:    4363        cC      MULS     r3,r4,r3
        0x000037a4:    195b        [.      ADDS     r3,r3,r5
        0x000037a6:    9000        ..      STR      r0,[sp,#0]
        0x000037a8:    889b        ..      LDRH     r3,[r3,#4]
        0x000037aa:    b2da        ..      UXTB     r2,r3
        0x000037ac:    231c        .#      MOVS     r3,#0x1c
        0x000037ae:    4363        cC      MULS     r3,r4,r3
        0x000037b0:    195b        [.      ADDS     r3,r3,r5
        0x000037b2:    885b        [.      LDRH     r3,[r3,#2]
        0x000037b4:    3308        .3      ADDS     r3,r3,#8
        0x000037b6:    b2d9        ..      UXTB     r1,r3
        0x000037b8:    7833        3x      LDRB     r3,[r6,#0]
        0x000037ba:    1c5b        [.      ADDS     r3,r3,#1
        0x000037bc:    b2d8        ..      UXTB     r0,r3
        0x000037be:    2341        A#      MOVS     r3,#0x41
        0x000037c0:    f001f884    ....    BL       writeOneSprite ; 0x48cc
        0x000037c4:    2020                MOVS     r0,#0x20
        0x000037c6:    231c        .#      MOVS     r3,#0x1c
        0x000037c8:    4363        cC      MULS     r3,r4,r3
        0x000037ca:    195b        [.      ADDS     r3,r3,r5
        0x000037cc:    9000        ..      STR      r0,[sp,#0]
        0x000037ce:    889b        ..      LDRH     r3,[r3,#4]
        0x000037d0:    3b08        .;      SUBS     r3,r3,#8
        0x000037d2:    b2da        ..      UXTB     r2,r3
        0x000037d4:    231c        .#      MOVS     r3,#0x1c
        0x000037d6:    4363        cC      MULS     r3,r4,r3
        0x000037d8:    195b        [.      ADDS     r3,r3,r5
        0x000037da:    885b        [.      LDRH     r3,[r3,#2]
        0x000037dc:    1d1b        ..      ADDS     r3,r3,#4
        0x000037de:    b2d9        ..      UXTB     r1,r3
        0x000037e0:    7833        3x      LDRB     r3,[r6,#0]
        0x000037e2:    1c9b        ..      ADDS     r3,r3,#2
        0x000037e4:    b2d8        ..      UXTB     r0,r3
        0x000037e6:    2342        B#      MOVS     r3,#0x42
        0x000037e8:    f001f870    ..p.    BL       writeOneSprite ; 0x48cc
        0x000037ec:    7830        0x      LDRB     r0,[r6,#0]
        0x000037ee:    1cc0        ..      ADDS     r0,r0,#3
        0x000037f0:    7030        0p      STRB     r0,[r6,#0]
        0x000037f2:    e08c        ..      B        0x390e ; s_green_drawPlane + 726
        0x000037f4:    20e0        .       MOVS     r0,#0xe0
        0x000037f6:    231c        .#      MOVS     r3,#0x1c
        0x000037f8:    4363        cC      MULS     r3,r4,r3
        0x000037fa:    195b        [.      ADDS     r3,r3,r5
        0x000037fc:    9000        ..      STR      r0,[sp,#0]
        0x000037fe:    889b        ..      LDRH     r3,[r3,#4]
        0x00003800:    b2da        ..      UXTB     r2,r3
        0x00003802:    231c        .#      MOVS     r3,#0x1c
        0x00003804:    4363        cC      MULS     r3,r4,r3
        0x00003806:    195b        [.      ADDS     r3,r3,r5
        0x00003808:    885b        [.      LDRH     r3,[r3,#2]
        0x0000380a:    b2d9        ..      UXTB     r1,r3
        0x0000380c:    7830        0x      LDRB     r0,[r6,#0]
        0x0000380e:    235f        _#      MOVS     r3,#0x5f
        0x00003810:    f001f85c    ..\.    BL       writeOneSprite ; 0x48cc
        0x00003814:    20e0        .       MOVS     r0,#0xe0
        0x00003816:    231c        .#      MOVS     r3,#0x1c
        0x00003818:    4363        cC      MULS     r3,r4,r3
        0x0000381a:    195b        [.      ADDS     r3,r3,r5
        0x0000381c:    9000        ..      STR      r0,[sp,#0]
        0x0000381e:    889b        ..      LDRH     r3,[r3,#4]
        0x00003820:    b2da        ..      UXTB     r2,r3
        0x00003822:    231c        .#      MOVS     r3,#0x1c
        0x00003824:    4363        cC      MULS     r3,r4,r3
        0x00003826:    195b        [.      ADDS     r3,r3,r5
        0x00003828:    885b        [.      LDRH     r3,[r3,#2]
        0x0000382a:    3308        .3      ADDS     r3,r3,#8
        0x0000382c:    b2d9        ..      UXTB     r1,r3
        0x0000382e:    7833        3x      LDRB     r3,[r6,#0]
        0x00003830:    1c5b        [.      ADDS     r3,r3,#1
        0x00003832:    b2d8        ..      UXTB     r0,r3
        0x00003834:    235e        ^#      MOVS     r3,#0x5e
        0x00003836:    f001f849    ..I.    BL       writeOneSprite ; 0x48cc
        0x0000383a:    20e0        .       MOVS     r0,#0xe0
        0x0000383c:    231c        .#      MOVS     r3,#0x1c
        0x0000383e:    4363        cC      MULS     r3,r4,r3
        0x00003840:    195b        [.      ADDS     r3,r3,r5
        0x00003842:    9000        ..      STR      r0,[sp,#0]
        0x00003844:    889b        ..      LDRH     r3,[r3,#4]
        0x00003846:    3308        .3      ADDS     r3,r3,#8
        0x00003848:    b2da        ..      UXTB     r2,r3
        0x0000384a:    231c        .#      MOVS     r3,#0x1c
        0x0000384c:    4363        cC      MULS     r3,r4,r3
        0x0000384e:    195b        [.      ADDS     r3,r3,r5
        0x00003850:    885b        [.      LDRH     r3,[r3,#2]
        0x00003852:    e001        ..      B        0x3858 ; s_green_drawPlane + 544
        0x00003854:    e05a        Z.      B        0x390c ; s_green_drawPlane + 724
        0x00003856:    e01e        ..      B        0x3896 ; s_green_drawPlane + 606
        0x00003858:    b2d9        ..      UXTB     r1,r3
        0x0000385a:    7833        3x      LDRB     r3,[r6,#0]
        0x0000385c:    1c9b        ..      ADDS     r3,r3,#2
        0x0000385e:    b2d8        ..      UXTB     r0,r3
        0x00003860:    235d        ]#      MOVS     r3,#0x5d
        0x00003862:    f001f833    ..3.    BL       writeOneSprite ; 0x48cc
        0x00003866:    20e0        .       MOVS     r0,#0xe0
        0x00003868:    231c        .#      MOVS     r3,#0x1c
        0x0000386a:    4363        cC      MULS     r3,r4,r3
        0x0000386c:    195b        [.      ADDS     r3,r3,r5
        0x0000386e:    9000        ..      STR      r0,[sp,#0]
        0x00003870:    889b        ..      LDRH     r3,[r3,#4]
        0x00003872:    3308        .3      ADDS     r3,r3,#8
        0x00003874:    b2da        ..      UXTB     r2,r3
        0x00003876:    231c        .#      MOVS     r3,#0x1c
        0x00003878:    4363        cC      MULS     r3,r4,r3
        0x0000387a:    195b        [.      ADDS     r3,r3,r5
        0x0000387c:    885b        [.      LDRH     r3,[r3,#2]
        0x0000387e:    3308        .3      ADDS     r3,r3,#8
        0x00003880:    b2d9        ..      UXTB     r1,r3
        0x00003882:    7833        3x      LDRB     r3,[r6,#0]
        0x00003884:    1cdb        ..      ADDS     r3,r3,#3
        0x00003886:    b2d8        ..      UXTB     r0,r3
        0x00003888:    235c        \#      MOVS     r3,#0x5c
        0x0000388a:    f001f81f    ....    BL       writeOneSprite ; 0x48cc
        0x0000388e:    7830        0x      LDRB     r0,[r6,#0]
        0x00003890:    1d00        ..      ADDS     r0,r0,#4
        0x00003892:    7030        0p      STRB     r0,[r6,#0]
        0x00003894:    e03b        ;.      B        0x390e ; s_green_drawPlane + 726
        0x00003896:    2020                MOVS     r0,#0x20
        0x00003898:    231c        .#      MOVS     r3,#0x1c
        0x0000389a:    4363        cC      MULS     r3,r4,r3
        0x0000389c:    195b        [.      ADDS     r3,r3,r5
        0x0000389e:    9000        ..      STR      r0,[sp,#0]
        0x000038a0:    889b        ..      LDRH     r3,[r3,#4]
        0x000038a2:    b2da        ..      UXTB     r2,r3
        0x000038a4:    231c        .#      MOVS     r3,#0x1c
        0x000038a6:    4363        cC      MULS     r3,r4,r3
        0x000038a8:    195b        [.      ADDS     r3,r3,r5
        0x000038aa:    885b        [.      LDRH     r3,[r3,#2]
        0x000038ac:    b2d9        ..      UXTB     r1,r3
        0x000038ae:    7830        0x      LDRB     r0,[r6,#0]
        0x000038b0:    2359        Y#      MOVS     r3,#0x59
        0x000038b2:    f001f80b    ....    BL       writeOneSprite ; 0x48cc
        0x000038b6:    2020                MOVS     r0,#0x20
        0x000038b8:    231c        .#      MOVS     r3,#0x1c
        0x000038ba:    4363        cC      MULS     r3,r4,r3
        0x000038bc:    195b        [.      ADDS     r3,r3,r5
        0x000038be:    9000        ..      STR      r0,[sp,#0]
        0x000038c0:    889b        ..      LDRH     r3,[r3,#4]
        0x000038c2:    1ddb        ..      ADDS     r3,r3,#7
        0x000038c4:    b2da        ..      UXTB     r2,r3
        0x000038c6:    231c        .#      MOVS     r3,#0x1c
        0x000038c8:    4363        cC      MULS     r3,r4,r3
        0x000038ca:    195b        [.      ADDS     r3,r3,r5
        0x000038cc:    885b        [.      LDRH     r3,[r3,#2]
        0x000038ce:    b2d9        ..      UXTB     r1,r3
        0x000038d0:    7833        3x      LDRB     r3,[r6,#0]
        0x000038d2:    1c5b        [.      ADDS     r3,r3,#1
        0x000038d4:    b2d8        ..      UXTB     r0,r3
        0x000038d6:    235a        Z#      MOVS     r3,#0x5a
        0x000038d8:    f000fff8    ....    BL       writeOneSprite ; 0x48cc
        0x000038dc:    2020                MOVS     r0,#0x20
        0x000038de:    231c        .#      MOVS     r3,#0x1c
        0x000038e0:    4363        cC      MULS     r3,r4,r3
        0x000038e2:    195b        [.      ADDS     r3,r3,r5
        0x000038e4:    9000        ..      STR      r0,[sp,#0]
        0x000038e6:    889b        ..      LDRH     r3,[r3,#4]
        0x000038e8:    1cdb        ..      ADDS     r3,r3,#3
        0x000038ea:    b2da        ..      UXTB     r2,r3
        0x000038ec:    231c        .#      MOVS     r3,#0x1c
        0x000038ee:    4363        cC      MULS     r3,r4,r3
        0x000038f0:    195b        [.      ADDS     r3,r3,r5
        0x000038f2:    885b        [.      LDRH     r3,[r3,#2]
        0x000038f4:    3308        .3      ADDS     r3,r3,#8
        0x000038f6:    b2d9        ..      UXTB     r1,r3
        0x000038f8:    7833        3x      LDRB     r3,[r6,#0]
        0x000038fa:    1c9b        ..      ADDS     r3,r3,#2
        0x000038fc:    b2d8        ..      UXTB     r0,r3
        0x000038fe:    235b        [#      MOVS     r3,#0x5b
        0x00003900:    f000ffe4    ....    BL       writeOneSprite ; 0x48cc
        0x00003904:    7830        0x      LDRB     r0,[r6,#0]
        0x00003906:    1cc0        ..      ADDS     r0,r0,#3
        0x00003908:    7030        0p      STRB     r0,[r6,#0]
        0x0000390a:    e000        ..      B        0x390e ; s_green_drawPlane + 726
        0x0000390c:    bf00        ..      NOP      
        0x0000390e:    bf00        ..      NOP      
        0x00003910:    1c64        d.      ADDS     r4,r4,#1
        0x00003912:    4803        .H      LDR      r0,[pc,#12] ; [0x3920] = 0x48f2
        0x00003914:    7800        .x      LDRB     r0,[r0,#0]
        0x00003916:    4284        .B      CMP      r4,r0
        0x00003918:    da00        ..      BGE      0x391c ; s_green_drawPlane + 740
        0x0000391a:    e692        ..      B        0x3642 ; s_green_drawPlane + 10
        0x0000391c:    bdf8        ..      POP      {r3-r7,pc}
    $d
        0x0000391e:    0000        ..      DCW    0
        0x00003920:    000048f2    .H..    DCD    18674
    $t
    i.s_green_movePlane
    s_green_movePlane
        0x00003924:    b5f8        ..      PUSH     {r3-r7,lr}
        0x00003926:    4605        .F      MOV      r5,r0
        0x00003928:    460e        .F      MOV      r6,r1
        0x0000392a:    2400        .$      MOVS     r4,#0
        0x0000392c:    e195        ..      B        0x3c5a ; s_green_movePlane + 822
        0x0000392e:    201c        .       MOVS     r0,#0x1c
        0x00003930:    4360        `C      MULS     r0,r4,r0
        0x00003932:    5c28        (\      LDRB     r0,[r5,r0]
        0x00003934:    2800        .(      CMP      r0,#0
        0x00003936:    d02a        *.      BEQ      0x398e ; s_green_movePlane + 106
        0x00003938:    201c        .       MOVS     r0,#0x1c
        0x0000393a:    4360        `C      MULS     r0,r4,r0
        0x0000393c:    1940        @.      ADDS     r0,r0,r5
        0x0000393e:    7840        @x      LDRB     r0,[r0,#1]
        0x00003940:    2802        .(      CMP      r0,#2
        0x00003942:    d17d        }.      BNE      0x3a40 ; s_green_movePlane + 284
        0x00003944:    2100        .!      MOVS     r1,#0
        0x00003946:    201c        .       MOVS     r0,#0x1c
        0x00003948:    4360        `C      MULS     r0,r4,r0
        0x0000394a:    1940        @.      ADDS     r0,r0,r5
        0x0000394c:    7041        Ap      STRB     r1,[r0,#1]
        0x0000394e:    201c        .       MOVS     r0,#0x1c
        0x00003950:    4360        `C      MULS     r0,r4,r0
        0x00003952:    1940        @.      ADDS     r0,r0,r5
        0x00003954:    2102        .!      MOVS     r1,#2
        0x00003956:    5e41        A^      LDRSH    r1,[r0,r1]
        0x00003958:    2905        .)      CMP      r1,#5
        0x0000395a:    db14        ..      BLT      0x3986 ; s_green_movePlane + 98
        0x0000395c:    201c        .       MOVS     r0,#0x1c
        0x0000395e:    4360        `C      MULS     r0,r4,r0
        0x00003960:    1940        @.      ADDS     r0,r0,r5
        0x00003962:    2102        .!      MOVS     r1,#2
        0x00003964:    5e41        A^      LDRSH    r1,[r0,r1]
        0x00003966:    29fb        .)      CMP      r1,#0xfb
        0x00003968:    dc0d        ..      BGT      0x3986 ; s_green_movePlane + 98
        0x0000396a:    201c        .       MOVS     r0,#0x1c
        0x0000396c:    4360        `C      MULS     r0,r4,r0
        0x0000396e:    1940        @.      ADDS     r0,r0,r5
        0x00003970:    2104        .!      MOVS     r1,#4
        0x00003972:    5e41        A^      LDRSH    r1,[r0,r1]
        0x00003974:    290a        .)      CMP      r1,#0xa
        0x00003976:    db06        ..      BLT      0x3986 ; s_green_movePlane + 98
        0x00003978:    201c        .       MOVS     r0,#0x1c
        0x0000397a:    4360        `C      MULS     r0,r4,r0
        0x0000397c:    1940        @.      ADDS     r0,r0,r5
        0x0000397e:    2104        .!      MOVS     r1,#4
        0x00003980:    5e41        A^      LDRSH    r1,[r0,r1]
        0x00003982:    29e6        .)      CMP      r1,#0xe6
        0x00003984:    dd04        ..      BLE      0x3990 ; s_green_movePlane + 108
        0x00003986:    2100        .!      MOVS     r1,#0
        0x00003988:    201c        .       MOVS     r0,#0x1c
        0x0000398a:    4360        `C      MULS     r0,r4,r0
        0x0000398c:    5429        )T      STRB     r1,[r5,r0]
        0x0000398e:    e163        c.      B        0x3c58 ; s_green_movePlane + 820
        0x00003990:    201c        .       MOVS     r0,#0x1c
        0x00003992:    4360        `C      MULS     r0,r4,r0
        0x00003994:    1940        @.      ADDS     r0,r0,r5
        0x00003996:    7980        .y      LDRB     r0,[r0,#6]
        0x00003998:    2800        .(      CMP      r0,#0
        0x0000399a:    d13a        :.      BNE      0x3a12 ; s_green_movePlane + 238
        0x0000399c:    201c        .       MOVS     r0,#0x1c
        0x0000399e:    4360        `C      MULS     r0,r4,r0
        0x000039a0:    1940        @.      ADDS     r0,r0,r5
        0x000039a2:    2102        .!      MOVS     r1,#2
        0x000039a4:    5e41        A^      LDRSH    r1,[r0,r1]
        0x000039a6:    201c        .       MOVS     r0,#0x1c
        0x000039a8:    4360        `C      MULS     r0,r4,r0
        0x000039aa:    1940        @.      ADDS     r0,r0,r5
        0x000039ac:    220a        ."      MOVS     r2,#0xa
        0x000039ae:    5e82        .^      LDRSH    r2,[r0,r2]
        0x000039b0:    4291        .B      CMP      r1,r2
        0x000039b2:    db0a        ..      BLT      0x39ca ; s_green_movePlane + 166
        0x000039b4:    2101        .!      MOVS     r1,#1
        0x000039b6:    201c        .       MOVS     r0,#0x1c
        0x000039b8:    4360        `C      MULS     r0,r4,r0
        0x000039ba:    1940        @.      ADDS     r0,r0,r5
        0x000039bc:    7181        .q      STRB     r1,[r0,#6]
        0x000039be:    2100        .!      MOVS     r1,#0
        0x000039c0:    201c        .       MOVS     r0,#0x1c
        0x000039c2:    4360        `C      MULS     r0,r4,r0
        0x000039c4:    1940        @.      ADDS     r0,r0,r5
        0x000039c6:    7241        Ar      STRB     r1,[r0,#9]
        0x000039c8:    e01d        ..      B        0x3a06 ; s_green_movePlane + 226
        0x000039ca:    201c        .       MOVS     r0,#0x1c
        0x000039cc:    4360        `C      MULS     r0,r4,r0
        0x000039ce:    1940        @.      ADDS     r0,r0,r5
        0x000039d0:    8841        A.      LDRH     r1,[r0,#2]
        0x000039d2:    201c        .       MOVS     r0,#0x1c
        0x000039d4:    4360        `C      MULS     r0,r4,r0
        0x000039d6:    1940        @.      ADDS     r0,r0,r5
        0x000039d8:    2207        ."      MOVS     r2,#7
        0x000039da:    5682        .V      LDRSB    r2,[r0,r2]
        0x000039dc:    1888        ..      ADDS     r0,r1,r2
        0x000039de:    b201        ..      SXTH     r1,r0
        0x000039e0:    201c        .       MOVS     r0,#0x1c
        0x000039e2:    4360        `C      MULS     r0,r4,r0
        0x000039e4:    1940        @.      ADDS     r0,r0,r5
        0x000039e6:    8041        A.      STRH     r1,[r0,#2]
        0x000039e8:    201c        .       MOVS     r0,#0x1c
        0x000039ea:    4360        `C      MULS     r0,r4,r0
        0x000039ec:    1940        @.      ADDS     r0,r0,r5
        0x000039ee:    8881        ..      LDRH     r1,[r0,#4]
        0x000039f0:    201c        .       MOVS     r0,#0x1c
        0x000039f2:    4360        `C      MULS     r0,r4,r0
        0x000039f4:    1940        @.      ADDS     r0,r0,r5
        0x000039f6:    2208        ."      MOVS     r2,#8
        0x000039f8:    5682        .V      LDRSB    r2,[r0,r2]
        0x000039fa:    1888        ..      ADDS     r0,r1,r2
        0x000039fc:    b201        ..      SXTH     r1,r0
        0x000039fe:    201c        .       MOVS     r0,#0x1c
        0x00003a00:    4360        `C      MULS     r0,r4,r0
        0x00003a02:    1940        @.      ADDS     r0,r0,r5
        0x00003a04:    8081        ..      STRH     r1,[r0,#4]
        0x00003a06:    2100        .!      MOVS     r1,#0
        0x00003a08:    201c        .       MOVS     r0,#0x1c
        0x00003a0a:    4360        `C      MULS     r0,r4,r0
        0x00003a0c:    1940        @.      ADDS     r0,r0,r5
        0x00003a0e:    7681        .v      STRB     r1,[r0,#0x1a]
        0x00003a10:    e122        ".      B        0x3c58 ; s_green_movePlane + 820
        0x00003a12:    201c        .       MOVS     r0,#0x1c
        0x00003a14:    4360        `C      MULS     r0,r4,r0
        0x00003a16:    1940        @.      ADDS     r0,r0,r5
        0x00003a18:    7980        .y      LDRB     r0,[r0,#6]
        0x00003a1a:    2801        .(      CMP      r0,#1
        0x00003a1c:    d1b7        ..      BNE      0x398e ; s_green_movePlane + 106
        0x00003a1e:    201c        .       MOVS     r0,#0x1c
        0x00003a20:    4360        `C      MULS     r0,r4,r0
        0x00003a22:    1940        @.      ADDS     r0,r0,r5
        0x00003a24:    7a40        @z      LDRB     r0,[r0,#9]
        0x00003a26:    0003        ..      MOVS     r3,r0
        0x00003a28:    f7fdf902    ....    BL       __ARM_common_switch8 ; 0xc30
    $d
        0x00003a2c:    74370405    ..7t    DCD    1949762565
        0x00003a30:    00fedea1    ....    DCD    16703137
    $t
        0x00003a34:    2100        .!      MOVS     r1,#0
        0x00003a36:    201c        .       MOVS     r0,#0x1c
        0x00003a38:    4360        `C      MULS     r0,r4,r0
        0x00003a3a:    1940        @.      ADDS     r0,r0,r5
        0x00003a3c:    7681        .v      STRB     r1,[r0,#0x1a]
        0x00003a3e:    e000        ..      B        0x3a42 ; s_green_movePlane + 286
        0x00003a40:    e100        ..      B        0x3c44 ; s_green_movePlane + 800
        0x00003a42:    201c        .       MOVS     r0,#0x1c
        0x00003a44:    4360        `C      MULS     r0,r4,r0
        0x00003a46:    1940        @.      ADDS     r0,r0,r5
        0x00003a48:    8840        @.      LDRH     r0,[r0,#2]
        0x00003a4a:    1cc0        ..      ADDS     r0,r0,#3
        0x00003a4c:    b201        ..      SXTH     r1,r0
        0x00003a4e:    201c        .       MOVS     r0,#0x1c
        0x00003a50:    4360        `C      MULS     r0,r4,r0
        0x00003a52:    1940        @.      ADDS     r0,r0,r5
        0x00003a54:    8041        A.      STRH     r1,[r0,#2]
        0x00003a56:    f7fcfb8b    ....    BL       rand ; 0x170
        0x00003a5a:    4607        .F      MOV      r7,r0
        0x00003a5c:    2103        .!      MOVS     r1,#3
        0x00003a5e:    f7fcfb73    ..s.    BL       __aeabi_idiv ; 0x148
        0x00003a62:    201c        .       MOVS     r0,#0x1c
        0x00003a64:    4360        `C      MULS     r0,r4,r0
        0x00003a66:    1940        @.      ADDS     r0,r0,r5
        0x00003a68:    8880        ..      LDRH     r0,[r0,#4]
        0x00003a6a:    1808        ..      ADDS     r0,r1,r0
        0x00003a6c:    b201        ..      SXTH     r1,r0
        0x00003a6e:    201c        .       MOVS     r0,#0x1c
        0x00003a70:    4360        `C      MULS     r0,r4,r0
        0x00003a72:    1940        @.      ADDS     r0,r0,r5
        0x00003a74:    8081        ..      STRH     r1,[r0,#4]
        0x00003a76:    201c        .       MOVS     r0,#0x1c
        0x00003a78:    4360        `C      MULS     r0,r4,r0
        0x00003a7a:    1940        @.      ADDS     r0,r0,r5
        0x00003a7c:    2102        .!      MOVS     r1,#2
        0x00003a7e:    5e41        A^      LDRSH    r1,[r0,r1]
        0x00003a80:    201c        .       MOVS     r0,#0x1c
        0x00003a82:    4360        `C      MULS     r0,r4,r0
        0x00003a84:    1940        @.      ADDS     r0,r0,r5
        0x00003a86:    220c        ."      MOVS     r2,#0xc
        0x00003a88:    5e82        .^      LDRSH    r2,[r0,r2]
        0x00003a8a:    4291        .B      CMP      r1,r2
        0x00003a8c:    db04        ..      BLT      0x3a98 ; s_green_movePlane + 372
        0x00003a8e:    2101        .!      MOVS     r1,#1
        0x00003a90:    201c        .       MOVS     r0,#0x1c
        0x00003a92:    4360        `C      MULS     r0,r4,r0
        0x00003a94:    1940        @.      ADDS     r0,r0,r5
        0x00003a96:    7241        Ar      STRB     r1,[r0,#9]
        0x00003a98:    e0d3        ..      B        0x3c42 ; s_green_movePlane + 798
        0x00003a9a:    2101        .!      MOVS     r1,#1
        0x00003a9c:    201c        .       MOVS     r0,#0x1c
        0x00003a9e:    4360        `C      MULS     r0,r4,r0
        0x00003aa0:    1940        @.      ADDS     r0,r0,r5
        0x00003aa2:    7681        .v      STRB     r1,[r0,#0x1a]
        0x00003aa4:    f7fcfb64    ..d.    BL       rand ; 0x170
        0x00003aa8:    4607        .F      MOV      r7,r0
        0x00003aaa:    0fc0        ..      LSRS     r0,r0,#31
        0x00003aac:    19c0        ..      ADDS     r0,r0,r7
        0x00003aae:    1040        @.      ASRS     r0,r0,#1
        0x00003ab0:    0040        @.      LSLS     r0,r0,#1
        0x00003ab2:    1a38        8.      SUBS     r0,r7,r0
        0x00003ab4:    1c80        ..      ADDS     r0,r0,#2
        0x00003ab6:    211c        .!      MOVS     r1,#0x1c
        0x00003ab8:    4361        aC      MULS     r1,r4,r1
        0x00003aba:    1949        I.      ADDS     r1,r1,r5
        0x00003abc:    8849        I.      LDRH     r1,[r1,#2]
        0x00003abe:    1840        @.      ADDS     r0,r0,r1
        0x00003ac0:    b201        ..      SXTH     r1,r0
        0x00003ac2:    201c        .       MOVS     r0,#0x1c
        0x00003ac4:    4360        `C      MULS     r0,r4,r0
        0x00003ac6:    1940        @.      ADDS     r0,r0,r5
        0x00003ac8:    8041        A.      STRH     r1,[r0,#2]
        0x00003aca:    f7fcfb51    ..Q.    BL       rand ; 0x170
        0x00003ace:    4607        .F      MOV      r7,r0
        0x00003ad0:    0fc0        ..      LSRS     r0,r0,#31
        0x00003ad2:    19c0        ..      ADDS     r0,r0,r7
        0x00003ad4:    1040        @.      ASRS     r0,r0,#1
        0x00003ad6:    0040        @.      LSLS     r0,r0,#1
        0x00003ad8:    1a38        8.      SUBS     r0,r7,r0
        0x00003ada:    1c80        ..      ADDS     r0,r0,#2
        0x00003adc:    211c        .!      MOVS     r1,#0x1c
        0x00003ade:    4361        aC      MULS     r1,r4,r1
        0x00003ae0:    1949        I.      ADDS     r1,r1,r5
        0x00003ae2:    8889        ..      LDRH     r1,[r1,#4]
        0x00003ae4:    1840        @.      ADDS     r0,r0,r1
        0x00003ae6:    b201        ..      SXTH     r1,r0
        0x00003ae8:    201c        .       MOVS     r0,#0x1c
        0x00003aea:    4360        `C      MULS     r0,r4,r0
        0x00003aec:    1940        @.      ADDS     r0,r0,r5
        0x00003aee:    8081        ..      STRH     r1,[r0,#4]
        0x00003af0:    201c        .       MOVS     r0,#0x1c
        0x00003af2:    4360        `C      MULS     r0,r4,r0
        0x00003af4:    1940        @.      ADDS     r0,r0,r5
        0x00003af6:    2104        .!      MOVS     r1,#4
        0x00003af8:    5e41        A^      LDRSH    r1,[r0,r1]
        0x00003afa:    201c        .       MOVS     r0,#0x1c
        0x00003afc:    4360        `C      MULS     r0,r4,r0
        0x00003afe:    1940        @.      ADDS     r0,r0,r5
        0x00003b00:    220e        ."      MOVS     r2,#0xe
        0x00003b02:    5e82        .^      LDRSH    r2,[r0,r2]
        0x00003b04:    4291        .B      CMP      r1,r2
        0x00003b06:    db04        ..      BLT      0x3b12 ; s_green_movePlane + 494
        0x00003b08:    2102        .!      MOVS     r1,#2
        0x00003b0a:    201c        .       MOVS     r0,#0x1c
        0x00003b0c:    4360        `C      MULS     r0,r4,r0
        0x00003b0e:    1940        @.      ADDS     r0,r0,r5
        0x00003b10:    7241        Ar      STRB     r1,[r0,#9]
        0x00003b12:    e096        ..      B        0x3c42 ; s_green_movePlane + 798
        0x00003b14:    2102        .!      MOVS     r1,#2
        0x00003b16:    201c        .       MOVS     r0,#0x1c
        0x00003b18:    4360        `C      MULS     r0,r4,r0
        0x00003b1a:    1940        @.      ADDS     r0,r0,r5
        0x00003b1c:    7681        .v      STRB     r1,[r0,#0x1a]
        0x00003b1e:    201c        .       MOVS     r0,#0x1c
        0x00003b20:    4360        `C      MULS     r0,r4,r0
        0x00003b22:    1941        A.      ADDS     r1,r0,r5
        0x00003b24:    2002        .       MOVS     r0,#2
        0x00003b26:    5e08        .^      LDRSH    r0,[r1,r0]
        0x00003b28:    211c        .!      MOVS     r1,#0x1c
        0x00003b2a:    4361        aC      MULS     r1,r4,r1
        0x00003b2c:    1949        I.      ADDS     r1,r1,r5
        0x00003b2e:    8048        H.      STRH     r0,[r1,#2]
        0x00003b30:    201c        .       MOVS     r0,#0x1c
        0x00003b32:    4360        `C      MULS     r0,r4,r0
        0x00003b34:    1940        @.      ADDS     r0,r0,r5
        0x00003b36:    8880        ..      LDRH     r0,[r0,#4]
        0x00003b38:    1cc0        ..      ADDS     r0,r0,#3
        0x00003b3a:    b201        ..      SXTH     r1,r0
        0x00003b3c:    201c        .       MOVS     r0,#0x1c
        0x00003b3e:    4360        `C      MULS     r0,r4,r0
        0x00003b40:    1940        @.      ADDS     r0,r0,r5
        0x00003b42:    8081        ..      STRH     r1,[r0,#4]
        0x00003b44:    201c        .       MOVS     r0,#0x1c
        0x00003b46:    4360        `C      MULS     r0,r4,r0
        0x00003b48:    1940        @.      ADDS     r0,r0,r5
        0x00003b4a:    2104        .!      MOVS     r1,#4
        0x00003b4c:    5e41        A^      LDRSH    r1,[r0,r1]
        0x00003b4e:    201c        .       MOVS     r0,#0x1c
        0x00003b50:    4360        `C      MULS     r0,r4,r0
        0x00003b52:    1940        @.      ADDS     r0,r0,r5
        0x00003b54:    2210        ."      MOVS     r2,#0x10
        0x00003b56:    5e82        .^      LDRSH    r2,[r0,r2]
        0x00003b58:    4291        .B      CMP      r1,r2
        0x00003b5a:    db07        ..      BLT      0x3b6c ; s_green_movePlane + 584
        0x00003b5c:    2103        .!      MOVS     r1,#3
        0x00003b5e:    201c        .       MOVS     r0,#0x1c
        0x00003b60:    4360        `C      MULS     r0,r4,r0
        0x00003b62:    1940        @.      ADDS     r0,r0,r5
        0x00003b64:    7241        Ar      STRB     r1,[r0,#9]
        0x00003b66:    2000        .       MOVS     r0,#0
        0x00003b68:    f7fcfe16    ....    BL       LED_toggle ; 0x798
        0x00003b6c:    e069        i.      B        0x3c42 ; s_green_movePlane + 798
        0x00003b6e:    2103        .!      MOVS     r1,#3
        0x00003b70:    201c        .       MOVS     r0,#0x1c
        0x00003b72:    4360        `C      MULS     r0,r4,r0
        0x00003b74:    1940        @.      ADDS     r0,r0,r5
        0x00003b76:    7681        .v      STRB     r1,[r0,#0x1a]
        0x00003b78:    f7fcfafa    ....    BL       rand ; 0x170
        0x00003b7c:    4607        .F      MOV      r7,r0
        0x00003b7e:    0fc0        ..      LSRS     r0,r0,#31
        0x00003b80:    19c0        ..      ADDS     r0,r0,r7
        0x00003b82:    1040        @.      ASRS     r0,r0,#1
        0x00003b84:    0040        @.      LSLS     r0,r0,#1
        0x00003b86:    1a38        8.      SUBS     r0,r7,r0
        0x00003b88:    1c80        ..      ADDS     r0,r0,#2
        0x00003b8a:    211c        .!      MOVS     r1,#0x1c
        0x00003b8c:    4361        aC      MULS     r1,r4,r1
        0x00003b8e:    1949        I.      ADDS     r1,r1,r5
        0x00003b90:    8849        I.      LDRH     r1,[r1,#2]
        0x00003b92:    1a08        ..      SUBS     r0,r1,r0
        0x00003b94:    b201        ..      SXTH     r1,r0
        0x00003b96:    201c        .       MOVS     r0,#0x1c
        0x00003b98:    4360        `C      MULS     r0,r4,r0
        0x00003b9a:    1940        @.      ADDS     r0,r0,r5
        0x00003b9c:    8041        A.      STRH     r1,[r0,#2]
        0x00003b9e:    f7fcfae7    ....    BL       rand ; 0x170
        0x00003ba2:    4607        .F      MOV      r7,r0
        0x00003ba4:    0fc0        ..      LSRS     r0,r0,#31
        0x00003ba6:    19c0        ..      ADDS     r0,r0,r7
        0x00003ba8:    1040        @.      ASRS     r0,r0,#1
        0x00003baa:    0040        @.      LSLS     r0,r0,#1
        0x00003bac:    1a38        8.      SUBS     r0,r7,r0
        0x00003bae:    1c80        ..      ADDS     r0,r0,#2
        0x00003bb0:    211c        .!      MOVS     r1,#0x1c
        0x00003bb2:    4361        aC      MULS     r1,r4,r1
        0x00003bb4:    1949        I.      ADDS     r1,r1,r5
        0x00003bb6:    8889        ..      LDRH     r1,[r1,#4]
        0x00003bb8:    1840        @.      ADDS     r0,r0,r1
        0x00003bba:    b201        ..      SXTH     r1,r0
        0x00003bbc:    201c        .       MOVS     r0,#0x1c
        0x00003bbe:    4360        `C      MULS     r0,r4,r0
        0x00003bc0:    1940        @.      ADDS     r0,r0,r5
        0x00003bc2:    8081        ..      STRH     r1,[r0,#4]
        0x00003bc4:    201c        .       MOVS     r0,#0x1c
        0x00003bc6:    4360        `C      MULS     r0,r4,r0
        0x00003bc8:    1940        @.      ADDS     r0,r0,r5
        0x00003bca:    2102        .!      MOVS     r1,#2
        0x00003bcc:    5e41        A^      LDRSH    r1,[r0,r1]
        0x00003bce:    201c        .       MOVS     r0,#0x1c
        0x00003bd0:    4360        `C      MULS     r0,r4,r0
        0x00003bd2:    1940        @.      ADDS     r0,r0,r5
        0x00003bd4:    2212        ."      MOVS     r2,#0x12
        0x00003bd6:    5e82        .^      LDRSH    r2,[r0,r2]
        0x00003bd8:    4291        .B      CMP      r1,r2
        0x00003bda:    dc04        ..      BGT      0x3be6 ; s_green_movePlane + 706
        0x00003bdc:    2104        .!      MOVS     r1,#4
        0x00003bde:    201c        .       MOVS     r0,#0x1c
        0x00003be0:    4360        `C      MULS     r0,r4,r0
        0x00003be2:    1940        @.      ADDS     r0,r0,r5
        0x00003be4:    7241        Ar      STRB     r1,[r0,#9]
        0x00003be6:    e02c        ,.      B        0x3c42 ; s_green_movePlane + 798
        0x00003be8:    2104        .!      MOVS     r1,#4
        0x00003bea:    201c        .       MOVS     r0,#0x1c
        0x00003bec:    4360        `C      MULS     r0,r4,r0
        0x00003bee:    1940        @.      ADDS     r0,r0,r5
        0x00003bf0:    7681        .v      STRB     r1,[r0,#0x1a]
        0x00003bf2:    f7fcfabd    ....    BL       rand ; 0x170
        0x00003bf6:    4607        .F      MOV      r7,r0
        0x00003bf8:    0fc0        ..      LSRS     r0,r0,#31
        0x00003bfa:    19c0        ..      ADDS     r0,r0,r7
        0x00003bfc:    1040        @.      ASRS     r0,r0,#1
        0x00003bfe:    0040        @.      LSLS     r0,r0,#1
        0x00003c00:    1a38        8.      SUBS     r0,r7,r0
        0x00003c02:    1c80        ..      ADDS     r0,r0,#2
        0x00003c04:    211c        .!      MOVS     r1,#0x1c
        0x00003c06:    4361        aC      MULS     r1,r4,r1
        0x00003c08:    1949        I.      ADDS     r1,r1,r5
        0x00003c0a:    8849        I.      LDRH     r1,[r1,#2]
        0x00003c0c:    1a08        ..      SUBS     r0,r1,r0
        0x00003c0e:    b201        ..      SXTH     r1,r0
        0x00003c10:    201c        .       MOVS     r0,#0x1c
        0x00003c12:    4360        `C      MULS     r0,r4,r0
        0x00003c14:    1940        @.      ADDS     r0,r0,r5
        0x00003c16:    8041        A.      STRH     r1,[r0,#2]
        0x00003c18:    201c        .       MOVS     r0,#0x1c
        0x00003c1a:    4360        `C      MULS     r0,r4,r0
        0x00003c1c:    1940        @.      ADDS     r0,r0,r5
        0x00003c1e:    2102        .!      MOVS     r1,#2
        0x00003c20:    5e41        A^      LDRSH    r1,[r0,r1]
        0x00003c22:    201c        .       MOVS     r0,#0x1c
        0x00003c24:    4360        `C      MULS     r0,r4,r0
        0x00003c26:    e000        ..      B        0x3c2a ; s_green_movePlane + 774
        0x00003c28:    e00a        ..      B        0x3c40 ; s_green_movePlane + 796
        0x00003c2a:    1940        @.      ADDS     r0,r0,r5
        0x00003c2c:    2214        ."      MOVS     r2,#0x14
        0x00003c2e:    5e82        .^      LDRSH    r2,[r0,r2]
        0x00003c30:    4291        .B      CMP      r1,r2
        0x00003c32:    dc04        ..      BGT      0x3c3e ; s_green_movePlane + 794
        0x00003c34:    2104        .!      MOVS     r1,#4
        0x00003c36:    201c        .       MOVS     r0,#0x1c
        0x00003c38:    4360        `C      MULS     r0,r4,r0
        0x00003c3a:    1940        @.      ADDS     r0,r0,r5
        0x00003c3c:    7241        Ar      STRB     r1,[r0,#9]
        0x00003c3e:    e000        ..      B        0x3c42 ; s_green_movePlane + 798
        0x00003c40:    bf00        ..      NOP      
        0x00003c42:    e009        ..      B        0x3c58 ; s_green_movePlane + 820
        0x00003c44:    201c        .       MOVS     r0,#0x1c
        0x00003c46:    4360        `C      MULS     r0,r4,r0
        0x00003c48:    1940        @.      ADDS     r0,r0,r5
        0x00003c4a:    7840        @x      LDRB     r0,[r0,#1]
        0x00003c4c:    1c40        @.      ADDS     r0,r0,#1
        0x00003c4e:    b2c1        ..      UXTB     r1,r0
        0x00003c50:    201c        .       MOVS     r0,#0x1c
        0x00003c52:    4360        `C      MULS     r0,r4,r0
        0x00003c54:    1940        @.      ADDS     r0,r0,r5
        0x00003c56:    7041        Ap      STRB     r1,[r0,#1]
        0x00003c58:    1c64        d.      ADDS     r4,r4,#1
        0x00003c5a:    4803        .H      LDR      r0,[pc,#12] ; [0x3c68] = 0x48f2
        0x00003c5c:    7800        .x      LDRB     r0,[r0,#0]
        0x00003c5e:    4284        .B      CMP      r4,r0
        0x00003c60:    da00        ..      BGE      0x3c64 ; s_green_movePlane + 832
        0x00003c62:    e664        d.      B        0x392e ; s_green_movePlane + 10
        0x00003c64:    bdf8        ..      POP      {r3-r7,pc}
    $d
        0x00003c66:    0000        ..      DCW    0
        0x00003c68:    000048f2    .H..    DCD    18674
    $t
    i.s_green_planeInit
    s_green_planeInit
        0x00003c6c:    4601        .F      MOV      r1,r0
        0x00003c6e:    2000        .       MOVS     r0,#0
        0x00003c70:    e010        ..      B        0x3c94 ; s_green_planeInit + 40
        0x00003c72:    2300        .#      MOVS     r3,#0
        0x00003c74:    221c        ."      MOVS     r2,#0x1c
        0x00003c76:    4342        BC      MULS     r2,r0,r2
        0x00003c78:    1852        R.      ADDS     r2,r2,r1
        0x00003c7a:    8053        S.      STRH     r3,[r2,#2]
        0x00003c7c:    221c        ."      MOVS     r2,#0x1c
        0x00003c7e:    4342        BC      MULS     r2,r0,r2
        0x00003c80:    1852        R.      ADDS     r2,r2,r1
        0x00003c82:    8093        ..      STRH     r3,[r2,#4]
        0x00003c84:    221c        ."      MOVS     r2,#0x1c
        0x00003c86:    4342        BC      MULS     r2,r0,r2
        0x00003c88:    548b        .T      STRB     r3,[r1,r2]
        0x00003c8a:    221c        ."      MOVS     r2,#0x1c
        0x00003c8c:    4342        BC      MULS     r2,r0,r2
        0x00003c8e:    1852        R.      ADDS     r2,r2,r1
        0x00003c90:    7053        Sp      STRB     r3,[r2,#1]
        0x00003c92:    1c40        @.      ADDS     r0,r0,#1
        0x00003c94:    4a02        .J      LDR      r2,[pc,#8] ; [0x3ca0] = 0x48f2
        0x00003c96:    7812        .x      LDRB     r2,[r2,#0]
        0x00003c98:    4290        .B      CMP      r0,r2
        0x00003c9a:    dbea        ..      BLT      0x3c72 ; s_green_planeInit + 6
        0x00003c9c:    4770        pG      BX       lr
    $d
        0x00003c9e:    0000        ..      DCW    0
        0x00003ca0:    000048f2    .H..    DCD    18674
    $t
    i.s_grey_createOneEnmeyBullet
    s_grey_createOneEnmeyBullet
        0x00003ca4:    b5f0        ..      PUSH     {r4-r7,lr}
        0x00003ca6:    b08b        ..      SUB      sp,sp,#0x2c
        0x00003ca8:    4605        .F      MOV      r5,r0
        0x00003caa:    460e        .F      MOV      r6,r1
        0x00003cac:    4617        .F      MOV      r7,r2
        0x00003cae:    2400        .$      MOVS     r4,#0
        0x00003cb0:    e08c        ..      B        0x3dcc ; s_grey_createOneEnmeyBullet + 296
        0x00003cb2:    200a        .       MOVS     r0,#0xa
        0x00003cb4:    4360        `C      MULS     r0,r4,r0
        0x00003cb6:    1940        @.      ADDS     r0,r0,r5
        0x00003cb8:    7900        .y      LDRB     r0,[r0,#4]
        0x00003cba:    2800        .(      CMP      r0,#0
        0x00003cbc:    d17c        |.      BNE      0x3db8 ; s_grey_createOneEnmeyBullet + 276
        0x00003cbe:    88b0        ..      LDRH     r0,[r6,#4]
        0x00003cc0:    3008        .0      ADDS     r0,r0,#8
        0x00003cc2:    b201        ..      SXTH     r1,r0
        0x00003cc4:    200a        .       MOVS     r0,#0xa
        0x00003cc6:    4360        `C      MULS     r0,r4,r0
        0x00003cc8:    5229        )R      STRH     r1,[r5,r0]
        0x00003cca:    88f0        ..      LDRH     r0,[r6,#6]
        0x00003ccc:    3808        .8      SUBS     r0,r0,#8
        0x00003cce:    b201        ..      SXTH     r1,r0
        0x00003cd0:    200a        .       MOVS     r0,#0xa
        0x00003cd2:    4360        `C      MULS     r0,r4,r0
        0x00003cd4:    1940        @.      ADDS     r0,r0,r5
        0x00003cd6:    8041        A.      STRH     r1,[r0,#2]
        0x00003cd8:    2101        .!      MOVS     r1,#1
        0x00003cda:    200a        .       MOVS     r0,#0xa
        0x00003cdc:    4360        `C      MULS     r0,r4,r0
        0x00003cde:    1940        @.      ADDS     r0,r0,r5
        0x00003ce0:    7101        .q      STRB     r1,[r0,#4]
        0x00003ce2:    2004        .       MOVS     r0,#4
        0x00003ce4:    5e30        0^      LDRSH    r0,[r6,r0]
        0x00003ce6:    900a        ..      STR      r0,[sp,#0x28]
        0x00003ce8:    2006        .       MOVS     r0,#6
        0x00003cea:    5e30        0^      LDRSH    r0,[r6,r0]
        0x00003cec:    9009        ..      STR      r0,[sp,#0x24]
        0x00003cee:    2000        .       MOVS     r0,#0
        0x00003cf0:    5e38        8^      LDRSH    r0,[r7,r0]
        0x00003cf2:    9008        ..      STR      r0,[sp,#0x20]
        0x00003cf4:    2002        .       MOVS     r0,#2
        0x00003cf6:    5e38        8^      LDRSH    r0,[r7,r0]
        0x00003cf8:    9007        ..      STR      r0,[sp,#0x1c]
        0x00003cfa:    8838        8.      LDRH     r0,[r7,#0]
        0x00003cfc:    88b1        ..      LDRH     r1,[r6,#4]
        0x00003cfe:    1a40        @.      SUBS     r0,r0,r1
        0x00003d00:    b200        ..      SXTH     r0,r0
        0x00003d02:    9006        ..      STR      r0,[sp,#0x18]
        0x00003d04:    8878        x.      LDRH     r0,[r7,#2]
        0x00003d06:    88f1        ..      LDRH     r1,[r6,#6]
        0x00003d08:    1a40        @.      SUBS     r0,r0,r1
        0x00003d0a:    b200        ..      SXTH     r0,r0
        0x00003d0c:    9005        ..      STR      r0,[sp,#0x14]
        0x00003d0e:    9906        ..      LDR      r1,[sp,#0x18]
        0x00003d10:    2900        .)      CMP      r1,#0
        0x00003d12:    da02        ..      BGE      0x3d1a ; s_grey_createOneEnmeyBullet + 118
        0x00003d14:    9906        ..      LDR      r1,[sp,#0x18]
        0x00003d16:    4249        IB      RSBS     r1,r1,#0
        0x00003d18:    e000        ..      B        0x3d1c ; s_grey_createOneEnmeyBullet + 120
        0x00003d1a:    9906        ..      LDR      r1,[sp,#0x18]
        0x00003d1c:    4608        .F      MOV      r0,r1
        0x00003d1e:    f7fcfb0d    ....    BL       __aeabi_i2f ; 0x33c
        0x00003d22:    9004        ..      STR      r0,[sp,#0x10]
        0x00003d24:    9905        ..      LDR      r1,[sp,#0x14]
        0x00003d26:    2900        .)      CMP      r1,#0
        0x00003d28:    da02        ..      BGE      0x3d30 ; s_grey_createOneEnmeyBullet + 140
        0x00003d2a:    9905        ..      LDR      r1,[sp,#0x14]
        0x00003d2c:    4249        IB      RSBS     r1,r1,#0
        0x00003d2e:    e000        ..      B        0x3d32 ; s_grey_createOneEnmeyBullet + 142
        0x00003d30:    9905        ..      LDR      r1,[sp,#0x14]
        0x00003d32:    4608        .F      MOV      r0,r1
        0x00003d34:    f7fcfb02    ....    BL       __aeabi_i2f ; 0x33c
        0x00003d38:    9003        ..      STR      r0,[sp,#0xc]
        0x00003d3a:    9904        ..      LDR      r1,[sp,#0x10]
        0x00003d3c:    9803        ..      LDR      r0,[sp,#0xc]
        0x00003d3e:    f7fcfabf    ....    BL       __aeabi_fdiv ; 0x2c0
        0x00003d42:    9002        ..      STR      r0,[sp,#8]
        0x00003d44:    2000        .       MOVS     r0,#0
        0x00003d46:    9001        ..      STR      r0,[sp,#4]
        0x00003d48:    e03a        :.      B        0x3dc0 ; s_grey_createOneEnmeyBullet + 284
        0x00003d4a:    9901        ..      LDR      r1,[sp,#4]
        0x00003d4c:    0089        ..      LSLS     r1,r1,#2
        0x00003d4e:    4a23        #J      LDR      r2,[pc,#140] ; [0x3ddc] = 0x4f14
        0x00003d50:    5850        PX      LDR      r0,[r2,r1]
        0x00003d52:    9902        ..      LDR      r1,[sp,#8]
        0x00003d54:    f7fcfa6f    ..o.    BL       __aeabi_fsub ; 0x236
        0x00003d58:    2100        .!      MOVS     r1,#0
        0x00003d5a:    9000        ..      STR      r0,[sp,#0]
        0x00003d5c:    f7fcfb14    ....    BL       __aeabi_cfrcmple ; 0x388
        0x00003d60:    d82b        +.      BHI      0x3dba ; s_grey_createOneEnmeyBullet + 278
        0x00003d62:    9801        ..      LDR      r0,[sp,#4]
        0x00003d64:    0040        @.      LSLS     r0,r0,#1
        0x00003d66:    491e        .I      LDR      r1,[pc,#120] ; [0x3de0] = 0x4efe
        0x00003d68:    5a09        .Z      LDRH     r1,[r1,r0]
        0x00003d6a:    200a        .       MOVS     r0,#0xa
        0x00003d6c:    4360        `C      MULS     r0,r4,r0
        0x00003d6e:    1940        @.      ADDS     r0,r0,r5
        0x00003d70:    80c1        ..      STRH     r1,[r0,#6]
        0x00003d72:    9801        ..      LDR      r0,[sp,#4]
        0x00003d74:    0040        @.      LSLS     r0,r0,#1
        0x00003d76:    491b        .I      LDR      r1,[pc,#108] ; [0x3de4] = 0x4eea
        0x00003d78:    5a09        .Z      LDRH     r1,[r1,r0]
        0x00003d7a:    200a        .       MOVS     r0,#0xa
        0x00003d7c:    4360        `C      MULS     r0,r4,r0
        0x00003d7e:    1940        @.      ADDS     r0,r0,r5
        0x00003d80:    8101        ..      STRH     r1,[r0,#8]
        0x00003d82:    9806        ..      LDR      r0,[sp,#0x18]
        0x00003d84:    2800        .(      CMP      r0,#0
        0x00003d86:    da09        ..      BGE      0x3d9c ; s_grey_createOneEnmeyBullet + 248
        0x00003d88:    200a        .       MOVS     r0,#0xa
        0x00003d8a:    4360        `C      MULS     r0,r4,r0
        0x00003d8c:    1940        @.      ADDS     r0,r0,r5
        0x00003d8e:    88c0        ..      LDRH     r0,[r0,#6]
        0x00003d90:    4240        @B      RSBS     r0,r0,#0
        0x00003d92:    b201        ..      SXTH     r1,r0
        0x00003d94:    200a        .       MOVS     r0,#0xa
        0x00003d96:    4360        `C      MULS     r0,r4,r0
        0x00003d98:    1940        @.      ADDS     r0,r0,r5
        0x00003d9a:    80c1        ..      STRH     r1,[r0,#6]
        0x00003d9c:    9805        ..      LDR      r0,[sp,#0x14]
        0x00003d9e:    2800        .(      CMP      r0,#0
        0x00003da0:    da09        ..      BGE      0x3db6 ; s_grey_createOneEnmeyBullet + 274
        0x00003da2:    200a        .       MOVS     r0,#0xa
        0x00003da4:    4360        `C      MULS     r0,r4,r0
        0x00003da6:    1940        @.      ADDS     r0,r0,r5
        0x00003da8:    8900        ..      LDRH     r0,[r0,#8]
        0x00003daa:    4240        @B      RSBS     r0,r0,#0
        0x00003dac:    b201        ..      SXTH     r1,r0
        0x00003dae:    200a        .       MOVS     r0,#0xa
        0x00003db0:    4360        `C      MULS     r0,r4,r0
        0x00003db2:    1940        @.      ADDS     r0,r0,r5
        0x00003db4:    8101        ..      STRH     r1,[r0,#8]
        0x00003db6:    e006        ..      B        0x3dc6 ; s_grey_createOneEnmeyBullet + 290
        0x00003db8:    e007        ..      B        0x3dca ; s_grey_createOneEnmeyBullet + 294
        0x00003dba:    9801        ..      LDR      r0,[sp,#4]
        0x00003dbc:    1c40        @.      ADDS     r0,r0,#1
        0x00003dbe:    9001        ..      STR      r0,[sp,#4]
        0x00003dc0:    9801        ..      LDR      r0,[sp,#4]
        0x00003dc2:    280a        .(      CMP      r0,#0xa
        0x00003dc4:    dbc1        ..      BLT      0x3d4a ; s_grey_createOneEnmeyBullet + 166
        0x00003dc6:    bf00        ..      NOP      
        0x00003dc8:    e005        ..      B        0x3dd6 ; s_grey_createOneEnmeyBullet + 306
        0x00003dca:    1c64        d.      ADDS     r4,r4,#1
        0x00003dcc:    4806        .H      LDR      r0,[pc,#24] ; [0x3de8] = 0x48f5
        0x00003dce:    7800        .x      LDRB     r0,[r0,#0]
        0x00003dd0:    4284        .B      CMP      r4,r0
        0x00003dd2:    da00        ..      BGE      0x3dd6 ; s_grey_createOneEnmeyBullet + 306
        0x00003dd4:    e76d        m.      B        0x3cb2 ; s_grey_createOneEnmeyBullet + 14
        0x00003dd6:    bf00        ..      NOP      
        0x00003dd8:    b00b        ..      ADD      sp,sp,#0x2c
        0x00003dda:    bdf0        ..      POP      {r4-r7,pc}
    $d
        0x00003ddc:    00004f14    .O..    DCD    20244
        0x00003de0:    00004efe    .N..    DCD    20222
        0x00003de4:    00004eea    .N..    DCD    20202
        0x00003de8:    000048f5    .H..    DCD    18677
    $t
    i.s_grey_createOnePlane
    s_grey_createOnePlane
        0x00003dec:    b5f8        ..      PUSH     {r3-r7,lr}
        0x00003dee:    4605        .F      MOV      r5,r0
        0x00003df0:    460e        .F      MOV      r6,r1
        0x00003df2:    2400        .$      MOVS     r4,#0
        0x00003df4:    e06f        o.      B        0x3ed6 ; s_grey_createOnePlane + 234
        0x00003df6:    0120         .      LSLS     r0,r4,#4
        0x00003df8:    5c28        (\      LDRB     r0,[r5,r0]
        0x00003dfa:    2800        .(      CMP      r0,#0
        0x00003dfc:    d16a        j.      BNE      0x3ed4 ; s_grey_createOnePlane + 232
        0x00003dfe:    2001        .       MOVS     r0,#1
        0x00003e00:    0121        !.      LSLS     r1,r4,#4
        0x00003e02:    1949        I.      ADDS     r1,r1,r5
        0x00003e04:    7048        Hp      STRB     r0,[r1,#1]
        0x00003e06:    0121        !.      LSLS     r1,r4,#4
        0x00003e08:    5468        hT      STRB     r0,[r5,r1]
        0x00003e0a:    2000        .       MOVS     r0,#0
        0x00003e0c:    0121        !.      LSLS     r1,r4,#4
        0x00003e0e:    1949        I.      ADDS     r1,r1,r5
        0x00003e10:    73c8        .s      STRB     r0,[r1,#0xf]
        0x00003e12:    0121        !.      LSLS     r1,r4,#4
        0x00003e14:    1949        I.      ADDS     r1,r1,r5
        0x00003e16:    7088        .p      STRB     r0,[r1,#2]
        0x00003e18:    0121        !.      LSLS     r1,r4,#4
        0x00003e1a:    1949        I.      ADDS     r1,r1,r5
        0x00003e1c:    7288        .r      STRB     r0,[r1,#0xa]
        0x00003e1e:    7a70        pz      LDRB     r0,[r6,#9]
        0x00003e20:    0121        !.      LSLS     r1,r4,#4
        0x00003e22:    1949        I.      ADDS     r1,r1,r5
        0x00003e24:    7248        Hr      STRB     r0,[r1,#9]
        0x00003e26:    2001        .       MOVS     r0,#1
        0x00003e28:    0121        !.      LSLS     r1,r4,#4
        0x00003e2a:    1949        I.      ADDS     r1,r1,r5
        0x00003e2c:    7208        .r      STRB     r0,[r1,#8]
        0x00003e2e:    88b0        ..      LDRH     r0,[r6,#4]
        0x00003e30:    0121        !.      LSLS     r1,r4,#4
        0x00003e32:    1949        I.      ADDS     r1,r1,r5
        0x00003e34:    8088        ..      STRH     r0,[r1,#4]
        0x00003e36:    200f        .       MOVS     r0,#0xf
        0x00003e38:    0121        !.      LSLS     r1,r4,#4
        0x00003e3a:    1949        I.      ADDS     r1,r1,r5
        0x00003e3c:    80c8        ..      STRH     r0,[r1,#6]
        0x00003e3e:    7af0        .z      LDRB     r0,[r6,#0xb]
        0x00003e40:    0121        !.      LSLS     r1,r4,#4
        0x00003e42:    1949        I.      ADDS     r1,r1,r5
        0x00003e44:    72c8        .r      STRB     r0,[r1,#0xb]
        0x00003e46:    0120         .      LSLS     r0,r4,#4
        0x00003e48:    1940        @.      ADDS     r0,r0,r5
        0x00003e4a:    7ac0        .z      LDRB     r0,[r0,#0xb]
        0x00003e4c:    2804        .(      CMP      r0,#4
        0x00003e4e:    d11e        ..      BNE      0x3e8e ; s_grey_createOnePlane + 162
        0x00003e50:    2000        .       MOVS     r0,#0
        0x00003e52:    0121        !.      LSLS     r1,r4,#4
        0x00003e54:    1949        I.      ADDS     r1,r1,r5
        0x00003e56:    7308        .s      STRB     r0,[r1,#0xc]
        0x00003e58:    2003        .       MOVS     r0,#3
        0x00003e5a:    0121        !.      LSLS     r1,r4,#4
        0x00003e5c:    1949        I.      ADDS     r1,r1,r5
        0x00003e5e:    7348        Hs      STRB     r0,[r1,#0xd]
        0x00003e60:    f7fcf986    ....    BL       rand ; 0x170
        0x00003e64:    4607        .F      MOV      r7,r0
        0x00003e66:    0fc0        ..      LSRS     r0,r0,#31
        0x00003e68:    19c0        ..      ADDS     r0,r0,r7
        0x00003e6a:    1040        @.      ASRS     r0,r0,#1
        0x00003e6c:    0040        @.      LSLS     r0,r0,#1
        0x00003e6e:    1a38        8.      SUBS     r0,r7,r0
        0x00003e70:    b2c0        ..      UXTB     r0,r0
        0x00003e72:    9000        ..      STR      r0,[sp,#0]
        0x00003e74:    9800        ..      LDR      r0,[sp,#0]
        0x00003e76:    2800        .(      CMP      r0,#0
        0x00003e78:    d104        ..      BNE      0x3e84 ; s_grey_createOnePlane + 152
        0x00003e7a:    2002        .       MOVS     r0,#2
        0x00003e7c:    0121        !.      LSLS     r1,r4,#4
        0x00003e7e:    1949        I.      ADDS     r1,r1,r5
        0x00003e80:    7388        .s      STRB     r0,[r1,#0xe]
        0x00003e82:    e003        ..      B        0x3e8c ; s_grey_createOnePlane + 160
        0x00003e84:    2003        .       MOVS     r0,#3
        0x00003e86:    0121        !.      LSLS     r1,r4,#4
        0x00003e88:    1949        I.      ADDS     r1,r1,r5
        0x00003e8a:    7388        .s      STRB     r0,[r1,#0xe]
        0x00003e8c:    e021        !.      B        0x3ed2 ; s_grey_createOnePlane + 230
        0x00003e8e:    0120         .      LSLS     r0,r4,#4
        0x00003e90:    1940        @.      ADDS     r0,r0,r5
        0x00003e92:    7ac0        .z      LDRB     r0,[r0,#0xb]
        0x00003e94:    2805        .(      CMP      r0,#5
        0x00003e96:    d10c        ..      BNE      0x3eb2 ; s_grey_createOnePlane + 198
        0x00003e98:    1fc0        ..      SUBS     r0,r0,#7
        0x00003e9a:    0121        !.      LSLS     r1,r4,#4
        0x00003e9c:    1949        I.      ADDS     r1,r1,r5
        0x00003e9e:    7308        .s      STRB     r0,[r1,#0xc]
        0x00003ea0:    2003        .       MOVS     r0,#3
        0x00003ea2:    0121        !.      LSLS     r1,r4,#4
        0x00003ea4:    1949        I.      ADDS     r1,r1,r5
        0x00003ea6:    7348        Hs      STRB     r0,[r1,#0xd]
        0x00003ea8:    2002        .       MOVS     r0,#2
        0x00003eaa:    0121        !.      LSLS     r1,r4,#4
        0x00003eac:    1949        I.      ADDS     r1,r1,r5
        0x00003eae:    7388        .s      STRB     r0,[r1,#0xe]
        0x00003eb0:    e00f        ..      B        0x3ed2 ; s_grey_createOnePlane + 230
        0x00003eb2:    0120         .      LSLS     r0,r4,#4
        0x00003eb4:    1940        @.      ADDS     r0,r0,r5
        0x00003eb6:    7ac0        .z      LDRB     r0,[r0,#0xb]
        0x00003eb8:    2806        .(      CMP      r0,#6
        0x00003eba:    d10a        ..      BNE      0x3ed2 ; s_grey_createOnePlane + 230
        0x00003ebc:    2002        .       MOVS     r0,#2
        0x00003ebe:    0121        !.      LSLS     r1,r4,#4
        0x00003ec0:    1949        I.      ADDS     r1,r1,r5
        0x00003ec2:    7308        .s      STRB     r0,[r1,#0xc]
        0x00003ec4:    2003        .       MOVS     r0,#3
        0x00003ec6:    0121        !.      LSLS     r1,r4,#4
        0x00003ec8:    1949        I.      ADDS     r1,r1,r5
        0x00003eca:    7348        Hs      STRB     r0,[r1,#0xd]
        0x00003ecc:    0121        !.      LSLS     r1,r4,#4
        0x00003ece:    1949        I.      ADDS     r1,r1,r5
        0x00003ed0:    7388        .s      STRB     r0,[r1,#0xe]
        0x00003ed2:    e004        ..      B        0x3ede ; s_grey_createOnePlane + 242
        0x00003ed4:    1c64        d.      ADDS     r4,r4,#1
        0x00003ed6:    4803        .H      LDR      r0,[pc,#12] ; [0x3ee4] = 0x48f1
        0x00003ed8:    7800        .x      LDRB     r0,[r0,#0]
        0x00003eda:    4284        .B      CMP      r4,r0
        0x00003edc:    db8b        ..      BLT      0x3df6 ; s_grey_createOnePlane + 10
        0x00003ede:    bf00        ..      NOP      
        0x00003ee0:    bdf8        ..      POP      {r3-r7,pc}
    $d
        0x00003ee2:    0000        ..      DCW    0
        0x00003ee4:    000048f1    .H..    DCD    18673
    $t
    i.s_grey_drawPlane
    s_grey_drawPlane
        0x00003ee8:    b5fe        ..      PUSH     {r1-r7,lr}
        0x00003eea:    4605        .F      MOV      r5,r0
        0x00003eec:    460e        .F      MOV      r6,r1
        0x00003eee:    2400        .$      MOVS     r4,#0
        0x00003ef0:    e1d5        ..      B        0x429e ; s_grey_drawPlane + 950
        0x00003ef2:    0120         .      LSLS     r0,r4,#4
        0x00003ef4:    5c28        (\      LDRB     r0,[r5,r0]
        0x00003ef6:    2800        .(      CMP      r0,#0
        0x00003ef8:    d07e        ~.      BEQ      0x3ff8 ; s_grey_drawPlane + 272
        0x00003efa:    2700        .'      MOVS     r7,#0
        0x00003efc:    2000        .       MOVS     r0,#0
        0x00003efe:    9002        ..      STR      r0,[sp,#8]
        0x00003f00:    0120         .      LSLS     r0,r4,#4
        0x00003f02:    1940        @.      ADDS     r0,r0,r5
        0x00003f04:    7bc0        .{      LDRB     r0,[r0,#0xf]
        0x00003f06:    0003        ..      MOVS     r3,r0
        0x00003f08:    f7fcfe92    ....    BL       __ARM_common_switch8 ; 0xc30
    $d
        0x00003f0c:    7d400508    ..@}    DCD    2101347592
        0x00003f10:    fcfde4a6    ....    DCD    4244497574
        0x00003f14:    fafb        ..      DCW    64251
    $t
        0x00003f16:    2040        @       MOVS     r0,#0x40
        0x00003f18:    9002        ..      STR      r0,[sp,#8]
        0x00003f1a:    0122        ".      LSLS     r2,r4,#4
        0x00003f1c:    1952        R.      ADDS     r2,r2,r5
        0x00003f1e:    9700        ..      STR      r7,[sp,#0]
        0x00003f20:    88d2        ..      LDRH     r2,[r2,#6]
        0x00003f22:    b2d2        ..      UXTB     r2,r2
        0x00003f24:    9201        ..      STR      r2,[sp,#4]
        0x00003f26:    0122        ".      LSLS     r2,r4,#4
        0x00003f28:    1952        R.      ADDS     r2,r2,r5
        0x00003f2a:    8892        ..      LDRH     r2,[r2,#4]
        0x00003f2c:    b2d1        ..      UXTB     r1,r2
        0x00003f2e:    7830        0x      LDRB     r0,[r6,#0]
        0x00003f30:    9b02        ..      LDR      r3,[sp,#8]
        0x00003f32:    9a01        ..      LDR      r2,[sp,#4]
        0x00003f34:    f000fcca    ....    BL       writeOneSprite ; 0x48cc
        0x00003f38:    9700        ..      STR      r7,[sp,#0]
        0x00003f3a:    9a02        ..      LDR      r2,[sp,#8]
        0x00003f3c:    1c53        S.      ADDS     r3,r2,#1
        0x00003f3e:    0122        ".      LSLS     r2,r4,#4
        0x00003f40:    1952        R.      ADDS     r2,r2,r5
        0x00003f42:    88d2        ..      LDRH     r2,[r2,#6]
        0x00003f44:    b2d2        ..      UXTB     r2,r2
        0x00003f46:    9201        ..      STR      r2,[sp,#4]
        0x00003f48:    0122        ".      LSLS     r2,r4,#4
        0x00003f4a:    1952        R.      ADDS     r2,r2,r5
        0x00003f4c:    8892        ..      LDRH     r2,[r2,#4]
        0x00003f4e:    3208        .2      ADDS     r2,r2,#8
        0x00003f50:    b2d1        ..      UXTB     r1,r2
        0x00003f52:    7832        2x      LDRB     r2,[r6,#0]
        0x00003f54:    1c52        R.      ADDS     r2,r2,#1
        0x00003f56:    b2d0        ..      UXTB     r0,r2
        0x00003f58:    9a01        ..      LDR      r2,[sp,#4]
        0x00003f5a:    f000fcb7    ....    BL       writeOneSprite ; 0x48cc
        0x00003f5e:    9700        ..      STR      r7,[sp,#0]
        0x00003f60:    9802        ..      LDR      r0,[sp,#8]
        0x00003f62:    1c83        ..      ADDS     r3,r0,#2
        0x00003f64:    0120         .      LSLS     r0,r4,#4
        0x00003f66:    1940        @.      ADDS     r0,r0,r5
        0x00003f68:    88c0        ..      LDRH     r0,[r0,#6]
        0x00003f6a:    3808        .8      SUBS     r0,r0,#8
        0x00003f6c:    b2c2        ..      UXTB     r2,r0
        0x00003f6e:    0120         .      LSLS     r0,r4,#4
        0x00003f70:    1940        @.      ADDS     r0,r0,r5
        0x00003f72:    8880        ..      LDRH     r0,[r0,#4]
        0x00003f74:    1d00        ..      ADDS     r0,r0,#4
        0x00003f76:    b2c1        ..      UXTB     r1,r0
        0x00003f78:    7830        0x      LDRB     r0,[r6,#0]
        0x00003f7a:    1c80        ..      ADDS     r0,r0,#2
        0x00003f7c:    b2c0        ..      UXTB     r0,r0
        0x00003f7e:    9001        ..      STR      r0,[sp,#4]
        0x00003f80:    f000fca4    ....    BL       writeOneSprite ; 0x48cc
        0x00003f84:    7830        0x      LDRB     r0,[r6,#0]
        0x00003f86:    1cc0        ..      ADDS     r0,r0,#3
        0x00003f88:    7030        0p      STRB     r0,[r6,#0]
        0x00003f8a:    e185        ..      B        0x4298 ; s_grey_drawPlane + 944
        0x00003f8c:    2043        C       MOVS     r0,#0x43
        0x00003f8e:    9002        ..      STR      r0,[sp,#8]
        0x00003f90:    0121        !.      LSLS     r1,r4,#4
        0x00003f92:    1949        I.      ADDS     r1,r1,r5
        0x00003f94:    9700        ..      STR      r7,[sp,#0]
        0x00003f96:    88c9        ..      LDRH     r1,[r1,#6]
        0x00003f98:    b2ca        ..      UXTB     r2,r1
        0x00003f9a:    0121        !.      LSLS     r1,r4,#4
        0x00003f9c:    1949        I.      ADDS     r1,r1,r5
        0x00003f9e:    8889        ..      LDRH     r1,[r1,#4]
        0x00003fa0:    b2c9        ..      UXTB     r1,r1
        0x00003fa2:    9101        ..      STR      r1,[sp,#4]
        0x00003fa4:    7830        0x      LDRB     r0,[r6,#0]
        0x00003fa6:    9b02        ..      LDR      r3,[sp,#8]
        0x00003fa8:    f000fc90    ....    BL       writeOneSprite ; 0x48cc
        0x00003fac:    4638        8F      MOV      r0,r7
        0x00003fae:    2140        @!      MOVS     r1,#0x40
        0x00003fb0:    4308        .C      ORRS     r0,r0,r1
        0x00003fb2:    9000        ..      STR      r0,[sp,#0]
        0x00003fb4:    0120         .      LSLS     r0,r4,#4
        0x00003fb6:    1940        @.      ADDS     r0,r0,r5
        0x00003fb8:    88c0        ..      LDRH     r0,[r0,#6]
        0x00003fba:    b2c2        ..      UXTB     r2,r0
        0x00003fbc:    0120         .      LSLS     r0,r4,#4
        0x00003fbe:    1940        @.      ADDS     r0,r0,r5
        0x00003fc0:    8880        ..      LDRH     r0,[r0,#4]
        0x00003fc2:    3008        .0      ADDS     r0,r0,#8
        0x00003fc4:    b2c1        ..      UXTB     r1,r0
        0x00003fc6:    7830        0x      LDRB     r0,[r6,#0]
        0x00003fc8:    1c40        @.      ADDS     r0,r0,#1
        0x00003fca:    b2c0        ..      UXTB     r0,r0
        0x00003fcc:    9001        ..      STR      r0,[sp,#4]
        0x00003fce:    9b02        ..      LDR      r3,[sp,#8]
        0x00003fd0:    f000fc7c    ..|.    BL       writeOneSprite ; 0x48cc
        0x00003fd4:    9700        ..      STR      r7,[sp,#0]
        0x00003fd6:    9802        ..      LDR      r0,[sp,#8]
        0x00003fd8:    1c43        C.      ADDS     r3,r0,#1
        0x00003fda:    0120         .      LSLS     r0,r4,#4
        0x00003fdc:    1940        @.      ADDS     r0,r0,r5
        0x00003fde:    88c0        ..      LDRH     r0,[r0,#6]
        0x00003fe0:    3808        .8      SUBS     r0,r0,#8
        0x00003fe2:    b2c2        ..      UXTB     r2,r0
        0x00003fe4:    0120         .      LSLS     r0,r4,#4
        0x00003fe6:    1940        @.      ADDS     r0,r0,r5
        0x00003fe8:    8880        ..      LDRH     r0,[r0,#4]
        0x00003fea:    1d00        ..      ADDS     r0,r0,#4
        0x00003fec:    b2c1        ..      UXTB     r1,r0
        0x00003fee:    7830        0x      LDRB     r0,[r6,#0]
        0x00003ff0:    1c80        ..      ADDS     r0,r0,#2
        0x00003ff2:    b2c0        ..      UXTB     r0,r0
        0x00003ff4:    9001        ..      STR      r0,[sp,#4]
        0x00003ff6:    e000        ..      B        0x3ffa ; s_grey_drawPlane + 274
        0x00003ff8:    e150        P.      B        0x429c ; s_grey_drawPlane + 948
        0x00003ffa:    f000fc67    ..g.    BL       writeOneSprite ; 0x48cc
        0x00003ffe:    7830        0x      LDRB     r0,[r6,#0]
        0x00004000:    1cc0        ..      ADDS     r0,r0,#3
        0x00004002:    7030        0p      STRB     r0,[r6,#0]
        0x00004004:    e148        H.      B        0x4298 ; s_grey_drawPlane + 944
        0x00004006:    2045        E       MOVS     r0,#0x45
        0x00004008:    9002        ..      STR      r0,[sp,#8]
        0x0000400a:    0121        !.      LSLS     r1,r4,#4
        0x0000400c:    1949        I.      ADDS     r1,r1,r5
        0x0000400e:    9700        ..      STR      r7,[sp,#0]
        0x00004010:    88c9        ..      LDRH     r1,[r1,#6]
        0x00004012:    b2ca        ..      UXTB     r2,r1
        0x00004014:    0121        !.      LSLS     r1,r4,#4
        0x00004016:    1949        I.      ADDS     r1,r1,r5
        0x00004018:    8889        ..      LDRH     r1,[r1,#4]
        0x0000401a:    b2c9        ..      UXTB     r1,r1
        0x0000401c:    9101        ..      STR      r1,[sp,#4]
        0x0000401e:    7830        0x      LDRB     r0,[r6,#0]
        0x00004020:    9b02        ..      LDR      r3,[sp,#8]
        0x00004022:    f000fc53    ..S.    BL       writeOneSprite ; 0x48cc
        0x00004026:    4638        8F      MOV      r0,r7
        0x00004028:    2140        @!      MOVS     r1,#0x40
        0x0000402a:    4308        .C      ORRS     r0,r0,r1
        0x0000402c:    0121        !.      LSLS     r1,r4,#4
        0x0000402e:    1949        I.      ADDS     r1,r1,r5
        0x00004030:    9000        ..      STR      r0,[sp,#0]
        0x00004032:    88c9        ..      LDRH     r1,[r1,#6]
        0x00004034:    b2ca        ..      UXTB     r2,r1
        0x00004036:    0121        !.      LSLS     r1,r4,#4
        0x00004038:    1949        I.      ADDS     r1,r1,r5
        0x0000403a:    8889        ..      LDRH     r1,[r1,#4]
        0x0000403c:    3108        .1      ADDS     r1,r1,#8
        0x0000403e:    b2c9        ..      UXTB     r1,r1
        0x00004040:    9101        ..      STR      r1,[sp,#4]
        0x00004042:    7831        1x      LDRB     r1,[r6,#0]
        0x00004044:    1c49        I.      ADDS     r1,r1,#1
        0x00004046:    b2c8        ..      UXTB     r0,r1
        0x00004048:    9b02        ..      LDR      r3,[sp,#8]
        0x0000404a:    9901        ..      LDR      r1,[sp,#4]
        0x0000404c:    f000fc3e    ..>.    BL       writeOneSprite ; 0x48cc
        0x00004050:    7830        0x      LDRB     r0,[r6,#0]
        0x00004052:    1c80        ..      ADDS     r0,r0,#2
        0x00004054:    7030        0p      STRB     r0,[r6,#0]
        0x00004056:    e11f        ..      B        0x4298 ; s_grey_drawPlane + 944
        0x00004058:    2046        F       MOVS     r0,#0x46
        0x0000405a:    9002        ..      STR      r0,[sp,#8]
        0x0000405c:    0122        ".      LSLS     r2,r4,#4
        0x0000405e:    1952        R.      ADDS     r2,r2,r5
        0x00004060:    9700        ..      STR      r7,[sp,#0]
        0x00004062:    88d2        ..      LDRH     r2,[r2,#6]
        0x00004064:    b2d2        ..      UXTB     r2,r2
        0x00004066:    9201        ..      STR      r2,[sp,#4]
        0x00004068:    0122        ".      LSLS     r2,r4,#4
        0x0000406a:    1952        R.      ADDS     r2,r2,r5
        0x0000406c:    8892        ..      LDRH     r2,[r2,#4]
        0x0000406e:    b2d1        ..      UXTB     r1,r2
        0x00004070:    7830        0x      LDRB     r0,[r6,#0]
        0x00004072:    9b02        ..      LDR      r3,[sp,#8]
        0x00004074:    9a01        ..      LDR      r2,[sp,#4]
        0x00004076:    f000fc29    ..).    BL       writeOneSprite ; 0x48cc
        0x0000407a:    4638        8F      MOV      r0,r7
        0x0000407c:    2140        @!      MOVS     r1,#0x40
        0x0000407e:    4308        .C      ORRS     r0,r0,r1
        0x00004080:    0121        !.      LSLS     r1,r4,#4
        0x00004082:    1949        I.      ADDS     r1,r1,r5
        0x00004084:    9000        ..      STR      r0,[sp,#0]
        0x00004086:    88c9        ..      LDRH     r1,[r1,#6]
        0x00004088:    b2ca        ..      UXTB     r2,r1
        0x0000408a:    0121        !.      LSLS     r1,r4,#4
        0x0000408c:    1949        I.      ADDS     r1,r1,r5
        0x0000408e:    8889        ..      LDRH     r1,[r1,#4]
        0x00004090:    3108        .1      ADDS     r1,r1,#8
        0x00004092:    b2c9        ..      UXTB     r1,r1
        0x00004094:    9101        ..      STR      r1,[sp,#4]
        0x00004096:    7831        1x      LDRB     r1,[r6,#0]
        0x00004098:    1c49        I.      ADDS     r1,r1,#1
        0x0000409a:    b2c8        ..      UXTB     r0,r1
        0x0000409c:    9b02        ..      LDR      r3,[sp,#8]
        0x0000409e:    9901        ..      LDR      r1,[sp,#4]
        0x000040a0:    f000fc14    ....    BL       writeOneSprite ; 0x48cc
        0x000040a4:    9700        ..      STR      r7,[sp,#0]
        0x000040a6:    9902        ..      LDR      r1,[sp,#8]
        0x000040a8:    1c4b        K.      ADDS     r3,r1,#1
        0x000040aa:    0121        !.      LSLS     r1,r4,#4
        0x000040ac:    1949        I.      ADDS     r1,r1,r5
        0x000040ae:    88c9        ..      LDRH     r1,[r1,#6]
        0x000040b0:    3108        .1      ADDS     r1,r1,#8
        0x000040b2:    b2ca        ..      UXTB     r2,r1
        0x000040b4:    0121        !.      LSLS     r1,r4,#4
        0x000040b6:    1949        I.      ADDS     r1,r1,r5
        0x000040b8:    8889        ..      LDRH     r1,[r1,#4]
        0x000040ba:    1d09        ..      ADDS     r1,r1,#4
        0x000040bc:    b2c9        ..      UXTB     r1,r1
        0x000040be:    9101        ..      STR      r1,[sp,#4]
        0x000040c0:    7831        1x      LDRB     r1,[r6,#0]
        0x000040c2:    1c89        ..      ADDS     r1,r1,#2
        0x000040c4:    b2c8        ..      UXTB     r0,r1
        0x000040c6:    9901        ..      LDR      r1,[sp,#4]
        0x000040c8:    f000fc00    ....    BL       writeOneSprite ; 0x48cc
        0x000040cc:    7830        0x      LDRB     r0,[r6,#0]
        0x000040ce:    1cc0        ..      ADDS     r0,r0,#3
        0x000040d0:    7030        0p      STRB     r0,[r6,#0]
        0x000040d2:    e0e1        ..      B        0x4298 ; s_grey_drawPlane + 944
        0x000040d4:    2048        H       MOVS     r0,#0x48
        0x000040d6:    9002        ..      STR      r0,[sp,#8]
        0x000040d8:    0121        !.      LSLS     r1,r4,#4
        0x000040da:    1949        I.      ADDS     r1,r1,r5
        0x000040dc:    9700        ..      STR      r7,[sp,#0]
        0x000040de:    88c9        ..      LDRH     r1,[r1,#6]
        0x000040e0:    b2ca        ..      UXTB     r2,r1
        0x000040e2:    0121        !.      LSLS     r1,r4,#4
        0x000040e4:    1949        I.      ADDS     r1,r1,r5
        0x000040e6:    8889        ..      LDRH     r1,[r1,#4]
        0x000040e8:    b2c9        ..      UXTB     r1,r1
        0x000040ea:    9101        ..      STR      r1,[sp,#4]
        0x000040ec:    7830        0x      LDRB     r0,[r6,#0]
        0x000040ee:    9b02        ..      LDR      r3,[sp,#8]
        0x000040f0:    f000fbec    ....    BL       writeOneSprite ; 0x48cc
        0x000040f4:    4638        8F      MOV      r0,r7
        0x000040f6:    2140        @!      MOVS     r1,#0x40
        0x000040f8:    4308        .C      ORRS     r0,r0,r1
        0x000040fa:    9000        ..      STR      r0,[sp,#0]
        0x000040fc:    0120         .      LSLS     r0,r4,#4
        0x000040fe:    e003        ..      B        0x4108 ; s_grey_drawPlane + 544
        0x00004100:    e0c9        ..      B        0x4296 ; s_grey_drawPlane + 942
        0x00004102:    e088        ..      B        0x4216 ; s_grey_drawPlane + 814
        0x00004104:    e060        `.      B        0x41c8 ; s_grey_drawPlane + 736
        0x00004106:    e025        %.      B        0x4154 ; s_grey_drawPlane + 620
        0x00004108:    1940        @.      ADDS     r0,r0,r5
        0x0000410a:    88c0        ..      LDRH     r0,[r0,#6]
        0x0000410c:    b2c2        ..      UXTB     r2,r0
        0x0000410e:    0120         .      LSLS     r0,r4,#4
        0x00004110:    1940        @.      ADDS     r0,r0,r5
        0x00004112:    8880        ..      LDRH     r0,[r0,#4]
        0x00004114:    3008        .0      ADDS     r0,r0,#8
        0x00004116:    b2c1        ..      UXTB     r1,r0
        0x00004118:    7830        0x      LDRB     r0,[r6,#0]
        0x0000411a:    1c40        @.      ADDS     r0,r0,#1
        0x0000411c:    b2c0        ..      UXTB     r0,r0
        0x0000411e:    9001        ..      STR      r0,[sp,#4]
        0x00004120:    9b02        ..      LDR      r3,[sp,#8]
        0x00004122:    f000fbd3    ....    BL       writeOneSprite ; 0x48cc
        0x00004126:    9700        ..      STR      r7,[sp,#0]
        0x00004128:    9802        ..      LDR      r0,[sp,#8]
        0x0000412a:    1c43        C.      ADDS     r3,r0,#1
        0x0000412c:    0120         .      LSLS     r0,r4,#4
        0x0000412e:    1940        @.      ADDS     r0,r0,r5
        0x00004130:    88c0        ..      LDRH     r0,[r0,#6]
        0x00004132:    3008        .0      ADDS     r0,r0,#8
        0x00004134:    b2c2        ..      UXTB     r2,r0
        0x00004136:    0120         .      LSLS     r0,r4,#4
        0x00004138:    1940        @.      ADDS     r0,r0,r5
        0x0000413a:    8880        ..      LDRH     r0,[r0,#4]
        0x0000413c:    1d00        ..      ADDS     r0,r0,#4
        0x0000413e:    b2c1        ..      UXTB     r1,r0
        0x00004140:    7830        0x      LDRB     r0,[r6,#0]
        0x00004142:    1c80        ..      ADDS     r0,r0,#2
        0x00004144:    b2c0        ..      UXTB     r0,r0
        0x00004146:    9001        ..      STR      r0,[sp,#4]
        0x00004148:    f000fbc0    ....    BL       writeOneSprite ; 0x48cc
        0x0000414c:    7830        0x      LDRB     r0,[r6,#0]
        0x0000414e:    1cc0        ..      ADDS     r0,r0,#3
        0x00004150:    7030        0p      STRB     r0,[r6,#0]
        0x00004152:    e0a1        ..      B        0x4298 ; s_grey_drawPlane + 944
        0x00004154:    0121        !.      LSLS     r1,r4,#4
        0x00004156:    1949        I.      ADDS     r1,r1,r5
        0x00004158:    9700        ..      STR      r7,[sp,#0]
        0x0000415a:    88c9        ..      LDRH     r1,[r1,#6]
        0x0000415c:    b2ca        ..      UXTB     r2,r1
        0x0000415e:    0121        !.      LSLS     r1,r4,#4
        0x00004160:    1949        I.      ADDS     r1,r1,r5
        0x00004162:    8889        ..      LDRH     r1,[r1,#4]
        0x00004164:    b2c9        ..      UXTB     r1,r1
        0x00004166:    9101        ..      STR      r1,[sp,#4]
        0x00004168:    7830        0x      LDRB     r0,[r6,#0]
        0x0000416a:    234b        K#      MOVS     r3,#0x4b
        0x0000416c:    f000fbae    ....    BL       writeOneSprite ; 0x48cc
        0x00004170:    4638        8F      MOV      r0,r7
        0x00004172:    2140        @!      MOVS     r1,#0x40
        0x00004174:    4308        .C      ORRS     r0,r0,r1
        0x00004176:    0121        !.      LSLS     r1,r4,#4
        0x00004178:    1949        I.      ADDS     r1,r1,r5
        0x0000417a:    9000        ..      STR      r0,[sp,#0]
        0x0000417c:    88c9        ..      LDRH     r1,[r1,#6]
        0x0000417e:    b2ca        ..      UXTB     r2,r1
        0x00004180:    0121        !.      LSLS     r1,r4,#4
        0x00004182:    1949        I.      ADDS     r1,r1,r5
        0x00004184:    8889        ..      LDRH     r1,[r1,#4]
        0x00004186:    3108        .1      ADDS     r1,r1,#8
        0x00004188:    b2c9        ..      UXTB     r1,r1
        0x0000418a:    9101        ..      STR      r1,[sp,#4]
        0x0000418c:    7831        1x      LDRB     r1,[r6,#0]
        0x0000418e:    1c49        I.      ADDS     r1,r1,#1
        0x00004190:    b2c8        ..      UXTB     r0,r1
        0x00004192:    234a        J#      MOVS     r3,#0x4a
        0x00004194:    9901        ..      LDR      r1,[sp,#4]
        0x00004196:    f000fb99    ....    BL       writeOneSprite ; 0x48cc
        0x0000419a:    0121        !.      LSLS     r1,r4,#4
        0x0000419c:    1949        I.      ADDS     r1,r1,r5
        0x0000419e:    9700        ..      STR      r7,[sp,#0]
        0x000041a0:    88c9        ..      LDRH     r1,[r1,#6]
        0x000041a2:    3908        .9      SUBS     r1,r1,#8
        0x000041a4:    b2ca        ..      UXTB     r2,r1
        0x000041a6:    0121        !.      LSLS     r1,r4,#4
        0x000041a8:    1949        I.      ADDS     r1,r1,r5
        0x000041aa:    8889        ..      LDRH     r1,[r1,#4]
        0x000041ac:    1d09        ..      ADDS     r1,r1,#4
        0x000041ae:    b2c9        ..      UXTB     r1,r1
        0x000041b0:    9101        ..      STR      r1,[sp,#4]
        0x000041b2:    7831        1x      LDRB     r1,[r6,#0]
        0x000041b4:    1c89        ..      ADDS     r1,r1,#2
        0x000041b6:    b2c8        ..      UXTB     r0,r1
        0x000041b8:    234c        L#      MOVS     r3,#0x4c
        0x000041ba:    9901        ..      LDR      r1,[sp,#4]
        0x000041bc:    f000fb86    ....    BL       writeOneSprite ; 0x48cc
        0x000041c0:    7830        0x      LDRB     r0,[r6,#0]
        0x000041c2:    1cc0        ..      ADDS     r0,r0,#3
        0x000041c4:    7030        0p      STRB     r0,[r6,#0]
        0x000041c6:    e067        g.      B        0x4298 ; s_grey_drawPlane + 944
        0x000041c8:    0122        ".      LSLS     r2,r4,#4
        0x000041ca:    1952        R.      ADDS     r2,r2,r5
        0x000041cc:    9700        ..      STR      r7,[sp,#0]
        0x000041ce:    88d2        ..      LDRH     r2,[r2,#6]
        0x000041d0:    b2d2        ..      UXTB     r2,r2
        0x000041d2:    9201        ..      STR      r2,[sp,#4]
        0x000041d4:    0122        ".      LSLS     r2,r4,#4
        0x000041d6:    1952        R.      ADDS     r2,r2,r5
        0x000041d8:    8892        ..      LDRH     r2,[r2,#4]
        0x000041da:    b2d1        ..      UXTB     r1,r2
        0x000041dc:    7830        0x      LDRB     r0,[r6,#0]
        0x000041de:    234d        M#      MOVS     r3,#0x4d
        0x000041e0:    9a01        ..      LDR      r2,[sp,#4]
        0x000041e2:    f000fb73    ..s.    BL       writeOneSprite ; 0x48cc
        0x000041e6:    4638        8F      MOV      r0,r7
        0x000041e8:    2140        @!      MOVS     r1,#0x40
        0x000041ea:    4308        .C      ORRS     r0,r0,r1
        0x000041ec:    9000        ..      STR      r0,[sp,#0]
        0x000041ee:    0120         .      LSLS     r0,r4,#4
        0x000041f0:    1940        @.      ADDS     r0,r0,r5
        0x000041f2:    88c0        ..      LDRH     r0,[r0,#6]
        0x000041f4:    3808        .8      SUBS     r0,r0,#8
        0x000041f6:    b2c2        ..      UXTB     r2,r0
        0x000041f8:    0120         .      LSLS     r0,r4,#4
        0x000041fa:    1940        @.      ADDS     r0,r0,r5
        0x000041fc:    8880        ..      LDRH     r0,[r0,#4]
        0x000041fe:    b2c1        ..      UXTB     r1,r0
        0x00004200:    7830        0x      LDRB     r0,[r6,#0]
        0x00004202:    1c40        @.      ADDS     r0,r0,#1
        0x00004204:    b2c0        ..      UXTB     r0,r0
        0x00004206:    234e        N#      MOVS     r3,#0x4e
        0x00004208:    9001        ..      STR      r0,[sp,#4]
        0x0000420a:    f000fb5f    .._.    BL       writeOneSprite ; 0x48cc
        0x0000420e:    7830        0x      LDRB     r0,[r6,#0]
        0x00004210:    1c80        ..      ADDS     r0,r0,#2
        0x00004212:    7030        0p      STRB     r0,[r6,#0]
        0x00004214:    e040        @.      B        0x4298 ; s_grey_drawPlane + 944
        0x00004216:    204a        J       MOVS     r0,#0x4a
        0x00004218:    9002        ..      STR      r0,[sp,#8]
        0x0000421a:    4638        8F      MOV      r0,r7
        0x0000421c:    2140        @!      MOVS     r1,#0x40
        0x0000421e:    4308        .C      ORRS     r0,r0,r1
        0x00004220:    9000        ..      STR      r0,[sp,#0]
        0x00004222:    0120         .      LSLS     r0,r4,#4
        0x00004224:    1940        @.      ADDS     r0,r0,r5
        0x00004226:    88c0        ..      LDRH     r0,[r0,#6]
        0x00004228:    b2c2        ..      UXTB     r2,r0
        0x0000422a:    0120         .      LSLS     r0,r4,#4
        0x0000422c:    1940        @.      ADDS     r0,r0,r5
        0x0000422e:    8880        ..      LDRH     r0,[r0,#4]
        0x00004230:    b2c1        ..      UXTB     r1,r0
        0x00004232:    7830        0x      LDRB     r0,[r6,#0]
        0x00004234:    2350        P#      MOVS     r3,#0x50
        0x00004236:    9001        ..      STR      r0,[sp,#4]
        0x00004238:    f000fb48    ..H.    BL       writeOneSprite ; 0x48cc
        0x0000423c:    4638        8F      MOV      r0,r7
        0x0000423e:    2140        @!      MOVS     r1,#0x40
        0x00004240:    4308        .C      ORRS     r0,r0,r1
        0x00004242:    9000        ..      STR      r0,[sp,#0]
        0x00004244:    0120         .      LSLS     r0,r4,#4
        0x00004246:    1940        @.      ADDS     r0,r0,r5
        0x00004248:    88c0        ..      LDRH     r0,[r0,#6]
        0x0000424a:    b2c2        ..      UXTB     r2,r0
        0x0000424c:    0120         .      LSLS     r0,r4,#4
        0x0000424e:    1940        @.      ADDS     r0,r0,r5
        0x00004250:    8880        ..      LDRH     r0,[r0,#4]
        0x00004252:    3008        .0      ADDS     r0,r0,#8
        0x00004254:    b2c1        ..      UXTB     r1,r0
        0x00004256:    7830        0x      LDRB     r0,[r6,#0]
        0x00004258:    1c40        @.      ADDS     r0,r0,#1
        0x0000425a:    b2c0        ..      UXTB     r0,r0
        0x0000425c:    234f        O#      MOVS     r3,#0x4f
        0x0000425e:    9001        ..      STR      r0,[sp,#4]
        0x00004260:    f000fb34    ..4.    BL       writeOneSprite ; 0x48cc
        0x00004264:    4638        8F      MOV      r0,r7
        0x00004266:    2140        @!      MOVS     r1,#0x40
        0x00004268:    4308        .C      ORRS     r0,r0,r1
        0x0000426a:    9000        ..      STR      r0,[sp,#0]
        0x0000426c:    0120         .      LSLS     r0,r4,#4
        0x0000426e:    1940        @.      ADDS     r0,r0,r5
        0x00004270:    88c0        ..      LDRH     r0,[r0,#6]
        0x00004272:    1fc0        ..      SUBS     r0,r0,#7
        0x00004274:    b2c2        ..      UXTB     r2,r0
        0x00004276:    0120         .      LSLS     r0,r4,#4
        0x00004278:    1940        @.      ADDS     r0,r0,r5
        0x0000427a:    8880        ..      LDRH     r0,[r0,#4]
        0x0000427c:    1d00        ..      ADDS     r0,r0,#4
        0x0000427e:    b2c1        ..      UXTB     r1,r0
        0x00004280:    7830        0x      LDRB     r0,[r6,#0]
        0x00004282:    1c80        ..      ADDS     r0,r0,#2
        0x00004284:    b2c0        ..      UXTB     r0,r0
        0x00004286:    2351        Q#      MOVS     r3,#0x51
        0x00004288:    9001        ..      STR      r0,[sp,#4]
        0x0000428a:    f000fb1f    ....    BL       writeOneSprite ; 0x48cc
        0x0000428e:    7830        0x      LDRB     r0,[r6,#0]
        0x00004290:    1cc0        ..      ADDS     r0,r0,#3
        0x00004292:    7030        0p      STRB     r0,[r6,#0]
        0x00004294:    e000        ..      B        0x4298 ; s_grey_drawPlane + 944
        0x00004296:    bf00        ..      NOP      
        0x00004298:    bf00        ..      NOP      
        0x0000429a:    bf00        ..      NOP      
        0x0000429c:    1c64        d.      ADDS     r4,r4,#1
        0x0000429e:    4803        .H      LDR      r0,[pc,#12] ; [0x42ac] = 0x48f1
        0x000042a0:    7800        .x      LDRB     r0,[r0,#0]
        0x000042a2:    4284        .B      CMP      r4,r0
        0x000042a4:    da00        ..      BGE      0x42a8 ; s_grey_drawPlane + 960
        0x000042a6:    e624        $.      B        0x3ef2 ; s_grey_drawPlane + 10
        0x000042a8:    bdfe        ..      POP      {r1-r7,pc}
    $d
        0x000042aa:    0000        ..      DCW    0
        0x000042ac:    000048f1    .H..    DCD    18673
    $t
    i.s_grey_movePlane
    s_grey_movePlane
        0x000042b0:    b5f7        ..      PUSH     {r0-r2,r4-r7,lr}
        0x000042b2:    b082        ..      SUB      sp,sp,#8
        0x000042b4:    4605        .F      MOV      r5,r0
        0x000042b6:    460e        .F      MOV      r6,r1
        0x000042b8:    2400        .$      MOVS     r4,#0
        0x000042ba:    e1e1        ..      B        0x4680 ; s_grey_movePlane + 976
        0x000042bc:    0120         .      LSLS     r0,r4,#4
        0x000042be:    5c28        (\      LDRB     r0,[r5,r0]
        0x000042c0:    2800        .(      CMP      r0,#0
        0x000042c2:    d029        ).      BEQ      0x4318 ; s_grey_movePlane + 104
        0x000042c4:    0120         .      LSLS     r0,r4,#4
        0x000042c6:    1940        @.      ADDS     r0,r0,r5
        0x000042c8:    7880        .x      LDRB     r0,[r0,#2]
        0x000042ca:    2802        .(      CMP      r0,#2
        0x000042cc:    d17e        ~.      BNE      0x43cc ; s_grey_movePlane + 284
        0x000042ce:    2000        .       MOVS     r0,#0
        0x000042d0:    0121        !.      LSLS     r1,r4,#4
        0x000042d2:    1949        I.      ADDS     r1,r1,r5
        0x000042d4:    7088        .p      STRB     r0,[r1,#2]
        0x000042d6:    0120         .      LSLS     r0,r4,#4
        0x000042d8:    1940        @.      ADDS     r0,r0,r5
        0x000042da:    2104        .!      MOVS     r1,#4
        0x000042dc:    5e41        A^      LDRSH    r1,[r0,r1]
        0x000042de:    2905        .)      CMP      r1,#5
        0x000042e0:    db11        ..      BLT      0x4306 ; s_grey_movePlane + 86
        0x000042e2:    0120         .      LSLS     r0,r4,#4
        0x000042e4:    1940        @.      ADDS     r0,r0,r5
        0x000042e6:    2104        .!      MOVS     r1,#4
        0x000042e8:    5e41        A^      LDRSH    r1,[r0,r1]
        0x000042ea:    29fb        .)      CMP      r1,#0xfb
        0x000042ec:    dc0b        ..      BGT      0x4306 ; s_grey_movePlane + 86
        0x000042ee:    0120         .      LSLS     r0,r4,#4
        0x000042f0:    1940        @.      ADDS     r0,r0,r5
        0x000042f2:    2106        .!      MOVS     r1,#6
        0x000042f4:    5e41        A^      LDRSH    r1,[r0,r1]
        0x000042f6:    290a        .)      CMP      r1,#0xa
        0x000042f8:    db05        ..      BLT      0x4306 ; s_grey_movePlane + 86
        0x000042fa:    0120         .      LSLS     r0,r4,#4
        0x000042fc:    1940        @.      ADDS     r0,r0,r5
        0x000042fe:    2106        .!      MOVS     r1,#6
        0x00004300:    5e41        A^      LDRSH    r1,[r0,r1]
        0x00004302:    29e6        .)      CMP      r1,#0xe6
        0x00004304:    dd09        ..      BLE      0x431a ; s_grey_movePlane + 106
        0x00004306:    2000        .       MOVS     r0,#0
        0x00004308:    0121        !.      LSLS     r1,r4,#4
        0x0000430a:    5468        hT      STRB     r0,[r5,r1]
        0x0000430c:    0121        !.      LSLS     r1,r4,#4
        0x0000430e:    1949        I.      ADDS     r1,r1,r5
        0x00004310:    8088        ..      STRH     r0,[r1,#4]
        0x00004312:    0121        !.      LSLS     r1,r4,#4
        0x00004314:    1949        I.      ADDS     r1,r1,r5
        0x00004316:    80c8        ..      STRH     r0,[r1,#6]
        0x00004318:    e1b1        ..      B        0x467e ; s_grey_movePlane + 974
        0x0000431a:    0120         .      LSLS     r0,r4,#4
        0x0000431c:    1940        @.      ADDS     r0,r0,r5
        0x0000431e:    7a80        .z      LDRB     r0,[r0,#0xa]
        0x00004320:    2800        .(      CMP      r0,#0
        0x00004322:    d17d        }.      BNE      0x4420 ; s_grey_movePlane + 368
        0x00004324:    f7fbff24    ..$.    BL       rand ; 0x170
        0x00004328:    4607        .F      MOV      r7,r0
        0x0000432a:    2114        .!      MOVS     r1,#0x14
        0x0000432c:    f7fbff0c    ....    BL       __aeabi_idiv ; 0x148
        0x00004330:    2002        .       MOVS     r0,#2
        0x00004332:    5e30        0^      LDRSH    r0,[r6,r0]
        0x00004334:    3814        .8      SUBS     r0,r0,#0x14
        0x00004336:    1a40        @.      SUBS     r0,r0,r1
        0x00004338:    0121        !.      LSLS     r1,r4,#4
        0x0000433a:    1949        I.      ADDS     r1,r1,r5
        0x0000433c:    2206        ."      MOVS     r2,#6
        0x0000433e:    5e8a        .^      LDRSH    r2,[r1,r2]
        0x00004340:    4290        .B      CMP      r0,r2
        0x00004342:    dc6e        n.      BGT      0x4422 ; s_grey_movePlane + 370
        0x00004344:    0120         .      LSLS     r0,r4,#4
        0x00004346:    1940        @.      ADDS     r0,r0,r5
        0x00004348:    7a00        .z      LDRB     r0,[r0,#8]
        0x0000434a:    2801        .(      CMP      r0,#1
        0x0000434c:    d109        ..      BNE      0x4362 ; s_grey_movePlane + 178
        0x0000434e:    0120         .      LSLS     r0,r4,#4
        0x00004350:    1941        A.      ADDS     r1,r0,r5
        0x00004352:    4632        2F      MOV      r2,r6
        0x00004354:    9804        ..      LDR      r0,[sp,#0x10]
        0x00004356:    f7fffca5    ....    BL       s_grey_createOneEnmeyBullet ; 0x3ca4
        0x0000435a:    2000        .       MOVS     r0,#0
        0x0000435c:    0121        !.      LSLS     r1,r4,#4
        0x0000435e:    1949        I.      ADDS     r1,r1,r5
        0x00004360:    7208        .r      STRB     r0,[r1,#8]
        0x00004362:    0120         .      LSLS     r0,r4,#4
        0x00004364:    1940        @.      ADDS     r0,r0,r5
        0x00004366:    7a40        @z      LDRB     r0,[r0,#9]
        0x00004368:    2800        .(      CMP      r0,#0
        0x0000436a:    d144        D.      BNE      0x43f6 ; s_grey_movePlane + 326
        0x0000436c:    0120         .      LSLS     r0,r4,#4
        0x0000436e:    1941        A.      ADDS     r1,r0,r5
        0x00004370:    2004        .       MOVS     r0,#4
        0x00004372:    5e08        .^      LDRSH    r0,[r1,r0]
        0x00004374:    2100        .!      MOVS     r1,#0
        0x00004376:    5e71        q^      LDRSH    r1,[r6,r1]
        0x00004378:    4288        .B      CMP      r0,r1
        0x0000437a:    da16        ..      BGE      0x43aa ; s_grey_movePlane + 250
        0x0000437c:    2000        .       MOVS     r0,#0
        0x0000437e:    5e30        0^      LDRSH    r0,[r6,r0]
        0x00004380:    0121        !.      LSLS     r1,r4,#4
        0x00004382:    1949        I.      ADDS     r1,r1,r5
        0x00004384:    2204        ."      MOVS     r2,#4
        0x00004386:    5e8a        .^      LDRSH    r2,[r1,r2]
        0x00004388:    1a80        ..      SUBS     r0,r0,r2
        0x0000438a:    283c        <(      CMP      r0,#0x3c
        0x0000438c:    da0d        ..      BGE      0x43aa ; s_grey_movePlane + 250
        0x0000438e:    2000        .       MOVS     r0,#0
        0x00004390:    5e30        0^      LDRSH    r0,[r6,r0]
        0x00004392:    0121        !.      LSLS     r1,r4,#4
        0x00004394:    1949        I.      ADDS     r1,r1,r5
        0x00004396:    2204        ."      MOVS     r2,#4
        0x00004398:    5e8a        .^      LDRSH    r2,[r1,r2]
        0x0000439a:    1a80        ..      SUBS     r0,r0,r2
        0x0000439c:    2800        .(      CMP      r0,#0
        0x0000439e:    dd04        ..      BLE      0x43aa ; s_grey_movePlane + 250
        0x000043a0:    2006        .       MOVS     r0,#6
        0x000043a2:    0121        !.      LSLS     r1,r4,#4
        0x000043a4:    1949        I.      ADDS     r1,r1,r5
        0x000043a6:    7388        .s      STRB     r0,[r1,#0xe]
        0x000043a8:    e05f        _.      B        0x446a ; s_grey_movePlane + 442
        0x000043aa:    0120         .      LSLS     r0,r4,#4
        0x000043ac:    1941        A.      ADDS     r1,r0,r5
        0x000043ae:    2004        .       MOVS     r0,#4
        0x000043b0:    5e08        .^      LDRSH    r0,[r1,r0]
        0x000043b2:    2100        .!      MOVS     r1,#0
        0x000043b4:    5e71        q^      LDRSH    r1,[r6,r1]
        0x000043b6:    4288        .B      CMP      r0,r1
        0x000043b8:    dd18        ..      BLE      0x43ec ; s_grey_movePlane + 316
        0x000043ba:    0120         .      LSLS     r0,r4,#4
        0x000043bc:    1941        A.      ADDS     r1,r0,r5
        0x000043be:    2004        .       MOVS     r0,#4
        0x000043c0:    5e08        .^      LDRSH    r0,[r1,r0]
        0x000043c2:    2100        .!      MOVS     r1,#0
        0x000043c4:    5e71        q^      LDRSH    r1,[r6,r1]
        0x000043c6:    1a40        @.      SUBS     r0,r0,r1
        0x000043c8:    2832        2(      CMP      r0,#0x32
        0x000043ca:    e000        ..      B        0x43ce ; s_grey_movePlane + 286
        0x000043cc:    e150        P.      B        0x4670 ; s_grey_movePlane + 960
        0x000043ce:    da0d        ..      BGE      0x43ec ; s_grey_movePlane + 316
        0x000043d0:    0120         .      LSLS     r0,r4,#4
        0x000043d2:    1941        A.      ADDS     r1,r0,r5
        0x000043d4:    2004        .       MOVS     r0,#4
        0x000043d6:    5e08        .^      LDRSH    r0,[r1,r0]
        0x000043d8:    2100        .!      MOVS     r1,#0
        0x000043da:    5e71        q^      LDRSH    r1,[r6,r1]
        0x000043dc:    1a40        @.      SUBS     r0,r0,r1
        0x000043de:    2800        .(      CMP      r0,#0
        0x000043e0:    dd04        ..      BLE      0x43ec ; s_grey_movePlane + 316
        0x000043e2:    2005        .       MOVS     r0,#5
        0x000043e4:    0121        !.      LSLS     r1,r4,#4
        0x000043e6:    1949        I.      ADDS     r1,r1,r5
        0x000043e8:    7388        .s      STRB     r0,[r1,#0xe]
        0x000043ea:    e03e        >.      B        0x446a ; s_grey_movePlane + 442
        0x000043ec:    2004        .       MOVS     r0,#4
        0x000043ee:    0121        !.      LSLS     r1,r4,#4
        0x000043f0:    1949        I.      ADDS     r1,r1,r5
        0x000043f2:    7388        .s      STRB     r0,[r1,#0xe]
        0x000043f4:    e039        9.      B        0x446a ; s_grey_movePlane + 442
        0x000043f6:    0120         .      LSLS     r0,r4,#4
        0x000043f8:    1940        @.      ADDS     r0,r0,r5
        0x000043fa:    7ac0        .z      LDRB     r0,[r0,#0xb]
        0x000043fc:    2804        .(      CMP      r0,#4
        0x000043fe:    d121        !.      BNE      0x4444 ; s_grey_movePlane + 404
        0x00004400:    2000        .       MOVS     r0,#0
        0x00004402:    0121        !.      LSLS     r1,r4,#4
        0x00004404:    1949        I.      ADDS     r1,r1,r5
        0x00004406:    7308        .s      STRB     r0,[r1,#0xc]
        0x00004408:    2003        .       MOVS     r0,#3
        0x0000440a:    0121        !.      LSLS     r1,r4,#4
        0x0000440c:    1949        I.      ADDS     r1,r1,r5
        0x0000440e:    7348        Hs      STRB     r0,[r1,#0xd]
        0x00004410:    f7fbfeae    ....    BL       rand ; 0x170
        0x00004414:    4607        .F      MOV      r7,r0
        0x00004416:    0fc0        ..      LSRS     r0,r0,#31
        0x00004418:    19c0        ..      ADDS     r0,r0,r7
        0x0000441a:    1040        @.      ASRS     r0,r0,#1
        0x0000441c:    0040        @.      LSLS     r0,r0,#1
        0x0000441e:    e001        ..      B        0x4424 ; s_grey_movePlane + 372
        0x00004420:    e05d        ].      B        0x44de ; s_grey_movePlane + 558
        0x00004422:    e043        C.      B        0x44ac ; s_grey_movePlane + 508
        0x00004424:    1a38        8.      SUBS     r0,r7,r0
        0x00004426:    b2c0        ..      UXTB     r0,r0
        0x00004428:    9001        ..      STR      r0,[sp,#4]
        0x0000442a:    9801        ..      LDR      r0,[sp,#4]
        0x0000442c:    2800        .(      CMP      r0,#0
        0x0000442e:    d104        ..      BNE      0x443a ; s_grey_movePlane + 394
        0x00004430:    2002        .       MOVS     r0,#2
        0x00004432:    0121        !.      LSLS     r1,r4,#4
        0x00004434:    1949        I.      ADDS     r1,r1,r5
        0x00004436:    7388        .s      STRB     r0,[r1,#0xe]
        0x00004438:    e003        ..      B        0x4442 ; s_grey_movePlane + 402
        0x0000443a:    2003        .       MOVS     r0,#3
        0x0000443c:    0121        !.      LSLS     r1,r4,#4
        0x0000443e:    1949        I.      ADDS     r1,r1,r5
        0x00004440:    7388        .s      STRB     r0,[r1,#0xe]
        0x00004442:    e012        ..      B        0x446a ; s_grey_movePlane + 442
        0x00004444:    0120         .      LSLS     r0,r4,#4
        0x00004446:    1940        @.      ADDS     r0,r0,r5
        0x00004448:    7ac0        .z      LDRB     r0,[r0,#0xb]
        0x0000444a:    2805        .(      CMP      r0,#5
        0x0000444c:    d104        ..      BNE      0x4458 ; s_grey_movePlane + 424
        0x0000444e:    2002        .       MOVS     r0,#2
        0x00004450:    0121        !.      LSLS     r1,r4,#4
        0x00004452:    1949        I.      ADDS     r1,r1,r5
        0x00004454:    7388        .s      STRB     r0,[r1,#0xe]
        0x00004456:    e008        ..      B        0x446a ; s_grey_movePlane + 442
        0x00004458:    0120         .      LSLS     r0,r4,#4
        0x0000445a:    1940        @.      ADDS     r0,r0,r5
        0x0000445c:    7ac0        .z      LDRB     r0,[r0,#0xb]
        0x0000445e:    2806        .(      CMP      r0,#6
        0x00004460:    d103        ..      BNE      0x446a ; s_grey_movePlane + 442
        0x00004462:    2003        .       MOVS     r0,#3
        0x00004464:    0121        !.      LSLS     r1,r4,#4
        0x00004466:    1949        I.      ADDS     r1,r1,r5
        0x00004468:    7388        .s      STRB     r0,[r1,#0xe]
        0x0000446a:    0120         .      LSLS     r0,r4,#4
        0x0000446c:    1940        @.      ADDS     r0,r0,r5
        0x0000446e:    7a40        @z      LDRB     r0,[r0,#9]
        0x00004470:    2801        .(      CMP      r0,#1
        0x00004472:    d108        ..      BNE      0x4486 ; s_grey_movePlane + 470
        0x00004474:    2000        .       MOVS     r0,#0
        0x00004476:    0121        !.      LSLS     r1,r4,#4
        0x00004478:    1949        I.      ADDS     r1,r1,r5
        0x0000447a:    73c8        .s      STRB     r0,[r1,#0xf]
        0x0000447c:    2001        .       MOVS     r0,#1
        0x0000447e:    0121        !.      LSLS     r1,r4,#4
        0x00004480:    1949        I.      ADDS     r1,r1,r5
        0x00004482:    7288        .r      STRB     r0,[r1,#0xa]
        0x00004484:    e0fb        ..      B        0x467e ; s_grey_movePlane + 974
        0x00004486:    0120         .      LSLS     r0,r4,#4
        0x00004488:    1940        @.      ADDS     r0,r0,r5
        0x0000448a:    7b80        .{      LDRB     r0,[r0,#0xe]
        0x0000448c:    2804        .(      CMP      r0,#4
        0x0000448e:    d104        ..      BNE      0x449a ; s_grey_movePlane + 490
        0x00004490:    2002        .       MOVS     r0,#2
        0x00004492:    0121        !.      LSLS     r1,r4,#4
        0x00004494:    1949        I.      ADDS     r1,r1,r5
        0x00004496:    7288        .r      STRB     r0,[r1,#0xa]
        0x00004498:    e0f1        ..      B        0x467e ; s_grey_movePlane + 974
        0x0000449a:    2001        .       MOVS     r0,#1
        0x0000449c:    0121        !.      LSLS     r1,r4,#4
        0x0000449e:    1949        I.      ADDS     r1,r1,r5
        0x000044a0:    7288        .r      STRB     r0,[r1,#0xa]
        0x000044a2:    2005        .       MOVS     r0,#5
        0x000044a4:    0121        !.      LSLS     r1,r4,#4
        0x000044a6:    1949        I.      ADDS     r1,r1,r5
        0x000044a8:    73c8        .s      STRB     r0,[r1,#0xf]
        0x000044aa:    e0e8        ..      B        0x467e ; s_grey_movePlane + 974
        0x000044ac:    0120         .      LSLS     r0,r4,#4
        0x000044ae:    1940        @.      ADDS     r0,r0,r5
        0x000044b0:    8880        ..      LDRH     r0,[r0,#4]
        0x000044b2:    0121        !.      LSLS     r1,r4,#4
        0x000044b4:    1949        I.      ADDS     r1,r1,r5
        0x000044b6:    220c        ."      MOVS     r2,#0xc
        0x000044b8:    568a        .V      LDRSB    r2,[r1,r2]
        0x000044ba:    1880        ..      ADDS     r0,r0,r2
        0x000044bc:    b200        ..      SXTH     r0,r0
        0x000044be:    0121        !.      LSLS     r1,r4,#4
        0x000044c0:    1949        I.      ADDS     r1,r1,r5
        0x000044c2:    8088        ..      STRH     r0,[r1,#4]
        0x000044c4:    0120         .      LSLS     r0,r4,#4
        0x000044c6:    1940        @.      ADDS     r0,r0,r5
        0x000044c8:    88c0        ..      LDRH     r0,[r0,#6]
        0x000044ca:    0121        !.      LSLS     r1,r4,#4
        0x000044cc:    1949        I.      ADDS     r1,r1,r5
        0x000044ce:    220d        ."      MOVS     r2,#0xd
        0x000044d0:    568a        .V      LDRSB    r2,[r1,r2]
        0x000044d2:    1880        ..      ADDS     r0,r0,r2
        0x000044d4:    b200        ..      SXTH     r0,r0
        0x000044d6:    0121        !.      LSLS     r1,r4,#4
        0x000044d8:    1949        I.      ADDS     r1,r1,r5
        0x000044da:    80c8        ..      STRH     r0,[r1,#6]
        0x000044dc:    e0cf        ..      B        0x467e ; s_grey_movePlane + 974
        0x000044de:    0120         .      LSLS     r0,r4,#4
        0x000044e0:    1940        @.      ADDS     r0,r0,r5
        0x000044e2:    7a80        .z      LDRB     r0,[r0,#0xa]
        0x000044e4:    2801        .(      CMP      r0,#1
        0x000044e6:    d14c        L.      BNE      0x4582 ; s_grey_movePlane + 722
        0x000044e8:    0120         .      LSLS     r0,r4,#4
        0x000044ea:    1940        @.      ADDS     r0,r0,r5
        0x000044ec:    7a40        @z      LDRB     r0,[r0,#9]
        0x000044ee:    2801        .(      CMP      r0,#1
        0x000044f0:    d123        #.      BNE      0x453a ; s_grey_movePlane + 650
        0x000044f2:    0120         .      LSLS     r0,r4,#4
        0x000044f4:    1941        A.      ADDS     r1,r0,r5
        0x000044f6:    2004        .       MOVS     r0,#4
        0x000044f8:    5e08        .^      LDRSH    r0,[r1,r0]
        0x000044fa:    0121        !.      LSLS     r1,r4,#4
        0x000044fc:    1949        I.      ADDS     r1,r1,r5
        0x000044fe:    8088        ..      STRH     r0,[r1,#4]
        0x00004500:    0120         .      LSLS     r0,r4,#4
        0x00004502:    1941        A.      ADDS     r1,r0,r5
        0x00004504:    2006        .       MOVS     r0,#6
        0x00004506:    5e08        .^      LDRSH    r0,[r1,r0]
        0x00004508:    0121        !.      LSLS     r1,r4,#4
        0x0000450a:    1949        I.      ADDS     r1,r1,r5
        0x0000450c:    80c8        ..      STRH     r0,[r1,#6]
        0x0000450e:    0120         .      LSLS     r0,r4,#4
        0x00004510:    1940        @.      ADDS     r0,r0,r5
        0x00004512:    7bc0        .{      LDRB     r0,[r0,#0xf]
        0x00004514:    2804        .(      CMP      r0,#4
        0x00004516:    dab5        ..      BGE      0x4484 ; s_grey_movePlane + 468
        0x00004518:    0120         .      LSLS     r0,r4,#4
        0x0000451a:    1940        @.      ADDS     r0,r0,r5
        0x0000451c:    7bc0        .{      LDRB     r0,[r0,#0xf]
        0x0000451e:    1c40        @.      ADDS     r0,r0,#1
        0x00004520:    0121        !.      LSLS     r1,r4,#4
        0x00004522:    1949        I.      ADDS     r1,r1,r5
        0x00004524:    73c8        .s      STRB     r0,[r1,#0xf]
        0x00004526:    0120         .      LSLS     r0,r4,#4
        0x00004528:    1940        @.      ADDS     r0,r0,r5
        0x0000452a:    7bc0        .{      LDRB     r0,[r0,#0xf]
        0x0000452c:    2804        .(      CMP      r0,#4
        0x0000452e:    d1a9        ..      BNE      0x4484 ; s_grey_movePlane + 468
        0x00004530:    2002        .       MOVS     r0,#2
        0x00004532:    0121        !.      LSLS     r1,r4,#4
        0x00004534:    1949        I.      ADDS     r1,r1,r5
        0x00004536:    7288        .r      STRB     r0,[r1,#0xa]
        0x00004538:    e0a1        ..      B        0x467e ; s_grey_movePlane + 974
        0x0000453a:    0120         .      LSLS     r0,r4,#4
        0x0000453c:    1941        A.      ADDS     r1,r0,r5
        0x0000453e:    2004        .       MOVS     r0,#4
        0x00004540:    5e08        .^      LDRSH    r0,[r1,r0]
        0x00004542:    0121        !.      LSLS     r1,r4,#4
        0x00004544:    1949        I.      ADDS     r1,r1,r5
        0x00004546:    8088        ..      STRH     r0,[r1,#4]
        0x00004548:    0120         .      LSLS     r0,r4,#4
        0x0000454a:    1941        A.      ADDS     r1,r0,r5
        0x0000454c:    2006        .       MOVS     r0,#6
        0x0000454e:    5e08        .^      LDRSH    r0,[r1,r0]
        0x00004550:    0121        !.      LSLS     r1,r4,#4
        0x00004552:    1949        I.      ADDS     r1,r1,r5
        0x00004554:    80c8        ..      STRH     r0,[r1,#6]
        0x00004556:    0120         .      LSLS     r0,r4,#4
        0x00004558:    1940        @.      ADDS     r0,r0,r5
        0x0000455a:    7bc0        .{      LDRB     r0,[r0,#0xf]
        0x0000455c:    2807        .(      CMP      r0,#7
        0x0000455e:    da0f        ..      BGE      0x4580 ; s_grey_movePlane + 720
        0x00004560:    0120         .      LSLS     r0,r4,#4
        0x00004562:    1940        @.      ADDS     r0,r0,r5
        0x00004564:    7bc0        .{      LDRB     r0,[r0,#0xf]
        0x00004566:    1c40        @.      ADDS     r0,r0,#1
        0x00004568:    0121        !.      LSLS     r1,r4,#4
        0x0000456a:    1949        I.      ADDS     r1,r1,r5
        0x0000456c:    73c8        .s      STRB     r0,[r1,#0xf]
        0x0000456e:    0120         .      LSLS     r0,r4,#4
        0x00004570:    1940        @.      ADDS     r0,r0,r5
        0x00004572:    7bc0        .{      LDRB     r0,[r0,#0xf]
        0x00004574:    2807        .(      CMP      r0,#7
        0x00004576:    d103        ..      BNE      0x4580 ; s_grey_movePlane + 720
        0x00004578:    2002        .       MOVS     r0,#2
        0x0000457a:    0121        !.      LSLS     r1,r4,#4
        0x0000457c:    1949        I.      ADDS     r1,r1,r5
        0x0000457e:    7288        .r      STRB     r0,[r1,#0xa]
        0x00004580:    e07d        }.      B        0x467e ; s_grey_movePlane + 974
        0x00004582:    0120         .      LSLS     r0,r4,#4
        0x00004584:    1940        @.      ADDS     r0,r0,r5
        0x00004586:    7a80        .z      LDRB     r0,[r0,#0xa]
        0x00004588:    2802        .(      CMP      r0,#2
        0x0000458a:    d178        x.      BNE      0x467e ; s_grey_movePlane + 974
        0x0000458c:    0120         .      LSLS     r0,r4,#4
        0x0000458e:    1940        @.      ADDS     r0,r0,r5
        0x00004590:    7b80        .{      LDRB     r0,[r0,#0xe]
        0x00004592:    0003        ..      MOVS     r3,r0
        0x00004594:    f7fcfb4c    ..L.    BL       __ARM_common_switch8 ; 0xc30
    $d
        0x00004598:    15056a07    .j..    DCD    352676359
        0x0000459c:    58473726    &7GX    DCD    1481062182
        0x000045a0:    006a        j.      DCW    106
    $t
        0x000045a2:    0120         .      LSLS     r0,r4,#4
        0x000045a4:    1941        A.      ADDS     r1,r0,r5
        0x000045a6:    2004        .       MOVS     r0,#4
        0x000045a8:    5e08        .^      LDRSH    r0,[r1,r0]
        0x000045aa:    0121        !.      LSLS     r1,r4,#4
        0x000045ac:    1949        I.      ADDS     r1,r1,r5
        0x000045ae:    8088        ..      STRH     r0,[r1,#4]
        0x000045b0:    0120         .      LSLS     r0,r4,#4
        0x000045b2:    1940        @.      ADDS     r0,r0,r5
        0x000045b4:    88c0        ..      LDRH     r0,[r0,#6]
        0x000045b6:    1f00        ..      SUBS     r0,r0,#4
        0x000045b8:    b200        ..      SXTH     r0,r0
        0x000045ba:    0121        !.      LSLS     r1,r4,#4
        0x000045bc:    1949        I.      ADDS     r1,r1,r5
        0x000045be:    80c8        ..      STRH     r0,[r1,#6]
        0x000045c0:    e055        U.      B        0x466e ; s_grey_movePlane + 958
        0x000045c2:    0120         .      LSLS     r0,r4,#4
        0x000045c4:    1940        @.      ADDS     r0,r0,r5
        0x000045c6:    8880        ..      LDRH     r0,[r0,#4]
        0x000045c8:    1e80        ..      SUBS     r0,r0,#2
        0x000045ca:    b200        ..      SXTH     r0,r0
        0x000045cc:    0121        !.      LSLS     r1,r4,#4
        0x000045ce:    1949        I.      ADDS     r1,r1,r5
        0x000045d0:    8088        ..      STRH     r0,[r1,#4]
        0x000045d2:    0120         .      LSLS     r0,r4,#4
        0x000045d4:    1940        @.      ADDS     r0,r0,r5
        0x000045d6:    88c0        ..      LDRH     r0,[r0,#6]
        0x000045d8:    1ec0        ..      SUBS     r0,r0,#3
        0x000045da:    b200        ..      SXTH     r0,r0
        0x000045dc:    0121        !.      LSLS     r1,r4,#4
        0x000045de:    1949        I.      ADDS     r1,r1,r5
        0x000045e0:    80c8        ..      STRH     r0,[r1,#6]
        0x000045e2:    e044        D.      B        0x466e ; s_grey_movePlane + 958
        0x000045e4:    0120         .      LSLS     r0,r4,#4
        0x000045e6:    1940        @.      ADDS     r0,r0,r5
        0x000045e8:    8880        ..      LDRH     r0,[r0,#4]
        0x000045ea:    1c80        ..      ADDS     r0,r0,#2
        0x000045ec:    b200        ..      SXTH     r0,r0
        0x000045ee:    0121        !.      LSLS     r1,r4,#4
        0x000045f0:    1949        I.      ADDS     r1,r1,r5
        0x000045f2:    8088        ..      STRH     r0,[r1,#4]
        0x000045f4:    0120         .      LSLS     r0,r4,#4
        0x000045f6:    1940        @.      ADDS     r0,r0,r5
        0x000045f8:    88c0        ..      LDRH     r0,[r0,#6]
        0x000045fa:    1ec0        ..      SUBS     r0,r0,#3
        0x000045fc:    b200        ..      SXTH     r0,r0
        0x000045fe:    0121        !.      LSLS     r1,r4,#4
        0x00004600:    1949        I.      ADDS     r1,r1,r5
        0x00004602:    80c8        ..      STRH     r0,[r1,#6]
        0x00004604:    e033        3.      B        0x466e ; s_grey_movePlane + 958
        0x00004606:    0120         .      LSLS     r0,r4,#4
        0x00004608:    1941        A.      ADDS     r1,r0,r5
        0x0000460a:    2004        .       MOVS     r0,#4
        0x0000460c:    5e08        .^      LDRSH    r0,[r1,r0]
        0x0000460e:    0121        !.      LSLS     r1,r4,#4
        0x00004610:    1949        I.      ADDS     r1,r1,r5
        0x00004612:    8088        ..      STRH     r0,[r1,#4]
        0x00004614:    0120         .      LSLS     r0,r4,#4
        0x00004616:    1940        @.      ADDS     r0,r0,r5
        0x00004618:    88c0        ..      LDRH     r0,[r0,#6]
        0x0000461a:    1d40        @.      ADDS     r0,r0,#5
        0x0000461c:    b200        ..      SXTH     r0,r0
        0x0000461e:    0121        !.      LSLS     r1,r4,#4
        0x00004620:    1949        I.      ADDS     r1,r1,r5
        0x00004622:    80c8        ..      STRH     r0,[r1,#6]
        0x00004624:    e023        #.      B        0x466e ; s_grey_movePlane + 958
        0x00004626:    0120         .      LSLS     r0,r4,#4
        0x00004628:    1940        @.      ADDS     r0,r0,r5
        0x0000462a:    8880        ..      LDRH     r0,[r0,#4]
        0x0000462c:    1e80        ..      SUBS     r0,r0,#2
        0x0000462e:    b200        ..      SXTH     r0,r0
        0x00004630:    0121        !.      LSLS     r1,r4,#4
        0x00004632:    1949        I.      ADDS     r1,r1,r5
        0x00004634:    8088        ..      STRH     r0,[r1,#4]
        0x00004636:    0120         .      LSLS     r0,r4,#4
        0x00004638:    1940        @.      ADDS     r0,r0,r5
        0x0000463a:    88c0        ..      LDRH     r0,[r0,#6]
        0x0000463c:    1cc0        ..      ADDS     r0,r0,#3
        0x0000463e:    b200        ..      SXTH     r0,r0
        0x00004640:    0121        !.      LSLS     r1,r4,#4
        0x00004642:    1949        I.      ADDS     r1,r1,r5
        0x00004644:    80c8        ..      STRH     r0,[r1,#6]
        0x00004646:    e012        ..      B        0x466e ; s_grey_movePlane + 958
        0x00004648:    0120         .      LSLS     r0,r4,#4
        0x0000464a:    1940        @.      ADDS     r0,r0,r5
        0x0000464c:    8880        ..      LDRH     r0,[r0,#4]
        0x0000464e:    1c80        ..      ADDS     r0,r0,#2
        0x00004650:    b200        ..      SXTH     r0,r0
        0x00004652:    0121        !.      LSLS     r1,r4,#4
        0x00004654:    1949        I.      ADDS     r1,r1,r5
        0x00004656:    8088        ..      STRH     r0,[r1,#4]
        0x00004658:    0120         .      LSLS     r0,r4,#4
        0x0000465a:    1940        @.      ADDS     r0,r0,r5
        0x0000465c:    88c0        ..      LDRH     r0,[r0,#6]
        0x0000465e:    1cc0        ..      ADDS     r0,r0,#3
        0x00004660:    b200        ..      SXTH     r0,r0
        0x00004662:    0121        !.      LSLS     r1,r4,#4
        0x00004664:    1949        I.      ADDS     r1,r1,r5
        0x00004666:    80c8        ..      STRH     r0,[r1,#6]
        0x00004668:    e001        ..      B        0x466e ; s_grey_movePlane + 958
        0x0000466a:    e008        ..      B        0x467e ; s_grey_movePlane + 974
        0x0000466c:    bf00        ..      NOP      
        0x0000466e:    e006        ..      B        0x467e ; s_grey_movePlane + 974
        0x00004670:    0120         .      LSLS     r0,r4,#4
        0x00004672:    1940        @.      ADDS     r0,r0,r5
        0x00004674:    7880        .x      LDRB     r0,[r0,#2]
        0x00004676:    1c40        @.      ADDS     r0,r0,#1
        0x00004678:    0121        !.      LSLS     r1,r4,#4
        0x0000467a:    1949        I.      ADDS     r1,r1,r5
        0x0000467c:    7088        .p      STRB     r0,[r1,#2]
        0x0000467e:    1c64        d.      ADDS     r4,r4,#1
        0x00004680:    4803        .H      LDR      r0,[pc,#12] ; [0x4690] = 0x48f1
        0x00004682:    7800        .x      LDRB     r0,[r0,#0]
        0x00004684:    4284        .B      CMP      r4,r0
        0x00004686:    da00        ..      BGE      0x468a ; s_grey_movePlane + 986
        0x00004688:    e618        ..      B        0x42bc ; s_grey_movePlane + 12
        0x0000468a:    b005        ..      ADD      sp,sp,#0x14
        0x0000468c:    bdf0        ..      POP      {r4-r7,pc}
    $d
        0x0000468e:    0000        ..      DCW    0
        0x00004690:    000048f1    .H..    DCD    18673
    $t
    i.s_grey_planeInit
    s_grey_planeInit
        0x00004694:    4601        .F      MOV      r1,r0
        0x00004696:    2000        .       MOVS     r0,#0
        0x00004698:    e018        ..      B        0x46cc ; s_grey_planeInit + 56
        0x0000469a:    2200        ."      MOVS     r2,#0
        0x0000469c:    0103        ..      LSLS     r3,r0,#4
        0x0000469e:    185b        [.      ADDS     r3,r3,r1
        0x000046a0:    809a        ..      STRH     r2,[r3,#4]
        0x000046a2:    0103        ..      LSLS     r3,r0,#4
        0x000046a4:    185b        [.      ADDS     r3,r3,r1
        0x000046a6:    80da        ..      STRH     r2,[r3,#6]
        0x000046a8:    0103        ..      LSLS     r3,r0,#4
        0x000046aa:    54ca        .T      STRB     r2,[r1,r3]
        0x000046ac:    2201        ."      MOVS     r2,#1
        0x000046ae:    0103        ..      LSLS     r3,r0,#4
        0x000046b0:    185b        [.      ADDS     r3,r3,r1
        0x000046b2:    705a        Zp      STRB     r2,[r3,#1]
        0x000046b4:    2200        ."      MOVS     r2,#0
        0x000046b6:    0103        ..      LSLS     r3,r0,#4
        0x000046b8:    185b        [.      ADDS     r3,r3,r1
        0x000046ba:    709a        .p      STRB     r2,[r3,#2]
        0x000046bc:    0103        ..      LSLS     r3,r0,#4
        0x000046be:    185b        [.      ADDS     r3,r3,r1
        0x000046c0:    721a        .r      STRB     r2,[r3,#8]
        0x000046c2:    2201        ."      MOVS     r2,#1
        0x000046c4:    0103        ..      LSLS     r3,r0,#4
        0x000046c6:    185b        [.      ADDS     r3,r3,r1
        0x000046c8:    725a        Zr      STRB     r2,[r3,#9]
        0x000046ca:    1c40        @.      ADDS     r0,r0,#1
        0x000046cc:    4a02        .J      LDR      r2,[pc,#8] ; [0x46d8] = 0x48f1
        0x000046ce:    7812        .x      LDRB     r2,[r2,#0]
        0x000046d0:    4290        .B      CMP      r0,r2
        0x000046d2:    dbe2        ..      BLT      0x469a ; s_grey_planeInit + 6
        0x000046d4:    4770        pG      BX       lr
    $d
        0x000046d6:    0000        ..      DCW    0
        0x000046d8:    000048f1    .H..    DCD    18673
    $t
    i.tileMap
    tileMap
        0x000046dc:    b5f0        ..      PUSH     {r4-r7,lr}
        0x000046de:    10c5        ..      ASRS     r5,r0,#3
        0x000046e0:    10cb        ..      ASRS     r3,r1,#3
        0x000046e2:    2601        .&      MOVS     r6,#1
        0x000046e4:    40ae        .@      LSLS     r6,r6,r5
        0x000046e6:    4634        4F      MOV      r4,r6
        0x000046e8:    009e        ..      LSLS     r6,r3,#2
        0x000046ea:    5996        .Y      LDR      r6,[r2,r6]
        0x000046ec:    4326        &C      ORRS     r6,r6,r4
        0x000046ee:    009f        ..      LSLS     r7,r3,#2
        0x000046f0:    51d6        .Q      STR      r6,[r2,r7]
        0x000046f2:    bdf0        ..      POP      {r4-r7,pc}
    i.uart_ClearRxIRQ
    uart_ClearRxIRQ
        0x000046f4:    2102        .!      MOVS     r1,#2
        0x000046f6:    60c1        .`      STR      r1,[r0,#0xc]
        0x000046f8:    4770        pG      BX       lr
    i.uart_ClearTxIRQ
    uart_ClearTxIRQ
        0x000046fa:    2101        .!      MOVS     r1,#1
        0x000046fc:    60c1        .`      STR      r1,[r0,#0xc]
        0x000046fe:    4770        pG      BX       lr
    i.uart_SendChar
    uart_SendChar
        0x00004700:    e005        ..      B        0x470e ; uart_SendChar + 14
        0x00004702:    6842        Bh      LDR      r2,[r0,#4]
        0x00004704:    07d2        ..      LSLS     r2,r2,#31
        0x00004706:    0fd2        ..      LSRS     r2,r2,#31
        0x00004708:    2a00        .*      CMP      r2,#0
        0x0000470a:    d100        ..      BNE      0x470e ; uart_SendChar + 14
        0x0000470c:    e000        ..      B        0x4710 ; uart_SendChar + 16
        0x0000470e:    e7f8        ..      B        0x4702 ; uart_SendChar + 2
        0x00004710:    bf00        ..      NOP      
        0x00004712:    6001        .`      STR      r1,[r0,#0]
        0x00004714:    4770        pG      BX       lr
    i.uart_init
    uart_init
        0x00004716:    b5f0        ..      PUSH     {r4-r7,lr}
        0x00004718:    4604        .F      MOV      r4,r0
        0x0000471a:    9d05        ..      LDR      r5,[sp,#0x14]
        0x0000471c:    2600        .&      MOVS     r6,#0
        0x0000471e:    2a00        .*      CMP      r2,#0
        0x00004720:    d001        ..      BEQ      0x4726 ; uart_init + 16
        0x00004722:    2001        .       MOVS     r0,#1
        0x00004724:    4306        .C      ORRS     r6,r6,r0
        0x00004726:    2b00        .+      CMP      r3,#0
        0x00004728:    d001        ..      BEQ      0x472e ; uart_init + 24
        0x0000472a:    2002        .       MOVS     r0,#2
        0x0000472c:    4306        .C      ORRS     r6,r6,r0
        0x0000472e:    2d00        .-      CMP      r5,#0
        0x00004730:    d001        ..      BEQ      0x4736 ; uart_init + 32
        0x00004732:    2004        .       MOVS     r0,#4
        0x00004734:    4306        .C      ORRS     r6,r6,r0
        0x00004736:    9806        ..      LDR      r0,[sp,#0x18]
        0x00004738:    2800        .(      CMP      r0,#0
        0x0000473a:    d001        ..      BEQ      0x4740 ; uart_init + 42
        0x0000473c:    2008        .       MOVS     r0,#8
        0x0000473e:    4306        .C      ORRS     r6,r6,r0
        0x00004740:    9807        ..      LDR      r0,[sp,#0x1c]
        0x00004742:    2800        .(      CMP      r0,#0
        0x00004744:    d001        ..      BEQ      0x474a ; uart_init + 52
        0x00004746:    2010        .       MOVS     r0,#0x10
        0x00004748:    4306        .C      ORRS     r6,r6,r0
        0x0000474a:    9808        ..      LDR      r0,[sp,#0x20]
        0x0000474c:    2800        .(      CMP      r0,#0
        0x0000474e:    d001        ..      BEQ      0x4754 ; uart_init + 62
        0x00004750:    2020                MOVS     r0,#0x20
        0x00004752:    4306        .C      ORRS     r6,r6,r0
        0x00004754:    2000        .       MOVS     r0,#0
        0x00004756:    60a0        .`      STR      r0,[r4,#8]
        0x00004758:    6121        !a      STR      r1,[r4,#0x10]
        0x0000475a:    60a6        .`      STR      r6,[r4,#8]
        0x0000475c:    6860        `h      LDR      r0,[r4,#4]
        0x0000475e:    270c        .'      MOVS     r7,#0xc
        0x00004760:    4038        8@      ANDS     r0,r0,r7
        0x00004762:    2800        .(      CMP      r0,#0
        0x00004764:    d001        ..      BEQ      0x476a ; uart_init + 84
        0x00004766:    2001        .       MOVS     r0,#1
        0x00004768:    bdf0        ..      POP      {r4-r7,pc}
        0x0000476a:    2000        .       MOVS     r0,#0
        0x0000476c:    e7fc        ..      B        0x4768 ; uart_init + 82
        0x0000476e:    0000        ..      MOVS     r0,r0
    i.updateEnemyBulletData
    updateEnemyBulletData
        0x00004770:    4601        .F      MOV      r1,r0
        0x00004772:    2000        .       MOVS     r0,#0
        0x00004774:    e059        Y.      B        0x482a ; updateEnemyBulletData + 186
        0x00004776:    220a        ."      MOVS     r2,#0xa
        0x00004778:    4342        BC      MULS     r2,r0,r2
        0x0000477a:    1852        R.      ADDS     r2,r2,r1
        0x0000477c:    7952        Ry      LDRB     r2,[r2,#5]
        0x0000477e:    2a04        .*      CMP      r2,#4
        0x00004780:    d148        H.      BNE      0x4814 ; updateEnemyBulletData + 164
        0x00004782:    2300        .#      MOVS     r3,#0
        0x00004784:    220a        ."      MOVS     r2,#0xa
        0x00004786:    4342        BC      MULS     r2,r0,r2
        0x00004788:    1852        R.      ADDS     r2,r2,r1
        0x0000478a:    7153        Sq      STRB     r3,[r2,#5]
        0x0000478c:    220a        ."      MOVS     r2,#0xa
        0x0000478e:    4342        BC      MULS     r2,r0,r2
        0x00004790:    1852        R.      ADDS     r2,r2,r1
        0x00004792:    7912        .y      LDRB     r2,[r2,#4]
        0x00004794:    2a00        .*      CMP      r2,#0
        0x00004796:    d047        G.      BEQ      0x4828 ; updateEnemyBulletData + 184
        0x00004798:    220a        ."      MOVS     r2,#0xa
        0x0000479a:    4342        BC      MULS     r2,r0,r2
        0x0000479c:    1852        R.      ADDS     r2,r2,r1
        0x0000479e:    8853        S.      LDRH     r3,[r2,#2]
        0x000047a0:    220a        ."      MOVS     r2,#0xa
        0x000047a2:    4342        BC      MULS     r2,r0,r2
        0x000047a4:    1852        R.      ADDS     r2,r2,r1
        0x000047a6:    8912        ..      LDRH     r2,[r2,#8]
        0x000047a8:    189a        ..      ADDS     r2,r3,r2
        0x000047aa:    b213        ..      SXTH     r3,r2
        0x000047ac:    220a        ."      MOVS     r2,#0xa
        0x000047ae:    4342        BC      MULS     r2,r0,r2
        0x000047b0:    1852        R.      ADDS     r2,r2,r1
        0x000047b2:    8053        S.      STRH     r3,[r2,#2]
        0x000047b4:    220a        ."      MOVS     r2,#0xa
        0x000047b6:    4342        BC      MULS     r2,r0,r2
        0x000047b8:    5a8b        .Z      LDRH     r3,[r1,r2]
        0x000047ba:    220a        ."      MOVS     r2,#0xa
        0x000047bc:    4342        BC      MULS     r2,r0,r2
        0x000047be:    1852        R.      ADDS     r2,r2,r1
        0x000047c0:    88d2        ..      LDRH     r2,[r2,#6]
        0x000047c2:    189a        ..      ADDS     r2,r3,r2
        0x000047c4:    b213        ..      SXTH     r3,r2
        0x000047c6:    220a        ."      MOVS     r2,#0xa
        0x000047c8:    4342        BC      MULS     r2,r0,r2
        0x000047ca:    528b        .R      STRH     r3,[r1,r2]
        0x000047cc:    220a        ."      MOVS     r2,#0xa
        0x000047ce:    4342        BC      MULS     r2,r0,r2
        0x000047d0:    1852        R.      ADDS     r2,r2,r1
        0x000047d2:    2302        .#      MOVS     r3,#2
        0x000047d4:    5ed3        .^      LDRSH    r3,[r2,r3]
        0x000047d6:    2be6        .+      CMP      r3,#0xe6
        0x000047d8:    dc06        ..      BGT      0x47e8 ; updateEnemyBulletData + 120
        0x000047da:    220a        ."      MOVS     r2,#0xa
        0x000047dc:    4342        BC      MULS     r2,r0,r2
        0x000047de:    1852        R.      ADDS     r2,r2,r1
        0x000047e0:    2302        .#      MOVS     r3,#2
        0x000047e2:    5ed3        .^      LDRSH    r3,[r2,r3]
        0x000047e4:    2b0a        .+      CMP      r3,#0xa
        0x000047e6:    da05        ..      BGE      0x47f4 ; updateEnemyBulletData + 132
        0x000047e8:    2300        .#      MOVS     r3,#0
        0x000047ea:    220a        ."      MOVS     r2,#0xa
        0x000047ec:    4342        BC      MULS     r2,r0,r2
        0x000047ee:    1852        R.      ADDS     r2,r2,r1
        0x000047f0:    7113        .q      STRB     r3,[r2,#4]
        0x000047f2:    e019        ..      B        0x4828 ; updateEnemyBulletData + 184
        0x000047f4:    220a        ."      MOVS     r2,#0xa
        0x000047f6:    4342        BC      MULS     r2,r0,r2
        0x000047f8:    5e8a        .^      LDRSH    r2,[r1,r2]
        0x000047fa:    2afb        .*      CMP      r2,#0xfb
        0x000047fc:    dc04        ..      BGT      0x4808 ; updateEnemyBulletData + 152
        0x000047fe:    220a        ."      MOVS     r2,#0xa
        0x00004800:    4342        BC      MULS     r2,r0,r2
        0x00004802:    5e8a        .^      LDRSH    r2,[r1,r2]
        0x00004804:    2a05        .*      CMP      r2,#5
        0x00004806:    da0f        ..      BGE      0x4828 ; updateEnemyBulletData + 184
        0x00004808:    2300        .#      MOVS     r3,#0
        0x0000480a:    220a        ."      MOVS     r2,#0xa
        0x0000480c:    4342        BC      MULS     r2,r0,r2
        0x0000480e:    1852        R.      ADDS     r2,r2,r1
        0x00004810:    7113        .q      STRB     r3,[r2,#4]
        0x00004812:    e009        ..      B        0x4828 ; updateEnemyBulletData + 184
        0x00004814:    220a        ."      MOVS     r2,#0xa
        0x00004816:    4342        BC      MULS     r2,r0,r2
        0x00004818:    1852        R.      ADDS     r2,r2,r1
        0x0000481a:    7952        Ry      LDRB     r2,[r2,#5]
        0x0000481c:    1c52        R.      ADDS     r2,r2,#1
        0x0000481e:    b2d3        ..      UXTB     r3,r2
        0x00004820:    220a        ."      MOVS     r2,#0xa
        0x00004822:    4342        BC      MULS     r2,r0,r2
        0x00004824:    1852        R.      ADDS     r2,r2,r1
        0x00004826:    7153        Sq      STRB     r3,[r2,#5]
        0x00004828:    1c40        @.      ADDS     r0,r0,#1
        0x0000482a:    4a02        .J      LDR      r2,[pc,#8] ; [0x4834] = 0x48f5
        0x0000482c:    7812        .x      LDRB     r2,[r2,#0]
        0x0000482e:    4290        .B      CMP      r0,r2
        0x00004830:    dba1        ..      BLT      0x4776 ; updateEnemyBulletData + 6
        0x00004832:    4770        pG      BX       lr
    $d
        0x00004834:    000048f5    .H..    DCD    18677
    $t
    i.vga_Handler
    vga_Handler
        0x00004838:    b510        ..      PUSH     {r4,lr}
        0x0000483a:    4819        .H      LDR      r0,[pc,#100] ; [0x48a0] = 0x20001af4
        0x0000483c:    7800        .x      LDRB     r0,[r0,#0]
        0x0000483e:    2801        .(      CMP      r0,#1
        0x00004840:    d117        ..      BNE      0x4872 ; vga_Handler + 58
        0x00004842:    4818        .H      LDR      r0,[pc,#96] ; [0x48a4] = 0x20001afb
        0x00004844:    7800        .x      LDRB     r0,[r0,#0]
        0x00004846:    2801        .(      CMP      r0,#1
        0x00004848:    d129        ).      BNE      0x489e ; vga_Handler + 102
        0x0000484a:    2002        .       MOVS     r0,#2
        0x0000484c:    f7fbffa4    ....    BL       LED_toggle ; 0x798
        0x00004850:    2002        .       MOVS     r0,#2
        0x00004852:    4914        .I      LDR      r1,[pc,#80] ; [0x48a4] = 0x20001afb
        0x00004854:    7008        .p      STRB     r0,[r1,#0]
        0x00004856:    4814        .H      LDR      r0,[pc,#80] ; [0x48a8] = 0x20001bf8
        0x00004858:    7900        .y      LDRB     r0,[r0,#4]
        0x0000485a:    2800        .(      CMP      r0,#0
        0x0000485c:    d003        ..      BEQ      0x4866 ; vga_Handler + 46
        0x0000485e:    4813        .H      LDR      r0,[pc,#76] ; [0x48ac] = 0x50020800
        0x00004860:    6980        .i      LDR      r0,[r0,#0x18]
        0x00004862:    2800        .(      CMP      r0,#0
        0x00004864:    d11b        ..      BNE      0x489e ; vga_Handler + 102
        0x00004866:    4812        .H      LDR      r0,[pc,#72] ; [0x48b0] = 0x20001af5
        0x00004868:    7800        .x      LDRB     r0,[r0,#0]
        0x0000486a:    1c40        @.      ADDS     r0,r0,#1
        0x0000486c:    4910        .I      LDR      r1,[pc,#64] ; [0x48b0] = 0x20001af5
        0x0000486e:    7008        .p      STRB     r0,[r1,#0]
        0x00004870:    e015        ..      B        0x489e ; vga_Handler + 102
        0x00004872:    480b        .H      LDR      r0,[pc,#44] ; [0x48a0] = 0x20001af4
        0x00004874:    7800        .x      LDRB     r0,[r0,#0]
        0x00004876:    2802        .(      CMP      r0,#2
        0x00004878:    d111        ..      BNE      0x489e ; vga_Handler + 102
        0x0000487a:    480e        .H      LDR      r0,[pc,#56] ; [0x48b4] = 0x20001af6
        0x0000487c:    7800        .x      LDRB     r0,[r0,#0]
        0x0000487e:    1c40        @.      ADDS     r0,r0,#1
        0x00004880:    490c        .I      LDR      r1,[pc,#48] ; [0x48b4] = 0x20001af6
        0x00004882:    7008        .p      STRB     r0,[r1,#0]
        0x00004884:    4608        .F      MOV      r0,r1
        0x00004886:    7800        .x      LDRB     r0,[r0,#0]
        0x00004888:    280a        .(      CMP      r0,#0xa
        0x0000488a:    d108        ..      BNE      0x489e ; vga_Handler + 102
        0x0000488c:    2003        .       MOVS     r0,#3
        0x0000488e:    f7fbff83    ....    BL       LED_toggle ; 0x798
        0x00004892:    2000        .       MOVS     r0,#0
        0x00004894:    4907        .I      LDR      r1,[pc,#28] ; [0x48b4] = 0x20001af6
        0x00004896:    7008        .p      STRB     r0,[r1,#0]
        0x00004898:    2001        .       MOVS     r0,#1
        0x0000489a:    4907        .I      LDR      r1,[pc,#28] ; [0x48b8] = 0x20001af9
        0x0000489c:    7008        .p      STRB     r0,[r1,#0]
        0x0000489e:    bd10        ..      POP      {r4,pc}
    $d
        0x000048a0:    20001af4    ...     DCD    536877812
        0x000048a4:    20001afb    ...     DCD    536877819
        0x000048a8:    20001bf8    ...     DCD    536878072
        0x000048ac:    50020800    ...P    DCD    1342310400
        0x000048b0:    20001af5    ...     DCD    536877813
        0x000048b4:    20001af6    ...     DCD    536877814
        0x000048b8:    20001af9    ...     DCD    536877817
    $t
    i.writeOneNametable
    writeOneNametable
        0x000048bc:    b510        ..      PUSH     {r4,lr}
        0x000048be:    014b        K.      LSLS     r3,r1,#5
        0x000048c0:    4c01        .L      LDR      r4,[pc,#4] ; [0x48c8] = 0x50020000
        0x000048c2:    191b        ..      ADDS     r3,r3,r4
        0x000048c4:    541a        .T      STRB     r2,[r3,r0]
        0x000048c6:    bd10        ..      POP      {r4,pc}
    $d
        0x000048c8:    50020000    ...P    DCD    1342308352
    $t
    i.writeOneSprite
    writeOneSprite
        0x000048cc:    b570        p.      PUSH     {r4-r6,lr}
        0x000048ce:    9c04        ..      LDR      r4,[sp,#0x10]
        0x000048d0:    0085        ..      LSLS     r5,r0,#2
        0x000048d2:    4e06        .N      LDR      r6,[pc,#24] ; [0x48ec] = 0x50010000
        0x000048d4:    19ad        ..      ADDS     r5,r5,r6
        0x000048d6:    70e9        .p      STRB     r1,[r5,#3]
        0x000048d8:    0085        ..      LSLS     r5,r0,#2
        0x000048da:    19ad        ..      ADDS     r5,r5,r6
        0x000048dc:    70aa        .p      STRB     r2,[r5,#2]
        0x000048de:    0085        ..      LSLS     r5,r0,#2
        0x000048e0:    19ad        ..      ADDS     r5,r5,r6
        0x000048e2:    706b        kp      STRB     r3,[r5,#1]
        0x000048e4:    0085        ..      LSLS     r5,r0,#2
        0x000048e6:    19ad        ..      ADDS     r5,r5,r6
        0x000048e8:    702c        ,p      STRB     r4,[r5,#0]
        0x000048ea:    bd70        p.      POP      {r4-r6,pc}
    $d
        0x000048ec:    50010000    ...P    DCD    1342242816
    $d.realdata
    .constdata
    MYPLANE_BULLET_NUMMAX
        0x000048f0:    0c          .       DCB    12
    S_GREY_NUMMAX
        0x000048f1:    03          .       DCB    3
    S_GREEN_NUMMAX
        0x000048f2:    01          .       DCB    1
    M_STRAIGHT_NUMMAX
        0x000048f3:    01          .       DCB    1
    B_GREEN_NUMMAX
        0x000048f4:    01          .       DCB    1
    ENEMY_BULLETS_NUMMAX
        0x000048f5:    05          .       DCB    5
    BOOM_NUMMAX
        0x000048f6:    0c          .       DCB    12
    .constdata
    asc2_1608
        0x000048f7:    00          .       DCB    0
        0x000048f8:    00000000    ....    DCD    0
        0x000048fc:    00000000    ....    DCD    0
        0x00004900:    00000000    ....    DCD    0
        0x00004904:    00000000    ....    DCD    0
        0x00004908:    00000000    ....    DCD    0
        0x0000490c:    00cc1f00    ....    DCD    13377280
        0x00004910:    0000000c    ....    DCD    12
        0x00004914:    00000000    ....    DCD    0
        0x00004918:    30000800    ...0    DCD    805308416
        0x0000491c:    08006000    .`..    DCD    134242304
        0x00004920:    60003000    .0.`    DCD    1610625024
        0x00004924:    02000000    ....    DCD    33554432
        0x00004928:    1efc0320     ...    DCD    519832352
        0x0000492c:    03200220     . .    DCD    52429344
        0x00004930:    02201efc    .. .    DCD    35659516
        0x00004934:    00000020     ...    DCD    32
        0x00004938:    11180e00    ....    DCD    286789120
        0x0000493c:    10ff3f04    .?..    DCD    285163268
        0x00004940:    00780c84    ..x.    DCD    7867524
        0x00004944:    0f000000    ....    DCD    251658240
        0x00004948:    0f841000    ....    DCD    260313088
        0x0000494c:    07c00038    8...    DCD    130023480
        0x00004950:    00841878    x...    DCD    8657016
        0x00004954:    00000078    x...    DCD    120
        0x00004958:    10840f78    x...    DCD    277090168
        0x0000495c:    0e2411c4    ..$.    DCD    237244868
        0x00004960:    00e40098    ....    DCD    14942360
        0x00004964:    08080084    ....    DCD    134742148
        0x00004968:    70006800    .h.p    DCD    1879074816
        0x0000496c:    00000000    ....    DCD    0
        0x00004970:    00000000    ....    DCD    0
        0x00004974:    00000000    ....    DCD    0
        0x00004978:    00000000    ....    DCD    0
        0x0000497c:    18e00700    ....    DCD    417335040
        0x00004980:    40042018    . .@    DCD    1074012184
        0x00004984:    00000002    ....    DCD    2
        0x00004988:    20024000    .@.     DCD    537018368
        0x0000498c:    07181804    ....    DCD    119019524
        0x00004990:    000000e0    ....    DCD    224
        0x00004994:    02000000    ....    DCD    33554432
        0x00004998:    01400240    @.@.    DCD    20972096
        0x0000499c:    01f00f80    ....    DCD    32509824
        0x000049a0:    02400280    ..@.    DCD    37749376
        0x000049a4:    00000040    @...    DCD    64
        0x000049a8:    00800080    ....    DCD    8388736
        0x000049ac:    00f80f80    ....    DCD    16256896
        0x000049b0:    00800080    ....    DCD    8388736
        0x000049b4:    00000080    ....    DCD    128
        0x000049b8:    000d0001    ....    DCD    851969
        0x000049bc:    0000000e    ....    DCD    14
        0x000049c0:    00000000    ....    DCD    0
        0x000049c4:    00000000    ....    DCD    0
        0x000049c8:    00800000    ....    DCD    8388608
        0x000049cc:    00800080    ....    DCD    8388736
        0x000049d0:    00800080    ....    DCD    8388736
        0x000049d4:    00800080    ....    DCD    8388736
        0x000049d8:    000c0000    ....    DCD    786432
        0x000049dc:    0000000c    ....    DCD    12
        0x000049e0:    00000000    ....    DCD    0
        0x000049e4:    00000000    ....    DCD    0
        0x000049e8:    00060000    ....    DCD    393216
        0x000049ec:    01600018    ..`.    DCD    23068696
        0x000049f0:    18000680    ....    DCD    402654848
        0x000049f4:    00002000    . ..    DCD    8192
        0x000049f8:    08f00700    ....    DCD    149948160
        0x000049fc:    10041008    ....    DCD    268701704
        0x00004a00:    07080804    ....    DCD    117966852
        0x00004a04:    000000f0    ....    DCD    240
        0x00004a08:    08040800    ....    DCD    134481920
        0x00004a0c:    00fc1f04    ....    DCD    16523012
        0x00004a10:    00040004    ....    DCD    262148
        0x00004a14:    00000000    ....    DCD    0
        0x00004a18:    100c0e00    ....    DCD    269225472
        0x00004a1c:    10241014    ..$.    DCD    270798868
        0x00004a20:    0e841144    D...    DCD    243536196
        0x00004a24:    0000000c    ....    DCD    12
        0x00004a28:    10180c00    ....    DCD    270011392
        0x00004a2c:    11041104    ....    DCD    285479172
        0x00004a30:    0c881204    ....    DCD    210244100
        0x00004a34:    00000070    p...    DCD    112
        0x00004a38:    03e00000    ....    DCD    65011712
        0x00004a3c:    08240420     .$.    DCD    136578080
        0x00004a40:    00fc1f24    $...    DCD    16523044
        0x00004a44:    00000024    $...    DCD    36
        0x00004a48:    10981f00    ....    DCD    278404864
        0x00004a4c:    11041184    ....    DCD    285479300
        0x00004a50:    10881004    ....    DCD    277352452
        0x00004a54:    00000070    p...    DCD    112
        0x00004a58:    08f00700    ....    DCD    149948160
        0x00004a5c:    11041188    ....    DCD    285479304
        0x00004a60:    00881804    ....    DCD    8919044
        0x00004a64:    00000070    p...    DCD    112
        0x00004a68:    10001c00    ....    DCD    268442624
        0x00004a6c:    13fc1000    ....    DCD    335286272
        0x00004a70:    10001c00    ....    DCD    268442624
        0x00004a74:    00000000    ....    DCD    0
        0x00004a78:    11380e00    ..8.    DCD    288886272
        0x00004a7c:    10841044    D...    DCD    277090372
        0x00004a80:    0e441184    ..D.    DCD    239341956
        0x00004a84:    00000038    8...    DCD    56
        0x00004a88:    08000700    ....    DCD    134219520
        0x00004a8c:    1044108c    ..D.    DCD    272896140
        0x00004a90:    07880844    D...    DCD    126355524
        0x00004a94:    000000f0    ....    DCD    240
        0x00004a98:    00000000    ....    DCD    0
        0x00004a9c:    030c0300    ....    DCD    51118848
        0x00004aa0:    0000000c    ....    DCD    12
        0x00004aa4:    00000000    ....    DCD    0
        0x00004aa8:    00000000    ....    DCD    0
        0x00004aac:    00060101    ....    DCD    393473
        0x00004ab0:    00000000    ....    DCD    0
        0x00004ab4:    00000000    ....    DCD    0
        0x00004ab8:    01800000    ....    DCD    25165824
        0x00004abc:    04200240    @. .    DCD    69206592
        0x00004ac0:    10080810    ....    DCD    268961808
        0x00004ac4:    02000004    ....    DCD    33554436
        0x00004ac8:    02200220     . .    DCD    35652128
        0x00004acc:    02200220     . .    DCD    35652128
        0x00004ad0:    02200220     . .    DCD    35652128
        0x00004ad4:    00000020     ...    DCD    32
        0x00004ad8:    08041000    ....    DCD    134483968
        0x00004adc:    02100408    ....    DCD    34604040
        0x00004ae0:    00400120     .@.    DCD    4194592
        0x00004ae4:    00000080    ....    DCD    128
        0x00004ae8:    12000e00    ....    DCD    301993472
        0x00004aec:    100c1000    ....    DCD    269225984
        0x00004af0:    0f80106c    l...    DCD    260051052
        0x00004af4:    03000000    ....    DCD    50331648
        0x00004af8:    13180ce0    ....    DCD    320343264
        0x00004afc:    172414e4    ..$.    DCD    388240612
        0x00004b00:    072808c4    ..(.    DCD    120064196
        0x00004b04:    000000d0    ....    DCD    208
        0x00004b08:    033c0004    ..<.    DCD    54263812
        0x00004b0c:    07401cc4    ..@.    DCD    121642180
        0x00004b10:    00e40040    @...    DCD    14942272
        0x00004b14:    1004001c    ....    DCD    268697628
        0x00004b18:    11fc1f04    ....    DCD    301735684
        0x00004b1c:    11041104    ....    DCD    285479172
        0x00004b20:    00880e04    ....    DCD    8916484
        0x00004b24:    03000070    p...    DCD    50331760
        0x00004b28:    10180ce0    ....    DCD    270011616
        0x00004b2c:    10041004    ....    DCD    268701700
        0x00004b30:    1c081004    ....    DCD    470290436
        0x00004b34:    10000010    ....    DCD    268435472
        0x00004b38:    10fc1f04    ....    DCD    284958468
        0x00004b3c:    10041004    ....    DCD    268701700
        0x00004b40:    07080804    ....    DCD    117966852
        0x00004b44:    100000f0    ....    DCD    268435696
        0x00004b48:    11fc1f04    ....    DCD    301735684
        0x00004b4c:    17041104    ....    DCD    386142468
        0x00004b50:    080410c4    ....    DCD    134484164
        0x00004b54:    10000018    ....    DCD    268435480
        0x00004b58:    11fc1f04    ....    DCD    301735684
        0x00004b5c:    17001104    ....    DCD    385880324
        0x00004b60:    080010c0    ....    DCD    134222016
        0x00004b64:    03000000    ....    DCD    50331648
        0x00004b68:    10180ce0    ....    DCD    270011616
        0x00004b6c:    10041004    ....    DCD    268701700
        0x00004b70:    00781c44    D.x.    DCD    7871556
        0x00004b74:    10000040    @...    DCD    268435520
        0x00004b78:    10fc1f04    ....    DCD    284958468
        0x00004b7c:    00800084    ....    DCD    8388740
        0x00004b80:    1f841080    ....    DCD    528748672
        0x00004b84:    000410fc    ....    DCD    266492
        0x00004b88:    10041000    ....    DCD    268701696
        0x00004b8c:    10fc1f04    ....    DCD    284958468
        0x00004b90:    00041004    ....    DCD    266244
        0x00004b94:    00000000    ....    DCD    0
        0x00004b98:    10010003    ....    DCD    268500995
        0x00004b9c:    1f011001    ....    DCD    520163329
        0x00004ba0:    100010fe    ....    DCD    268439806
        0x00004ba4:    10000000    ....    DCD    268435456
        0x00004ba8:    11fc1f04    ....    DCD    301735684
        0x00004bac:    14800304    ....    DCD    343933700
        0x00004bb0:    101c1864    d...    DCD    270276708
        0x00004bb4:    10000004    ....    DCD    268435460
        0x00004bb8:    10fc1f04    ....    DCD    284958468
        0x00004bbc:    00040004    ....    DCD    262148
        0x00004bc0:    00040004    ....    DCD    262148
        0x00004bc4:    1000000c    ....    DCD    268435468
        0x00004bc8:    1ffc1f04    ....    DCD    536616708
        0x00004bcc:    1ffc0000    ....    DCD    536608768
        0x00004bd0:    10fc1f00    ....    DCD    284958464
        0x00004bd4:    10000004    ....    DCD    268435460
        0x00004bd8:    0cfc1f04    ....    DCD    217849604
        0x00004bdc:    00000304    ....    DCD    772
        0x00004be0:    1f1810e0    ....    DCD    521670880
        0x00004be4:    070010fc    ....    DCD    117444860
        0x00004be8:    100808f0    ....    DCD    268962032
        0x00004bec:    10041004    ....    DCD    268701700
        0x00004bf0:    07080804    ....    DCD    117966852
        0x00004bf4:    100000f0    ....    DCD    268435696
        0x00004bf8:    10fc1f04    ....    DCD    284958468
        0x00004bfc:    10801084    ....    DCD    276828292
        0x00004c00:    0f801080    ....    DCD    260051072
        0x00004c04:    07000000    ....    DCD    117440512
        0x00004c08:    101808f0    ....    DCD    270010608
        0x00004c0c:    10241024    $.$.    DCD    270798884
        0x00004c10:    070a081c    ....    DCD    118097948
        0x00004c14:    100000f2    ....    DCD    268435698
        0x00004c18:    11fc1f04    ....    DCD    301735684
        0x00004c1c:    11001104    ....    DCD    285217028
        0x00004c20:    0e3011c0    ..0.    DCD    238031296
        0x00004c24:    0004000c    ....    DCD    262156
        0x00004c28:    111c0e00    ....    DCD    287051264
        0x00004c2c:    10841004    ....    DCD    277090308
        0x00004c30:    1c441084    ..D.    DCD    474222724
        0x00004c34:    18000038    8...    DCD    402653240
        0x00004c38:    10001000    ....    DCD    268439552
        0x00004c3c:    10fc1f04    ....    DCD    284958468
        0x00004c40:    18001004    ....    DCD    402657284
        0x00004c44:    10000000    ....    DCD    268435456
        0x00004c48:    10f81f00    ....    DCD    284696320
        0x00004c4c:    00040004    ....    DCD    262148
        0x00004c50:    1f041004    ....    DCD    520359940
        0x00004c54:    100010f8    ....    DCD    268439800
        0x00004c58:    11001e00    ....    DCD    285220352
        0x00004c5c:    001c00e0    ....    DCD    1835232
        0x00004c60:    1c801370    p...    DCD    478155632
        0x00004c64:    1f001000    ....    DCD    520097792
        0x00004c68:    003c10c0    ..<.    DCD    3936448
        0x00004c6c:    00001fe0    ....    DCD    8160
        0x00004c70:    1f3c10e0    ..<.    DCD    524030176
        0x00004c74:    100000c0    ....    DCD    268435648
        0x00004c78:    160c1804    ....    DCD    369891332
        0x00004c7c:    01c00134    4...    DCD    29360436
        0x00004c80:    183416c0    ..4.    DCD    406066880
        0x00004c84:    1004100c    ....    DCD    268701708
        0x00004c88:    13001c00    ....    DCD    318774272
        0x00004c8c:    13fc0004    ....    DCD    335282180
        0x00004c90:    10001c04    ....    DCD    268442628
        0x00004c94:    08000000    ....    DCD    134217728
        0x00004c98:    101c1004    ....    DCD    270274564
        0x00004c9c:    13841064    d...    DCD    327422052
        0x00004ca0:    10041c04    ....    DCD    268704772
        0x00004ca4:    00000018    ....    DCD    24
        0x00004ca8:    00000000    ....    DCD    0
        0x00004cac:    40fe7f00    ...@    DCD    1090420480
        0x00004cb0:    40024002    .@.@    DCD    1073889282
        0x00004cb4:    00000002    ....    DCD    2
        0x00004cb8:    0c003000    .0..    DCD    201338880
        0x00004cbc:    00800300    ....    DCD    8389376
        0x00004cc0:    001c0060    `...    DCD    1835104
        0x00004cc4:    00000003    ....    DCD    3
        0x00004cc8:    40024000    .@.@    DCD    1073889280
        0x00004ccc:    7f024002    .@..    DCD    2130853890
        0x00004cd0:    000000fe    ....    DCD    254
        0x00004cd4:    00000000    ....    DCD    0
        0x00004cd8:    20000000    ...     DCD    536870912
        0x00004cdc:    40004000    .@.@    DCD    1073758208
        0x00004ce0:    20004000    .@.     DCD    536887296
        0x00004ce4:    00000000    ....    DCD    0
        0x00004ce8:    00010001    ....    DCD    65537
        0x00004cec:    00010001    ....    DCD    65537
        0x00004cf0:    00010001    ....    DCD    65537
        0x00004cf4:    00010001    ....    DCD    65537
        0x00004cf8:    40004000    .@.@    DCD    1073758208
        0x00004cfc:    00002000    . ..    DCD    8192
        0x00004d00:    00000000    ....    DCD    0
        0x00004d04:    00000000    ....    DCD    0
        0x00004d08:    01980000    ....    DCD    26738688
        0x00004d0c:    01440124    $.D.    DCD    21233956
        0x00004d10:    00440144    D.D.    DCD    4456772
        0x00004d14:    100400fc    ....    DCD    268697852
        0x00004d18:    00fc1f00    ....    DCD    16523008
        0x00004d1c:    01040188    ....    DCD    17039752
        0x00004d20:    00880004    ....    DCD    8912900
        0x00004d24:    00000070    p...    DCD    112
        0x00004d28:    00700000    ..p.    DCD    7340032
        0x00004d2c:    01040188    ....    DCD    17039752
        0x00004d30:    00040104    ....    DCD    262404
        0x00004d34:    00000088    ....    DCD    136
        0x00004d38:    00700000    ..p.    DCD    7340032
        0x00004d3c:    01040188    ....    DCD    17039752
        0x00004d40:    1f081104    ....    DCD    520622340
        0x00004d44:    000400fc    ....    DCD    262396
        0x00004d48:    01f80000    ....    DCD    33030144
        0x00004d4c:    01440144    D.D.    DCD    21233988
        0x00004d50:    00440144    D.D.    DCD    4456772
        0x00004d54:    000000c8    ....    DCD    200
        0x00004d58:    01040100    ....    DCD    17039616
        0x00004d5c:    11fc0f04    ....    DCD    301731588
        0x00004d60:    11041104    ....    DCD    285479172
        0x00004d64:    00001800    ....    DCD    6144
        0x00004d68:    01d60000    ....    DCD    30801920
        0x00004d6c:    01290129    ).).    DCD    19464489
        0x00004d70:    01c90129    )...    DCD    29950249
        0x00004d74:    10000006    ....    DCD    268435462
        0x00004d78:    00fc1f04    ....    DCD    16523012
        0x00004d7c:    01000184    ....    DCD    16777604
        0x00004d80:    00040100    ....    DCD    262400
        0x00004d84:    000400fc    ....    DCD    262396
        0x00004d88:    19040100    ....    DCD    419692800
        0x00004d8c:    00fc1904    ....    DCD    16521476
        0x00004d90:    00040004    ....    DCD    262148
        0x00004d94:    00000000    ....    DCD    0
        0x00004d98:    00030000    ....    DCD    196608
        0x00004d9c:    19010101    ....    DCD    419496193
        0x00004da0:    00fe1901    ....    DCD    16652545
        0x00004da4:    10000000    ....    DCD    268435456
        0x00004da8:    00fc1f04    ....    DCD    16523012
        0x00004dac:    01400024    $.@.    DCD    20971556
        0x00004db0:    010c01b4    ....    DCD    17564084
        0x00004db4:    00000004    ....    DCD    4
        0x00004db8:    10041000    ....    DCD    268701696
        0x00004dbc:    00fc1f04    ....    DCD    16523012
        0x00004dc0:    00040004    ....    DCD    262148
        0x00004dc4:    01000000    ....    DCD    16777216
        0x00004dc8:    01fc0104    ....    DCD    33292548
        0x00004dcc:    01000104    ....    DCD    16777476
        0x00004dd0:    010401fc    ....    DCD    17039868
        0x00004dd4:    01fc0000    ....    DCD    33292288
        0x00004dd8:    00fc0104    ....    DCD    16515332
        0x00004ddc:    01000184    ....    DCD    16777604
        0x00004de0:    00040100    ....    DCD    262400
        0x00004de4:    000400fc    ....    DCD    262396
        0x00004de8:    01f80000    ....    DCD    33030144
        0x00004dec:    01040104    ....    DCD    17039620
        0x00004df0:    00040104    ....    DCD    262404
        0x00004df4:    010000f8    ....    DCD    16777464
        0x00004df8:    00ff0101    ....    DCD    16711937
        0x00004dfc:    01040185    ....    DCD    17039749
        0x00004e00:    00880004    ....    DCD    8912900
        0x00004e04:    00000070    p...    DCD    112
        0x00004e08:    00700000    ..p.    DCD    7340032
        0x00004e0c:    01040188    ....    DCD    17039752
        0x00004e10:    01050104    ....    DCD    17105156
        0x00004e14:    010100ff    ....    DCD    16843007
        0x00004e18:    01040104    ....    DCD    17039620
        0x00004e1c:    018400fc    ....    DCD    25428220
        0x00004e20:    01000104    ....    DCD    16777476
        0x00004e24:    00000080    ....    DCD    128
        0x00004e28:    01cc0000    ....    DCD    30146560
        0x00004e2c:    01240124    $.$.    DCD    19136804
        0x00004e30:    01240124    $.$.    DCD    19136804
        0x00004e34:    00000098    ....    DCD    152
        0x00004e38:    01000100    ....    DCD    16777472
        0x00004e3c:    01f80700    ....    DCD    33031936
        0x00004e40:    00040104    ....    DCD    262404
        0x00004e44:    01000000    ....    DCD    16777216
        0x00004e48:    00f80100    ....    DCD    16253184
        0x00004e4c:    00040004    ....    DCD    262148
        0x00004e50:    01080104    ....    DCD    17301764
        0x00004e54:    010400fc    ....    DCD    17039612
        0x00004e58:    01800100    ....    DCD    25166080
        0x00004e5c:    000c0070    p...    DCD    786544
        0x00004e60:    01600110    ..`.    DCD    23068944
        0x00004e64:    01000180    ....    DCD    16777600
        0x00004e68:    000c01f0    ....    DCD    786928
        0x00004e6c:    00c00130    0...    DCD    12583216
        0x00004e70:    010c0130    0...    DCD    17563952
        0x00004e74:    000001f0    ....    DCD    496
        0x00004e78:    01040100    ....    DCD    17039616
        0x00004e7c:    0174008c    ..t.    DCD    24379532
        0x00004e80:    018c0170    p...    DCD    25952624
        0x00004e84:    01000004    ....    DCD    16777220
        0x00004e88:    01810101    ....    DCD    25231617
        0x00004e8c:    000e0071    q...    DCD    917617
        0x00004e90:    01600118    ..`.    DCD    23068952
        0x00004e94:    00000180    ....    DCD    384
        0x00004e98:    01840100    ....    DCD    25428224
        0x00004e9c:    0134010c    ..4.    DCD    20185356
        0x00004ea0:    01840144    D...    DCD    25428292
        0x00004ea4:    0000000c    ....    DCD    12
        0x00004ea8:    00000000    ....    DCD    0
        0x00004eac:    01000000    ....    DCD    16777216
        0x00004eb0:    40fc3e00    .>.@    DCD    1090272768
        0x00004eb4:    00024002    .@..    DCD    147458
        0x00004eb8:    00000000    ....    DCD    0
        0x00004ebc:    ff000000    ....    DCD    4278190080
        0x00004ec0:    000000ff    ....    DCD    255
        0x00004ec4:    00000000    ....    DCD    0
        0x00004ec8:    40024000    .@.@    DCD    1073889280
        0x00004ecc:    01fc3e02    .>..    DCD    33308162
        0x00004ed0:    00000000    ....    DCD    0
        0x00004ed4:    00000000    ....    DCD    0
        0x00004ed8:    80006000    .`..    DCD    2147508224
        0x00004edc:    40008000    ...@    DCD    1073774592
        0x00004ee0:    20004000    .@.     DCD    536887296
        0x00004ee4:    00002000    . ..    DCD    8192
    .constdata
    ANGLE_NUMMAX
        0x00004ee8:    000a        ..      DCW    10
    sin_array
        0x00004eea:    0001        ..      DCW    1
        0x00004eec:    00020002    ....    DCD    131074
        0x00004ef0:    00030002    ....    DCD    196610
        0x00004ef4:    00040004    ....    DCD    262148
        0x00004ef8:    00050004    ....    DCD    327684
        0x00004efc:    0005        ..      DCW    5
    cos_array
        0x00004efe:    0004        ..      DCW    4
        0x00004f00:    00040004    ....    DCD    262148
        0x00004f04:    00040004    ....    DCD    262148
        0x00004f08:    00020003    ....    DCD    131075
        0x00004f0c:    00010002    ....    DCD    65538
        0x00004f10:    00000000    ....    DCD    0
    tan_array
        0x00004f14:    00000000    ....    DCD    0
        0x00004f18:    3e3851ec    .Q8>    DCD    1043878380
        0x00004f1c:    3eb851ec    .Q.>    DCD    1052266988
        0x00004f20:    3f147ae1    .z.?    DCD    1058306785
        0x00004f24:    3f570a3d    =.W?    DCD    1062668861
        0x00004f28:    3f9851ec    .Q.?    DCD    1066947052
        0x00004f2c:    3fdd70a4    .p.?    DCD    1071476900
        0x00004f30:    40300000    ..0@    DCD    1076887552
        0x00004f34:    40b570a4    .p.@    DCD    1085632676
        0x00004f38:    43480000    ..HC    DCD    1128792064
    Region$$Table$$Base
        0x00004f3c:    00004f5c    \O..    DCD    20316
        0x00004f40:    20000000    ...     DCD    536870912
        0x00004f44:    00001bf8    ....    DCD    7160
        0x00004f48:    000004e6    ....    DCD    1254
        0x00004f4c:    000058ac    .X..    DCD    22700
        0x00004f50:    20001bf8    ...     DCD    536878072
        0x00004f54:    00001810    ....    DCD    6160
        0x00004f58:    00000c5c    \...    DCD    3164
    Region$$Table$$Limit

====================================

** Section #2

    Name        : RW_IRAM1
    Type        : SHT_PROGBITS (0x00000001)
    Flags       : SHF_ALLOC + SHF_WRITE (0x00000003)
    Addr        : 0x20000000
    File Offset : 20368 (0x4f90)
    Size        : 2384 bytes (0x950)
    Link        : SHN_UNDEF
    Info        : 0
    Alignment   : 4
    Entry Size  : 0


====================================

** Section #3

    Name        : RW_IRAM1
    Type        : SHT_NOBITS (0x00000008)
    Flags       : SHF_ALLOC + SHF_WRITE (0x00000003)
    Addr        : 0x20001bf8
    File Offset : 22752 (0x58e0)
    Size        : 6160 bytes (0x1810)
    Link        : SHN_UNDEF
    Info        : 0
    Alignment   : 8
    Entry Size  : 0


====================================

** Section #4

    Name        : .debug_abbrev
    Type        : SHT_PROGBITS (0x00000001)
    Flags       : None (0x00000000)
    Addr        : 0x00000000
    File Offset : 22752 (0x58e0)
    Size        : 1476 bytes (0x5c4)
    Link        : SHN_UNDEF
    Info        : 0
    Alignment   : 1
    Entry Size  : 0


====================================

** Section #5

    Name        : .debug_frame
    Type        : SHT_PROGBITS (0x00000001)
    Flags       : None (0x00000000)
    Addr        : 0x00000000
    File Offset : 24228 (0x5ea4)
    Size        : 4056 bytes (0xfd8)
    Link        : SHN_UNDEF
    Info        : 0
    Alignment   : 1
    Entry Size  : 0


====================================

** Section #6

    Name        : .debug_info
    Type        : SHT_PROGBITS (0x00000001)
    Flags       : None (0x00000000)
    Addr        : 0x00000000
    File Offset : 28284 (0x6e7c)
    Size        : 41212 bytes (0xa0fc)
    Link        : SHN_UNDEF
    Info        : 0
    Alignment   : 1
    Entry Size  : 0


====================================

** Section #7

    Name        : .debug_line
    Type        : SHT_PROGBITS (0x00000001)
    Flags       : None (0x00000000)
    Addr        : 0x00000000
    File Offset : 69496 (0x10f78)
    Size        : 18512 bytes (0x4850)
    Link        : SHN_UNDEF
    Info        : 0
    Alignment   : 1
    Entry Size  : 0


====================================

** Section #8

    Name        : .debug_loc
    Type        : SHT_PROGBITS (0x00000001)
    Flags       : None (0x00000000)
    Addr        : 0x00000000
    File Offset : 88008 (0x157c8)
    Size        : 9448 bytes (0x24e8)
    Link        : SHN_UNDEF
    Info        : 0
    Alignment   : 1
    Entry Size  : 0


====================================

** Section #9

    Name        : .debug_macinfo
    Type        : SHT_PROGBITS (0x00000001)
    Flags       : None (0x00000000)
    Addr        : 0x00000000
    File Offset : 97456 (0x17cb0)
    Size        : 10424 bytes (0x28b8)
    Link        : SHN_UNDEF
    Info        : 0
    Alignment   : 1
    Entry Size  : 0


====================================

** Section #10

    Name        : .debug_pubnames
    Type        : SHT_PROGBITS (0x00000001)
    Flags       : None (0x00000000)
    Addr        : 0x00000000
    File Offset : 107880 (0x1a568)
    Size        : 5660 bytes (0x161c)
    Link        : SHN_UNDEF
    Info        : 0
    Alignment   : 1
    Entry Size  : 0


====================================

** Section #11

    Name        : .symtab
    Type        : SHT_SYMTAB (0x00000002)
    Flags       : None (0x00000000)
    Addr        : 0x00000000
    File Offset : 113540 (0x1bb84)
    Size        : 10864 bytes (0x2a70)
    Link        : Section 12 (.strtab)
    Info        : Last local symbol no = 398
    Alignment   : 4
    Entry Size  : 16


====================================

** Section #12

    Name        : .strtab
    Type        : SHT_STRTAB (0x00000003)
    Flags       : None (0x00000000)
    Addr        : 0x00000000
    File Offset : 124404 (0x1e5f4)
    Size        : 7324 bytes (0x1c9c)
    Link        : SHN_UNDEF
    Info        : 0
    Alignment   : 1
    Entry Size  : 0


====================================

** Section #13

    Name        : .note
    Type        : SHT_NOTE (0x00000007)
    Flags       : None (0x00000000)
    Addr        : 0x00000000
    File Offset : 131728 (0x20290)
    Size        : 28 bytes (0x1c)
    Link        : SHN_UNDEF
    Info        : 0
    Alignment   : 4
    Entry Size  : 0

        Section     Segment
    ====================================

              1           0
              2           0
              3           0

====================================

** Section #14

    Name        : .comment
    Type        : SHT_PROGBITS (0x00000001)
    Flags       : None (0x00000000)
    Addr        : 0x00000000
    File Offset : 131756 (0x202ac)
    Size        : 14332 bytes (0x37fc)
    Link        : SHN_UNDEF
    Info        : 0
    Alignment   : 1
    Entry Size  : 0

    Component: ARM Compiler 5.06 update 6 (build 750) Tool: armlink [4d35ed]
    ArmLink --strict --library_type=microlib --callgraph --load_addr_map_info --map --symbols --xref --diag_suppress=9931 --cpu=Cortex-M0 --list=.\Listings\m0.map --output=.\Objects\m0.axf --scatter=.\Objects\m0.sct --info=summarysizes,sizes,totals,unused,veneers

    D:\Program Files\Keil_V5\ARM\ARMCC\Bin\..\lib\armlib\h_p.l
    D:\Program Files\Keil_V5\ARM\ARMCC\Bin\..\lib\armlib\m_ps.l
    D:\Program Files\Keil_V5\ARM\ARMCC\Bin\..\lib\armlib\mc_p.l
    D:\Program Files\Keil_V5\ARM\ARMCC\Bin\..\lib\armlib\mf_p.l
    D:\Program Files\Keil_V5\ARM\ARMCC\Bin\..\lib\armlib\vfpsupport.l
    Input Comments:
    
    main.o
    
    Component: ARM Compiler 5.06 update 6 (build 750) Tool: armlink [4d35ed]
    armlink --partial --no_add_relocs_to_undefined --no_generate_mapping_symbols --diag_suppress=9931,9931,6642 --cpu=Cortex-M0 --fpu=SoftVFP --output=.\objects\main.o --vfemode=force

    Input Comments:
    
    p5fd4-3
    
    Component: ARM Compiler 5.06 update 6 (build 750) Tool: armasm [4d35ec]
    armasm --debug --diag_suppress=9931,9931,1602,1073 --cpu=Cortex-M0 --fpu=SoftVFP --apcs=/interwork/interwork --no_divide 
    main.o
    
    Component: ARM Compiler 5.06 update 6 (build 750) Tool: ArmCC [4d3637]
    ArmCC --c99 --split_sections --debug -c --gnu -o.\objects\main.o --depend=.\objects\main.d --cpu=Cortex-M0 --apcs=interwork -O0 --diag_suppress=9931 -I..\CORE -I..\DEVICE -I..\USER -I..\MY_GAME -I.\RTE\_Target_1 -I"D:\Program Files\Keil_V5\Arm\Packs\Keil\V2M-MPS2_CMx_BSP\1.7.1\Device\CMSDK_CM0\Include" -I"D:\Program Files\Keil_V5\ARM\CMSIS\Include" -D__MICROLIB -D__UVISION_VERSION=528 -DCMSDK_CM0 --omf_browse=.\objects\main.crf main.c
    
    
    
    
    
    handler.o
    
    Component: ARM Compiler 5.06 update 6 (build 750) Tool: armlink [4d35ed]
    armlink --partial --no_add_relocs_to_undefined --no_generate_mapping_symbols --diag_suppress=9931,9931,6642 --cpu=Cortex-M0 --fpu=SoftVFP --output=.\objects\handler.o --vfemode=force

    Input Comments:
    
    pb98-3
    
    Component: ARM Compiler 5.06 update 6 (build 750) Tool: armasm [4d35ec]
    armasm --debug --diag_suppress=9931,9931,1602,1073 --cpu=Cortex-M0 --fpu=SoftVFP --apcs=/interwork/interwork --no_divide 
    handler.o
    
    Component: ARM Compiler 5.06 update 6 (build 750) Tool: ArmCC [4d3637]
    ArmCC --c99 --split_sections --debug -c --gnu -o.\objects\handler.o --depend=.\objects\handler.d --cpu=Cortex-M0 --apcs=interwork -O0 --diag_suppress=9931 -I..\CORE -I..\DEVICE -I..\USER -I..\MY_GAME -I.\RTE\_Target_1 -I"D:\Program Files\Keil_V5\Arm\Packs\Keil\V2M-MPS2_CMx_BSP\1.7.1\Device\CMSDK_CM0\Include" -I"D:\Program Files\Keil_V5\ARM\CMSIS\Include" -D__MICROLIB -D__UVISION_VERSION=528 -DCMSDK_CM0 --omf_browse=.\objects\handler.crf ..\CORE\handler.c
    
    
    
    
    startup_cm0ds.o
    
    Component: ARM Compiler 5.06 update 6 (build 750) Tool: armasm [4d35ec]
    ArmAsm --debug --xref --diag_suppress=9931 --cpu=Cortex-M0 --apcs=interwork --depend=.\objects\startup_cm0ds.d  -I.\RTE\_Target_1 -I"D:\Program Files\Keil_V5\Arm\Packs\Keil\V2M-MPS2_CMx_BSP\1.7.1\Device\CMSDK_CM0\Include" -I"D:\Program
    
    
    system.o
    
    Component: ARM Compiler 5.06 update 6 (build 750) Tool: armlink [4d35ed]
    armlink --partial --no_add_relocs_to_undefined --no_generate_mapping_symbols --diag_suppress=9931,9931,6642 --cpu=Cortex-M0 --fpu=SoftVFP --output=.\objects\system.o --vfemode=force

    Input Comments:
    
    p4b58-3
    
    Component: ARM Compiler 5.06 update 6 (build 750) Tool: armasm [4d35ec]
    armasm --debug --diag_suppress=9931,9931,1602,1073 --cpu=Cortex-M0 --fpu=SoftVFP --apcs=/interwork/interwork --no_divide 
    system.o
    
    Component: ARM Compiler 5.06 update 6 (build 750) Tool: ArmCC [4d3637]
    ArmCC --c99 --split_sections --debug -c --gnu -o.\objects\system.o --depend=.\objects\system.d --cpu=Cortex-M0 --apcs=interwork -O0 --diag_suppress=9931 -I..\CORE -I..\DEVICE -I..\USER -I..\MY_GAME -I.\RTE\_Target_1 -I"D:\Program Files\Keil_V5\Arm\Packs\Keil\V2M-MPS2_CMx_BSP\1.7.1\Device\CMSDK_CM0\Include" -I"D:\Program Files\Keil_V5\ARM\CMSIS\Include" -D__MICROLIB -D__UVISION_VERSION=528 -DCMSDK_CM0 --omf_browse=.\objects\system.crf ..\CORE\system.c
    
    
    
    
    
    camera.o
    
    Component: ARM Compiler 5.06 update 6 (build 750) Tool: ArmCC [4d3637]
    ArmCC --c99 --split_sections --debug -c --gnu -o.\objects\camera.o --depend=.\objects\camera.d --cpu=Cortex-M0 --apcs=interwork -O0 --diag_suppress=9931 -I..\CORE -I..\DEVICE -I..\USER -I..\MY_GAME -I.\RTE\_Target_1 -I"D:\Program Files\Keil_V5\Arm\Packs\Keil\V2M-MPS2_CMx_BSP\1.7.1\Device\CMSDK_CM0\Include" -I"D:\Program Files\Keil_V5\ARM\CMSIS\Include" -D__MICROLIB -D__UVISION_VERSION=528 -DCMSDK_CM0 --omf_browse=.\objects\camera.crf ..\DEVICE\camera.c
    
    key.o
    
    Component: ARM Compiler 5.06 update 6 (build 750) Tool: ArmCC [4d3637]
    ArmCC --c99 --split_sections --debug -c --gnu -o.\objects\key.o --depend=.\objects\key.d --cpu=Cortex-M0 --apcs=interwork -O0 --diag_suppress=9931 -I..\CORE -I..\DEVICE -I..\USER -I..\MY_GAME -I.\RTE\_Target_1 -I"D:\Program Files\Keil_V5\Arm\Packs\Keil\V2M-MPS2_CMx_BSP\1.7.1\Device\CMSDK_CM0\Include" -I"D:\Program Files\Keil_V5\ARM\CMSIS\Include" -D__MICROLIB -D__UVISION_VERSION=528 -DCMSDK_CM0 --omf_browse=.\objects\key.crf ..\DEVICE\key.c
    
    lcd.o
    
    Component: ARM Compiler 5.06 update 6 (build 750) Tool: ArmCC [4d3637]
    ArmCC --c99 --split_sections --debug -c --gnu -o.\objects\lcd.o --depend=.\objects\lcd.d --cpu=Cortex-M0 --apcs=interwork -O0 --diag_suppress=9931 -I..\CORE -I..\DEVICE -I..\USER -I..\MY_GAME -I.\RTE\_Target_1 -I"D:\Program Files\Keil_V5\Arm\Packs\Keil\V2M-MPS2_CMx_BSP\1.7.1\Device\CMSDK_CM0\Include" -I"D:\Program Files\Keil_V5\ARM\CMSIS\Include" -D__MICROLIB -D__UVISION_VERSION=528 -DCMSDK_CM0 --omf_browse=.\objects\lcd.crf ..\DEVICE\lcd.c
    
    led.o
    
    Component: ARM Compiler 5.06 update 6 (build 750) Tool: ArmCC [4d3637]
    ArmCC --c99 --split_sections --debug -c --gnu -o.\objects\led.o --depend=.\objects\led.d --cpu=Cortex-M0 --apcs=interwork -O0 --diag_suppress=9931 -I..\CORE -I..\DEVICE -I..\USER -I..\MY_GAME -I.\RTE\_Target_1 -I"D:\Program Files\Keil_V5\Arm\Packs\Keil\V2M-MPS2_CMx_BSP\1.7.1\Device\CMSDK_CM0\Include" -I"D:\Program Files\Keil_V5\ARM\CMSIS\Include" -D__MICROLIB -D__UVISION_VERSION=528 -DCMSDK_CM0 --omf_browse=.\objects\led.crf ..\DEVICE\led.c
    
    retarget.o
    
    Component: ARM Compiler 5.06 update 6 (build 750) Tool: ArmCC [4d3637]
    ArmCC --c99 --split_sections --debug -c --gnu -o.\objects\retarget.o --depend=.\objects\retarget.d --cpu=Cortex-M0 --apcs=interwork -O0 --diag_suppress=9931 -I..\CORE -I..\DEVICE -I..\USER -I..\MY_GAME -I.\RTE\_Target_1 -I"D:\Program Files\Keil_V5\Arm\Packs\Keil\V2M-MPS2_CMx_BSP\1.7.1\Device\CMSDK_CM0\Include" -I"D:\Program Files\Keil_V5\ARM\CMSIS\Include" -D__MICROLIB -D__UVISION_VERSION=528 -DCMSDK_CM0 --omf_browse=.\objects\retarget.crf ..\DEVICE\Retarget.c
    
    spi_flash.o
    
    Component: ARM Compiler 5.06 update 6 (build 750) Tool: ArmCC [4d3637]
    ArmCC --c99 --split_sections --debug -c --gnu -o.\objects\spi_flash.o --depend=.\objects\spi_flash.d --cpu=Cortex-M0 --apcs=interwork -O0 --diag_suppress=9931 -I..\CORE -I..\DEVICE -I..\USER -I..\MY_GAME -I.\RTE\_Target_1 -I"D:\Program Files\Keil_V5\Arm\Packs\Keil\V2M-MPS2_CMx_BSP\1.7.1\Device\CMSDK_CM0\Include" -I"D:\Program Files\Keil_V5\ARM\CMSIS\Include" -D__MICROLIB -D__UVISION_VERSION=528 -DCMSDK_CM0 --omf_browse=.\objects\spi_flash.crf ..\DEVICE\spi_flash.c
    
    systick.o
    
    Component: ARM Compiler 5.06 update 6 (build 750) Tool: armlink [4d35ed]
    armlink --partial --no_add_relocs_to_undefined --no_generate_mapping_symbols --diag_suppress=9931,9931,6642 --cpu=Cortex-M0 --fpu=SoftVFP --output=.\objects\systick.o --vfemode=force

    Input Comments:
    
    p57bc-3
    
    Component: ARM Compiler 5.06 update 6 (build 750) Tool: armasm [4d35ec]
    armasm --debug --diag_suppress=9931,9931,1602,1073 --cpu=Cortex-M0 --fpu=SoftVFP --apcs=/interwork/interwork --no_divide 
    systick.o
    
    Component: ARM Compiler 5.06 update 6 (build 750) Tool: ArmCC [4d3637]
    ArmCC --c99 --split_sections --debug -c --gnu -o.\objects\systick.o --depend=.\objects\systick.d --cpu=Cortex-M0 --apcs=interwork -O0 --diag_suppress=9931 -I..\CORE -I..\DEVICE -I..\USER -I..\MY_GAME -I.\RTE\_Target_1 -I"D:\Program Files\Keil_V5\Arm\Packs\Keil\V2M-MPS2_CMx_BSP\1.7.1\Device\CMSDK_CM0\Include" -I"D:\Program Files\Keil_V5\ARM\CMSIS\Include" -D__MICROLIB -D__UVISION_VERSION=528 -DCMSDK_CM0 --omf_browse=.\objects\systick.crf ..\DEVICE\systick.c
    
    
    
    
    
    timer.o
    
    Component: ARM Compiler 5.06 update 6 (build 750) Tool: ArmCC [4d3637]
    ArmCC --c99 --split_sections --debug -c --gnu -o.\objects\timer.o --depend=.\objects\timer.d --cpu=Cortex-M0 --apcs=interwork -O0 --diag_suppress=9931 -I..\CORE -I..\DEVICE -I..\USER -I..\MY_GAME -I.\RTE\_Target_1 -I"D:\Program Files\Keil_V5\Arm\Packs\Keil\V2M-MPS2_CMx_BSP\1.7.1\Device\CMSDK_CM0\Include" -I"D:\Program Files\Keil_V5\ARM\CMSIS\Include" -D__MICROLIB -D__UVISION_VERSION=528 -DCMSDK_CM0 --omf_browse=.\objects\timer.crf ..\DEVICE\timer.c
    
    uart.o
    
    Component: ARM Compiler 5.06 update 6 (build 750) Tool: ArmCC [4d3637]
    ArmCC --c99 --split_sections --debug -c --gnu -o.\objects\uart.o --depend=.\objects\uart.d --cpu=Cortex-M0 --apcs=interwork -O0 --diag_suppress=9931 -I..\CORE -I..\DEVICE -I..\USER -I..\MY_GAME -I.\RTE\_Target_1 -I"D:\Program Files\Keil_V5\Arm\Packs\Keil\V2M-MPS2_CMx_BSP\1.7.1\Device\CMSDK_CM0\Include" -I"D:\Program Files\Keil_V5\ARM\CMSIS\Include" -D__MICROLIB -D__UVISION_VERSION=528 -DCMSDK_CM0 --omf_browse=.\objects\uart.crf ..\DEVICE\uart.c
    
    malloc.o
    
    Component: ARM Compiler 5.06 update 6 (build 750) Tool: ArmCC [4d3637]
    ArmCC --c99 --split_sections --debug -c --gnu -o.\objects\malloc.o --depend=.\objects\malloc.d --cpu=Cortex-M0 --apcs=interwork -O0 --diag_suppress=9931 -I..\CORE -I..\DEVICE -I..\USER -I..\MY_GAME -I.\RTE\_Target_1 -I"D:\Program Files\Keil_V5\Arm\Packs\Keil\V2M-MPS2_CMx_BSP\1.7.1\Device\CMSDK_CM0\Include" -I"D:\Program Files\Keil_V5\ARM\CMSIS\Include" -D__MICROLIB -D__UVISION_VERSION=528 -DCMSDK_CM0 --omf_browse=.\objects\malloc.crf ..\DEVICE\malloc.c
    
    spriteram.o
    
    Component: ARM Compiler 5.06 update 6 (build 750) Tool: ArmCC [4d3637]
    ArmCC --c99 --split_sections --debug -c --gnu -o.\objects\spriteram.o --depend=.\objects\spriteram.d --cpu=Cortex-M0 --apcs=interwork -O0 --diag_suppress=9931 -I..\CORE -I..\DEVICE -I..\USER -I..\MY_GAME -I.\RTE\_Target_1 -I"D:\Program Files\Keil_V5\Arm\Packs\Keil\V2M-MPS2_CMx_BSP\1.7.1\Device\CMSDK_CM0\Include" -I"D:\Program Files\Keil_V5\ARM\CMSIS\Include" -D__MICROLIB -D__UVISION_VERSION=528 -DCMSDK_CM0 --omf_browse=.\objects\spriteram.crf ..\DEVICE\spriteRam.c
    
    pstwo.o
    
    Component: ARM Compiler 5.06 update 6 (build 750) Tool: ArmCC [4d3637]
    ArmCC --c99 --split_sections --debug -c --gnu -o.\objects\pstwo.o --depend=.\objects\pstwo.d --cpu=Cortex-M0 --apcs=interwork -O0 --diag_suppress=9931 -I..\CORE -I..\DEVICE -I..\USER -I..\MY_GAME -I.\RTE\_Target_1 -I"D:\Program Files\Keil_V5\Arm\Packs\Keil\V2M-MPS2_CMx_BSP\1.7.1\Device\CMSDK_CM0\Include" -I"D:\Program Files\Keil_V5\ARM\CMSIS\Include" -D__MICROLIB -D__UVISION_VERSION=528 -DCMSDK_CM0 --omf_browse=.\objects\pstwo.crf ..\DEVICE\pstwo.c
    
    boom.o
    
    Component: ARM Compiler 5.06 update 6 (build 750) Tool: ArmCC [4d3637]
    ArmCC --c99 --split_sections --debug -c --gnu -o.\objects\boom.o --depend=.\objects\boom.d --cpu=Cortex-M0 --apcs=interwork -O0 --diag_suppress=9931 -I..\CORE -I..\DEVICE -I..\USER -I..\MY_GAME -I.\RTE\_Target_1 -I"D:\Program Files\Keil_V5\Arm\Packs\Keil\V2M-MPS2_CMx_BSP\1.7.1\Device\CMSDK_CM0\Include" -I"D:\Program Files\Keil_V5\ARM\CMSIS\Include" -D__MICROLIB -D__UVISION_VERSION=528 -DCMSDK_CM0 --omf_browse=.\objects\boom.crf ..\MY_GAME\boom.c
    
    enemybullet.o
    
    Component: ARM Compiler 5.06 update 6 (build 750) Tool: ArmCC [4d3637]
    ArmCC --c99 --split_sections --debug -c --gnu -o.\objects\enemybullet.o --depend=.\objects\enemybullet.d --cpu=Cortex-M0 --apcs=interwork -O0 --diag_suppress=9931 -I..\CORE -I..\DEVICE -I..\USER -I..\MY_GAME -I.\RTE\_Target_1 -I"D:\Program Files\Keil_V5\Arm\Packs\Keil\V2M-MPS2_CMx_BSP\1.7.1\Device\CMSDK_CM0\Include" -I"D:\Program Files\Keil_V5\ARM\CMSIS\Include" -D__MICROLIB -D__UVISION_VERSION=528 -DCMSDK_CM0 --omf_browse=.\objects\enemybullet.crf ..\MY_GAME\enemyBullet.c
    
    enemyplane.o
    
    Component: ARM Compiler 5.06 update 6 (build 750) Tool: ArmCC [4d3637]
    ArmCC --c99 --split_sections --debug -c --gnu -o.\objects\enemyplane.o --depend=.\objects\enemyplane.d --cpu=Cortex-M0 --apcs=interwork -O0 --diag_suppress=9931 -I..\CORE -I..\DEVICE -I..\USER -I..\MY_GAME -I.\RTE\_Target_1 -I"D:\Program Files\Keil_V5\Arm\Packs\Keil\V2M-MPS2_CMx_BSP\1.7.1\Device\CMSDK_CM0\Include" -I"D:\Program Files\Keil_V5\ARM\CMSIS\Include" -D__MICROLIB -D__UVISION_VERSION=528 -DCMSDK_CM0 --omf_browse=.\objects\enemyplane.crf ..\MY_GAME\enemyPlane.c
    
    gamehitcheck.o
    
    Component: ARM Compiler 5.06 update 6 (build 750) Tool: ArmCC [4d3637]
    ArmCC --c99 --split_sections --debug -c --gnu -o.\objects\gamehitcheck.o --depend=.\objects\gamehitcheck.d --cpu=Cortex-M0 --apcs=interwork -O0 --diag_suppress=9931 -I..\CORE -I..\DEVICE -I..\USER -I..\MY_GAME -I.\RTE\_Target_1 -I"D:\Program Files\Keil_V5\Arm\Packs\Keil\V2M-MPS2_CMx_BSP\1.7.1\Device\CMSDK_CM0\Include" -I"D:\Program Files\Keil_V5\ARM\CMSIS\Include" -D__MICROLIB -D__UVISION_VERSION=528 -DCMSDK_CM0 --omf_browse=.\objects\gamehitcheck.crf ..\MY_GAME\gameHitCheck.c
    
    gameinterface.o
    
    Component: ARM Compiler 5.06 update 6 (build 750) Tool: ArmCC [4d3637]
    ArmCC --c99 --split_sections --debug -c --gnu -o.\objects\gameinterface.o --depend=.\objects\gameinterface.d --cpu=Cortex-M0 --apcs=interwork -O0 --diag_suppress=9931 -I..\CORE -I..\DEVICE -I..\USER -I..\MY_GAME -I.\RTE\_Target_1 -I"D:\Program Files\Keil_V5\Arm\Packs\Keil\V2M-MPS2_CMx_BSP\1.7.1\Device\CMSDK_CM0\Include" -I"D:\Program Files\Keil_V5\ARM\CMSIS\Include" -D__MICROLIB -D__UVISION_VERSION=528 -DCMSDK_CM0 --omf_browse=.\objects\gameinterface.crf ..\MY_GAME\gameInterFace.c
    
    myplane.o
    
    Component: ARM Compiler 5.06 update 6 (build 750) Tool: ArmCC [4d3637]
    ArmCC --c99 --split_sections --debug -c --gnu -o.\objects\myplane.o --depend=.\objects\myplane.d --cpu=Cortex-M0 --apcs=interwork -O0 --diag_suppress=9931 -I..\CORE -I..\DEVICE -I..\USER -I..\MY_GAME -I.\RTE\_Target_1 -I"D:\Program Files\Keil_V5\Arm\Packs\Keil\V2M-MPS2_CMx_BSP\1.7.1\Device\CMSDK_CM0\Include" -I"D:\Program Files\Keil_V5\ARM\CMSIS\Include" -D__MICROLIB -D__UVISION_VERSION=528 -DCMSDK_CM0 --omf_browse=.\objects\myplane.crf ..\MY_GAME\myPlane.c
    

====================================

** Section #15

    Name        : .shstrtab
    Type        : SHT_STRTAB (0x00000003)
    Flags       : None (0x00000000)
    Addr        : 0x00000000
    File Offset : 146088 (0x23aa8)
    Size        : 156 bytes (0x9c)
    Link        : SHN_UNDEF
    Info        : 0
    Alignment   : 1
    Entry Size  : 0


====================================

