
========================================================================

** ELF Header Information

    File Name: .\Objects\cm3.axf

    Machine class: ELFCLASS32 (32-bit)
    Data encoding: ELFDATA2LSB (Little endian)
    Header version: EV_CURRENT (Current version)
    Operating System ABI: none
    ABI Version: 0
    File Type: ET_EXEC (Executable) (2)
    Machine: EM_ARM (ARM)

    Image Entry point: 0x00000079
    Flags: EF_ARM_HASENTRY + EF_ARM_ABI_FLOAT_SOFT (0x05000202)

    ARM ELF revision: 5 (ABI version 2)

    Conforms to Soft float procedure-call standard

    Built with
    Component: ARM Compiler 5.06 update 6 (build 750) Tool: armasm [4d35ec]
    Component: ARM Compiler 5.06 update 6 (build 750) Tool: armlink [4d35ed]

    Header size: 52 bytes (0x34)
    Program header entry size: 32 bytes (0x20)
    Section header entry size: 40 bytes (0x28)

    Program header entries: 1
    Section header entries: 16

    Program header offset: 103716 (0x00019524)
    Section header offset: 103748 (0x00019544)

    Section header string table index: 15

========================================================================

** Program header #0

    Type          : PT_LOAD (1)
    File Offset   : 52 (0x34)
    Virtual Addr  : 0x00000000
    Physical Addr : 0x00000000
    Size in file  : 4088 bytes (0xff8)
    Size in memory: 8496 bytes (0x2130)
    Flags         : PF_X + PF_W + PF_R + PF_ARM_ENTRY (0x80000007)
    Alignment     : 8


========================================================================

** Section #1

    Name        : ER_IROM1
    Type        : SHT_PROGBITS (0x00000001)
    Flags       : SHF_ALLOC + SHF_EXECINSTR (0x00000006)
    Addr        : 0x00000000
    File Offset : 52 (0x34)
    Size        : 3784 bytes (0xec8)
    Link        : SHN_UNDEF
    Info        : 0
    Alignment   : 4
    Entry Size  : 0

    $d.realdata
    RESET
    __Vectors
        0x00000000:    20001268    h..     DCD    536875624
        0x00000004:    0000008d    ....    DCD    141
        0x00000008:    00000099    ....    DCD    153
        0x0000000c:    000000a1    ....    DCD    161
        0x00000010:    000000a9    ....    DCD    169
        0x00000014:    000000b1    ....    DCD    177
        0x00000018:    000000b9    ....    DCD    185
        0x0000001c:    00000000    ....    DCD    0
        0x00000020:    00000000    ....    DCD    0
        0x00000024:    00000000    ....    DCD    0
        0x00000028:    00000000    ....    DCD    0
        0x0000002c:    000000c1    ....    DCD    193
        0x00000030:    000000c9    ....    DCD    201
        0x00000034:    00000000    ....    DCD    0
        0x00000038:    000000d1    ....    DCD    209
        0x0000003c:    000000d9    ....    DCD    217
        0x00000040:    000000e1    ....    DCD    225
        0x00000044:    000000e9    ....    DCD    233
        0x00000048:    000000f1    ....    DCD    241
        0x0000004c:    000000f9    ....    DCD    249
        0x00000050:    00000101    ....    DCD    257
        0x00000054:    00000109    ....    DCD    265
        0x00000058:    00000111    ....    DCD    273
        0x0000005c:    00000119    ....    DCD    281
        0x00000060:    00000121    !...    DCD    289
        0x00000064:    00000129    )...    DCD    297
        0x00000068:    00000131    1...    DCD    305
        0x0000006c:    00000139    9...    DCD    313
        0x00000070:    00000141    A...    DCD    321
        0x00000074:    00000149    I...    DCD    329
    $t
    .ARM.Collect$$$$00000000
    .ARM.Collect$$$$00000001
    __Vectors_End
    __main
    _main_stk
        0x00000078:    f8dfd00c    ....    LDR      sp,__lit__00000000 ; [0x88] = 0x20001268
    .ARM.Collect$$$$00000004
    _main_scatterload
        0x0000007c:    f000f894    ....    BL       __scatterload ; 0x1a8
    .ARM.Collect$$$$00000008
    .ARM.Collect$$$$0000000A
    .ARM.Collect$$$$0000000B
    __main_after_scatterload
    _main_clock
    _main_cpp_init
    _main_init
        0x00000080:    4800        .H      LDR      r0,[pc,#0] ; [0x84] = 0x661
        0x00000082:    4700        .G      BX       r0
    $d
        0x00000084:    00000661    a...    DCD    1633
    .ARM.Collect$$$$00002712
    __lit__00000000
    .ARM.Collect$$$$0000000D
    .ARM.Collect$$$$0000000F
    __rt_final_cpp
    __rt_final_exit
        0x00000088:    20001268    h..     DCD    536875624
    $t
    .text
    Reset_Handler
        0x0000008c:    4680        .F      MOV      r8,r0
        0x0000008e:    46c1        .F      MOV      r9,r8
        0x00000090:    482f        /H      LDR      r0,[pc,#188] ; [0x150] = 0x289
        0x00000092:    4780        .G      BLX      r0
        0x00000094:    482f        /H      LDR      r0,[pc,#188] ; [0x154] = 0x79
        0x00000096:    4700        .G      BX       r0
    NMI_Handler
        0x00000098:    b500        ..      PUSH     {lr}
        0x0000009a:    f000f8ce    ....    BL       NMIHandler ; 0x23a
        0x0000009e:    bd00        ..      POP      {pc}
    HardFault_Handler
        0x000000a0:    b500        ..      PUSH     {lr}
        0x000000a2:    f000f8c4    ....    BL       HardFaultHandler ; 0x22e
        0x000000a6:    bd00        ..      POP      {pc}
    MemManage_Handler
        0x000000a8:    b500        ..      PUSH     {lr}
        0x000000aa:    f000f8c5    ....    BL       MemManageHandler ; 0x238
        0x000000ae:    bd00        ..      POP      {pc}
    BusFault_Handler
        0x000000b0:    b500        ..      PUSH     {lr}
        0x000000b2:    f000f8ba    ....    BL       BusFaultHandler ; 0x22a
        0x000000b6:    bd00        ..      POP      {pc}
    UsageFault_Handler
        0x000000b8:    b500        ..      PUSH     {lr}
        0x000000ba:    f000f901    ....    BL       UsageFaultHandler ; 0x2c0
        0x000000be:    bd00        ..      POP      {pc}
    SVC_Handler
        0x000000c0:    b500        ..      PUSH     {lr}
        0x000000c2:    f000f8c7    ....    BL       SVCHandler ; 0x254
        0x000000c6:    bd00        ..      POP      {pc}
    DebugMon_Handler
        0x000000c8:    b500        ..      PUSH     {lr}
        0x000000ca:    f000f8af    ....    BL       DebugMonHandler ; 0x22c
        0x000000ce:    bd00        ..      POP      {pc}
    PendSV_Handler
        0x000000d0:    b500        ..      PUSH     {lr}
        0x000000d2:    f000f8be    ....    BL       PendSVHandler ; 0x252
        0x000000d6:    bd00        ..      POP      {pc}
    SysTick_Handler
        0x000000d8:    b500        ..      PUSH     {lr}
        0x000000da:    f000f8c9    ....    BL       SysTickHandler ; 0x270
        0x000000de:    bd00        ..      POP      {pc}
    UARTRX_Handler
        0x000000e0:    b500        ..      PUSH     {lr}
        0x000000e2:    f000f8eb    ....    BL       UARTRXHandler ; 0x2bc
        0x000000e6:    bd00        ..      POP      {pc}
    UARTTX_Handler
        0x000000e8:    b500        ..      PUSH     {lr}
        0x000000ea:    f000f8e8    ....    BL       UARTTXHandler ; 0x2be
        0x000000ee:    bd00        ..      POP      {pc}
    UARTOVR_Handler
        0x000000f0:    b500        ..      PUSH     {lr}
        0x000000f2:    f000f8e2    ....    BL       UARTOVRHandler ; 0x2ba
        0x000000f6:    bd00        ..      POP      {pc}
    KEY0_Handler
        0x000000f8:    b507        ..      PUSH     {r0-r2,lr}
        0x000000fa:    f000f899    ....    BL       KEY0 ; 0x230
        0x000000fe:    bd07        ..      POP      {r0-r2,pc}
    KEY1_Handler
        0x00000100:    b507        ..      PUSH     {r0-r2,lr}
        0x00000102:    f000f896    ....    BL       KEY1 ; 0x232
        0x00000106:    bd07        ..      POP      {r0-r2,pc}
    KEY2_Handler
        0x00000108:    b507        ..      PUSH     {r0-r2,lr}
        0x0000010a:    f000f893    ....    BL       KEY2 ; 0x234
        0x0000010e:    bd07        ..      POP      {r0-r2,pc}
    KEY3_Handler
        0x00000110:    b507        ..      PUSH     {r0-r2,lr}
        0x00000112:    f000f890    ....    BL       KEY3 ; 0x236
        0x00000116:    bd07        ..      POP      {r0-r2,pc}
    TIMER_Handler
        0x00000118:    b507        ..      PUSH     {r0-r2,lr}
        0x0000011a:    f000f8cd    ....    BL       Timer_Handler ; 0x2b8
        0x0000011e:    bd07        ..      POP      {r0-r2,pc}
    VGA_Handler
        0x00000120:    b507        ..      PUSH     {r0-r2,lr}
        0x00000122:    f000fe7f    ....    BL       vga_Handler ; 0xe24
        0x00000126:    bd07        ..      POP      {r0-r2,pc}
    CREATE_PLANE_Handler
        0x00000128:    b507        ..      PUSH     {r0-r2,lr}
        0x0000012a:    f000f9d3    ....    BL       create_plane_Handler ; 0x4d4
        0x0000012e:    bd07        ..      POP      {r0-r2,pc}
    PULSE0_Handler
        0x00000130:    b507        ..      PUSH     {r0-r2,lr}
        0x00000132:    f000fab9    ....    BL       pulse0_Handler ; 0x6a8
        0x00000136:    bd07        ..      POP      {r0-r2,pc}
    PULSE1_Handler
        0x00000138:    b507        ..      PUSH     {r0-r2,lr}
        0x0000013a:    f000fb67    ..g.    BL       pulse1_Handler ; 0x80c
        0x0000013e:    bd07        ..      POP      {r0-r2,pc}
    TRIANGLE_Handler
        0x00000140:    b507        ..      PUSH     {r0-r2,lr}
        0x00000142:    f000fe43    ..C.    BL       triangle_Handler ; 0xdcc
        0x00000146:    bd07        ..      POP      {r0-r2,pc}
    NOISE_Handler
        0x00000148:    b507        ..      PUSH     {r0-r2,lr}
        0x0000014a:    f000faab    ....    BL       noise_Handler ; 0x6a4
        0x0000014e:    bd07        ..      POP      {r0-r2,pc}
    $d
        0x00000150:    00000289    ....    DCD    649
        0x00000154:    00000079    y...    DCD    121
    $t
    .text
    rand
        0x00000158:    4906        .I      LDR      r1,[pc,#24] ; [0x174] = 0x20000674
        0x0000015a:    4a07        .J      LDR      r2,[pc,#28] ; [0x178] = 0x41c64e6d
        0x0000015c:    6808        .h      LDR      r0,[r1,#0]
        0x0000015e:    4350        PC      MULS     r0,r2,r0
        0x00000160:    f2430239    C.9.    MOV      r2,#0x3039
        0x00000164:    4410        .D      ADD      r0,r0,r2
        0x00000166:    6008        .`      STR      r0,[r1,#0]
        0x00000168:    0840        @.      LSRS     r0,r0,#1
        0x0000016a:    4770        pG      BX       lr
    srand
        0x0000016c:    4901        .I      LDR      r1,[pc,#4] ; [0x174] = 0x20000674
        0x0000016e:    6008        .`      STR      r0,[r1,#0]
        0x00000170:    4770        pG      BX       lr
    $d
        0x00000172:    0000        ..      DCW    0
        0x00000174:    20000674    t..     DCD    536872564
        0x00000178:    41c64e6d    mN.A    DCD    1103515245
    $t
    .text
    __aeabi_uidiv
    __aeabi_uidivmod
        0x0000017c:    b530        0.      PUSH     {r4,r5,lr}
        0x0000017e:    460b        .F      MOV      r3,r1
        0x00000180:    4601        .F      MOV      r1,r0
        0x00000182:    2000        .       MOVS     r0,#0
        0x00000184:    2220         "      MOVS     r2,#0x20
        0x00000186:    2401        .$      MOVS     r4,#1
        0x00000188:    e009        ..      B        0x19e ; __aeabi_uidiv + 34
        0x0000018a:    fa21f502    !...    LSR      r5,r1,r2
        0x0000018e:    429d        .B      CMP      r5,r3
        0x00000190:    d305        ..      BCC      0x19e ; __aeabi_uidiv + 34
        0x00000192:    fa03f502    ....    LSL      r5,r3,r2
        0x00000196:    1b49        I.      SUBS     r1,r1,r5
        0x00000198:    fa04f502    ....    LSL      r5,r4,r2
        0x0000019c:    4428        (D      ADD      r0,r0,r5
        0x0000019e:    1e15        ..      SUBS     r5,r2,#0
        0x000001a0:    f1a20201    ....    SUB      r2,r2,#1
        0x000001a4:    dcf1        ..      BGT      0x18a ; __aeabi_uidiv + 14
        0x000001a6:    bd30        0.      POP      {r4,r5,pc}
    .text
    __scatterload
    __scatterload_rt2
        0x000001a8:    4c06        .L      LDR      r4,[pc,#24] ; [0x1c4] = 0xea8
        0x000001aa:    4d07        .M      LDR      r5,[pc,#28] ; [0x1c8] = 0xec8
        0x000001ac:    e006        ..      B        0x1bc ; __scatterload + 20
        0x000001ae:    68e0        .h      LDR      r0,[r4,#0xc]
        0x000001b0:    f0400301    @...    ORR      r3,r0,#1
        0x000001b4:    e8940007    ....    LDM      r4,{r0-r2}
        0x000001b8:    4798        .G      BLX      r3
        0x000001ba:    3410        .4      ADDS     r4,r4,#0x10
        0x000001bc:    42ac        .B      CMP      r4,r5
        0x000001be:    d3f6        ..      BCC      0x1ae ; __scatterload + 6
        0x000001c0:    f7ffff5e    ..^.    BL       __main_after_scatterload ; 0x80
    $d
        0x000001c4:    00000ea8    ....    DCD    3752
        0x000001c8:    00000ec8    ....    DCD    3784
    $t
    .text
    __decompress
    __decompress2
        0x000001cc:    b570        p.      PUSH     {r4-r6,lr}
        0x000001ce:    188d        ..      ADDS     r5,r1,r2
        0x000001d0:    f8104b01    ...K    LDRB     r4,[r0],#1
        0x000001d4:    f0140203    ....    ANDS     r2,r4,#3
        0x000001d8:    d101        ..      BNE      0x1de ; __decompress + 18
        0x000001da:    f8102b01    ...+    LDRB     r2,[r0],#1
        0x000001de:    1123        #.      ASRS     r3,r4,#4
        0x000001e0:    d106        ..      BNE      0x1f0 ; __decompress + 36
        0x000001e2:    f8103b01    ...;    LDRB     r3,[r0],#1
        0x000001e6:    e003        ..      B        0x1f0 ; __decompress + 36
        0x000001e8:    f8106b01    ...k    LDRB     r6,[r0],#1
        0x000001ec:    f8016b01    ...k    STRB     r6,[r1],#1
        0x000001f0:    1e52        R.      SUBS     r2,r2,#1
        0x000001f2:    d1f9        ..      BNE      0x1e8 ; __decompress + 28
        0x000001f4:    b1ab        ..      CBZ      r3,0x222 ; __decompress + 86
        0x000001f6:    f8102b01    ...+    LDRB     r2,[r0],#1
        0x000001fa:    f004040c    ....    AND      r4,r4,#0xc
        0x000001fe:    1a8a        ..      SUBS     r2,r1,r2
        0x00000200:    2c0c        .,      CMP      r4,#0xc
        0x00000202:    d003        ..      BEQ      0x20c ; __decompress + 64
        0x00000204:    eba21284    ....    SUB      r2,r2,r4,LSL #6
        0x00000208:    1c9b        ..      ADDS     r3,r3,#2
        0x0000020a:    e008        ..      B        0x21e ; __decompress + 82
        0x0000020c:    f8104b01    ...K    LDRB     r4,[r0],#1
        0x00000210:    eba22204    ..."    SUB      r2,r2,r4,LSL #8
        0x00000214:    e7f8        ..      B        0x208 ; __decompress + 60
        0x00000216:    f8124b01    ...K    LDRB     r4,[r2],#1
        0x0000021a:    f8014b01    ...K    STRB     r4,[r1],#1
        0x0000021e:    1e5b        [.      SUBS     r3,r3,#1
        0x00000220:    d5f9        ..      BPL      0x216 ; __decompress + 74
        0x00000222:    42a9        .B      CMP      r1,r5
        0x00000224:    d3d4        ..      BCC      0x1d0 ; __decompress + 4
        0x00000226:    2000        .       MOVS     r0,#0
        0x00000228:    bd70        p.      POP      {r4-r6,pc}
    i.BusFaultHandler
    BusFaultHandler
        0x0000022a:    4770        pG      BX       lr
    i.DebugMonHandler
    DebugMonHandler
        0x0000022c:    4770        pG      BX       lr
    i.HardFaultHandler
    HardFaultHandler
        0x0000022e:    4770        pG      BX       lr
    i.KEY0
    KEY0
        0x00000230:    4770        pG      BX       lr
    i.KEY1
    KEY1
        0x00000232:    4770        pG      BX       lr
    i.KEY2
    KEY2
        0x00000234:    4770        pG      BX       lr
    i.KEY3
    KEY3
        0x00000236:    4770        pG      BX       lr
    i.MemManageHandler
    MemManageHandler
        0x00000238:    4770        pG      BX       lr
    i.NMIHandler
    NMIHandler
        0x0000023a:    4770        pG      BX       lr
    i.NVIC_EnableIRQ
    NVIC_EnableIRQ
        0x0000023c:    f000021f    ....    AND      r2,r0,#0x1f
        0x00000240:    2101        .!      MOVS     r1,#1
        0x00000242:    4091        .@      LSLS     r1,r1,r2
        0x00000244:    0940        @.      LSRS     r0,r0,#5
        0x00000246:    0080        ..      LSLS     r0,r0,#2
        0x00000248:    f10020e0    ...     ADD      r0,r0,#0xe000e000
        0x0000024c:    f8c01100    ....    STR      r1,[r0,#0x100]
        0x00000250:    4770        pG      BX       lr
    i.PendSVHandler
    PendSVHandler
        0x00000252:    4770        pG      BX       lr
    i.SVCHandler
    SVCHandler
        0x00000254:    4770        pG      BX       lr
    i.Set_SysTick_CTRL
    Set_SysTick_CTRL
        0x00000256:    f04f21e0    O..!    MOV      r1,#0xe000e000
        0x0000025a:    6108        .a      STR      r0,[r1,#0x10]
        0x0000025c:    4770        pG      BX       lr
    i.Set_SysTick_LOAD
    Set_SysTick_LOAD
        0x0000025e:    f04f21e0    O..!    MOV      r1,#0xe000e000
        0x00000262:    6148        Ha      STR      r0,[r1,#0x14]
        0x00000264:    4770        pG      BX       lr
    i.Set_SysTick_VALUE
    Set_SysTick_VALUE
        0x00000266:    f04f21e0    O..!    MOV      r1,#0xe000e000
        0x0000026a:    6188        .a      STR      r0,[r1,#0x18]
        0x0000026c:    4770        pG      BX       lr
        0x0000026e:    0000        ..      MOVS     r0,r0
    i.SysTickHandler
    SysTickHandler
        0x00000270:    b510        ..      PUSH     {r4,lr}
        0x00000272:    2000        .       MOVS     r0,#0
        0x00000274:    f7ffffef    ....    BL       Set_SysTick_CTRL ; 0x256
        0x00000278:    4802        .H      LDR      r0,[pc,#8] ; [0x284] = 0xe000ed04
        0x0000027a:    6801        .h      LDR      r1,[r0,#0]
        0x0000027c:    f0417100    A..q    ORR      r1,r1,#0x2000000
        0x00000280:    6001        .`      STR      r1,[r0,#0]
        0x00000282:    bd10        ..      POP      {r4,pc}
    $d
        0x00000284:    e000ed04    ....    DCD    3758157060
    $t
    i.SystemInit
    SystemInit
        0x00000288:    b510        ..      PUSH     {r4,lr}
        0x0000028a:    490a        .I      LDR      r1,[pc,#40] ; [0x2b4] = 0x2000066c
        0x0000028c:    4808        .H      LDR      r0,[pc,#32] ; [0x2b0] = 0x2faf080
        0x0000028e:    6008        .`      STR      r0,[r1,#0]
        0x00000290:    f04f30ff    O..0    MOV      r0,#0xffffffff
        0x00000294:    f7ffffd2    ....    BL       NVIC_EnableIRQ ; 0x23c
        0x00000298:    2008        .       MOVS     r0,#8
        0x0000029a:    f7ffffcf    ....    BL       NVIC_EnableIRQ ; 0x23c
        0x0000029e:    2009        .       MOVS     r0,#9
        0x000002a0:    f7ffffcc    ....    BL       NVIC_EnableIRQ ; 0x23c
        0x000002a4:    e8bd4010    ...@    POP      {r4,lr}
        0x000002a8:    200a        .       MOVS     r0,#0xa
        0x000002aa:    f7ffbfc7    ....    B.W      NVIC_EnableIRQ ; 0x23c
    $d
        0x000002ae:    0000        ..      DCW    0
        0x000002b0:    02faf080    ....    DCD    50000000
        0x000002b4:    2000066c    l..     DCD    536872556
    $t
    i.Timer_Handler
    Timer_Handler
        0x000002b8:    4770        pG      BX       lr
    i.UARTOVRHandler
    UARTOVRHandler
        0x000002ba:    4770        pG      BX       lr
    i.UARTRXHandler
    UARTRXHandler
        0x000002bc:    4770        pG      BX       lr
    i.UARTTXHandler
    UARTTXHandler
        0x000002be:    4770        pG      BX       lr
    i.UsageFaultHandler
    UsageFaultHandler
        0x000002c0:    4770        pG      BX       lr
        0x000002c2:    0000        ..      MOVS     r0,r0
    i.__0printf$1
    __0printf$1
    __1printf$1
    __2printf
        0x000002c4:    b40f        ..      PUSH     {r0-r3}
        0x000002c6:    4b05        .K      LDR      r3,[pc,#20] ; [0x2dc] = 0x5c9
        0x000002c8:    b510        ..      PUSH     {r4,lr}
        0x000002ca:    a903        ..      ADD      r1,sp,#0xc
        0x000002cc:    4a04        .J      LDR      r2,[pc,#16] ; [0x2e0] = 0x20000670
        0x000002ce:    9802        ..      LDR      r0,[sp,#8]
        0x000002d0:    f000f818    ....    BL       _printf_core ; 0x304
        0x000002d4:    bc10        ..      POP      {r4}
        0x000002d6:    f85dfb14    ]...    LDR      pc,[sp],#0x14
    $d
        0x000002da:    0000        ..      DCW    0
        0x000002dc:    000005c9    ....    DCD    1481
        0x000002e0:    20000670    p..     DCD    536872560
    $t
    i.__scatterload_copy
    __scatterload_copy
        0x000002e4:    e002        ..      B        0x2ec ; __scatterload_copy + 8
        0x000002e6:    c808        ..      LDM      r0!,{r3}
        0x000002e8:    1f12        ..      SUBS     r2,r2,#4
        0x000002ea:    c108        ..      STM      r1!,{r3}
        0x000002ec:    2a00        .*      CMP      r2,#0
        0x000002ee:    d1fa        ..      BNE      0x2e6 ; __scatterload_copy + 2
        0x000002f0:    4770        pG      BX       lr
    i.__scatterload_null
    __scatterload_null
        0x000002f2:    4770        pG      BX       lr
    i.__scatterload_zeroinit
    __scatterload_zeroinit
        0x000002f4:    2000        .       MOVS     r0,#0
        0x000002f6:    e001        ..      B        0x2fc ; __scatterload_zeroinit + 8
        0x000002f8:    c101        ..      STM      r1!,{r0}
        0x000002fa:    1f12        ..      SUBS     r2,r2,#4
        0x000002fc:    2a00        .*      CMP      r2,#0
        0x000002fe:    d1fb        ..      BNE      0x2f8 ; __scatterload_zeroinit + 4
        0x00000300:    4770        pG      BX       lr
        0x00000302:    0000        ..      MOVS     r0,r0
    i._printf_core
    _printf_core
        0x00000304:    e92d4fff    -..O    PUSH     {r0-r11,lr}
        0x00000308:    b089        ..      SUB      sp,sp,#0x24
        0x0000030a:    469b        .F      MOV      r11,r3
        0x0000030c:    4604        .F      MOV      r4,r0
        0x0000030e:    2500        .%      MOVS     r5,#0
        0x00000310:    e006        ..      B        0x320 ; _printf_core + 28
        0x00000312:    2825        %(      CMP      r0,#0x25
        0x00000314:    d00b        ..      BEQ      0x32e ; _printf_core + 42
        0x00000316:    465a        ZF      MOV      r2,r11
        0x00000318:    990b        ..      LDR      r1,[sp,#0x2c]
        0x0000031a:    4790        .G      BLX      r2
        0x0000031c:    1c64        d.      ADDS     r4,r4,#1
        0x0000031e:    1c6d        m.      ADDS     r5,r5,#1
        0x00000320:    7820         x      LDRB     r0,[r4,#0]
        0x00000322:    2800        .(      CMP      r0,#0
        0x00000324:    d1f5        ..      BNE      0x312 ; _printf_core + 14
        0x00000326:    b00d        ..      ADD      sp,sp,#0x34
        0x00000328:    4628        (F      MOV      r0,r5
        0x0000032a:    e8bd8ff0    ....    POP      {r4-r11,pc}
        0x0000032e:    2700        .'      MOVS     r7,#0
        0x00000330:    46b8        .F      MOV      r8,r7
        0x00000332:    2201        ."      MOVS     r2,#1
        0x00000334:    4947        GI      LDR      r1,[pc,#284] ; [0x454] = 0x12809
        0x00000336:    e000        ..      B        0x33a ; _printf_core + 54
        0x00000338:    4307        .C      ORRS     r7,r7,r0
        0x0000033a:    f8143f01    ...?    LDRB     r3,[r4,#1]!
        0x0000033e:    3b20         ;      SUBS     r3,r3,#0x20
        0x00000340:    fa02f003    ....    LSL      r0,r2,r3
        0x00000344:    4208        .B      TST      r0,r1
        0x00000346:    d1f7        ..      BNE      0x338 ; _printf_core + 52
        0x00000348:    7820         x      LDRB     r0,[r4,#0]
        0x0000034a:    282e        .(      CMP      r0,#0x2e
        0x0000034c:    d119        ..      BNE      0x382 ; _printf_core + 126
        0x0000034e:    f8140f01    ....    LDRB     r0,[r4,#1]!
        0x00000352:    f0470704    G...    ORR      r7,r7,#4
        0x00000356:    282a        *(      CMP      r0,#0x2a
        0x00000358:    d00e        ..      BEQ      0x378 ; _printf_core + 116
        0x0000035a:    f06f022f    o./.    MVN      r2,#0x2f
        0x0000035e:    7820         x      LDRB     r0,[r4,#0]
        0x00000360:    f1a00130    ..0.    SUB      r1,r0,#0x30
        0x00000364:    2909        .)      CMP      r1,#9
        0x00000366:    d80c        ..      BHI      0x382 ; _printf_core + 126
        0x00000368:    eb080188    ....    ADD      r1,r8,r8,LSL #2
        0x0000036c:    eb020141    ..A.    ADD      r1,r2,r1,LSL #1
        0x00000370:    eb000801    ....    ADD      r8,r0,r1
        0x00000374:    1c64        d.      ADDS     r4,r4,#1
        0x00000376:    e7f2        ..      B        0x35e ; _printf_core + 90
        0x00000378:    980a        ..      LDR      r0,[sp,#0x28]
        0x0000037a:    1c64        d.      ADDS     r4,r4,#1
        0x0000037c:    f8508b04    P...    LDR      r8,[r0],#4
        0x00000380:    900a        ..      STR      r0,[sp,#0x28]
        0x00000382:    7820         x      LDRB     r0,[r4,#0]
        0x00000384:    2800        .(      CMP      r0,#0
        0x00000386:    d0ce        ..      BEQ      0x326 ; _printf_core + 34
        0x00000388:    2864        d(      CMP      r0,#0x64
        0x0000038a:    d008        ..      BEQ      0x39e ; _printf_core + 154
        0x0000038c:    2869        i(      CMP      r0,#0x69
        0x0000038e:    d006        ..      BEQ      0x39e ; _printf_core + 154
        0x00000390:    2875        u(      CMP      r0,#0x75
        0x00000392:    d01e        ..      BEQ      0x3d2 ; _printf_core + 206
        0x00000394:    465a        ZF      MOV      r2,r11
        0x00000396:    990b        ..      LDR      r1,[sp,#0x2c]
        0x00000398:    4790        .G      BLX      r2
        0x0000039a:    1c6d        m.      ADDS     r5,r5,#1
        0x0000039c:    e058        X.      B        0x450 ; _printf_core + 332
        0x0000039e:    990a        ..      LDR      r1,[sp,#0x28]
        0x000003a0:    f04f090a    O...    MOV      r9,#0xa
        0x000003a4:    c901        ..      LDM      r1!,{r0}
        0x000003a6:    910a        ..      STR      r1,[sp,#0x28]
        0x000003a8:    2800        .(      CMP      r0,#0
        0x000003aa:    da02        ..      BGE      0x3b2 ; _printf_core + 174
        0x000003ac:    4240        @B      RSBS     r0,r0,#0
        0x000003ae:    212d        -!      MOVS     r1,#0x2d
        0x000003b0:    e002        ..      B        0x3b8 ; _printf_core + 180
        0x000003b2:    0539        9.      LSLS     r1,r7,#20
        0x000003b4:    d504        ..      BPL      0x3c0 ; _printf_core + 188
        0x000003b6:    212b        +!      MOVS     r1,#0x2b
        0x000003b8:    f88d1020    .. .    STRB     r1,[sp,#0x20]
        0x000003bc:    2101        .!      MOVS     r1,#1
        0x000003be:    e003        ..      B        0x3c8 ; _printf_core + 196
        0x000003c0:    07f9        ..      LSLS     r1,r7,#31
        0x000003c2:    d004        ..      BEQ      0x3ce ; _printf_core + 202
        0x000003c4:    2120         !      MOVS     r1,#0x20
        0x000003c6:    e7f7        ..      B        0x3b8 ; _printf_core + 180
        0x000003c8:    468a        .F      MOV      r10,r1
        0x000003ca:    ae08        ..      ADD      r6,sp,#0x20
        0x000003cc:    e00d        ..      B        0x3ea ; _printf_core + 230
        0x000003ce:    2100        .!      MOVS     r1,#0
        0x000003d0:    e7fa        ..      B        0x3c8 ; _printf_core + 196
        0x000003d2:    990a        ..      LDR      r1,[sp,#0x28]
        0x000003d4:    f04f090a    O...    MOV      r9,#0xa
        0x000003d8:    c901        ..      LDM      r1!,{r0}
        0x000003da:    910a        ..      STR      r1,[sp,#0x28]
        0x000003dc:    e7f7        ..      B        0x3ce ; _printf_core + 202
        0x000003de:    4649        IF      MOV      r1,r9
        0x000003e0:    f7fffecc    ....    BL       __aeabi_uidiv ; 0x17c
        0x000003e4:    3130        01      ADDS     r1,r1,#0x30
        0x000003e6:    f8061d01    ....    STRB     r1,[r6,#-1]!
        0x000003ea:    2800        .(      CMP      r0,#0
        0x000003ec:    d1f7        ..      BNE      0x3de ; _printf_core + 218
        0x000003ee:    ebad0006    ....    SUB      r0,sp,r6
        0x000003f2:    f1000920    .. .    ADD      r9,r0,#0x20
        0x000003f6:    0778        x.      LSLS     r0,r7,#29
        0x000003f8:    d401        ..      BMI      0x3fe ; _printf_core + 250
        0x000003fa:    f04f0801    O...    MOV      r8,#1
        0x000003fe:    45c8        .E      CMP      r8,r9
        0x00000400:    dd02        ..      BLE      0x408 ; _printf_core + 260
        0x00000402:    eba80009    ....    SUB      r0,r8,r9
        0x00000406:    e000        ..      B        0x40a ; _printf_core + 262
        0x00000408:    2000        .       MOVS     r0,#0
        0x0000040a:    4680        .F      MOV      r8,r0
        0x0000040c:    2700        .'      MOVS     r7,#0
        0x0000040e:    e006        ..      B        0x41e ; _printf_core + 282
        0x00000410:    a808        ..      ADD      r0,sp,#0x20
        0x00000412:    465a        ZF      MOV      r2,r11
        0x00000414:    5dc0        .]      LDRB     r0,[r0,r7]
        0x00000416:    990b        ..      LDR      r1,[sp,#0x2c]
        0x00000418:    4790        .G      BLX      r2
        0x0000041a:    1c6d        m.      ADDS     r5,r5,#1
        0x0000041c:    1c7f        ..      ADDS     r7,r7,#1
        0x0000041e:    4557        WE      CMP      r7,r10
        0x00000420:    dbf6        ..      BLT      0x410 ; _printf_core + 268
        0x00000422:    e004        ..      B        0x42e ; _printf_core + 298
        0x00000424:    2030        0       MOVS     r0,#0x30
        0x00000426:    465a        ZF      MOV      r2,r11
        0x00000428:    990b        ..      LDR      r1,[sp,#0x2c]
        0x0000042a:    4790        .G      BLX      r2
        0x0000042c:    1c6d        m.      ADDS     r5,r5,#1
        0x0000042e:    f1b80100    ....    SUBS     r1,r8,#0
        0x00000432:    f1a80801    ....    SUB      r8,r8,#1
        0x00000436:    dcf5        ..      BGT      0x424 ; _printf_core + 288
        0x00000438:    e005        ..      B        0x446 ; _printf_core + 322
        0x0000043a:    f8160b01    ....    LDRB     r0,[r6],#1
        0x0000043e:    465a        ZF      MOV      r2,r11
        0x00000440:    990b        ..      LDR      r1,[sp,#0x2c]
        0x00000442:    4790        .G      BLX      r2
        0x00000444:    1c6d        m.      ADDS     r5,r5,#1
        0x00000446:    f1b90100    ....    SUBS     r1,r9,#0
        0x0000044a:    f1a90901    ....    SUB      r9,r9,#1
        0x0000044e:    dcf4        ..      BGT      0x43a ; _printf_core + 310
        0x00000450:    1c64        d.      ADDS     r4,r4,#1
        0x00000452:    e765        e.      B        0x320 ; _printf_core + 28
    $d
        0x00000454:    00012809    .(..    DCD    75785
    $t
    i.b_green_createOnePlane
    b_green_createOnePlane
        0x00000458:    b570        p.      PUSH     {r4-r6,lr}
        0x0000045a:    2100        .!      MOVS     r1,#0
        0x0000045c:    4a1b        .J      LDR      r2,[pc,#108] ; [0x4cc] = 0xea7
        0x0000045e:    7812        .x      LDRB     r2,[r2,#0]
        0x00000460:    e007        ..      B        0x472 ; b_green_createOnePlane + 26
        0x00000462:    eb010381    ....    ADD      r3,r1,r1,LSL #2
        0x00000466:    eb0303c1    ....    ADD      r3,r3,r1,LSL #3
        0x0000046a:    f8103013    ...0    LDRB     r3,[r0,r3,LSL #1]
        0x0000046e:    b11b        ..      CBZ      r3,0x478 ; b_green_createOnePlane + 32
        0x00000470:    1c49        I.      ADDS     r1,r1,#1
        0x00000472:    4291        .B      CMP      r1,r2
        0x00000474:    dbf5        ..      BLT      0x462 ; b_green_createOnePlane + 10
        0x00000476:    bd70        p.      POP      {r4-r6,pc}
        0x00000478:    eb010381    ....    ADD      r3,r1,r1,LSL #2
        0x0000047c:    eb0301c1    ....    ADD      r1,r3,r1,LSL #3
        0x00000480:    2201        ."      MOVS     r2,#1
        0x00000482:    f8002011    ...     STRB     r2,[r0,r1,LSL #1]
        0x00000486:    eb000441    ..A.    ADD      r4,r0,r1,LSL #1
        0x0000048a:    261e        .&      MOVS     r6,#0x1e
        0x0000048c:    7066        fp      STRB     r6,[r4,#1]
        0x0000048e:    2500        .%      MOVS     r5,#0
        0x00000490:    70a5        .p      STRB     r5,[r4,#2]
        0x00000492:    f7fffe61    ..a.    BL       rand ; 0x158
        0x00000496:    2164        d!      MOVS     r1,#0x64
        0x00000498:    4348        HC      MULS     r0,r1,r0
        0x0000049a:    eb0071d0    ...q    ADD      r1,r0,r0,LSR #31
        0x0000049e:    f0210101    !...    BIC      r1,r1,#1
        0x000004a2:    1a40        @.      SUBS     r0,r0,r1
        0x000004a4:    3064        d0      ADDS     r0,r0,#0x64
        0x000004a6:    80a0        ..      STRH     r0,[r4,#4]
        0x000004a8:    20b4        .       MOVS     r0,#0xb4
        0x000004aa:    80e0        ..      STRH     r0,[r4,#6]
        0x000004ac:    7225        %r      STRB     r5,[r4,#8]
        0x000004ae:    7265        er      STRB     r5,[r4,#9]
        0x000004b0:    72a5        .r      STRB     r5,[r4,#0xa]
        0x000004b2:    1ea9        ..      SUBS     r1,r5,#2
        0x000004b4:    81a1        ..      STRH     r1,[r4,#0xc]
        0x000004b6:    81e6        ..      STRH     r6,[r4,#0xe]
        0x000004b8:    215a        Z!      MOVS     r1,#0x5a
        0x000004ba:    8221        !.      STRH     r1,[r4,#0x10]
        0x000004bc:    2128        (!      MOVS     r1,#0x28
        0x000004be:    8261        a.      STRH     r1,[r4,#0x12]
        0x000004c0:    213c        <!      MOVS     r1,#0x3c
        0x000004c2:    82a1        ..      STRH     r1,[r4,#0x14]
        0x000004c4:    21a0        .!      MOVS     r1,#0xa0
        0x000004c6:    82e1        ..      STRH     r1,[r4,#0x16]
        0x000004c8:    8320         .      STRH     r0,[r4,#0x18]
        0x000004ca:    bd70        p.      POP      {r4-r6,pc}
    $d
        0x000004cc:    00000ea7    ....    DCD    3751
    $t
    i.b_green_createPlane_511
    b_green_createPlane_511
        0x000004d0:    f7ffbfc2    ....    B.W      b_green_createOnePlane ; 0x458
    i.create_plane_Handler
    create_plane_Handler
        0x000004d4:    b510        ..      PUSH     {r4,lr}
        0x000004d6:    4828        (H      LDR      r0,[pc,#160] ; [0x578] = 0x20000040
        0x000004d8:    1f04        ..      SUBS     r4,r0,#4
        0x000004da:    6821        !h      LDR      r1,[r4,#0]
        0x000004dc:    f8501021    P.!.    LDR      r1,[r0,r1,LSL #2]
        0x000004e0:    4826        &H      LDR      r0,[pc,#152] ; [0x57c] = 0x20000678
        0x000004e2:    290d        .)      CMP      r1,#0xd
        0x000004e4:    d243        C.      BCS      0x56e ; create_plane_Handler + 154
        0x000004e6:    e8dff001    ....    TBB      [pc,r1]
    $d
        0x000004ea:    0742        B.      DCW    1858
        0x000004ec:    17130f0b    ....    DCD    387125003
        0x000004f0:    2f271f1b    ..'/    DCD    791093019
        0x000004f4:    003f3b37    7;?.    DCD    4143927
    $t
        0x000004f8:    4821        !H      LDR      r0,[pc,#132] ; [0x580] = 0x200006fa
        0x000004fa:    f000fb23    ..#.    BL       s_grey_createPlane_111 ; 0xb44
        0x000004fe:    e036        6.      B        0x56e ; create_plane_Handler + 154
        0x00000500:    481f        .H      LDR      r0,[pc,#124] ; [0x580] = 0x200006fa
        0x00000502:    f000fb4a    ..J.    BL       s_grey_createPlane_122 ; 0xb9a
        0x00000506:    e032        2.      B        0x56e ; create_plane_Handler + 154
        0x00000508:    481d        .H      LDR      r0,[pc,#116] ; [0x580] = 0x200006fa
        0x0000050a:    f000fb63    ..c.    BL       s_grey_createPlane_123 ; 0xbd4
        0x0000050e:    e02e        ..      B        0x56e ; create_plane_Handler + 154
        0x00000510:    481b        .H      LDR      r0,[pc,#108] ; [0x580] = 0x200006fa
        0x00000512:    f000fb9f    ....    BL       s_grey_createPlane_144 ; 0xc54
        0x00000516:    e02a        *.      B        0x56e ; create_plane_Handler + 154
        0x00000518:    4819        .H      LDR      r0,[pc,#100] ; [0x580] = 0x200006fa
        0x0000051a:    f000fbca    ....    BL       s_grey_createPlane_145 ; 0xcb2
        0x0000051e:    e026        &.      B        0x56e ; create_plane_Handler + 154
        0x00000520:    4817        .H      LDR      r0,[pc,#92] ; [0x580] = 0x200006fa
        0x00000522:    f000fc18    ....    BL       s_grey_createPlane_166 ; 0xd56
        0x00000526:    e022        ".      B        0x56e ; create_plane_Handler + 154
        0x00000528:    f9b02002    ...     LDRSH    r2,[r0,#2]
        0x0000052c:    f9b01000    ....    LDRSH    r1,[r0,#0]
        0x00000530:    4814        .H      LDR      r0,[pc,#80] ; [0x584] = 0x200007ba
        0x00000532:    f000fa1d    ....    BL       s_green_createPlane_221 ; 0x970
        0x00000536:    e01a        ..      B        0x56e ; create_plane_Handler + 154
        0x00000538:    f9b02002    ...     LDRSH    r2,[r0,#2]
        0x0000053c:    f9b01000    ....    LDRSH    r1,[r0,#0]
        0x00000540:    4810        .H      LDR      r0,[pc,#64] ; [0x584] = 0x200007ba
        0x00000542:    f000fa31    ..1.    BL       s_green_createPlane_222 ; 0x9a8
        0x00000546:    e012        ..      B        0x56e ; create_plane_Handler + 154
        0x00000548:    f9b02002    ...     LDRSH    r2,[r0,#2]
        0x0000054c:    f9b01000    ....    LDRSH    r1,[r0,#0]
        0x00000550:    480c        .H      LDR      r0,[pc,#48] ; [0x584] = 0x200007ba
        0x00000552:    f000fa48    ..H.    BL       s_green_createPlane_243 ; 0x9e6
        0x00000556:    e00a        ..      B        0x56e ; create_plane_Handler + 154
        0x00000558:    480b        .H      LDR      r0,[pc,#44] ; [0x588] = 0x200008aa
        0x0000055a:    f000fa6d    ..m.    BL       s_green_createPlane_411 ; 0xa38
        0x0000055e:    e006        ..      B        0x56e ; create_plane_Handler + 154
        0x00000560:    4809        .H      LDR      r0,[pc,#36] ; [0x588] = 0x200008aa
        0x00000562:    f000fa7c    ..|.    BL       s_green_createPlane_422 ; 0xa5e
        0x00000566:    e002        ..      B        0x56e ; create_plane_Handler + 154
        0x00000568:    4808        .H      LDR      r0,[pc,#32] ; [0x58c] = 0x200008ce
        0x0000056a:    f7ffffb1    ....    BL       b_green_createPlane_511 ; 0x4d0
        0x0000056e:    6820         h      LDR      r0,[r4,#0]
        0x00000570:    1c40        @.      ADDS     r0,r0,#1
        0x00000572:    6020         `      STR      r0,[r4,#0]
        0x00000574:    bd10        ..      POP      {r4,pc}
    $d
        0x00000576:    0000        ..      DCW    0
        0x00000578:    20000040    @..     DCD    536870976
        0x0000057c:    20000678    x..     DCD    536872568
        0x00000580:    200006fa    ...     DCD    536872698
        0x00000584:    200007ba    ...     DCD    536872890
        0x00000588:    200008aa    ...     DCD    536873130
        0x0000058c:    200008ce    ...     DCD    536873166
    $t
    i.delay
    delay
        0x00000590:    b500        ..      PUSH     {lr}
        0x00000592:    4602        .F      MOV      r2,r0
        0x00000594:    2000        .       MOVS     r0,#0
        0x00000596:    f7fffe5e    ..^.    BL       Set_SysTick_CTRL ; 0x256
        0x0000059a:    4610        .F      MOV      r0,r2
        0x0000059c:    f7fffe5f    .._.    BL       Set_SysTick_LOAD ; 0x25e
        0x000005a0:    2000        .       MOVS     r0,#0
        0x000005a2:    f7fffe60    ..`.    BL       Set_SysTick_VALUE ; 0x266
        0x000005a6:    2007        .       MOVS     r0,#7
        0x000005a8:    f7fffe55    ..U.    BL       Set_SysTick_CTRL ; 0x256
        0x000005ac:    bf30        0.      WFI      
        0x000005ae:    bd00        ..      POP      {pc}
    i.delay_ms
    delay_ms
        0x000005b0:    b510        ..      PUSH     {r4,lr}
        0x000005b2:    4603        .F      MOV      r3,r0
        0x000005b4:    f24c3450    L.P4    MOV      r4,#0xc350
        0x000005b8:    e003        ..      B        0x5c2 ; delay_ms + 18
        0x000005ba:    4620         F      MOV      r0,r4
        0x000005bc:    f7ffffe8    ....    BL       delay ; 0x590
        0x000005c0:    1e5b        [.      SUBS     r3,r3,#1
        0x000005c2:    2b00        .+      CMP      r3,#0
        0x000005c4:    d1f9        ..      BNE      0x5ba ; delay_ms + 10
        0x000005c6:    bd10        ..      POP      {r4,pc}
    i.fputc
    fputc
        0x000005c8:    b570        p.      PUSH     {r4-r6,lr}
        0x000005ca:    4604        .F      MOV      r4,r0
        0x000005cc:    f04f4580    O..E    MOV      r5,#0x40000000
        0x000005d0:    2c0a        .,      CMP      r4,#0xa
        0x000005d2:    d103        ..      BNE      0x5dc ; fputc + 20
        0x000005d4:    210d        .!      MOVS     r1,#0xd
        0x000005d6:    4628        (F      MOV      r0,r5
        0x000005d8:    f000fbf9    ....    BL       uart_SendChar ; 0xdce
        0x000005dc:    b2e1        ..      UXTB     r1,r4
        0x000005de:    4628        (F      MOV      r0,r5
        0x000005e0:    f000fbf5    ....    BL       uart_SendChar ; 0xdce
        0x000005e4:    4620         F      MOV      r0,r4
        0x000005e6:    bd70        p.      POP      {r4-r6,pc}
    i.m_straight_createOnePlane
    m_straight_createOnePlane
        0x000005e8:    b570        p.      PUSH     {r4-r6,lr}
        0x000005ea:    2200        ."      MOVS     r2,#0
        0x000005ec:    4b1b        .K      LDR      r3,[pc,#108] ; [0x65c] = 0xea6
        0x000005ee:    781b        .x      LDRB     r3,[r3,#0]
        0x000005f0:    e005        ..      B        0x5fe ; m_straight_createOnePlane + 22
        0x000005f2:    eb020442    ..B.    ADD      r4,r2,r2,LSL #1
        0x000005f6:    f8104024    ..$@    LDRB     r4,[r0,r4,LSL #2]
        0x000005fa:    b11c        ..      CBZ      r4,0x604 ; m_straight_createOnePlane + 28
        0x000005fc:    1c52        R.      ADDS     r2,r2,#1
        0x000005fe:    429a        .B      CMP      r2,r3
        0x00000600:    dbf7        ..      BLT      0x5f2 ; m_straight_createOnePlane + 10
        0x00000602:    bd70        p.      POP      {r4-r6,pc}
        0x00000604:    eb020242    ..B.    ADD      r2,r2,r2,LSL #1
        0x00000608:    2501        .%      MOVS     r5,#1
        0x0000060a:    f8005022    .."P    STRB     r5,[r0,r2,LSL #2]
        0x0000060e:    eb000482    ....    ADD      r4,r0,r2,LSL #2
        0x00000612:    2314        .#      MOVS     r3,#0x14
        0x00000614:    7063        cp      STRB     r3,[r4,#1]
        0x00000616:    2000        .       MOVS     r0,#0
        0x00000618:    70a0        .p      STRB     r0,[r4,#2]
        0x0000061a:    80a1        ..      STRH     r1,[r4,#4]
        0x0000061c:    f7fffd9c    ....    BL       rand ; 0x158
        0x00000620:    eb000080    ....    ADD      r0,r0,r0,LSL #2
        0x00000624:    0080        ..      LSLS     r0,r0,#2
        0x00000626:    eb0071d0    ...q    ADD      r1,r0,r0,LSR #31
        0x0000062a:    f0210101    !...    BIC      r1,r1,#1
        0x0000062e:    1a40        @.      SUBS     r0,r0,r1
        0x00000630:    f1c000e1    ....    RSB      r0,r0,#0xe1
        0x00000634:    80e0        ..      STRH     r0,[r4,#6]
        0x00000636:    7225        %r      STRB     r5,[r4,#8]
        0x00000638:    f7fffd8e    ....    BL       rand ; 0x158
        0x0000063c:    eb0071d0    ...q    ADD      r1,r0,r0,LSR #31
        0x00000640:    f0210101    !...    BIC      r1,r1,#1
        0x00000644:    1a40        @.      SUBS     r0,r0,r1
        0x00000646:    7260        `r      STRB     r0,[r4,#9]
        0x00000648:    f7fffd86    ....    BL       rand ; 0x158
        0x0000064c:    eb0071d0    ...q    ADD      r1,r0,r0,LSR #31
        0x00000650:    f0210101    !...    BIC      r1,r1,#1
        0x00000654:    1a40        @.      SUBS     r0,r0,r1
        0x00000656:    72a0        .r      STRB     r0,[r4,#0xa]
        0x00000658:    bd70        p.      POP      {r4-r6,pc}
    $d
        0x0000065a:    0000        ..      DCW    0
        0x0000065c:    00000ea6    ....    DCD    3750
    $t
    i.main
    main
        0x00000660:    b51f        ..      PUSH     {r0-r4,lr}
        0x00000662:    2000        .       MOVS     r0,#0
        0x00000664:    9000        ..      STR      r0,[sp,#0]
        0x00000666:    9001        ..      STR      r0,[sp,#4]
        0x00000668:    9002        ..      STR      r0,[sp,#8]
        0x0000066a:    2301        .#      MOVS     r3,#1
        0x0000066c:    f44f71d9    O..q    MOV      r1,#0x1b2
        0x00000670:    9003        ..      STR      r0,[sp,#0xc]
        0x00000672:    461a        .F      MOV      r2,r3
        0x00000674:    0748        H.      LSLS     r0,r1,#29
        0x00000676:    f000fbaf    ....    BL       uart_init ; 0xdd8
        0x0000067a:    f44f74fa    O..t    MOV      r4,#0x1f4
        0x0000067e:    f000f8c7    ....    BL       read_cnn_result ; 0x810
        0x00000682:    4601        .F      MOV      r1,r0
        0x00000684:    a003        ..      ADR      r0,{pc}+0x10 ; 0x694
        0x00000686:    f7fffe1d    ....    BL       __0printf$1 ; 0x2c4
        0x0000068a:    4620         F      MOV      r0,r4
        0x0000068c:    f7ffff90    ....    BL       delay_ms ; 0x5b0
        0x00000690:    e7f5        ..      B        0x67e ; main + 30
    $d
        0x00000692:    0000        ..      DCW    0
        0x00000694:    5f4e4e43    CNN_    DCD    1598967363
        0x00000698:    55534552    RESU    DCD    1431520594
        0x0000069c:    253d544c    LT=%    DCD    624776268
        0x000006a0:    00000a75    u...    DCD    2677
    $t
    i.noise_Handler
    noise_Handler
        0x000006a4:    4770        pG      BX       lr
        0x000006a6:    0000        ..      MOVS     r0,r0
    i.pulse0_Handler
    pulse0_Handler
        0x000006a8:    b570        p.      PUSH     {r4-r6,lr}
        0x000006aa:    4c53        SL      LDR      r4,[pc,#332] ; [0x7f8] = 0x2000000a
        0x000006ac:    4851        QH      LDR      r0,[pc,#324] ; [0x7f4] = 0x20000001
        0x000006ae:    2600        .&      MOVS     r6,#0
        0x000006b0:    7821        !x      LDRB     r1,[r4,#0]
        0x000006b2:    7802        .x      LDRB     r2,[r0,#0]
        0x000006b4:    1c48        H.      ADDS     r0,r1,#1
        0x000006b6:    b2c0        ..      UXTB     r0,r0
        0x000006b8:    2a00        .*      CMP      r2,#0
        0x000006ba:    d022        ".      BEQ      0x702 ; pulse0_Handler + 90
        0x000006bc:    2a01        .*      CMP      r2,#1
        0x000006be:    d03d        =.      BEQ      0x73c ; pulse0_Handler + 148
        0x000006c0:    2a02        .*      CMP      r2,#2
        0x000006c2:    d11d        ..      BNE      0x700 ; pulse0_Handler + 88
        0x000006c4:    4d4d        MM      LDR      r5,[pc,#308] ; [0x7fc] = 0x20000524
        0x000006c6:    f8150021    ..!.    LDRB     r0,[r5,r1,LSL #2]
        0x000006ca:    f000fb4f    ..O.    BL       set_pulse0_00 ; 0xd6c
        0x000006ce:    7820         x      LDRB     r0,[r4,#0]
        0x000006d0:    eb050080    ....    ADD      r0,r5,r0,LSL #2
        0x000006d4:    7840        @x      LDRB     r0,[r0,#1]
        0x000006d6:    f000fb4f    ..O.    BL       set_pulse0_01 ; 0xd78
        0x000006da:    7820         x      LDRB     r0,[r4,#0]
        0x000006dc:    eb050080    ....    ADD      r0,r5,r0,LSL #2
        0x000006e0:    7880        .x      LDRB     r0,[r0,#2]
        0x000006e2:    f000fb4f    ..O.    BL       set_pulse0_10 ; 0xd84
        0x000006e6:    7820         x      LDRB     r0,[r4,#0]
        0x000006e8:    eb050080    ....    ADD      r0,r5,r0,LSL #2
        0x000006ec:    78c0        .x      LDRB     r0,[r0,#3]
        0x000006ee:    f000fb4f    ..O.    BL       set_pulse0_11 ; 0xd90
        0x000006f2:    7820         x      LDRB     r0,[r4,#0]
        0x000006f4:    1c40        @.      ADDS     r0,r0,#1
        0x000006f6:    b2c0        ..      UXTB     r0,r0
        0x000006f8:    7020         p      STRB     r0,[r4,#0]
        0x000006fa:    2812        .(      CMP      r0,#0x12
        0x000006fc:    d300        ..      BCC      0x700 ; pulse0_Handler + 88
        0x000006fe:    7026        &p      STRB     r6,[r4,#0]
        0x00000700:    bd70        p.      POP      {r4-r6,pc}
        0x00000702:    7020         p      STRB     r0,[r4,#0]
        0x00000704:    4d3e        >M      LDR      r5,[pc,#248] ; [0x800] = 0x20000400
        0x00000706:    f8150020    .. .    LDRB     r0,[r5,r0,LSL #2]
        0x0000070a:    f000fb2f    ../.    BL       set_pulse0_00 ; 0xd6c
        0x0000070e:    7820         x      LDRB     r0,[r4,#0]
        0x00000710:    eb050080    ....    ADD      r0,r5,r0,LSL #2
        0x00000714:    7840        @x      LDRB     r0,[r0,#1]
        0x00000716:    f000fb2f    ../.    BL       set_pulse0_01 ; 0xd78
        0x0000071a:    7820         x      LDRB     r0,[r4,#0]
        0x0000071c:    eb050080    ....    ADD      r0,r5,r0,LSL #2
        0x00000720:    7880        .x      LDRB     r0,[r0,#2]
        0x00000722:    f000fb2f    ../.    BL       set_pulse0_10 ; 0xd84
        0x00000726:    7820         x      LDRB     r0,[r4,#0]
        0x00000728:    eb050080    ....    ADD      r0,r5,r0,LSL #2
        0x0000072c:    78c0        .x      LDRB     r0,[r0,#3]
        0x0000072e:    f000fb2f    ../.    BL       set_pulse0_11 ; 0xd90
        0x00000732:    7820         x      LDRB     r0,[r4,#0]
        0x00000734:    282c        ,(      CMP      r0,#0x2c
        0x00000736:    d9e3        ..      BLS      0x700 ; pulse0_Handler + 88
        0x00000738:    7026        &p      STRB     r6,[r4,#0]
        0x0000073a:    bd70        p.      POP      {r4-r6,pc}
        0x0000073c:    4931        1I      LDR      r1,[pc,#196] ; [0x804] = 0x20000678
        0x0000073e:    7909        .y      LDRB     r1,[r1,#4]
        0x00000740:    b309        ..      CBZ      r1,0x786 ; pulse0_Handler + 222
        0x00000742:    4931        1I      LDR      r1,[pc,#196] ; [0x808] = 0x2000000e
        0x00000744:    7809        .x      LDRB     r1,[r1,#0]
        0x00000746:    2900        .)      CMP      r1,#0
        0x00000748:    d1f7        ..      BNE      0x73a ; pulse0_Handler + 146
        0x0000074a:    7020         p      STRB     r0,[r4,#0]
        0x0000074c:    4d2b        +M      LDR      r5,[pc,#172] ; [0x7fc] = 0x20000524
        0x0000074e:    354c        L5      ADDS     r5,r5,#0x4c
        0x00000750:    f8150020    .. .    LDRB     r0,[r5,r0,LSL #2]
        0x00000754:    f000fb0a    ....    BL       set_pulse0_00 ; 0xd6c
        0x00000758:    7820         x      LDRB     r0,[r4,#0]
        0x0000075a:    eb050080    ....    ADD      r0,r5,r0,LSL #2
        0x0000075e:    7840        @x      LDRB     r0,[r0,#1]
        0x00000760:    f000fb0a    ....    BL       set_pulse0_01 ; 0xd78
        0x00000764:    7820         x      LDRB     r0,[r4,#0]
        0x00000766:    eb050080    ....    ADD      r0,r5,r0,LSL #2
        0x0000076a:    7880        .x      LDRB     r0,[r0,#2]
        0x0000076c:    f000fb0a    ....    BL       set_pulse0_10 ; 0xd84
        0x00000770:    7820         x      LDRB     r0,[r4,#0]
        0x00000772:    eb050080    ....    ADD      r0,r5,r0,LSL #2
        0x00000776:    78c0        .x      LDRB     r0,[r0,#3]
        0x00000778:    f000fb0a    ....    BL       set_pulse0_11 ; 0xd90
        0x0000077c:    7820         x      LDRB     r0,[r4,#0]
        0x0000077e:    283e        >(      CMP      r0,#0x3e
        0x00000780:    d3db        ..      BCC      0x73a ; pulse0_Handler + 146
        0x00000782:    7026        &p      STRB     r6,[r4,#0]
        0x00000784:    bd70        p.      POP      {r4-r6,pc}
        0x00000786:    7020         p      STRB     r0,[r4,#0]
        0x00000788:    4d1c        .M      LDR      r5,[pc,#112] ; [0x7fc] = 0x20000524
        0x0000078a:    3d70        p=      SUBS     r5,r5,#0x70
        0x0000078c:    f8150030    ..0.    LDRB     r0,[r5,r0,LSL #3]
        0x00000790:    f000faec    ....    BL       set_pulse0_00 ; 0xd6c
        0x00000794:    7820         x      LDRB     r0,[r4,#0]
        0x00000796:    eb0500c0    ....    ADD      r0,r5,r0,LSL #3
        0x0000079a:    7840        @x      LDRB     r0,[r0,#1]
        0x0000079c:    f000faec    ....    BL       set_pulse0_01 ; 0xd78
        0x000007a0:    7820         x      LDRB     r0,[r4,#0]
        0x000007a2:    eb0500c0    ....    ADD      r0,r5,r0,LSL #3
        0x000007a6:    7880        .x      LDRB     r0,[r0,#2]
        0x000007a8:    f000faec    ....    BL       set_pulse0_10 ; 0xd84
        0x000007ac:    7820         x      LDRB     r0,[r4,#0]
        0x000007ae:    eb0500c0    ....    ADD      r0,r5,r0,LSL #3
        0x000007b2:    78c0        .x      LDRB     r0,[r0,#3]
        0x000007b4:    f000faec    ....    BL       set_pulse0_11 ; 0xd90
        0x000007b8:    7820         x      LDRB     r0,[r4,#0]
        0x000007ba:    eb0500c0    ....    ADD      r0,r5,r0,LSL #3
        0x000007be:    7900        .y      LDRB     r0,[r0,#4]
        0x000007c0:    f000faec    ....    BL       set_pulse1_00 ; 0xd9c
        0x000007c4:    7820         x      LDRB     r0,[r4,#0]
        0x000007c6:    eb0500c0    ....    ADD      r0,r5,r0,LSL #3
        0x000007ca:    7940        @y      LDRB     r0,[r0,#5]
        0x000007cc:    f000faec    ....    BL       set_pulse1_01 ; 0xda8
        0x000007d0:    7820         x      LDRB     r0,[r4,#0]
        0x000007d2:    eb0500c0    ....    ADD      r0,r5,r0,LSL #3
        0x000007d6:    7980        .y      LDRB     r0,[r0,#6]
        0x000007d8:    f000faec    ....    BL       set_pulse1_10 ; 0xdb4
        0x000007dc:    7820         x      LDRB     r0,[r4,#0]
        0x000007de:    eb0500c0    ....    ADD      r0,r5,r0,LSL #3
        0x000007e2:    79c0        .y      LDRB     r0,[r0,#7]
        0x000007e4:    f000faec    ....    BL       set_pulse1_11 ; 0xdc0
        0x000007e8:    7820         x      LDRB     r0,[r4,#0]
        0x000007ea:    280d        .(      CMP      r0,#0xd
        0x000007ec:    d9ca        ..      BLS      0x784 ; pulse0_Handler + 220
        0x000007ee:    7026        &p      STRB     r6,[r4,#0]
        0x000007f0:    bd70        p.      POP      {r4-r6,pc}
    $d
        0x000007f2:    0000        ..      DCW    0
        0x000007f4:    20000001    ...     DCD    536870913
        0x000007f8:    2000000a    ...     DCD    536870922
        0x000007fc:    20000524    $..     DCD    536872228
        0x00000800:    20000400    ...     DCD    536871936
        0x00000804:    20000678    x..     DCD    536872568
        0x00000808:    2000000e    ...     DCD    536870926
    $t
    i.pulse1_Handler
    pulse1_Handler
        0x0000080c:    4770        pG      BX       lr
        0x0000080e:    0000        ..      MOVS     r0,r0
    i.read_cnn_result
    read_cnn_result
        0x00000810:    4801        .H      LDR      r0,[pc,#4] ; [0x818] = 0x40006000
        0x00000812:    6800        .h      LDR      r0,[r0,#0]
        0x00000814:    4770        pG      BX       lr
    $d
        0x00000816:    0000        ..      DCW    0
        0x00000818:    40006000    .`.@    DCD    1073766400
    $t
    i.s_green_createOnePlane
    s_green_createOnePlane
        0x0000081c:    e92d41f0    -..A    PUSH     {r4-r8,lr}
        0x00000820:    460f        .F      MOV      r7,r1
        0x00000822:    4616        .F      MOV      r6,r2
        0x00000824:    461d        .F      MOV      r5,r3
        0x00000826:    2400        .$      MOVS     r4,#0
        0x00000828:    4950        PI      LDR      r1,[pc,#320] ; [0x96c] = 0xea5
        0x0000082a:    7809        .x      LDRB     r1,[r1,#0]
        0x0000082c:    e005        ..      B        0x83a ; s_green_createOnePlane + 30
        0x0000082e:    ebc41204    ....    RSB      r2,r4,r4,LSL #4
        0x00000832:    f8102012    ...     LDRB     r2,[r0,r2,LSL #1]
        0x00000836:    b122        ".      CBZ      r2,0x842 ; s_green_createOnePlane + 38
        0x00000838:    1c64        d.      ADDS     r4,r4,#1
        0x0000083a:    428c        .B      CMP      r4,r1
        0x0000083c:    dbf7        ..      BLT      0x82e ; s_green_createOnePlane + 18
        0x0000083e:    e8bd81f0    ....    POP      {r4-r8,pc}
        0x00000842:    ebc41104    ....    RSB      r1,r4,r4,LSL #4
        0x00000846:    2201        ."      MOVS     r2,#1
        0x00000848:    f8002011    ...     STRB     r2,[r0,r1,LSL #1]
        0x0000084c:    eb000441    ..A.    ADD      r4,r0,r1,LSL #1
        0x00000850:    f04f0800    O...    MOV      r8,#0
        0x00000854:    f8848001    ....    STRB     r8,[r4,#1]
        0x00000858:    f7fffc7e    ..~.    BL       rand ; 0x158
        0x0000085c:    2103        .!      MOVS     r1,#3
        0x0000085e:    fb90f2f1    ....    SDIV     r2,r0,r1
        0x00000862:    fb010012    ....    MLS      r0,r1,r2,r0
        0x00000866:    4240        @B      RSBS     r0,r0,#0
        0x00000868:    eb000080    ....    ADD      r0,r0,r0,LSL #2
        0x0000086c:    eb050080    ....    ADD      r0,r5,r0,LSL #2
        0x00000870:    383c        <8      SUBS     r0,r0,#0x3c
        0x00000872:    80a0        ..      STRH     r0,[r4,#4]
        0x00000874:    f8848007    ....    STRB     r8,[r4,#7]
        0x00000878:    f7fffc6e    ..n.    BL       rand ; 0x158
        0x0000087c:    eb0071d0    ...q    ADD      r1,r0,r0,LSR #31
        0x00000880:    f0210101    !...    BIC      r1,r1,#1
        0x00000884:    1a40        @.      SUBS     r0,r0,r1
        0x00000886:    7260        `r      STRB     r0,[r4,#9]
        0x00000888:    71a7        .q      STRB     r7,[r4,#6]
        0x0000088a:    79a0        .y      LDRB     r0,[r4,#6]
        0x0000088c:    271e        .'      MOVS     r7,#0x1e
        0x0000088e:    b350        P.      CBZ      r0,0x8e6 ; s_green_createOnePlane + 202
        0x00000890:    20f1        .       MOVS     r0,#0xf1
        0x00000892:    8060        `.      STRH     r0,[r4,#2]
        0x00000894:    2004        .       MOVS     r0,#4
        0x00000896:    7720         w      STRB     r0,[r4,#0x1c]
        0x00000898:    f7fffc5e    ..^.    BL       rand ; 0x158
        0x0000089c:    4240        @B      RSBS     r0,r0,#0
        0x0000089e:    eb0071d0    ...q    ADD      r1,r0,r0,LSR #31
        0x000008a2:    f0210101    !...    BIC      r1,r1,#1
        0x000008a6:    1a40        @.      SUBS     r0,r0,r1
        0x000008a8:    1e80        ..      SUBS     r0,r0,#2
        0x000008aa:    7220         r      STRB     r0,[r4,#8]
        0x000008ac:    f7fffc54    ..T.    BL       rand ; 0x158
        0x000008b0:    2114        .!      MOVS     r1,#0x14
        0x000008b2:    fb90f2f1    ....    SDIV     r2,r0,r1
        0x000008b6:    fb010012    ....    MLS      r0,r1,r2,r0
        0x000008ba:    4430        0D      ADD      r0,r0,r6
        0x000008bc:    3032        20      ADDS     r0,r0,#0x32
        0x000008be:    81a0        ..      STRH     r0,[r4,#0xc]
        0x000008c0:    89a0        ..      LDRH     r0,[r4,#0xc]
        0x000008c2:    383c        <8      SUBS     r0,r0,#0x3c
        0x000008c4:    81e0        ..      STRH     r0,[r4,#0xe]
        0x000008c6:    3d14        .=      SUBS     r5,r5,#0x14
        0x000008c8:    8225        %.      STRH     r5,[r4,#0x10]
        0x000008ca:    f7fffc45    ..E.    BL       rand ; 0x158
        0x000008ce:    fb90f1f7    ....    SDIV     r1,r0,r7
        0x000008d2:    fb070011    ....    MLS      r0,r7,r1,r0
        0x000008d6:    8a21        !.      LDRH     r1,[r4,#0x10]
        0x000008d8:    3014        .0      ADDS     r0,r0,#0x14
        0x000008da:    4408        .D      ADD      r0,r0,r1
        0x000008dc:    8260        `.      STRH     r0,[r4,#0x12]
        0x000008de:    89e0        ..      LDRH     r0,[r4,#0xe]
        0x000008e0:    301e        .0      ADDS     r0,r0,#0x1e
        0x000008e2:    82a0        ..      STRH     r0,[r4,#0x14]
        0x000008e4:    e7ab        ..      B        0x83e ; s_green_createOnePlane + 34
        0x000008e6:    200f        .       MOVS     r0,#0xf
        0x000008e8:    8060        `.      STRH     r0,[r4,#2]
        0x000008ea:    f884801c    ....    STRB     r8,[r4,#0x1c]
        0x000008ee:    f7fffc33    ..3.    BL       rand ; 0x158
        0x000008f2:    eb0071d0    ...q    ADD      r1,r0,r0,LSR #31
        0x000008f6:    f0210101    !...    BIC      r1,r1,#1
        0x000008fa:    1a40        @.      SUBS     r0,r0,r1
        0x000008fc:    1c80        ..      ADDS     r0,r0,#2
        0x000008fe:    7220         r      STRB     r0,[r4,#8]
        0x00000900:    f7fffc2a    ..*.    BL       rand ; 0x158
        0x00000904:    eb000080    ....    ADD      r0,r0,r0,LSL #2
        0x00000908:    0040        @.      LSLS     r0,r0,#1
        0x0000090a:    eb0071d0    ...q    ADD      r1,r0,r0,LSR #31
        0x0000090e:    f0210101    !...    BIC      r1,r1,#1
        0x00000912:    1a40        @.      SUBS     r0,r0,r1
        0x00000914:    4430        0D      ADD      r0,r0,r6
        0x00000916:    3832        28      SUBS     r0,r0,#0x32
        0x00000918:    81a0        ..      STRH     r0,[r4,#0xc]
        0x0000091a:    f7fffc1d    ....    BL       rand ; 0x158
        0x0000091e:    eb000080    ....    ADD      r0,r0,r0,LSL #2
        0x00000922:    0080        ..      LSLS     r0,r0,#2
        0x00000924:    eb0071d0    ...q    ADD      r1,r0,r0,LSR #31
        0x00000928:    f0210101    !...    BIC      r1,r1,#1
        0x0000092c:    1a40        @.      SUBS     r0,r0,r1
        0x0000092e:    89a1        ..      LDRH     r1,[r4,#0xc]
        0x00000930:    301e        .0      ADDS     r0,r0,#0x1e
        0x00000932:    4408        .D      ADD      r0,r0,r1
        0x00000934:    81e0        ..      STRH     r0,[r4,#0xe]
        0x00000936:    f7fffc0f    ....    BL       rand ; 0x158
        0x0000093a:    eb000080    ....    ADD      r0,r0,r0,LSL #2
        0x0000093e:    0080        ..      LSLS     r0,r0,#2
        0x00000940:    eb0071d0    ...q    ADD      r1,r0,r0,LSR #31
        0x00000944:    f0210101    !...    BIC      r1,r1,#1
        0x00000948:    1a40        @.      SUBS     r0,r0,r1
        0x0000094a:    1a28        (.      SUBS     r0,r5,r0
        0x0000094c:    3814        .8      SUBS     r0,r0,#0x14
        0x0000094e:    8220         .      STRH     r0,[r4,#0x10]
        0x00000950:    f7fffc02    ....    BL       rand ; 0x158
        0x00000954:    fb90f1f7    ....    SDIV     r1,r0,r7
        0x00000958:    fb070011    ....    MLS      r0,r7,r1,r0
        0x0000095c:    8a21        !.      LDRH     r1,[r4,#0x10]
        0x0000095e:    3014        .0      ADDS     r0,r0,#0x14
        0x00000960:    4408        .D      ADD      r0,r0,r1
        0x00000962:    8260        `.      STRH     r0,[r4,#0x12]
        0x00000964:    89e0        ..      LDRH     r0,[r4,#0xe]
        0x00000966:    381e        .8      SUBS     r0,r0,#0x1e
        0x00000968:    82a0        ..      STRH     r0,[r4,#0x14]
        0x0000096a:    e768        h.      B        0x83e ; s_green_createOnePlane + 34
    $d
        0x0000096c:    00000ea5    ....    DCD    3749
    $t
    i.s_green_createPlane_221
    s_green_createPlane_221
        0x00000970:    e92d41f0    -..A    PUSH     {r4-r8,lr}
        0x00000974:    4606        .F      MOV      r6,r0
        0x00000976:    460f        .F      MOV      r7,r1
        0x00000978:    4615        .F      MOV      r5,r2
        0x0000097a:    f7fffbed    ....    BL       rand ; 0x158
        0x0000097e:    eb0071d0    ...q    ADD      r1,r0,r0,LSR #31
        0x00000982:    f0210101    !...    BIC      r1,r1,#1
        0x00000986:    1a40        @.      SUBS     r0,r0,r1
        0x00000988:    b2c4        ..      UXTB     r4,r0
        0x0000098a:    462b        +F      MOV      r3,r5
        0x0000098c:    463a        :F      MOV      r2,r7
        0x0000098e:    4621        !F      MOV      r1,r4
        0x00000990:    4630        0F      MOV      r0,r6
        0x00000992:    f7ffff43    ..C.    BL       s_green_createOnePlane ; 0x81c
        0x00000996:    3514        .5      ADDS     r5,r5,#0x14
        0x00000998:    b22b        +.      SXTH     r3,r5
        0x0000099a:    463a        :F      MOV      r2,r7
        0x0000099c:    4621        !F      MOV      r1,r4
        0x0000099e:    4630        0F      MOV      r0,r6
        0x000009a0:    e8bd41f0    ...A    POP      {r4-r8,lr}
        0x000009a4:    f7ffbf3a    ..:.    B.W      s_green_createOnePlane ; 0x81c
    i.s_green_createPlane_222
    s_green_createPlane_222
        0x000009a8:    e92d41f0    -..A    PUSH     {r4-r8,lr}
        0x000009ac:    4607        .F      MOV      r7,r0
        0x000009ae:    460d        .F      MOV      r5,r1
        0x000009b0:    4616        .F      MOV      r6,r2
        0x000009b2:    f7fffbd1    ....    BL       rand ; 0x158
        0x000009b6:    eb0071d0    ...q    ADD      r1,r0,r0,LSR #31
        0x000009ba:    f0210101    !...    BIC      r1,r1,#1
        0x000009be:    1a40        @.      SUBS     r0,r0,r1
        0x000009c0:    b2c1        ..      UXTB     r1,r0
        0x000009c2:    2901        .)      CMP      r1,#1
        0x000009c4:    d001        ..      BEQ      0x9ca ; s_green_createPlane_222 + 34
        0x000009c6:    2401        .$      MOVS     r4,#1
        0x000009c8:    e000        ..      B        0x9cc ; s_green_createPlane_222 + 36
        0x000009ca:    2400        .$      MOVS     r4,#0
        0x000009cc:    4633        3F      MOV      r3,r6
        0x000009ce:    462a        *F      MOV      r2,r5
        0x000009d0:    4638        8F      MOV      r0,r7
        0x000009d2:    f7ffff23    ..#.    BL       s_green_createOnePlane ; 0x81c
        0x000009d6:    4633        3F      MOV      r3,r6
        0x000009d8:    462a        *F      MOV      r2,r5
        0x000009da:    4621        !F      MOV      r1,r4
        0x000009dc:    4638        8F      MOV      r0,r7
        0x000009de:    e8bd41f0    ...A    POP      {r4-r8,lr}
        0x000009e2:    f7ffbf1b    ....    B.W      s_green_createOnePlane ; 0x81c
    i.s_green_createPlane_243
    s_green_createPlane_243
        0x000009e6:    e92d41f0    -..A    PUSH     {r4-r8,lr}
        0x000009ea:    4606        .F      MOV      r6,r0
        0x000009ec:    460f        .F      MOV      r7,r1
        0x000009ee:    4615        .F      MOV      r5,r2
        0x000009f0:    462a        *F      MOV      r2,r5
        0x000009f2:    4639        9F      MOV      r1,r7
        0x000009f4:    4630        0F      MOV      r0,r6
        0x000009f6:    f7ffffd7    ....    BL       s_green_createPlane_222 ; 0x9a8
        0x000009fa:    f7fffbad    ....    BL       rand ; 0x158
        0x000009fe:    eb0071d0    ...q    ADD      r1,r0,r0,LSR #31
        0x00000a02:    f0210101    !...    BIC      r1,r1,#1
        0x00000a06:    1a40        @.      SUBS     r0,r0,r1
        0x00000a08:    b2c4        ..      UXTB     r4,r0
        0x00000a0a:    f7fffba5    ....    BL       rand ; 0x158
        0x00000a0e:    eb0071d0    ...q    ADD      r1,r0,r0,LSR #31
        0x00000a12:    f0210101    !...    BIC      r1,r1,#1
        0x00000a16:    1a40        @.      SUBS     r0,r0,r1
        0x00000a18:    f00008ff    ....    AND      r8,r0,#0xff
        0x00000a1c:    462b        +F      MOV      r3,r5
        0x00000a1e:    463a        :F      MOV      r2,r7
        0x00000a20:    4621        !F      MOV      r1,r4
        0x00000a22:    4630        0F      MOV      r0,r6
        0x00000a24:    f7fffefa    ....    BL       s_green_createOnePlane ; 0x81c
        0x00000a28:    462b        +F      MOV      r3,r5
        0x00000a2a:    463a        :F      MOV      r2,r7
        0x00000a2c:    4641        AF      MOV      r1,r8
        0x00000a2e:    4630        0F      MOV      r0,r6
        0x00000a30:    e8bd41f0    ...A    POP      {r4-r8,lr}
        0x00000a34:    f7ffbef2    ....    B.W      s_green_createOnePlane ; 0x81c
    i.s_green_createPlane_411
    s_green_createPlane_411
        0x00000a38:    b510        ..      PUSH     {r4,lr}
        0x00000a3a:    4604        .F      MOV      r4,r0
        0x00000a3c:    f7fffb8c    ....    BL       rand ; 0x158
        0x00000a40:    eb0071d0    ...q    ADD      r1,r0,r0,LSR #31
        0x00000a44:    f0210101    !...    BIC      r1,r1,#1
        0x00000a48:    1a40        @.      SUBS     r0,r0,r1
        0x00000a4a:    b2c0        ..      UXTB     r0,r0
        0x00000a4c:    b128        (.      CBZ      r0,0xa5a ; s_green_createPlane_411 + 34
        0x00000a4e:    21d0        .!      MOVS     r1,#0xd0
        0x00000a50:    4620         F      MOV      r0,r4
        0x00000a52:    e8bd4010    ...@    POP      {r4,lr}
        0x00000a56:    f7ffbdc7    ....    B.W      m_straight_createOnePlane ; 0x5e8
        0x00000a5a:    2130        0!      MOVS     r1,#0x30
        0x00000a5c:    e7f8        ..      B        0xa50 ; s_green_createPlane_411 + 24
    i.s_green_createPlane_422
    s_green_createPlane_422
        0x00000a5e:    b570        p.      PUSH     {r4-r6,lr}
        0x00000a60:    4605        .F      MOV      r5,r0
        0x00000a62:    f7fffb79    ..y.    BL       rand ; 0x158
        0x00000a66:    eb0071d0    ...q    ADD      r1,r0,r0,LSR #31
        0x00000a6a:    f0210101    !...    BIC      r1,r1,#1
        0x00000a6e:    1a40        @.      SUBS     r0,r0,r1
        0x00000a70:    b2c4        ..      UXTB     r4,r0
        0x00000a72:    b15c        \.      CBZ      r4,0xa8c ; s_green_createPlane_422 + 46
        0x00000a74:    21d0        .!      MOVS     r1,#0xd0
        0x00000a76:    4628        (F      MOV      r0,r5
        0x00000a78:    f7fffdb6    ....    BL       m_straight_createOnePlane ; 0x5e8
        0x00000a7c:    2c01        .,      CMP      r4,#1
        0x00000a7e:    d007        ..      BEQ      0xa90 ; s_green_createPlane_422 + 50
        0x00000a80:    21d0        .!      MOVS     r1,#0xd0
        0x00000a82:    4628        (F      MOV      r0,r5
        0x00000a84:    e8bd4070    ..p@    POP      {r4-r6,lr}
        0x00000a88:    f7ffbdae    ....    B.W      m_straight_createOnePlane ; 0x5e8
        0x00000a8c:    2130        0!      MOVS     r1,#0x30
        0x00000a8e:    e7f2        ..      B        0xa76 ; s_green_createPlane_422 + 24
        0x00000a90:    2130        0!      MOVS     r1,#0x30
        0x00000a92:    e7f6        ..      B        0xa82 ; s_green_createPlane_422 + 36
    i.s_grey_createOnePlane
    s_grey_createOnePlane
        0x00000a94:    e92d41f0    -..A    PUSH     {r4-r8,lr}
        0x00000a98:    460d        .F      MOV      r5,r1
        0x00000a9a:    2200        ."      MOVS     r2,#0
        0x00000a9c:    4928        (I      LDR      r1,[pc,#160] ; [0xb40] = 0xea4
        0x00000a9e:    780b        .x      LDRB     r3,[r1,#0]
        0x00000aa0:    e004        ..      B        0xaac ; s_grey_createOnePlane + 24
        0x00000aa2:    eb001102    ....    ADD      r1,r0,r2,LSL #4
        0x00000aa6:    7809        .x      LDRB     r1,[r1,#0]
        0x00000aa8:    b121        !.      CBZ      r1,0xab4 ; s_grey_createOnePlane + 32
        0x00000aaa:    1c52        R.      ADDS     r2,r2,#1
        0x00000aac:    429a        .B      CMP      r2,r3
        0x00000aae:    dbf8        ..      BLT      0xaa2 ; s_grey_createOnePlane + 14
        0x00000ab0:    e8bd81f0    ....    POP      {r4-r8,pc}
        0x00000ab4:    eb001402    ....    ADD      r4,r0,r2,LSL #4
        0x00000ab8:    2601        .&      MOVS     r6,#1
        0x00000aba:    7066        fp      STRB     r6,[r4,#1]
        0x00000abc:    7026        &p      STRB     r6,[r4,#0]
        0x00000abe:    2700        .'      MOVS     r7,#0
        0x00000ac0:    73e7        .s      STRB     r7,[r4,#0xf]
        0x00000ac2:    70a7        .p      STRB     r7,[r4,#2]
        0x00000ac4:    72a7        .r      STRB     r7,[r4,#0xa]
        0x00000ac6:    f7fffb47    ..G.    BL       rand ; 0x158
        0x00000aca:    eb0071d0    ...q    ADD      r1,r0,r0,LSR #31
        0x00000ace:    f0210101    !...    BIC      r1,r1,#1
        0x00000ad2:    1a40        @.      SUBS     r0,r0,r1
        0x00000ad4:    7260        `r      STRB     r0,[r4,#9]
        0x00000ad6:    7226        &r      STRB     r6,[r4,#8]
        0x00000ad8:    88a8        ..      LDRH     r0,[r5,#4]
        0x00000ada:    80a0        ..      STRH     r0,[r4,#4]
        0x00000adc:    f7fffb3c    ..<.    BL       rand ; 0x158
        0x00000ae0:    eb0071d0    ...q    ADD      r1,r0,r0,LSR #31
        0x00000ae4:    f0210101    !...    BIC      r1,r1,#1
        0x00000ae8:    1a40        @.      SUBS     r0,r0,r1
        0x00000aea:    eb000080    ....    ADD      r0,r0,r0,LSL #2
        0x00000aee:    210f        .!      MOVS     r1,#0xf
        0x00000af0:    eb010040    ..@.    ADD      r0,r1,r0,LSL #1
        0x00000af4:    80e0        ..      STRH     r0,[r4,#6]
        0x00000af6:    7ae8        .z      LDRB     r0,[r5,#0xb]
        0x00000af8:    72e0        .r      STRB     r0,[r4,#0xb]
        0x00000afa:    7ae0        .z      LDRB     r0,[r4,#0xb]
        0x00000afc:    2602        .&      MOVS     r6,#2
        0x00000afe:    2503        .%      MOVS     r5,#3
        0x00000b00:    2804        .(      CMP      r0,#4
        0x00000b02:    d009        ..      BEQ      0xb18 ; s_grey_createOnePlane + 132
        0x00000b04:    7ae0        .z      LDRB     r0,[r4,#0xb]
        0x00000b06:    2805        .(      CMP      r0,#5
        0x00000b08:    d015        ..      BEQ      0xb36 ; s_grey_createOnePlane + 162
        0x00000b0a:    7ae0        .z      LDRB     r0,[r4,#0xb]
        0x00000b0c:    2806        .(      CMP      r0,#6
        0x00000b0e:    d1cf        ..      BNE      0xab0 ; s_grey_createOnePlane + 28
        0x00000b10:    7326        &s      STRB     r6,[r4,#0xc]
        0x00000b12:    7365        es      STRB     r5,[r4,#0xd]
        0x00000b14:    73a5        .s      STRB     r5,[r4,#0xe]
        0x00000b16:    e7cb        ..      B        0xab0 ; s_grey_createOnePlane + 28
        0x00000b18:    7327        's      STRB     r7,[r4,#0xc]
        0x00000b1a:    7365        es      STRB     r5,[r4,#0xd]
        0x00000b1c:    f7fffb1c    ....    BL       rand ; 0x158
        0x00000b20:    eb0071d0    ...q    ADD      r1,r0,r0,LSR #31
        0x00000b24:    f0210101    !...    BIC      r1,r1,#1
        0x00000b28:    1a40        @.      SUBS     r0,r0,r1
        0x00000b2a:    b2c0        ..      UXTB     r0,r0
        0x00000b2c:    b108        ..      CBZ      r0,0xb32 ; s_grey_createOnePlane + 158
        0x00000b2e:    73a5        .s      STRB     r5,[r4,#0xe]
        0x00000b30:    e7be        ..      B        0xab0 ; s_grey_createOnePlane + 28
        0x00000b32:    73a6        .s      STRB     r6,[r4,#0xe]
        0x00000b34:    e7bc        ..      B        0xab0 ; s_grey_createOnePlane + 28
        0x00000b36:    20fe        .       MOVS     r0,#0xfe
        0x00000b38:    7320         s      STRB     r0,[r4,#0xc]
        0x00000b3a:    7365        es      STRB     r5,[r4,#0xd]
        0x00000b3c:    73a6        .s      STRB     r6,[r4,#0xe]
        0x00000b3e:    e7b7        ..      B        0xab0 ; s_grey_createOnePlane + 28
    $d
        0x00000b40:    00000ea4    ....    DCD    3748
    $t
    i.s_grey_createPlane_111
    s_grey_createPlane_111
        0x00000b44:    b520         .      PUSH     {r5,lr}
        0x00000b46:    4605        .F      MOV      r5,r0
        0x00000b48:    f7fffb06    ....    BL       rand ; 0x158
        0x00000b4c:    21aa        .!      MOVS     r1,#0xaa
        0x00000b4e:    fb90f2f1    ....    SDIV     r2,r0,r1
        0x00000b52:    fb010012    ....    MLS      r0,r1,r2,r0
        0x00000b56:    1d40        @.      ADDS     r0,r0,#5
        0x00000b58:    80a0        ..      STRH     r0,[r4,#4]
        0x00000b5a:    f9b40004    ....    LDRSH    r0,[r4,#4]
        0x00000b5e:    2805        .(      CMP      r0,#5
        0x00000b60:    dd06        ..      BLE      0xb70 ; s_grey_createPlane_111 + 44
        0x00000b62:    f9b40004    ....    LDRSH    r0,[r4,#4]
        0x00000b66:    2855        U(      CMP      r0,#0x55
        0x00000b68:    da02        ..      BGE      0xb70 ; s_grey_createPlane_111 + 44
        0x00000b6a:    2006        .       MOVS     r0,#6
        0x00000b6c:    72e0        .r      STRB     r0,[r4,#0xb]
        0x00000b6e:    e00c        ..      B        0xb8a ; s_grey_createPlane_111 + 70
        0x00000b70:    f9b40004    ....    LDRSH    r0,[r4,#4]
        0x00000b74:    28ab        .(      CMP      r0,#0xab
        0x00000b76:    dd06        ..      BLE      0xb86 ; s_grey_createPlane_111 + 66
        0x00000b78:    f9b40004    ....    LDRSH    r0,[r4,#4]
        0x00000b7c:    28fb        .(      CMP      r0,#0xfb
        0x00000b7e:    da02        ..      BGE      0xb86 ; s_grey_createPlane_111 + 66
        0x00000b80:    2005        .       MOVS     r0,#5
        0x00000b82:    72e0        .r      STRB     r0,[r4,#0xb]
        0x00000b84:    e001        ..      B        0xb8a ; s_grey_createPlane_111 + 70
        0x00000b86:    2004        .       MOVS     r0,#4
        0x00000b88:    72e0        .r      STRB     r0,[r4,#0xb]
        0x00000b8a:    4628        (F      MOV      r0,r5
        0x00000b8c:    2300        .#      MOVS     r3,#0
        0x00000b8e:    e8bd4020    .. @    POP      {r5,lr}
        0x00000b92:    461a        .F      MOV      r2,r3
        0x00000b94:    4621        !F      MOV      r1,r4
        0x00000b96:    f7ffbf7d    ..}.    B.W      s_grey_createOnePlane ; 0xa94
    i.s_grey_createPlane_122
    s_grey_createPlane_122
        0x00000b9a:    b570        p.      PUSH     {r4-r6,lr}
        0x00000b9c:    4606        .F      MOV      r6,r0
        0x00000b9e:    f7fffadb    ....    BL       rand ; 0x158
        0x00000ba2:    21aa        .!      MOVS     r1,#0xaa
        0x00000ba4:    fb90f2f1    ....    SDIV     r2,r0,r1
        0x00000ba8:    fb010512    ....    MLS      r5,r1,r2,r0
        0x00000bac:    3519        .5      ADDS     r5,r5,#0x19
        0x00000bae:    80a5        ..      STRH     r5,[r4,#4]
        0x00000bb0:    2004        .       MOVS     r0,#4
        0x00000bb2:    72e0        .r      STRB     r0,[r4,#0xb]
        0x00000bb4:    2300        .#      MOVS     r3,#0
        0x00000bb6:    461a        .F      MOV      r2,r3
        0x00000bb8:    4621        !F      MOV      r1,r4
        0x00000bba:    4630        0F      MOV      r0,r6
        0x00000bbc:    f7ffff6a    ..j.    BL       s_grey_createOnePlane ; 0xa94
        0x00000bc0:    3514        .5      ADDS     r5,r5,#0x14
        0x00000bc2:    80a5        ..      STRH     r5,[r4,#4]
        0x00000bc4:    4621        !F      MOV      r1,r4
        0x00000bc6:    4630        0F      MOV      r0,r6
        0x00000bc8:    e8bd4070    ..p@    POP      {r4-r6,lr}
        0x00000bcc:    2300        .#      MOVS     r3,#0
        0x00000bce:    461a        .F      MOV      r2,r3
        0x00000bd0:    f7ffbf60    ..`.    B.W      s_grey_createOnePlane ; 0xa94
    i.s_grey_createPlane_123
    s_grey_createPlane_123
        0x00000bd4:    b5e0        ..      PUSH     {r5-r7,lr}
        0x00000bd6:    4607        .F      MOV      r7,r0
        0x00000bd8:    f7fffabe    ....    BL       rand ; 0x158
        0x00000bdc:    21aa        .!      MOVS     r1,#0xaa
        0x00000bde:    fb90f2f1    ....    SDIV     r2,r0,r1
        0x00000be2:    fb010012    ....    MLS      r0,r1,r2,r0
        0x00000be6:    1d40        @.      ADDS     r0,r0,#5
        0x00000be8:    80a0        ..      STRH     r0,[r4,#4]
        0x00000bea:    f9b40004    ....    LDRSH    r0,[r4,#4]
        0x00000bee:    2506        .%      MOVS     r5,#6
        0x00000bf0:    2605        .&      MOVS     r6,#5
        0x00000bf2:    2805        .(      CMP      r0,#5
        0x00000bf4:    dd05        ..      BLE      0xc02 ; s_grey_createPlane_123 + 46
        0x00000bf6:    f9b40004    ....    LDRSH    r0,[r4,#4]
        0x00000bfa:    2855        U(      CMP      r0,#0x55
        0x00000bfc:    da01        ..      BGE      0xc02 ; s_grey_createPlane_123 + 46
        0x00000bfe:    72e5        .r      STRB     r5,[r4,#0xb]
        0x00000c00:    e00b        ..      B        0xc1a ; s_grey_createPlane_123 + 70
        0x00000c02:    f9b40004    ....    LDRSH    r0,[r4,#4]
        0x00000c06:    28ab        .(      CMP      r0,#0xab
        0x00000c08:    dd05        ..      BLE      0xc16 ; s_grey_createPlane_123 + 66
        0x00000c0a:    f9b40004    ....    LDRSH    r0,[r4,#4]
        0x00000c0e:    28fb        .(      CMP      r0,#0xfb
        0x00000c10:    da01        ..      BGE      0xc16 ; s_grey_createPlane_123 + 66
        0x00000c12:    72e6        .r      STRB     r6,[r4,#0xb]
        0x00000c14:    e001        ..      B        0xc1a ; s_grey_createPlane_123 + 70
        0x00000c16:    2004        .       MOVS     r0,#4
        0x00000c18:    72e0        .r      STRB     r0,[r4,#0xb]
        0x00000c1a:    2300        .#      MOVS     r3,#0
        0x00000c1c:    461a        .F      MOV      r2,r3
        0x00000c1e:    4621        !F      MOV      r1,r4
        0x00000c20:    4638        8F      MOV      r0,r7
        0x00000c22:    f7ffff37    ..7.    BL       s_grey_createOnePlane ; 0xa94
        0x00000c26:    f9b40004    ....    LDRSH    r0,[r4,#4]
        0x00000c2a:    f5c07080    ...p    RSB      r0,r0,#0x100
        0x00000c2e:    80a0        ..      STRH     r0,[r4,#4]
        0x00000c30:    7ae0        .z      LDRB     r0,[r4,#0xb]
        0x00000c32:    2806        .(      CMP      r0,#6
        0x00000c34:    d003        ..      BEQ      0xc3e ; s_grey_createPlane_123 + 106
        0x00000c36:    7ae0        .z      LDRB     r0,[r4,#0xb]
        0x00000c38:    2805        .(      CMP      r0,#5
        0x00000c3a:    d002        ..      BEQ      0xc42 ; s_grey_createPlane_123 + 110
        0x00000c3c:    e002        ..      B        0xc44 ; s_grey_createPlane_123 + 112
        0x00000c3e:    72e6        .r      STRB     r6,[r4,#0xb]
        0x00000c40:    e000        ..      B        0xc44 ; s_grey_createPlane_123 + 112
        0x00000c42:    72e5        .r      STRB     r5,[r4,#0xb]
        0x00000c44:    4638        8F      MOV      r0,r7
        0x00000c46:    e8bd40e0    ...@    POP      {r5-r7,lr}
        0x00000c4a:    2300        .#      MOVS     r3,#0
        0x00000c4c:    461a        .F      MOV      r2,r3
        0x00000c4e:    4621        !F      MOV      r1,r4
        0x00000c50:    f7ffbf20    .. .    B.W      s_grey_createOnePlane ; 0xa94
    i.s_grey_createPlane_144
    s_grey_createPlane_144
        0x00000c54:    b570        p.      PUSH     {r4-r6,lr}
        0x00000c56:    4606        .F      MOV      r6,r0
        0x00000c58:    f7fffa7e    ..~.    BL       rand ; 0x158
        0x00000c5c:    21aa        .!      MOVS     r1,#0xaa
        0x00000c5e:    fb90f2f1    ....    SDIV     r2,r0,r1
        0x00000c62:    fb010512    ....    MLS      r5,r1,r2,r0
        0x00000c66:    3519        .5      ADDS     r5,r5,#0x19
        0x00000c68:    80a5        ..      STRH     r5,[r4,#4]
        0x00000c6a:    2004        .       MOVS     r0,#4
        0x00000c6c:    72e0        .r      STRB     r0,[r4,#0xb]
        0x00000c6e:    2300        .#      MOVS     r3,#0
        0x00000c70:    461a        .F      MOV      r2,r3
        0x00000c72:    4621        !F      MOV      r1,r4
        0x00000c74:    4630        0F      MOV      r0,r6
        0x00000c76:    f7ffff0d    ....    BL       s_grey_createOnePlane ; 0xa94
        0x00000c7a:    f1050014    ....    ADD      r0,r5,#0x14
        0x00000c7e:    80a0        ..      STRH     r0,[r4,#4]
        0x00000c80:    2300        .#      MOVS     r3,#0
        0x00000c82:    461a        .F      MOV      r2,r3
        0x00000c84:    4621        !F      MOV      r1,r4
        0x00000c86:    4630        0F      MOV      r0,r6
        0x00000c88:    f7ffff04    ....    BL       s_grey_createOnePlane ; 0xa94
        0x00000c8c:    f1050028    ..(.    ADD      r0,r5,#0x28
        0x00000c90:    80a0        ..      STRH     r0,[r4,#4]
        0x00000c92:    2300        .#      MOVS     r3,#0
        0x00000c94:    461a        .F      MOV      r2,r3
        0x00000c96:    4621        !F      MOV      r1,r4
        0x00000c98:    4630        0F      MOV      r0,r6
        0x00000c9a:    f7fffefb    ....    BL       s_grey_createOnePlane ; 0xa94
        0x00000c9e:    353c        <5      ADDS     r5,r5,#0x3c
        0x00000ca0:    80a5        ..      STRH     r5,[r4,#4]
        0x00000ca2:    4621        !F      MOV      r1,r4
        0x00000ca4:    4630        0F      MOV      r0,r6
        0x00000ca6:    e8bd4070    ..p@    POP      {r4-r6,lr}
        0x00000caa:    2300        .#      MOVS     r3,#0
        0x00000cac:    461a        .F      MOV      r2,r3
        0x00000cae:    f7ffbef1    ....    B.W      s_grey_createOnePlane ; 0xa94
    i.s_grey_createPlane_145
    s_grey_createPlane_145
        0x00000cb2:    b5e0        ..      PUSH     {r5-r7,lr}
        0x00000cb4:    4607        .F      MOV      r7,r0
        0x00000cb6:    f7fffa4f    ..O.    BL       rand ; 0x158
        0x00000cba:    21aa        .!      MOVS     r1,#0xaa
        0x00000cbc:    fb90f2f1    ....    SDIV     r2,r0,r1
        0x00000cc0:    fb010012    ....    MLS      r0,r1,r2,r0
        0x00000cc4:    1d40        @.      ADDS     r0,r0,#5
        0x00000cc6:    80a0        ..      STRH     r0,[r4,#4]
        0x00000cc8:    f9b40004    ....    LDRSH    r0,[r4,#4]
        0x00000ccc:    2506        .%      MOVS     r5,#6
        0x00000cce:    2605        .&      MOVS     r6,#5
        0x00000cd0:    2805        .(      CMP      r0,#5
        0x00000cd2:    dd05        ..      BLE      0xce0 ; s_grey_createPlane_145 + 46
        0x00000cd4:    f9b40004    ....    LDRSH    r0,[r4,#4]
        0x00000cd8:    2855        U(      CMP      r0,#0x55
        0x00000cda:    da01        ..      BGE      0xce0 ; s_grey_createPlane_145 + 46
        0x00000cdc:    72e5        .r      STRB     r5,[r4,#0xb]
        0x00000cde:    e00b        ..      B        0xcf8 ; s_grey_createPlane_145 + 70
        0x00000ce0:    f9b40004    ....    LDRSH    r0,[r4,#4]
        0x00000ce4:    28ab        .(      CMP      r0,#0xab
        0x00000ce6:    dd05        ..      BLE      0xcf4 ; s_grey_createPlane_145 + 66
        0x00000ce8:    f9b40004    ....    LDRSH    r0,[r4,#4]
        0x00000cec:    28fb        .(      CMP      r0,#0xfb
        0x00000cee:    da01        ..      BGE      0xcf4 ; s_grey_createPlane_145 + 66
        0x00000cf0:    72e6        .r      STRB     r6,[r4,#0xb]
        0x00000cf2:    e001        ..      B        0xcf8 ; s_grey_createPlane_145 + 70
        0x00000cf4:    2004        .       MOVS     r0,#4
        0x00000cf6:    72e0        .r      STRB     r0,[r4,#0xb]
        0x00000cf8:    2300        .#      MOVS     r3,#0
        0x00000cfa:    461a        .F      MOV      r2,r3
        0x00000cfc:    4621        !F      MOV      r1,r4
        0x00000cfe:    4638        8F      MOV      r0,r7
        0x00000d00:    f7fffec8    ....    BL       s_grey_createOnePlane ; 0xa94
        0x00000d04:    88a0        ..      LDRH     r0,[r4,#4]
        0x00000d06:    3014        .0      ADDS     r0,r0,#0x14
        0x00000d08:    80a0        ..      STRH     r0,[r4,#4]
        0x00000d0a:    2300        .#      MOVS     r3,#0
        0x00000d0c:    461a        .F      MOV      r2,r3
        0x00000d0e:    4621        !F      MOV      r1,r4
        0x00000d10:    4638        8F      MOV      r0,r7
        0x00000d12:    f7fffebf    ....    BL       s_grey_createOnePlane ; 0xa94
        0x00000d16:    f9b40004    ....    LDRSH    r0,[r4,#4]
        0x00000d1a:    f5c07080    ...p    RSB      r0,r0,#0x100
        0x00000d1e:    80a0        ..      STRH     r0,[r4,#4]
        0x00000d20:    7ae0        .z      LDRB     r0,[r4,#0xb]
        0x00000d22:    2806        .(      CMP      r0,#6
        0x00000d24:    d003        ..      BEQ      0xd2e ; s_grey_createPlane_145 + 124
        0x00000d26:    7ae0        .z      LDRB     r0,[r4,#0xb]
        0x00000d28:    2805        .(      CMP      r0,#5
        0x00000d2a:    d002        ..      BEQ      0xd32 ; s_grey_createPlane_145 + 128
        0x00000d2c:    e002        ..      B        0xd34 ; s_grey_createPlane_145 + 130
        0x00000d2e:    72e6        .r      STRB     r6,[r4,#0xb]
        0x00000d30:    e000        ..      B        0xd34 ; s_grey_createPlane_145 + 130
        0x00000d32:    72e5        .r      STRB     r5,[r4,#0xb]
        0x00000d34:    2300        .#      MOVS     r3,#0
        0x00000d36:    461a        .F      MOV      r2,r3
        0x00000d38:    4621        !F      MOV      r1,r4
        0x00000d3a:    4638        8F      MOV      r0,r7
        0x00000d3c:    f7fffeaa    ....    BL       s_grey_createOnePlane ; 0xa94
        0x00000d40:    88a0        ..      LDRH     r0,[r4,#4]
        0x00000d42:    3014        .0      ADDS     r0,r0,#0x14
        0x00000d44:    80a0        ..      STRH     r0,[r4,#4]
        0x00000d46:    4638        8F      MOV      r0,r7
        0x00000d48:    e8bd40e0    ...@    POP      {r5-r7,lr}
        0x00000d4c:    2300        .#      MOVS     r3,#0
        0x00000d4e:    461a        .F      MOV      r2,r3
        0x00000d50:    4621        !F      MOV      r1,r4
        0x00000d52:    f7ffbe9f    ....    B.W      s_grey_createOnePlane ; 0xa94
    i.s_grey_createPlane_166
    s_grey_createPlane_166
        0x00000d56:    b510        ..      PUSH     {r4,lr}
        0x00000d58:    4604        .F      MOV      r4,r0
        0x00000d5a:    4620         F      MOV      r0,r4
        0x00000d5c:    f7ffff7a    ..z.    BL       s_grey_createPlane_144 ; 0xc54
        0x00000d60:    4620         F      MOV      r0,r4
        0x00000d62:    e8bd4010    ...@    POP      {r4,lr}
        0x00000d66:    f7ffbf18    ....    B.W      s_grey_createPlane_122 ; 0xb9a
        0x00000d6a:    0000        ..      MOVS     r0,r0
    i.set_pulse0_00
    set_pulse0_00
        0x00000d6c:    4901        .I      LDR      r1,[pc,#4] ; [0xd74] = 0x50030000
        0x00000d6e:    7008        .p      STRB     r0,[r1,#0]
        0x00000d70:    4770        pG      BX       lr
    $d
        0x00000d72:    0000        ..      DCW    0
        0x00000d74:    50030000    ...P    DCD    1342373888
    $t
    i.set_pulse0_01
    set_pulse0_01
        0x00000d78:    4901        .I      LDR      r1,[pc,#4] ; [0xd80] = 0x50030000
        0x00000d7a:    7048        Hp      STRB     r0,[r1,#1]
        0x00000d7c:    4770        pG      BX       lr
    $d
        0x00000d7e:    0000        ..      DCW    0
        0x00000d80:    50030000    ...P    DCD    1342373888
    $t
    i.set_pulse0_10
    set_pulse0_10
        0x00000d84:    4901        .I      LDR      r1,[pc,#4] ; [0xd8c] = 0x50030000
        0x00000d86:    7088        .p      STRB     r0,[r1,#2]
        0x00000d88:    4770        pG      BX       lr
    $d
        0x00000d8a:    0000        ..      DCW    0
        0x00000d8c:    50030000    ...P    DCD    1342373888
    $t
    i.set_pulse0_11
    set_pulse0_11
        0x00000d90:    4901        .I      LDR      r1,[pc,#4] ; [0xd98] = 0x50030000
        0x00000d92:    70c8        .p      STRB     r0,[r1,#3]
        0x00000d94:    4770        pG      BX       lr
    $d
        0x00000d96:    0000        ..      DCW    0
        0x00000d98:    50030000    ...P    DCD    1342373888
    $t
    i.set_pulse1_00
    set_pulse1_00
        0x00000d9c:    4901        .I      LDR      r1,[pc,#4] ; [0xda4] = 0x50030000
        0x00000d9e:    7108        .q      STRB     r0,[r1,#4]
        0x00000da0:    4770        pG      BX       lr
    $d
        0x00000da2:    0000        ..      DCW    0
        0x00000da4:    50030000    ...P    DCD    1342373888
    $t
    i.set_pulse1_01
    set_pulse1_01
        0x00000da8:    4901        .I      LDR      r1,[pc,#4] ; [0xdb0] = 0x50030000
        0x00000daa:    7148        Hq      STRB     r0,[r1,#5]
        0x00000dac:    4770        pG      BX       lr
    $d
        0x00000dae:    0000        ..      DCW    0
        0x00000db0:    50030000    ...P    DCD    1342373888
    $t
    i.set_pulse1_10
    set_pulse1_10
        0x00000db4:    4901        .I      LDR      r1,[pc,#4] ; [0xdbc] = 0x50030000
        0x00000db6:    7188        .q      STRB     r0,[r1,#6]
        0x00000db8:    4770        pG      BX       lr
    $d
        0x00000dba:    0000        ..      DCW    0
        0x00000dbc:    50030000    ...P    DCD    1342373888
    $t
    i.set_pulse1_11
    set_pulse1_11
        0x00000dc0:    4901        .I      LDR      r1,[pc,#4] ; [0xdc8] = 0x50030000
        0x00000dc2:    71c8        .q      STRB     r0,[r1,#7]
        0x00000dc4:    4770        pG      BX       lr
    $d
        0x00000dc6:    0000        ..      DCW    0
        0x00000dc8:    50030000    ...P    DCD    1342373888
    $t
    i.triangle_Handler
    triangle_Handler
        0x00000dcc:    4770        pG      BX       lr
    i.uart_SendChar
    uart_SendChar
        0x00000dce:    6842        Bh      LDR      r2,[r0,#4]
        0x00000dd0:    07d2        ..      LSLS     r2,r2,#31
        0x00000dd2:    d1fc        ..      BNE      uart_SendChar ; 0xdce
        0x00000dd4:    6001        .`      STR      r1,[r0,#0]
        0x00000dd6:    4770        pG      BX       lr
    i.uart_init
    uart_init
        0x00000dd8:    b5f0        ..      PUSH     {r4-r7,lr}
        0x00000dda:    ad05        ..      ADD      r5,sp,#0x14
        0x00000ddc:    e89510e0    ....    LDM      r5,{r5-r7,r12}
        0x00000de0:    2400        .$      MOVS     r4,#0
        0x00000de2:    2a00        .*      CMP      r2,#0
        0x00000de4:    d000        ..      BEQ      0xde8 ; uart_init + 16
        0x00000de6:    2401        .$      MOVS     r4,#1
        0x00000de8:    b10b        ..      CBZ      r3,0xdee ; uart_init + 22
        0x00000dea:    f0440402    D...    ORR      r4,r4,#2
        0x00000dee:    b10d        ..      CBZ      r5,0xdf4 ; uart_init + 28
        0x00000df0:    f0440404    D...    ORR      r4,r4,#4
        0x00000df4:    b10e        ..      CBZ      r6,0xdfa ; uart_init + 34
        0x00000df6:    f0440408    D...    ORR      r4,r4,#8
        0x00000dfa:    b10f        ..      CBZ      r7,0xe00 ; uart_init + 40
        0x00000dfc:    f0440410    D...    ORR      r4,r4,#0x10
        0x00000e00:    f1bc0f00    ....    CMP      r12,#0
        0x00000e04:    d001        ..      BEQ      0xe0a ; uart_init + 50
        0x00000e06:    f0440420    D. .    ORR      r4,r4,#0x20
        0x00000e0a:    2200        ."      MOVS     r2,#0
        0x00000e0c:    6082        .`      STR      r2,[r0,#8]
        0x00000e0e:    6101        .a      STR      r1,[r0,#0x10]
        0x00000e10:    6084        .`      STR      r4,[r0,#8]
        0x00000e12:    6840        @h      LDR      r0,[r0,#4]
        0x00000e14:    f0100f0c    ....    TST      r0,#0xc
        0x00000e18:    d001        ..      BEQ      0xe1e ; uart_init + 70
        0x00000e1a:    2001        .       MOVS     r0,#1
        0x00000e1c:    bdf0        ..      POP      {r4-r7,pc}
        0x00000e1e:    2000        .       MOVS     r0,#0
        0x00000e20:    bdf0        ..      POP      {r4-r7,pc}
        0x00000e22:    0000        ..      MOVS     r0,r0
    i.vga_Handler
    vga_Handler
        0x00000e24:    4818        .H      LDR      r0,[pc,#96] ; [0xe88] = 0x20000001
        0x00000e26:    2200        ."      MOVS     r2,#0
        0x00000e28:    7800        .x      LDRB     r0,[r0,#0]
        0x00000e2a:    2801        .(      CMP      r0,#1
        0x00000e2c:    d00d        ..      BEQ      0xe4a ; vga_Handler + 38
        0x00000e2e:    2802        .(      CMP      r0,#2
        0x00000e30:    d10a        ..      BNE      0xe48 ; vga_Handler + 36
        0x00000e32:    4916        .I      LDR      r1,[pc,#88] ; [0xe8c] = 0x20000002
        0x00000e34:    7808        .x      LDRB     r0,[r1,#0]
        0x00000e36:    1c40        @.      ADDS     r0,r0,#1
        0x00000e38:    b2c0        ..      UXTB     r0,r0
        0x00000e3a:    7008        .p      STRB     r0,[r1,#0]
        0x00000e3c:    280a        .(      CMP      r0,#0xa
        0x00000e3e:    d103        ..      BNE      0xe48 ; vga_Handler + 36
        0x00000e40:    700a        .p      STRB     r2,[r1,#0]
        0x00000e42:    4913        .I      LDR      r1,[pc,#76] ; [0xe90] = 0x20000004
        0x00000e44:    2001        .       MOVS     r0,#1
        0x00000e46:    7008        .p      STRB     r0,[r1,#0]
        0x00000e48:    4770        pG      BX       lr
        0x00000e4a:    4812        .H      LDR      r0,[pc,#72] ; [0xe94] = 0x20000006
        0x00000e4c:    7801        .x      LDRB     r1,[r0,#0]
        0x00000e4e:    2901        .)      CMP      r1,#1
        0x00000e50:    d1fa        ..      BNE      0xe48 ; vga_Handler + 36
        0x00000e52:    4911        .I      LDR      r1,[pc,#68] ; [0xe98] = 0x50020810
        0x00000e54:    680b        .h      LDR      r3,[r1,#0]
        0x00000e56:    4910        .I      LDR      r1,[pc,#64] ; [0xe98] = 0x50020810
        0x00000e58:    3108        .1      ADDS     r1,r1,#8
        0x00000e5a:    2b09        .+      CMP      r3,#9
        0x00000e5c:    d101        ..      BNE      0xe62 ; vga_Handler + 62
        0x00000e5e:    680b        .h      LDR      r3,[r1,#0]
        0x00000e60:    b163        c.      CBZ      r3,0xe7c ; vga_Handler + 88
        0x00000e62:    2202        ."      MOVS     r2,#2
        0x00000e64:    7002        .p      STRB     r2,[r0,#0]
        0x00000e66:    480d        .H      LDR      r0,[pc,#52] ; [0xe9c] = 0x20000678
        0x00000e68:    7900        .y      LDRB     r0,[r0,#4]
        0x00000e6a:    b110        ..      CBZ      r0,0xe72 ; vga_Handler + 78
        0x00000e6c:    6808        .h      LDR      r0,[r1,#0]
        0x00000e6e:    2800        .(      CMP      r0,#0
        0x00000e70:    d1ea        ..      BNE      0xe48 ; vga_Handler + 36
        0x00000e72:    480b        .H      LDR      r0,[pc,#44] ; [0xea0] = 0x20000010
        0x00000e74:    7801        .x      LDRB     r1,[r0,#0]
        0x00000e76:    1c49        I.      ADDS     r1,r1,#1
        0x00000e78:    7001        .p      STRB     r1,[r0,#0]
        0x00000e7a:    4770        pG      BX       lr
        0x00000e7c:    2303        .#      MOVS     r3,#3
        0x00000e7e:    7003        .p      STRB     r3,[r0,#0]
        0x00000e80:    4805        .H      LDR      r0,[pc,#20] ; [0xe98] = 0x50020810
        0x00000e82:    3810        .8      SUBS     r0,r0,#0x10
        0x00000e84:    6002        .`      STR      r2,[r0,#0]
        0x00000e86:    e7ee        ..      B        0xe66 ; vga_Handler + 66
    $d
        0x00000e88:    20000001    ...     DCD    536870913
        0x00000e8c:    20000002    ...     DCD    536870914
        0x00000e90:    20000004    ...     DCD    536870916
        0x00000e94:    20000006    ...     DCD    536870918
        0x00000e98:    50020810    ...P    DCD    1342310416
        0x00000e9c:    20000678    x..     DCD    536872568
        0x00000ea0:    20000010    ...     DCD    536870928
    $d.realdata
    .constdata
    S_GREY_NUMMAX
        0x00000ea4:    0c          .       DCB    12
    .constdata
    S_GREEN_NUMMAX
        0x00000ea5:    08          .       DCB    8
    .constdata
    M_STRAIGHT_NUMMAX
        0x00000ea6:    03          .       DCB    3
    .constdata
    B_GREEN_NUMMAX
        0x00000ea7:    01          .       DCB    1
    Region$$Table$$Base
        0x00000ea8:    00000ec8    ....    DCD    3784
        0x00000eac:    20000000    ...     DCD    536870912
        0x00000eb0:    00000678    x...    DCD    1656
        0x00000eb4:    000001cc    ....    DCD    460
        0x00000eb8:    00000ff8    ....    DCD    4088
        0x00000ebc:    20000678    x..     DCD    536872568
        0x00000ec0:    00000bf0    ....    DCD    3056
        0x00000ec4:    000002f4    ....    DCD    756
    Region$$Table$$Limit

====================================

** Section #2

    Name        : RW_IRAM1
    Type        : SHT_PROGBITS (0x00000001)
    Flags       : SHF_ALLOC + SHF_WRITE (0x00000003)
    Addr        : 0x20000000
    File Offset : 3836 (0xefc)
    Size        : 304 bytes (0x130)
    Link        : SHN_UNDEF
    Info        : 0
    Alignment   : 4
    Entry Size  : 0


====================================

** Section #3

    Name        : RW_IRAM1
    Type        : SHT_NOBITS (0x00000008)
    Flags       : SHF_ALLOC + SHF_WRITE (0x00000003)
    Addr        : 0x20000678
    File Offset : 4140 (0x102c)
    Size        : 3056 bytes (0xbf0)
    Link        : SHN_UNDEF
    Info        : 0
    Alignment   : 8
    Entry Size  : 0


====================================

** Section #4

    Name        : .debug_abbrev
    Type        : SHT_PROGBITS (0x00000001)
    Flags       : None (0x00000000)
    Addr        : 0x00000000
    File Offset : 4140 (0x102c)
    Size        : 1476 bytes (0x5c4)
    Link        : SHN_UNDEF
    Info        : 0
    Alignment   : 1
    Entry Size  : 0


====================================

** Section #5

    Name        : .debug_frame
    Type        : SHT_PROGBITS (0x00000001)
    Flags       : None (0x00000000)
    Addr        : 0x00000000
    File Offset : 5616 (0x15f0)
    Size        : 2600 bytes (0xa28)
    Link        : SHN_UNDEF
    Info        : 0
    Alignment   : 1
    Entry Size  : 0


====================================

** Section #6

    Name        : .debug_info
    Type        : SHT_PROGBITS (0x00000001)
    Flags       : None (0x00000000)
    Addr        : 0x00000000
    File Offset : 8216 (0x2018)
    Size        : 27584 bytes (0x6bc0)
    Link        : SHN_UNDEF
    Info        : 0
    Alignment   : 1
    Entry Size  : 0


====================================

** Section #7

    Name        : .debug_line
    Type        : SHT_PROGBITS (0x00000001)
    Flags       : None (0x00000000)
    Addr        : 0x00000000
    File Offset : 35800 (0x8bd8)
    Size        : 8572 bytes (0x217c)
    Link        : SHN_UNDEF
    Info        : 0
    Alignment   : 1
    Entry Size  : 0


====================================

** Section #8

    Name        : .debug_loc
    Type        : SHT_PROGBITS (0x00000001)
    Flags       : None (0x00000000)
    Addr        : 0x00000000
    File Offset : 44372 (0xad54)
    Size        : 3332 bytes (0xd04)
    Link        : SHN_UNDEF
    Info        : 0
    Alignment   : 1
    Entry Size  : 0


====================================

** Section #9

    Name        : .debug_macinfo
    Type        : SHT_PROGBITS (0x00000001)
    Flags       : None (0x00000000)
    Addr        : 0x00000000
    File Offset : 47704 (0xba58)
    Size        : 24044 bytes (0x5dec)
    Link        : SHN_UNDEF
    Info        : 0
    Alignment   : 1
    Entry Size  : 0


====================================

** Section #10

    Name        : .debug_pubnames
    Type        : SHT_PROGBITS (0x00000001)
    Flags       : None (0x00000000)
    Addr        : 0x00000000
    File Offset : 71748 (0x11844)
    Size        : 3981 bytes (0xf8d)
    Link        : SHN_UNDEF
    Info        : 0
    Alignment   : 1
    Entry Size  : 0


====================================

** Section #11

    Name        : .symtab
    Type        : SHT_SYMTAB (0x00000002)
    Flags       : None (0x00000000)
    Addr        : 0x00000000
    File Offset : 75732 (0x127d4)
    Size        : 6896 bytes (0x1af0)
    Link        : Section 12 (.strtab)
    Info        : Last local symbol no = 227
    Alignment   : 4
    Entry Size  : 16


====================================

** Section #12

    Name        : .strtab
    Type        : SHT_STRTAB (0x00000003)
    Flags       : None (0x00000000)
    Addr        : 0x00000000
    File Offset : 82628 (0x142c4)
    Size        : 5692 bytes (0x163c)
    Link        : SHN_UNDEF
    Info        : 0
    Alignment   : 1
    Entry Size  : 0


====================================

** Section #13

    Name        : .note
    Type        : SHT_NOTE (0x00000007)
    Flags       : None (0x00000000)
    Addr        : 0x00000000
    File Offset : 88320 (0x15900)
    Size        : 28 bytes (0x1c)
    Link        : SHN_UNDEF
    Info        : 0
    Alignment   : 4
    Entry Size  : 0

        Section     Segment
    ====================================

              1           0
              2           0
              3           0

====================================

** Section #14

    Name        : .comment
    Type        : SHT_PROGBITS (0x00000001)
    Flags       : None (0x00000000)
    Addr        : 0x00000000
    File Offset : 88348 (0x1591c)
    Size        : 15212 bytes (0x3b6c)
    Link        : SHN_UNDEF
    Info        : 0
    Alignment   : 1
    Entry Size  : 0

    Component: ARM Compiler 5.06 update 6 (build 750) Tool: armlink [4d35ed]
    ArmLink --strict --library_type=microlib --callgraph --load_addr_map_info --map --symbols --xref --diag_suppress=9931 --cpu=Cortex-M3 --list=.\cm3.map --output=.\Objects\cm3.axf --scatter=.\Objects\cm3.sct --info=summarysizes,sizes,totals,unused,veneers

    D:\Program Files\Keil_V5\ARM\ARMCC\Bin\..\lib\armlib\h_w.l
    D:\Program Files\Keil_V5\ARM\ARMCC\Bin\..\lib\armlib\m_ws.l
    D:\Program Files\Keil_V5\ARM\ARMCC\Bin\..\lib\armlib\mc_w.l
    D:\Program Files\Keil_V5\ARM\ARMCC\Bin\..\lib\armlib\mf_w.l
    D:\Program Files\Keil_V5\ARM\ARMCC\Bin\..\lib\armlib\vfpsupport.l
    Input Comments:
    
    main.o
    
    Component: ARM Compiler 5.06 update 6 (build 750) Tool: armlink [4d35ed]
    armlink --partial --no_add_relocs_to_undefined --no_generate_mapping_symbols --diag_suppress=9931,9931,6642 --cpu=Cortex-M3 --fpu=SoftVFP --output=.\objects\main.o --vfemode=force

    Input Comments:
    
    p558c-3
    
    Component: ARM Compiler 5.06 update 6 (build 750) Tool: armasm [4d35ec]
    armasm --debug --diag_suppress=9931,9931,1602,1073 --cpu=Cortex-M3 --fpu=SoftVFP --apcs=/interwork/interwork --divide 
    main.o
    
    Component: ARM Compiler 5.06 update 6 (build 750) Tool: ArmCC [4d3637]
    ArmCC --c99 --split_sections --debug -c --gnu -o.\objects\main.o --depend=.\objects\main.d --cpu=Cortex-M3 --apcs=interwork -O1 --diag_suppress=9931 -I..\CORE -I..\DEVICE -I..\MY_GAME -I.\RTE\_Target_1 -I"D:\Program Files\Keil_V5\Arm\Packs\Keil\V2M-MPS2_CMx_BSP\1.7.1\Device\CMSDK_CM3\Include" -I"D:\Program Files\Keil_V5\ARM\CMSIS\Include" -D__MICROLIB -D__UVISION_VERSION=528 -DCMSDK_CM3 --omf_browse=.\objects\main.crf main.c
    
    
    startup_cm3ds.o
    
    Component: ARM Compiler 5.06 update 6 (build 750) Tool: armasm [4d35ec]
    ArmAsm --debug --xref --diag_suppress=9931 --cpu=Cortex-M3 --apcs=interwork --depend=.\objects\startup_cm3ds.d  -I.\RTE\_Target_1 -I"D:\Program Files\Keil_V5\Arm\Packs\Keil\V2M-MPS2_CMx_BSP\1.7.1\Device\CMSDK_CM3\Include" -I"D:\Program
    
    
    handler.o
    
    Component: ARM Compiler 5.06 update 6 (build 750) Tool: armlink [4d35ed]
    armlink --partial --no_add_relocs_to_undefined --no_generate_mapping_symbols --diag_suppress=9931,9931,6642 --cpu=Cortex-M3 --fpu=SoftVFP --output=.\objects\handler.o --vfemode=force

    Input Comments:
    
    p664c-3
    
    Component: ARM Compiler 5.06 update 6 (build 750) Tool: armasm [4d35ec]
    armasm --debug --diag_suppress=9931,9931,1602,1073 --cpu=Cortex-M3 --fpu=SoftVFP --apcs=/interwork/interwork --divide 
    handler.o
    
    Component: ARM Compiler 5.06 update 6 (build 750) Tool: ArmCC [4d3637]
    ArmCC --c99 --split_sections --debug -c --gnu -o.\objects\handler.o --depend=.\objects\handler.d --cpu=Cortex-M3 --apcs=interwork -O1 --diag_suppress=9931 -I..\CORE -I..\DEVICE -I..\MY_GAME -I.\RTE\_Target_1 -I"D:\Program Files\Keil_V5\Arm\Packs\Keil\V2M-MPS2_CMx_BSP\1.7.1\Device\CMSDK_CM3\Include" -I"D:\Program Files\Keil_V5\ARM\CMSIS\Include" -D__MICROLIB -D__UVISION_VERSION=528 -DCMSDK_CM3 --omf_browse=.\objects\handler.crf ..\CORE\handler.c
    
    
    
    
    system.o
    
    Component: ARM Compiler 5.06 update 6 (build 750) Tool: armlink [4d35ed]
    armlink --partial --no_add_relocs_to_undefined --no_generate_mapping_symbols --diag_suppress=9931,9931,6642 --cpu=Cortex-M3 --fpu=SoftVFP --output=.\objects\system.o --vfemode=force

    Input Comments:
    
    p83a8-3
    
    Component: ARM Compiler 5.06 update 6 (build 750) Tool: armasm [4d35ec]
    armasm --debug --diag_suppress=9931,9931,1602,1073 --cpu=Cortex-M3 --fpu=SoftVFP --apcs=/interwork/interwork --divide 
    system.o
    
    Component: ARM Compiler 5.06 update 6 (build 750) Tool: ArmCC [4d3637]
    ArmCC --c99 --split_sections --debug -c --gnu -o.\objects\system.o --depend=.\objects\system.d --cpu=Cortex-M3 --apcs=interwork -O1 --diag_suppress=9931 -I..\CORE -I..\DEVICE -I..\MY_GAME -I.\RTE\_Target_1 -I"D:\Program Files\Keil_V5\Arm\Packs\Keil\V2M-MPS2_CMx_BSP\1.7.1\Device\CMSDK_CM3\Include" -I"D:\Program Files\Keil_V5\ARM\CMSIS\Include" -D__MICROLIB -D__UVISION_VERSION=528 -DCMSDK_CM3 --omf_browse=.\objects\system.crf ..\CORE\system.c
    
    
    retarget.o
    
    Component: ARM Compiler 5.06 update 6 (build 750) Tool: ArmCC [4d3637]
    ArmCC --c99 --split_sections --debug -c --gnu -o.\objects\retarget.o --depend=.\objects\retarget.d --cpu=Cortex-M3 --apcs=interwork -O1 --diag_suppress=9931 -I..\CORE -I..\DEVICE -I..\MY_GAME -I.\RTE\_Target_1 -I"D:\Program Files\Keil_V5\Arm\Packs\Keil\V2M-MPS2_CMx_BSP\1.7.1\Device\CMSDK_CM3\Include" -I"D:\Program Files\Keil_V5\ARM\CMSIS\Include" -D__MICROLIB -D__UVISION_VERSION=528 -DCMSDK_CM3 --omf_browse=.\objects\retarget.crf ..\DEVICE\Retarget.c
    
    lcd.o
    
    Component: ARM Compiler 5.06 update 6 (build 750) Tool: ArmCC [4d3637]
    ArmCC --c99 --split_sections --debug -c --gnu -o.\objects\lcd.o --depend=.\objects\lcd.d --cpu=Cortex-M3 --apcs=interwork -O1 --diag_suppress=9931 -I..\CORE -I..\DEVICE -I..\MY_GAME -I.\RTE\_Target_1 -I"D:\Program Files\Keil_V5\Arm\Packs\Keil\V2M-MPS2_CMx_BSP\1.7.1\Device\CMSDK_CM3\Include" -I"D:\Program Files\Keil_V5\ARM\CMSIS\Include" -D__MICROLIB -D__UVISION_VERSION=528 -DCMSDK_CM3 --omf_browse=.\objects\lcd.crf ..\DEVICE\lcd.c
    
    uart.o
    
    Component: ARM Compiler 5.06 update 6 (build 750) Tool: ArmCC [4d3637]
    ArmCC --c99 --split_sections --debug -c --gnu -o.\objects\uart.o --depend=.\objects\uart.d --cpu=Cortex-M3 --apcs=interwork -O1 --diag_suppress=9931 -I..\CORE -I..\DEVICE -I..\MY_GAME -I.\RTE\_Target_1 -I"D:\Program Files\Keil_V5\Arm\Packs\Keil\V2M-MPS2_CMx_BSP\1.7.1\Device\CMSDK_CM3\Include" -I"D:\Program Files\Keil_V5\ARM\CMSIS\Include" -D__MICROLIB -D__UVISION_VERSION=528 -DCMSDK_CM3 --omf_browse=.\objects\uart.crf ..\DEVICE\uart.c
    
    systick.o
    
    Component: ARM Compiler 5.06 update 6 (build 750) Tool: armlink [4d35ed]
    armlink --partial --no_add_relocs_to_undefined --no_generate_mapping_symbols --diag_suppress=9931,9931,6642 --cpu=Cortex-M3 --fpu=SoftVFP --output=.\objects\systick.o --vfemode=force

    Input Comments:
    
    p8114-3
    
    Component: ARM Compiler 5.06 update 6 (build 750) Tool: armasm [4d35ec]
    armasm --debug --diag_suppress=9931,9931,1602,1073 --cpu=Cortex-M3 --fpu=SoftVFP --apcs=/interwork/interwork --divide 
    systick.o
    
    Component: ARM Compiler 5.06 update 6 (build 750) Tool: ArmCC [4d3637]
    ArmCC --c99 --split_sections --debug -c --gnu -o.\objects\systick.o --depend=.\objects\systick.d --cpu=Cortex-M3 --apcs=interwork -O1 --diag_suppress=9931 -I..\CORE -I..\DEVICE -I..\MY_GAME -I.\RTE\_Target_1 -I"D:\Program Files\Keil_V5\Arm\Packs\Keil\V2M-MPS2_CMx_BSP\1.7.1\Device\CMSDK_CM3\Include" -I"D:\Program Files\Keil_V5\ARM\CMSIS\Include" -D__MICROLIB -D__UVISION_VERSION=528 -DCMSDK_CM3 --omf_browse=.\objects\systick.crf ..\DEVICE\systick.c
    
    
    led.o
    
    Component: ARM Compiler 5.06 update 6 (build 750) Tool: ArmCC [4d3637]
    ArmCC --c99 --split_sections --debug -c --gnu -o.\objects\led.o --depend=.\objects\led.d --cpu=Cortex-M3 --apcs=interwork -O1 --diag_suppress=9931 -I..\CORE -I..\DEVICE -I..\MY_GAME -I.\RTE\_Target_1 -I"D:\Program Files\Keil_V5\Arm\Packs\Keil\V2M-MPS2_CMx_BSP\1.7.1\Device\CMSDK_CM3\Include" -I"D:\Program Files\Keil_V5\ARM\CMSIS\Include" -D__MICROLIB -D__UVISION_VERSION=528 -DCMSDK_CM3 --omf_browse=.\objects\led.crf ..\DEVICE\led.c
    
    malloc.o
    
    Component: ARM Compiler 5.06 update 6 (build 750) Tool: ArmCC [4d3637]
    ArmCC --c99 --split_sections --debug -c --gnu -o.\objects\malloc.o --depend=.\objects\malloc.d --cpu=Cortex-M3 --apcs=interwork -O1 --diag_suppress=9931 -I..\CORE -I..\DEVICE -I..\MY_GAME -I.\RTE\_Target_1 -I"D:\Program Files\Keil_V5\Arm\Packs\Keil\V2M-MPS2_CMx_BSP\1.7.1\Device\CMSDK_CM3\Include" -I"D:\Program Files\Keil_V5\ARM\CMSIS\Include" -D__MICROLIB -D__UVISION_VERSION=528 -DCMSDK_CM3 --omf_browse=.\objects\malloc.crf ..\DEVICE\malloc.c
    
    spi_flash.o
    
    Component: ARM Compiler 5.06 update 6 (build 750) Tool: ArmCC [4d3637]
    ArmCC --c99 --split_sections --debug -c --gnu -o.\objects\spi_flash.o --depend=.\objects\spi_flash.d --cpu=Cortex-M3 --apcs=interwork -O1 --diag_suppress=9931 -I..\CORE -I..\DEVICE -I..\MY_GAME -I.\RTE\_Target_1 -I"D:\Program Files\Keil_V5\Arm\Packs\Keil\V2M-MPS2_CMx_BSP\1.7.1\Device\CMSDK_CM3\Include" -I"D:\Program Files\Keil_V5\ARM\CMSIS\Include" -D__MICROLIB -D__UVISION_VERSION=528 -DCMSDK_CM3 --omf_browse=.\objects\spi_flash.crf ..\DEVICE\spi_flash.c
    
    apu.o
    
    Component: ARM Compiler 5.06 update 6 (build 750) Tool: ArmCC [4d3637]
    ArmCC --c99 --split_sections --debug -c --gnu -o.\objects\apu.o --depend=.\objects\apu.d --cpu=Cortex-M3 --apcs=interwork -O1 --diag_suppress=9931 -I..\CORE -I..\DEVICE -I..\MY_GAME -I.\RTE\_Target_1 -I"D:\Program Files\Keil_V5\Arm\Packs\Keil\V2M-MPS2_CMx_BSP\1.7.1\Device\CMSDK_CM3\Include" -I"D:\Program Files\Keil_V5\ARM\CMSIS\Include" -D__MICROLIB -D__UVISION_VERSION=528 -DCMSDK_CM3 --omf_browse=.\objects\apu.crf ..\DEVICE\apu.c
    
    pstwo.o
    
    Component: ARM Compiler 5.06 update 6 (build 750) Tool: ArmCC [4d3637]
    ArmCC --c99 --split_sections --debug -c --gnu -o.\objects\pstwo.o --depend=.\objects\pstwo.d --cpu=Cortex-M3 --apcs=interwork -O1 --diag_suppress=9931 -I..\CORE -I..\DEVICE -I..\MY_GAME -I.\RTE\_Target_1 -I"D:\Program Files\Keil_V5\Arm\Packs\Keil\V2M-MPS2_CMx_BSP\1.7.1\Device\CMSDK_CM3\Include" -I"D:\Program Files\Keil_V5\ARM\CMSIS\Include" -D__MICROLIB -D__UVISION_VERSION=528 -DCMSDK_CM3 --omf_browse=.\objects\pstwo.crf ..\DEVICE\pstwo.c
    
    spriteram.o
    
    Component: ARM Compiler 5.06 update 6 (build 750) Tool: ArmCC [4d3637]
    ArmCC --c99 --split_sections --debug -c --gnu -o.\objects\spriteram.o --depend=.\objects\spriteram.d --cpu=Cortex-M3 --apcs=interwork -O1 --diag_suppress=9931 -I..\CORE -I..\DEVICE -I..\MY_GAME -I.\RTE\_Target_1 -I"D:\Program Files\Keil_V5\Arm\Packs\Keil\V2M-MPS2_CMx_BSP\1.7.1\Device\CMSDK_CM3\Include" -I"D:\Program Files\Keil_V5\ARM\CMSIS\Include" -D__MICROLIB -D__UVISION_VERSION=528 -DCMSDK_CM3 --omf_browse=.\objects\spriteram.crf ..\DEVICE\spriteRam.c
    
    jy61p.o
    
    Component: ARM Compiler 5.06 update 6 (build 750) Tool: ArmCC [4d3637]
    ArmCC --c99 --split_sections --debug -c --gnu -o.\objects\jy61p.o --depend=.\objects\jy61p.d --cpu=Cortex-M3 --apcs=interwork -O1 --diag_suppress=9931 -I..\CORE -I..\DEVICE -I..\MY_GAME -I.\RTE\_Target_1 -I"D:\Program Files\Keil_V5\Arm\Packs\Keil\V2M-MPS2_CMx_BSP\1.7.1\Device\CMSDK_CM3\Include" -I"D:\Program Files\Keil_V5\ARM\CMSIS\Include" -D__MICROLIB -D__UVISION_VERSION=528 -DCMSDK_CM3 --omf_browse=.\objects\jy61p.crf ..\DEVICE\jy61p.c
    
    cnn.o
    
    Component: ARM Compiler 5.06 update 6 (build 750) Tool: ArmCC [4d3637]
    ArmCC --c99 --split_sections --debug -c --gnu -o.\objects\cnn.o --depend=.\objects\cnn.d --cpu=Cortex-M3 --apcs=interwork -O1 --diag_suppress=9931 -I..\CORE -I..\DEVICE -I..\MY_GAME -I.\RTE\_Target_1 -I"D:\Program Files\Keil_V5\Arm\Packs\Keil\V2M-MPS2_CMx_BSP\1.7.1\Device\CMSDK_CM3\Include" -I"D:\Program Files\Keil_V5\ARM\CMSIS\Include" -D__MICROLIB -D__UVISION_VERSION=528 -DCMSDK_CM3 --omf_browse=.\objects\cnn.crf ..\DEVICE\cnn.c
    
    boom.o
    
    Component: ARM Compiler 5.06 update 6 (build 750) Tool: ArmCC [4d3637]
    ArmCC --c99 --split_sections --debug -c --gnu -o.\objects\boom.o --depend=.\objects\boom.d --cpu=Cortex-M3 --apcs=interwork -O1 --diag_suppress=9931 -I..\CORE -I..\DEVICE -I..\MY_GAME -I.\RTE\_Target_1 -I"D:\Program Files\Keil_V5\Arm\Packs\Keil\V2M-MPS2_CMx_BSP\1.7.1\Device\CMSDK_CM3\Include" -I"D:\Program Files\Keil_V5\ARM\CMSIS\Include" -D__MICROLIB -D__UVISION_VERSION=528 -DCMSDK_CM3 --omf_browse=.\objects\boom.crf ..\MY_GAME\boom.c
    
    enemybullet.o
    
    Component: ARM Compiler 5.06 update 6 (build 750) Tool: ArmCC [4d3637]
    ArmCC --c99 --split_sections --debug -c --gnu -o.\objects\enemybullet.o --depend=.\objects\enemybullet.d --cpu=Cortex-M3 --apcs=interwork -O1 --diag_suppress=9931 -I..\CORE -I..\DEVICE -I..\MY_GAME -I.\RTE\_Target_1 -I"D:\Program Files\Keil_V5\Arm\Packs\Keil\V2M-MPS2_CMx_BSP\1.7.1\Device\CMSDK_CM3\Include" -I"D:\Program Files\Keil_V5\ARM\CMSIS\Include" -D__MICROLIB -D__UVISION_VERSION=528 -DCMSDK_CM3 --omf_browse=.\objects\enemybullet.crf ..\MY_GAME\enemyBullet.c
    
    enemyplane.o
    
    Component: ARM Compiler 5.06 update 6 (build 750) Tool: ArmCC [4d3637]
    ArmCC --c99 --split_sections --debug -c --gnu -o.\objects\enemyplane.o --depend=.\objects\enemyplane.d --cpu=Cortex-M3 --apcs=interwork -O1 --diag_suppress=9931 -I..\CORE -I..\DEVICE -I..\MY_GAME -I.\RTE\_Target_1 -I"D:\Program Files\Keil_V5\Arm\Packs\Keil\V2M-MPS2_CMx_BSP\1.7.1\Device\CMSDK_CM3\Include" -I"D:\Program Files\Keil_V5\ARM\CMSIS\Include" -D__MICROLIB -D__UVISION_VERSION=528 -DCMSDK_CM3 --omf_browse=.\objects\enemyplane.crf ..\MY_GAME\enemyPlane.c
    
    gamehitcheck.o
    
    Component: ARM Compiler 5.06 update 6 (build 750) Tool: ArmCC [4d3637]
    ArmCC --c99 --split_sections --debug -c --gnu -o.\objects\gamehitcheck.o --depend=.\objects\gamehitcheck.d --cpu=Cortex-M3 --apcs=interwork -O1 --diag_suppress=9931 -I..\CORE -I..\DEVICE -I..\MY_GAME -I.\RTE\_Target_1 -I"D:\Program Files\Keil_V5\Arm\Packs\Keil\V2M-MPS2_CMx_BSP\1.7.1\Device\CMSDK_CM3\Include" -I"D:\Program Files\Keil_V5\ARM\CMSIS\Include" -D__MICROLIB -D__UVISION_VERSION=528 -DCMSDK_CM3 --omf_browse=.\objects\gamehitcheck.crf ..\MY_GAME\gameHitCheck.c
    
    gameinterface.o
    
    Component: ARM Compiler 5.06 update 6 (build 750) Tool: ArmCC [4d3637]
    ArmCC --c99 --split_sections --debug -c --gnu -o.\objects\gameinterface.o --depend=.\objects\gameinterface.d --cpu=Cortex-M3 --apcs=interwork -O1 --diag_suppress=9931 -I..\CORE -I..\DEVICE -I..\MY_GAME -I.\RTE\_Target_1 -I"D:\Program Files\Keil_V5\Arm\Packs\Keil\V2M-MPS2_CMx_BSP\1.7.1\Device\CMSDK_CM3\Include" -I"D:\Program Files\Keil_V5\ARM\CMSIS\Include" -D__MICROLIB -D__UVISION_VERSION=528 -DCMSDK_CM3 --omf_browse=.\objects\gameinterface.crf ..\MY_GAME\gameInterFace.c
    
    makeenemyplanearray.o
    
    Component: ARM Compiler 5.06 update 6 (build 750) Tool: ArmCC [4d3637]
    ArmCC --c99 --split_sections --debug -c --gnu -o.\objects\makeenemyplanearray.o --depend=.\objects\makeenemyplanearray.d --cpu=Cortex-M3 --apcs=interwork -O1 --diag_suppress=9931 -I..\CORE -I..\DEVICE -I..\MY_GAME -I.\RTE\_Target_1 -I"D:\Program Files\Keil_V5\Arm\Packs\Keil\V2M-MPS2_CMx_BSP\1.7.1\Device\CMSDK_CM3\Include" -I"D:\Program Files\Keil_V5\ARM\CMSIS\Include" -D__MICROLIB -D__UVISION_VERSION=528 -DCMSDK_CM3 --omf_browse=.\objects\makeenemyplanearray.crf ..\MY_GAME\makeEnemyPlaneArray.c
    
    makemap.o
    
    Component: ARM Compiler 5.06 update 6 (build 750) Tool: ArmCC [4d3637]
    ArmCC --c99 --split_sections --debug -c --gnu -o.\objects\makemap.o --depend=.\objects\makemap.d --cpu=Cortex-M3 --apcs=interwork -O1 --diag_suppress=9931 -I..\CORE -I..\DEVICE -I..\MY_GAME -I.\RTE\_Target_1 -I"D:\Program Files\Keil_V5\Arm\Packs\Keil\V2M-MPS2_CMx_BSP\1.7.1\Device\CMSDK_CM3\Include" -I"D:\Program Files\Keil_V5\ARM\CMSIS\Include" -D__MICROLIB -D__UVISION_VERSION=528 -DCMSDK_CM3 --omf_browse=.\objects\makemap.crf ..\MY_GAME\makeMap.c
    
    myplane.o
    
    Component: ARM Compiler 5.06 update 6 (build 750) Tool: ArmCC [4d3637]
    ArmCC --c99 --split_sections --debug -c --gnu -o.\objects\myplane.o --depend=.\objects\myplane.d --cpu=Cortex-M3 --apcs=interwork -O1 --diag_suppress=9931 -I..\CORE -I..\DEVICE -I..\MY_GAME -I.\RTE\_Target_1 -I"D:\Program Files\Keil_V5\Arm\Packs\Keil\V2M-MPS2_CMx_BSP\1.7.1\Device\CMSDK_CM3\Include" -I"D:\Program Files\Keil_V5\ARM\CMSIS\Include" -D__MICROLIB -D__UVISION_VERSION=528 -DCMSDK_CM3 --omf_browse=.\objects\myplane.crf ..\MY_GAME\myPlane.c
    
    

====================================

** Section #15

    Name        : .shstrtab
    Type        : SHT_STRTAB (0x00000003)
    Flags       : None (0x00000000)
    Addr        : 0x00000000
    File Offset : 103560 (0x19488)
    Size        : 156 bytes (0x9c)
    Link        : SHN_UNDEF
    Info        : 0
    Alignment   : 1
    Entry Size  : 0


====================================

